
main:     file format elf32-bigmips


Disassembly of section .text:

00000000 <_start>:
       0:	241dffff 	li	sp,-1
       4:	3c028000 	lui	v0,0x8000
       8:	8c4207b4 	lw	v0,1972(v0)
       c:	00000000 	nop
      10:	0040f809 	jalr	v0
      14:	00000000 	nop
      18:	0c00182e 	jal	60b8 <main>
      1c:	00000000 	nop

00000020 <Control::MARG::start()>:
      20:	27bdfe00 	addiu	sp,sp,-512
      24:	afbf01fc 	sw	ra,508(sp)
      28:	afbe01f8 	sw	s8,504(sp)
      2c:	afb701f4 	sw	s7,500(sp)
      30:	afb601f0 	sw	s6,496(sp)
      34:	afb501ec 	sw	s5,492(sp)
      38:	afb401e8 	sw	s4,488(sp)
      3c:	afb301e4 	sw	s3,484(sp)
      40:	afb201e0 	sw	s2,480(sp)
      44:	afb101dc 	sw	s1,476(sp)
      48:	afb001d8 	sw	s0,472(sp)
      4c:	0c00099d 	jal	2674 <System::Bus::I2C::start()>
      50:	00809821 	move	s3,a0
      54:	0c00097f 	jal	25fc <System::Bus::I2C::write(unsigned char)>
      58:	240400d0 	li	a0,208
      5c:	0c00097f 	jal	25fc <System::Bus::I2C::write(unsigned char)>
      60:	2404003b 	li	a0,59
      64:	0c000994 	jal	2650 <System::Bus::I2C::stop()>
      68:	00000000 	nop
      6c:	0c00099d 	jal	2674 <System::Bus::I2C::start()>
      70:	00000000 	nop
      74:	0c00097f 	jal	25fc <System::Bus::I2C::write(unsigned char)>
      78:	240400d1 	li	a0,209
      7c:	0c00098a 	jal	2628 <System::Bus::I2C::read()>
      80:	00000000 	nop
      84:	0c00098a 	jal	2628 <System::Bus::I2C::read()>
      88:	afa201cc 	sw	v0,460(sp)
      8c:	0c00098a 	jal	2628 <System::Bus::I2C::read()>
      90:	0040b821 	move	s7,v0
      94:	0c00098a 	jal	2628 <System::Bus::I2C::read()>
      98:	afa201c8 	sw	v0,456(sp)
      9c:	0c00098a 	jal	2628 <System::Bus::I2C::read()>
      a0:	0040b021 	move	s6,v0
      a4:	0c00098a 	jal	2628 <System::Bus::I2C::read()>
      a8:	afa201c4 	sw	v0,452(sp)
      ac:	0c00098a 	jal	2628 <System::Bus::I2C::read()>
      b0:	0040a821 	move	s5,v0
      b4:	0c00098a 	jal	2628 <System::Bus::I2C::read()>
      b8:	0040f021 	move	s8,v0
      bc:	0c00098a 	jal	2628 <System::Bus::I2C::read()>
      c0:	00408021 	move	s0,v0
      c4:	0c00098a 	jal	2628 <System::Bus::I2C::read()>
      c8:	afa201c0 	sw	v0,448(sp)
      cc:	0c00098a 	jal	2628 <System::Bus::I2C::read()>
      d0:	0040a021 	move	s4,v0
      d4:	0c00098a 	jal	2628 <System::Bus::I2C::read()>
      d8:	afa201d0 	sw	v0,464(sp)
      dc:	0c00098a 	jal	2628 <System::Bus::I2C::read()>
      e0:	00409021 	move	s2,v0
      e4:	240400ff 	li	a0,255
      e8:	0c00097f 	jal	25fc <System::Bus::I2C::write(unsigned char)>
      ec:	00408821 	move	s1,v0
      f0:	0c000994 	jal	2650 <System::Bus::I2C::stop()>
      f4:	afa201bc 	sw	v0,444(sp)
      f8:	8fa801cc 	lw	t0,460(sp)
      fc:	8fa201bc 	lw	v0,444(sp)
     100:	00084200 	sll	t0,t0,0x8
     104:	0117b825 	or	s7,t0,s7
     108:	32e4ffff 	andi	a0,s7,0xffff
     10c:	000423c3 	sra	a0,a0,0xf
     110:	8fa301d0 	lw	v1,464(sp)
     114:	8fa501c0 	lw	a1,448(sp)
     118:	8fa601c4 	lw	a2,452(sp)
     11c:	8fa701c8 	lw	a3,456(sp)
     120:	10800002 	beqz	a0,12c <Control::MARG::start()+0x10c>
     124:	3c04ffff 	lui	a0,0xffff
     128:	02e4b825 	or	s7,s7,a0
     12c:	00073a00 	sll	a3,a3,0x8
     130:	00f6b025 	or	s6,a3,s6
     134:	32c4ffff 	andi	a0,s6,0xffff
     138:	000423c3 	sra	a0,a0,0xf
     13c:	10800002 	beqz	a0,148 <Control::MARG::start()+0x128>
     140:	3c04ffff 	lui	a0,0xffff
     144:	02c4b025 	or	s6,s6,a0
     148:	00063200 	sll	a2,a2,0x8
     14c:	00d5a825 	or	s5,a2,s5
     150:	32a4ffff 	andi	a0,s5,0xffff
     154:	000423c3 	sra	a0,a0,0xf
     158:	10800002 	beqz	a0,164 <Control::MARG::start()+0x144>
     15c:	3c04ffff 	lui	a0,0xffff
     160:	02a4a825 	or	s5,s5,a0
     164:	00052a00 	sll	a1,a1,0x8
     168:	00b4a025 	or	s4,a1,s4
     16c:	3284ffff 	andi	a0,s4,0xffff
     170:	000423c3 	sra	a0,a0,0xf
     174:	10800002 	beqz	a0,180 <Control::MARG::start()+0x160>
     178:	3c04ffff 	lui	a0,0xffff
     17c:	0284a025 	or	s4,s4,a0
     180:	00031a00 	sll	v1,v1,0x8
     184:	00729025 	or	s2,v1,s2
     188:	3243ffff 	andi	v1,s2,0xffff
     18c:	00031bc3 	sra	v1,v1,0xf
     190:	10600002 	beqz	v1,19c <Control::MARG::start()+0x17c>
     194:	3c03ffff 	lui	v1,0xffff
     198:	02439025 	or	s2,s2,v1
     19c:	00118a00 	sll	s1,s1,0x8
     1a0:	02228825 	or	s1,s1,v0
     1a4:	3222ffff 	andi	v0,s1,0xffff
     1a8:	000213c3 	sra	v0,v0,0xf
     1ac:	10400003 	beqz	v0,1bc <Control::MARG::start()+0x19c>
     1b0:	001e1a00 	sll	v1,s8,0x8
     1b4:	3c02ffff 	lui	v0,0xffff
     1b8:	02228825 	or	s1,s1,v0
     1bc:	00701825 	or	v1,v1,s0
     1c0:	3062ffff 	andi	v0,v1,0xffff
     1c4:	000213c3 	sra	v0,v0,0xf
     1c8:	10400004 	beqz	v0,1dc <Control::MARG::start()+0x1bc>
     1cc:	000317c2 	srl	v0,v1,0x1f
     1d0:	3c02ffff 	lui	v0,0xffff
     1d4:	00621825 	or	v1,v1,v0
     1d8:	000317c2 	srl	v0,v1,0x1f
     1dc:	10400002 	beqz	v0,1e8 <Control::MARG::start()+0x1c8>
     1e0:	24040064 	li	a0,100
     1e4:	00031823 	negu	v1,v1
     1e8:	00640018 	mult	v1,a0
     1ec:	00008021 	move	s0,zero
     1f0:	2403001f 	li	v1,31
     1f4:	00002021 	move	a0,zero
     1f8:	24060001 	li	a2,1
     1fc:	00002812 	mflo	a1
     200:	afa501b8 	sw	a1,440(sp)
     204:	2405ffff 	li	a1,-1
     208:	8fa801b8 	lw	t0,440(sp)
     20c:	00663804 	sllv	a3,a2,v1
     210:	00e83824 	and	a3,a3,t0
     214:	00673807 	srav	a3,a3,v1
     218:	00042040 	sll	a0,a0,0x1
     21c:	00872021 	addu	a0,a0,a3
     220:	28870154 	slti	a3,a0,340
     224:	14e00003 	bnez	a3,234 <Control::MARG::start()+0x214>
     228:	00108040 	sll	s0,s0,0x1
     22c:	2484feac 	addiu	a0,a0,-340
     230:	26100001 	addiu	s0,s0,1
     234:	2463ffff 	addiu	v1,v1,-1
     238:	1465fff3 	bne	v1,a1,208 <Control::MARG::start()+0x1e8>
     23c:	00000000 	nop
     240:	10400002 	beqz	v0,24c <Control::MARG::start()+0x22c>
     244:	00000000 	nop
     248:	00108023 	negu	s0,s0
     24c:	0c00081a 	jal	2068 <_ZN6System8Registry8instanceEv.local.10>
     250:	26100e45 	addiu	s0,s0,3653
     254:	0c00081a 	jal	2068 <_ZN6System8Registry8instanceEv.local.10>
     258:	ac50004c 	sw	s0,76(v0)
     25c:	0c00081a 	jal	2068 <_ZN6System8Registry8instanceEv.local.10>
     260:	ac57001c 	sw	s7,28(v0)
     264:	0c00081a 	jal	2068 <_ZN6System8Registry8instanceEv.local.10>
     268:	ac560020 	sw	s6,32(v0)
     26c:	0c00081a 	jal	2068 <_ZN6System8Registry8instanceEv.local.10>
     270:	ac550024 	sw	s5,36(v0)
     274:	0c00081a 	jal	2068 <_ZN6System8Registry8instanceEv.local.10>
     278:	ac540034 	sw	s4,52(v0)
     27c:	0c00081a 	jal	2068 <_ZN6System8Registry8instanceEv.local.10>
     280:	ac520038 	sw	s2,56(v0)
     284:	ac51003c 	sw	s1,60(v0)
     288:	3c023a8b 	lui	v0,0x3a8b
     28c:	3442a050 	ori	v0,v0,0xa050
     290:	afa2018c 	sw	v0,396(sp)
     294:	3c023b9c 	lui	v0,0x3b9c
     298:	3442e80a 	ori	v0,v0,0xe80a
     29c:	afa20188 	sw	v0,392(sp)
     2a0:	3c023a70 	lui	v0,0x3a70
     2a4:	24427fc4 	addiu	v0,v0,32708
     2a8:	afa20184 	sw	v0,388(sp)
     2ac:	3c0232ab 	lui	v0,0x32ab
     2b0:	3442cc77 	ori	v0,v0,0xcc77
     2b4:	afa20180 	sw	v0,384(sp)
     2b8:	8c100010 	lw	s0,16(zero)
     2bc:	8e660014 	lw	a2,20(s3)
     2c0:	00000000 	nop
     2c4:	02063023 	subu	a2,s0,a2
     2c8:	14c00003 	bnez	a2,2d8 <Control::MARG::start()+0x2b8>
     2cc:	00000000 	nop
     2d0:	080000ba 	j	2e8 <Control::MARG::start()+0x2c8>
     2d4:	afa00010 	sw	zero,16(sp)
     2d8:	00002021 	move	a0,zero
     2dc:	0c000a93 	jal	2a4c <float32::normalizeRoundAndPack(bool, int, unsigned int)>
     2e0:	2405009c 	li	a1,156
     2e4:	afa20010 	sw	v0,16(sp)
     2e8:	27a60180 	addiu	a2,sp,384
     2ec:	27a40014 	addiu	a0,sp,20
     2f0:	0c000b63 	jal	2d8c <float32::operator*(float32 const&) const>
     2f4:	27a50010 	addiu	a1,sp,16
     2f8:	8fa20014 	lw	v0,20(sp)
     2fc:	ae700014 	sw	s0,20(s3)
     300:	0c00081a 	jal	2068 <_ZN6System8Registry8instanceEv.local.10>
     304:	ae620018 	sw	v0,24(s3)
     308:	8c450034 	lw	a1,52(v0)
     30c:	0c000aae 	jal	2ab8 <float32::float32(int)>
     310:	27a40010 	addiu	a0,sp,16
     314:	27a6018c 	addiu	a2,sp,396
     318:	27a4017c 	addiu	a0,sp,380
     31c:	0c000b63 	jal	2d8c <float32::operator*(float32 const&) const>
     320:	27a50010 	addiu	a1,sp,16
     324:	0c00081a 	jal	2068 <_ZN6System8Registry8instanceEv.local.10>
     328:	26740040 	addiu	s4,s3,64
     32c:	8c450038 	lw	a1,56(v0)
     330:	0c000aae 	jal	2ab8 <float32::float32(int)>
     334:	27a40010 	addiu	a0,sp,16
     338:	27a6018c 	addiu	a2,sp,396
     33c:	27a40178 	addiu	a0,sp,376
     340:	0c000b63 	jal	2d8c <float32::operator*(float32 const&) const>
     344:	27a50010 	addiu	a1,sp,16
     348:	0c00081a 	jal	2068 <_ZN6System8Registry8instanceEv.local.10>
     34c:	26720044 	addiu	s2,s3,68
     350:	8c45003c 	lw	a1,60(v0)
     354:	0c000aae 	jal	2ab8 <float32::float32(int)>
     358:	27a40010 	addiu	a0,sp,16
     35c:	27a6018c 	addiu	a2,sp,396
     360:	27a40174 	addiu	a0,sp,372
     364:	0c000b63 	jal	2d8c <float32::operator*(float32 const&) const>
     368:	27a50010 	addiu	a1,sp,16
     36c:	0c00081a 	jal	2068 <_ZN6System8Registry8instanceEv.local.10>
     370:	3c1e4000 	lui	s8,0x4000
     374:	8c45001c 	lw	a1,28(v0)
     378:	0c000aae 	jal	2ab8 <float32::float32(int)>
     37c:	27a40010 	addiu	a0,sp,16
     380:	27a60188 	addiu	a2,sp,392
     384:	27a40170 	addiu	a0,sp,368
     388:	0c000b63 	jal	2d8c <float32::operator*(float32 const&) const>
     38c:	27a50010 	addiu	a1,sp,16
     390:	0c00081a 	jal	2068 <_ZN6System8Registry8instanceEv.local.10>
     394:	26710048 	addiu	s1,s3,72
     398:	8c450020 	lw	a1,32(v0)
     39c:	0c000aae 	jal	2ab8 <float32::float32(int)>
     3a0:	27a40010 	addiu	a0,sp,16
     3a4:	27a60188 	addiu	a2,sp,392
     3a8:	27a4016c 	addiu	a0,sp,364
     3ac:	0c000b63 	jal	2d8c <float32::operator*(float32 const&) const>
     3b0:	27a50010 	addiu	a1,sp,16
     3b4:	0c00081a 	jal	2068 <_ZN6System8Registry8instanceEv.local.10>
     3b8:	2670004c 	addiu	s0,s3,76
     3bc:	8c450024 	lw	a1,36(v0)
     3c0:	0c000aae 	jal	2ab8 <float32::float32(int)>
     3c4:	27a40010 	addiu	a0,sp,16
     3c8:	27a60188 	addiu	a2,sp,392
     3cc:	27a40168 	addiu	a0,sp,360
     3d0:	0c000b63 	jal	2d8c <float32::operator*(float32 const&) const>
     3d4:	27a50010 	addiu	a1,sp,16
     3d8:	0c00081a 	jal	2068 <_ZN6System8Registry8instanceEv.local.10>
     3dc:	26770058 	addiu	s7,s3,88
     3e0:	8c450040 	lw	a1,64(v0)
     3e4:	0c000aae 	jal	2ab8 <float32::float32(int)>
     3e8:	27a40020 	addiu	a0,sp,32
     3ec:	27a60184 	addiu	a2,sp,388
     3f0:	27a40024 	addiu	a0,sp,36
     3f4:	0c000b63 	jal	2d8c <float32::operator*(float32 const&) const>
     3f8:	27a50020 	addiu	a1,sp,32
     3fc:	8fa20024 	lw	v0,36(sp)
     400:	0c00081a 	jal	2068 <_ZN6System8Registry8instanceEv.local.10>
     404:	ae620034 	sw	v0,52(s3)
     408:	8c450044 	lw	a1,68(v0)
     40c:	0c000aae 	jal	2ab8 <float32::float32(int)>
     410:	27a40018 	addiu	a0,sp,24
     414:	27a60184 	addiu	a2,sp,388
     418:	27a4001c 	addiu	a0,sp,28
     41c:	0c000b63 	jal	2d8c <float32::operator*(float32 const&) const>
     420:	27a50018 	addiu	a1,sp,24
     424:	8fa2001c 	lw	v0,28(sp)
     428:	0c00081a 	jal	2068 <_ZN6System8Registry8instanceEv.local.10>
     42c:	ae620038 	sw	v0,56(s3)
     430:	8c450048 	lw	a1,72(v0)
     434:	0c000aae 	jal	2ab8 <float32::float32(int)>
     438:	27a40010 	addiu	a0,sp,16
     43c:	27a40014 	addiu	a0,sp,20
     440:	27a50010 	addiu	a1,sp,16
     444:	0c000b63 	jal	2d8c <float32::operator*(float32 const&) const>
     448:	27a60184 	addiu	a2,sp,388
     44c:	8fa3017c 	lw	v1,380(sp)
     450:	8fa20014 	lw	v0,20(sp)
     454:	afa301b0 	sw	v1,432(sp)
     458:	8fa30178 	lw	v1,376(sp)
     45c:	ae62003c 	sw	v0,60(s3)
     460:	afa301ac 	sw	v1,428(sp)
     464:	8fa30174 	lw	v1,372(sp)
     468:	afa20190 	sw	v0,400(sp)
     46c:	afa301a8 	sw	v1,424(sp)
     470:	8fa30170 	lw	v1,368(sp)
     474:	3c023d9a 	lui	v0,0x3d9a
     478:	afa301a4 	sw	v1,420(sp)
     47c:	8fa3016c 	lw	v1,364(sp)
     480:	3442c70d 	ori	v0,v0,0xc70d
     484:	afa301a0 	sw	v1,416(sp)
     488:	8fa30168 	lw	v1,360(sp)
     48c:	afa20164 	sw	v0,356(sp)
     490:	afa3019c 	sw	v1,412(sp)
     494:	8e630034 	lw	v1,52(s3)
     498:	3c02364a 	lui	v0,0x364a
     49c:	afa30198 	sw	v1,408(sp)
     4a0:	8e630038 	lw	v1,56(s3)
     4a4:	3442deba 	ori	v0,v0,0xdeba
     4a8:	afa30194 	sw	v1,404(sp)
     4ac:	3c033f00 	lui	v1,0x3f00
     4b0:	27a400b8 	addiu	a0,sp,184
     4b4:	27a500c0 	addiu	a1,sp,192
     4b8:	02803021 	move	a2,s4
     4bc:	afa300c0 	sw	v1,192(sp)
     4c0:	afa301d0 	sw	v1,464(sp)
     4c4:	afa20160 	sw	v0,352(sp)
     4c8:	afbe00bc 	sw	s8,188(sp)
     4cc:	0c000b63 	jal	2d8c <float32::operator*(float32 const&) const>
     4d0:	afa00158 	sw	zero,344(sp)
     4d4:	27a400b4 	addiu	a0,sp,180
     4d8:	27a500c0 	addiu	a1,sp,192
     4dc:	0c000b63 	jal	2d8c <float32::operator*(float32 const&) const>
     4e0:	02403021 	move	a2,s2
     4e4:	27a400b0 	addiu	a0,sp,176
     4e8:	27a500c0 	addiu	a1,sp,192
     4ec:	0c000b63 	jal	2d8c <float32::operator*(float32 const&) const>
     4f0:	02203021 	move	a2,s1
     4f4:	27a400ac 	addiu	a0,sp,172
     4f8:	27a500c0 	addiu	a1,sp,192
     4fc:	0c000b63 	jal	2d8c <float32::operator*(float32 const&) const>
     500:	02003021 	move	a2,s0
     504:	27a400a8 	addiu	a0,sp,168
     508:	27a500bc 	addiu	a1,sp,188
     50c:	0c000b63 	jal	2d8c <float32::operator*(float32 const&) const>
     510:	02803021 	move	a2,s4
     514:	27a400a4 	addiu	a0,sp,164
     518:	27a500bc 	addiu	a1,sp,188
     51c:	0c000b63 	jal	2d8c <float32::operator*(float32 const&) const>
     520:	02403021 	move	a2,s2
     524:	27a400a0 	addiu	a0,sp,160
     528:	27a500bc 	addiu	a1,sp,188
     52c:	0c000b63 	jal	2d8c <float32::operator*(float32 const&) const>
     530:	02203021 	move	a2,s1
     534:	27a4009c 	addiu	a0,sp,156
     538:	27a500bc 	addiu	a1,sp,188
     53c:	0c000b63 	jal	2d8c <float32::operator*(float32 const&) const>
     540:	02003021 	move	a2,s0
     544:	27a40098 	addiu	a0,sp,152
     548:	27a500bc 	addiu	a1,sp,188
     54c:	0c000b63 	jal	2d8c <float32::operator*(float32 const&) const>
     550:	26660050 	addiu	a2,s3,80
     554:	27a40094 	addiu	a0,sp,148
     558:	27a500bc 	addiu	a1,sp,188
     55c:	0c000b63 	jal	2d8c <float32::operator*(float32 const&) const>
     560:	26660054 	addiu	a2,s3,84
     564:	27a40090 	addiu	a0,sp,144
     568:	27a50098 	addiu	a1,sp,152
     56c:	0c000b63 	jal	2d8c <float32::operator*(float32 const&) const>
     570:	02803021 	move	a2,s4
     574:	27a4008c 	addiu	a0,sp,140
     578:	27a50098 	addiu	a1,sp,152
     57c:	0c000b63 	jal	2d8c <float32::operator*(float32 const&) const>
     580:	02403021 	move	a2,s2
     584:	27a40088 	addiu	a0,sp,136
     588:	27a50098 	addiu	a1,sp,152
     58c:	0c000b63 	jal	2d8c <float32::operator*(float32 const&) const>
     590:	02203021 	move	a2,s1
     594:	27a40084 	addiu	a0,sp,132
     598:	27a50098 	addiu	a1,sp,152
     59c:	0c000b63 	jal	2d8c <float32::operator*(float32 const&) const>
     5a0:	02003021 	move	a2,s0
     5a4:	27a40080 	addiu	a0,sp,128
     5a8:	27a50094 	addiu	a1,sp,148
     5ac:	0c000b63 	jal	2d8c <float32::operator*(float32 const&) const>
     5b0:	02803021 	move	a2,s4
     5b4:	27a4007c 	addiu	a0,sp,124
     5b8:	27a50094 	addiu	a1,sp,148
     5bc:	0c000b63 	jal	2d8c <float32::operator*(float32 const&) const>
     5c0:	02403021 	move	a2,s2
     5c4:	27a40078 	addiu	a0,sp,120
     5c8:	27a50094 	addiu	a1,sp,148
     5cc:	0c000b63 	jal	2d8c <float32::operator*(float32 const&) const>
     5d0:	02203021 	move	a2,s1
     5d4:	27a40074 	addiu	a0,sp,116
     5d8:	27a50094 	addiu	a1,sp,148
     5dc:	0c000b63 	jal	2d8c <float32::operator*(float32 const&) const>
     5e0:	02003021 	move	a2,s0
     5e4:	27a4006c 	addiu	a0,sp,108
     5e8:	02802821 	move	a1,s4
     5ec:	0c000b63 	jal	2d8c <float32::operator*(float32 const&) const>
     5f0:	02203021 	move	a2,s1
     5f4:	27a40060 	addiu	a0,sp,96
     5f8:	02402821 	move	a1,s2
     5fc:	0c000b63 	jal	2d8c <float32::operator*(float32 const&) const>
     600:	02003021 	move	a2,s0
     604:	27a40058 	addiu	a0,sp,88
     608:	27a500bc 	addiu	a1,sp,188
     60c:	0c000b63 	jal	2d8c <float32::operator*(float32 const&) const>
     610:	27a60198 	addiu	a2,sp,408
     614:	27a40054 	addiu	a0,sp,84
     618:	27a500bc 	addiu	a1,sp,188
     61c:	0c000b63 	jal	2d8c <float32::operator*(float32 const&) const>
     620:	27a60194 	addiu	a2,sp,404
     624:	27a40050 	addiu	a0,sp,80
     628:	27a500bc 	addiu	a1,sp,188
     62c:	0c000b63 	jal	2d8c <float32::operator*(float32 const&) const>
     630:	27a60190 	addiu	a2,sp,400
     634:	27a501a4 	addiu	a1,sp,420
     638:	27a4004c 	addiu	a0,sp,76
     63c:	0c000b63 	jal	2d8c <float32::operator*(float32 const&) const>
     640:	00a03021 	move	a2,a1
     644:	27a501a0 	addiu	a1,sp,416
     648:	00a03021 	move	a2,a1
     64c:	0c000b63 	jal	2d8c <float32::operator*(float32 const&) const>
     650:	27a40010 	addiu	a0,sp,16
     654:	27a4004c 	addiu	a0,sp,76
     658:	0c000b30 	jal	2cc0 <float32::operator+=(float32 const&)>
     65c:	27a50010 	addiu	a1,sp,16
     660:	27a5019c 	addiu	a1,sp,412
     664:	00a03021 	move	a2,a1
     668:	0c000b63 	jal	2d8c <float32::operator*(float32 const&) const>
     66c:	27a40010 	addiu	a0,sp,16
     670:	27a4004c 	addiu	a0,sp,76
     674:	0c000b30 	jal	2cc0 <float32::operator+=(float32 const&)>
     678:	27a50010 	addiu	a1,sp,16
     67c:	27a40010 	addiu	a0,sp,16
     680:	0c000c35 	jal	30d4 <f32::rsqrt(float32 const&)>
     684:	27a5004c 	addiu	a1,sp,76
     688:	8fa20010 	lw	v0,16(sp)
     68c:	27a401a4 	addiu	a0,sp,420
     690:	27a5015c 	addiu	a1,sp,348
     694:	0c000c60 	jal	3180 <float32::operator*=(float32 const&)>
     698:	afa2015c 	sw	v0,348(sp)
     69c:	27a401a0 	addiu	a0,sp,416
     6a0:	0c000c60 	jal	3180 <float32::operator*=(float32 const&)>
     6a4:	27a5015c 	addiu	a1,sp,348
     6a8:	27a4019c 	addiu	a0,sp,412
     6ac:	0c000c60 	jal	3180 <float32::operator*=(float32 const&)>
     6b0:	27a5015c 	addiu	a1,sp,348
     6b4:	27a50198 	addiu	a1,sp,408
     6b8:	27a40010 	addiu	a0,sp,16
     6bc:	0c000b63 	jal	2d8c <float32::operator*(float32 const&) const>
     6c0:	00a03021 	move	a2,a1
     6c4:	8fa20010 	lw	v0,16(sp)
     6c8:	27a50194 	addiu	a1,sp,404
     6cc:	00a03021 	move	a2,a1
     6d0:	27a40010 	addiu	a0,sp,16
     6d4:	0c000b63 	jal	2d8c <float32::operator*(float32 const&) const>
     6d8:	afa2004c 	sw	v0,76(sp)
     6dc:	27a4004c 	addiu	a0,sp,76
     6e0:	0c000b30 	jal	2cc0 <float32::operator+=(float32 const&)>
     6e4:	27a50010 	addiu	a1,sp,16
     6e8:	27a50190 	addiu	a1,sp,400
     6ec:	00a03021 	move	a2,a1
     6f0:	0c000b63 	jal	2d8c <float32::operator*(float32 const&) const>
     6f4:	27a40010 	addiu	a0,sp,16
     6f8:	27a4004c 	addiu	a0,sp,76
     6fc:	0c000b30 	jal	2cc0 <float32::operator+=(float32 const&)>
     700:	27a50010 	addiu	a1,sp,16
     704:	27a40010 	addiu	a0,sp,16
     708:	0c000c35 	jal	30d4 <f32::rsqrt(float32 const&)>
     70c:	27a5004c 	addiu	a1,sp,76
     710:	8fa20010 	lw	v0,16(sp)
     714:	27a40198 	addiu	a0,sp,408
     718:	27a5015c 	addiu	a1,sp,348
     71c:	0c000c60 	jal	3180 <float32::operator*=(float32 const&)>
     720:	afa2015c 	sw	v0,348(sp)
     724:	27a40194 	addiu	a0,sp,404
     728:	0c000c60 	jal	3180 <float32::operator*=(float32 const&)>
     72c:	27a5015c 	addiu	a1,sp,348
     730:	27a40190 	addiu	a0,sp,400
     734:	0c000c60 	jal	3180 <float32::operator*=(float32 const&)>
     738:	27a5015c 	addiu	a1,sp,348
     73c:	27a40048 	addiu	a0,sp,72
     740:	02202821 	move	a1,s1
     744:	0c000b63 	jal	2d8c <float32::operator*(float32 const&) const>
     748:	02203021 	move	a2,s1
     74c:	27a40010 	addiu	a0,sp,16
     750:	27a500a4 	addiu	a1,sp,164
     754:	0c000b63 	jal	2d8c <float32::operator*(float32 const&) const>
     758:	02003021 	move	a2,s0
     75c:	8fa20010 	lw	v0,16(sp)
     760:	02203021 	move	a2,s1
     764:	27a40010 	addiu	a0,sp,16
     768:	27a500a8 	addiu	a1,sp,168
     76c:	0c000b63 	jal	2d8c <float32::operator*(float32 const&) const>
     770:	afa20148 	sw	v0,328(sp)
     774:	27a40148 	addiu	a0,sp,328
     778:	0c000b54 	jal	2d50 <float32::operator-=(float32 const&)>
     77c:	27a50010 	addiu	a1,sp,16
     780:	27a40148 	addiu	a0,sp,328
     784:	0c000b54 	jal	2d50 <float32::operator-=(float32 const&)>
     788:	27a501a4 	addiu	a1,sp,420
     78c:	27a40010 	addiu	a0,sp,16
     790:	27a500a8 	addiu	a1,sp,168
     794:	0c000b63 	jal	2d8c <float32::operator*(float32 const&) const>
     798:	02403021 	move	a2,s2
     79c:	8fa20010 	lw	v0,16(sp)
     7a0:	02003021 	move	a2,s0
     7a4:	27a40010 	addiu	a0,sp,16
     7a8:	27a500a0 	addiu	a1,sp,160
     7ac:	0c000b63 	jal	2d8c <float32::operator*(float32 const&) const>
     7b0:	afa20144 	sw	v0,324(sp)
     7b4:	27a40144 	addiu	a0,sp,324
     7b8:	0c000b30 	jal	2cc0 <float32::operator+=(float32 const&)>
     7bc:	27a50010 	addiu	a1,sp,16
     7c0:	27a40144 	addiu	a0,sp,324
     7c4:	0c000b54 	jal	2d50 <float32::operator-=(float32 const&)>
     7c8:	27a501a0 	addiu	a1,sp,416
     7cc:	02403021 	move	a2,s2
     7d0:	3c023f80 	lui	v0,0x3f80
     7d4:	27a40010 	addiu	a0,sp,16
     7d8:	27a500a4 	addiu	a1,sp,164
     7dc:	0c000b63 	jal	2d8c <float32::operator*(float32 const&) const>
     7e0:	afa20140 	sw	v0,320(sp)
     7e4:	27a40140 	addiu	a0,sp,320
     7e8:	0c000b54 	jal	2d50 <float32::operator-=(float32 const&)>
     7ec:	27a50010 	addiu	a1,sp,16
     7f0:	02203021 	move	a2,s1
     7f4:	27a40010 	addiu	a0,sp,16
     7f8:	0c000b63 	jal	2d8c <float32::operator*(float32 const&) const>
     7fc:	27a500a0 	addiu	a1,sp,160
     800:	27a40140 	addiu	a0,sp,320
     804:	0c000b54 	jal	2d50 <float32::operator-=(float32 const&)>
     808:	27a50010 	addiu	a1,sp,16
     80c:	27a40140 	addiu	a0,sp,320
     810:	0c000b54 	jal	2d50 <float32::operator-=(float32 const&)>
     814:	27a5019c 	addiu	a1,sp,412
     818:	27a40018 	addiu	a0,sp,24
     81c:	27a500c0 	addiu	a1,sp,192
     820:	0c000b3f 	jal	2cfc <float32::operator-(float32 const&) const>
     824:	27a60048 	addiu	a2,sp,72
     828:	27a4001c 	addiu	a0,sp,28
     82c:	02002821 	move	a1,s0
     830:	0c000b63 	jal	2d8c <float32::operator*(float32 const&) const>
     834:	02003021 	move	a2,s0
     838:	27a40014 	addiu	a0,sp,20
     83c:	27a50018 	addiu	a1,sp,24
     840:	0c000b3f 	jal	2cfc <float32::operator-(float32 const&) const>
     844:	27a6001c 	addiu	a2,sp,28
     848:	27a40010 	addiu	a0,sp,16
     84c:	27a50098 	addiu	a1,sp,152
     850:	0c000b63 	jal	2d8c <float32::operator*(float32 const&) const>
     854:	27a60014 	addiu	a2,sp,20
     858:	8fa20010 	lw	v0,16(sp)
     85c:	27a40014 	addiu	a0,sp,20
     860:	27a50060 	addiu	a1,sp,96
     864:	27a6006c 	addiu	a2,sp,108
     868:	0c000b3f 	jal	2cfc <float32::operator-(float32 const&) const>
     86c:	afa2013c 	sw	v0,316(sp)
     870:	27a60014 	addiu	a2,sp,20
     874:	27a40010 	addiu	a0,sp,16
     878:	0c000b63 	jal	2d8c <float32::operator*(float32 const&) const>
     87c:	27a50094 	addiu	a1,sp,148
     880:	27a4013c 	addiu	a0,sp,316
     884:	0c000b30 	jal	2cc0 <float32::operator+=(float32 const&)>
     888:	27a50010 	addiu	a1,sp,16
     88c:	27a4013c 	addiu	a0,sp,316
     890:	0c000b54 	jal	2d50 <float32::operator-=(float32 const&)>
     894:	27a50198 	addiu	a1,sp,408
     898:	27a40018 	addiu	a0,sp,24
     89c:	02402821 	move	a1,s2
     8a0:	0c000b63 	jal	2d8c <float32::operator*(float32 const&) const>
     8a4:	02203021 	move	a2,s1
     8a8:	27a4001c 	addiu	a0,sp,28
     8ac:	02802821 	move	a1,s4
     8b0:	0c000b63 	jal	2d8c <float32::operator*(float32 const&) const>
     8b4:	02003021 	move	a2,s0
     8b8:	27a40014 	addiu	a0,sp,20
     8bc:	27a50018 	addiu	a1,sp,24
     8c0:	0c000b3f 	jal	2cfc <float32::operator-(float32 const&) const>
     8c4:	27a6001c 	addiu	a2,sp,28
     8c8:	27a40010 	addiu	a0,sp,16
     8cc:	27a50098 	addiu	a1,sp,152
     8d0:	0c000b63 	jal	2d8c <float32::operator*(float32 const&) const>
     8d4:	27a60014 	addiu	a2,sp,20
     8d8:	8fa20010 	lw	v0,16(sp)
     8dc:	27a40018 	addiu	a0,sp,24
     8e0:	02802821 	move	a1,s4
     8e4:	02403021 	move	a2,s2
     8e8:	0c000b63 	jal	2d8c <float32::operator*(float32 const&) const>
     8ec:	afa20138 	sw	v0,312(sp)
     8f0:	27a4001c 	addiu	a0,sp,28
     8f4:	02202821 	move	a1,s1
     8f8:	0c000b63 	jal	2d8c <float32::operator*(float32 const&) const>
     8fc:	02003021 	move	a2,s0
     900:	27a40014 	addiu	a0,sp,20
     904:	27a50018 	addiu	a1,sp,24
     908:	0c000b1a 	jal	2c68 <float32::operator+(float32 const&) const>
     90c:	27a6001c 	addiu	a2,sp,28
     910:	27a60014 	addiu	a2,sp,20
     914:	27a40010 	addiu	a0,sp,16
     918:	0c000b63 	jal	2d8c <float32::operator*(float32 const&) const>
     91c:	27a50094 	addiu	a1,sp,148
     920:	27a40138 	addiu	a0,sp,312
     924:	0c000b30 	jal	2cc0 <float32::operator+=(float32 const&)>
     928:	27a50010 	addiu	a1,sp,16
     92c:	27a40138 	addiu	a0,sp,312
     930:	0c000b54 	jal	2d50 <float32::operator-=(float32 const&)>
     934:	27a50194 	addiu	a1,sp,404
     938:	27a40014 	addiu	a0,sp,20
     93c:	27a5006c 	addiu	a1,sp,108
     940:	0c000b1a 	jal	2c68 <float32::operator+(float32 const&) const>
     944:	27a60060 	addiu	a2,sp,96
     948:	27a40010 	addiu	a0,sp,16
     94c:	27a50098 	addiu	a1,sp,152
     950:	0c000b63 	jal	2d8c <float32::operator*(float32 const&) const>
     954:	27a60014 	addiu	a2,sp,20
     958:	8fa20010 	lw	v0,16(sp)
     95c:	27a4001c 	addiu	a0,sp,28
     960:	02402821 	move	a1,s2
     964:	02403021 	move	a2,s2
     968:	0c000b63 	jal	2d8c <float32::operator*(float32 const&) const>
     96c:	afa20134 	sw	v0,308(sp)
     970:	27a40018 	addiu	a0,sp,24
     974:	27a500c0 	addiu	a1,sp,192
     978:	0c000b3f 	jal	2cfc <float32::operator-(float32 const&) const>
     97c:	27a6001c 	addiu	a2,sp,28
     980:	27a40014 	addiu	a0,sp,20
     984:	27a50018 	addiu	a1,sp,24
     988:	0c000b3f 	jal	2cfc <float32::operator-(float32 const&) const>
     98c:	27a60048 	addiu	a2,sp,72
     990:	27a60014 	addiu	a2,sp,20
     994:	27a40010 	addiu	a0,sp,16
     998:	0c000b63 	jal	2d8c <float32::operator*(float32 const&) const>
     99c:	27a50094 	addiu	a1,sp,148
     9a0:	27a40134 	addiu	a0,sp,308
     9a4:	0c000b30 	jal	2cc0 <float32::operator+=(float32 const&)>
     9a8:	27a50010 	addiu	a1,sp,16
     9ac:	27a40134 	addiu	a0,sp,308
     9b0:	0c000b54 	jal	2d50 <float32::operator-=(float32 const&)>
     9b4:	27a50190 	addiu	a1,sp,400
     9b8:	8fa200a0 	lw	v0,160(sp)
     9bc:	27a40010 	addiu	a0,sp,16
     9c0:	27a500bc 	addiu	a1,sp,188
     9c4:	02003021 	move	a2,s0
     9c8:	0c000b63 	jal	2d8c <float32::operator*(float32 const&) const>
     9cc:	afa20130 	sw	v0,304(sp)
     9d0:	8fa20010 	lw	v0,16(sp)
     9d4:	27a40010 	addiu	a0,sp,16
     9d8:	afa2012c 	sw	v0,300(sp)
     9dc:	8fa200a8 	lw	v0,168(sp)
     9e0:	27a500bc 	addiu	a1,sp,188
     9e4:	afa20128 	sw	v0,296(sp)
     9e8:	8fa200a4 	lw	v0,164(sp)
     9ec:	27a60124 	addiu	a2,sp,292
     9f0:	0c000b63 	jal	2d8c <float32::operator*(float32 const&) const>
     9f4:	afa20124 	sw	v0,292(sp)
     9f8:	8fa20010 	lw	v0,16(sp)
     9fc:	27a40010 	addiu	a0,sp,16
     a00:	27a500bc 	addiu	a1,sp,188
     a04:	27a60130 	addiu	a2,sp,304
     a08:	0c000b63 	jal	2d8c <float32::operator*(float32 const&) const>
     a0c:	afa20120 	sw	v0,288(sp)
     a10:	8fa20010 	lw	v0,16(sp)
     a14:	27a60088 	addiu	a2,sp,136
     a18:	afa2011c 	sw	v0,284(sp)
     a1c:	8fa20078 	lw	v0,120(sp)
     a20:	27a40010 	addiu	a0,sp,16
     a24:	afa20118 	sw	v0,280(sp)
     a28:	8fa20074 	lw	v0,116(sp)
     a2c:	27a500bc 	addiu	a1,sp,188
     a30:	0c000b63 	jal	2d8c <float32::operator*(float32 const&) const>
     a34:	afa20114 	sw	v0,276(sp)
     a38:	8fa20010 	lw	v0,16(sp)
     a3c:	27a40110 	addiu	a0,sp,272
     a40:	27a50080 	addiu	a1,sp,128
     a44:	0c000b30 	jal	2cc0 <float32::operator+=(float32 const&)>
     a48:	afa20110 	sw	v0,272(sp)
     a4c:	27a60084 	addiu	a2,sp,132
     a50:	27a40010 	addiu	a0,sp,16
     a54:	0c000b63 	jal	2d8c <float32::operator*(float32 const&) const>
     a58:	27a500bc 	addiu	a1,sp,188
     a5c:	8fa20010 	lw	v0,16(sp)
     a60:	27a4010c 	addiu	a0,sp,268
     a64:	27a5007c 	addiu	a1,sp,124
     a68:	0c000b54 	jal	2d50 <float32::operator-=(float32 const&)>
     a6c:	afa2010c 	sw	v0,268(sp)
     a70:	27a40010 	addiu	a0,sp,16
     a74:	27a50084 	addiu	a1,sp,132
     a78:	0c000b3f 	jal	2cfc <float32::operator-(float32 const&) const>
     a7c:	27a6007c 	addiu	a2,sp,124
     a80:	8fa20010 	lw	v0,16(sp)
     a84:	27a40010 	addiu	a0,sp,16
     a88:	27a50088 	addiu	a1,sp,136
     a8c:	27a60080 	addiu	a2,sp,128
     a90:	0c000b1a 	jal	2c68 <float32::operator+(float32 const&) const>
     a94:	afa20108 	sw	v0,264(sp)
     a98:	8fa20010 	lw	v0,16(sp)
     a9c:	27a40010 	addiu	a0,sp,16
     aa0:	27a5008c 	addiu	a1,sp,140
     aa4:	27a60074 	addiu	a2,sp,116
     aa8:	0c000b1a 	jal	2c68 <float32::operator+(float32 const&) const>
     aac:	afa20104 	sw	v0,260(sp)
     ab0:	8fa20010 	lw	v0,16(sp)
     ab4:	27a40010 	addiu	a0,sp,16
     ab8:	27a50090 	addiu	a1,sp,144
     abc:	27a60078 	addiu	a2,sp,120
     ac0:	0c000b3f 	jal	2cfc <float32::operator-(float32 const&) const>
     ac4:	afa20100 	sw	v0,256(sp)
     ac8:	8fa20010 	lw	v0,16(sp)
     acc:	27a6007c 	addiu	a2,sp,124
     ad0:	afa200fc 	sw	v0,252(sp)
     ad4:	8fa20088 	lw	v0,136(sp)
     ad8:	27a40010 	addiu	a0,sp,16
     adc:	afa200f8 	sw	v0,248(sp)
     ae0:	8fa20084 	lw	v0,132(sp)
     ae4:	27a500bc 	addiu	a1,sp,188
     ae8:	0c000b63 	jal	2d8c <float32::operator*(float32 const&) const>
     aec:	afa200f4 	sw	v0,244(sp)
     af0:	27a400f4 	addiu	a0,sp,244
     af4:	0c000b54 	jal	2d50 <float32::operator-=(float32 const&)>
     af8:	27a50010 	addiu	a1,sp,16
     afc:	8fa20090 	lw	v0,144(sp)
     b00:	27a60078 	addiu	a2,sp,120
     b04:	27a40010 	addiu	a0,sp,16
     b08:	27a500bc 	addiu	a1,sp,188
     b0c:	0c000b63 	jal	2d8c <float32::operator*(float32 const&) const>
     b10:	afa200f0 	sw	v0,240(sp)
     b14:	27a400f0 	addiu	a0,sp,240
     b18:	0c000b54 	jal	2d50 <float32::operator-=(float32 const&)>
     b1c:	27a50010 	addiu	a1,sp,16
     b20:	8fa2008c 	lw	v0,140(sp)
     b24:	27a40010 	addiu	a0,sp,16
     b28:	27a50124 	addiu	a1,sp,292
     b2c:	27a60144 	addiu	a2,sp,324
     b30:	0c000b63 	jal	2d8c <float32::operator*(float32 const&) const>
     b34:	afa200ec 	sw	v0,236(sp)
     b38:	8fa20010 	lw	v0,16(sp)
     b3c:	27a60148 	addiu	a2,sp,328
     b40:	27a40010 	addiu	a0,sp,16
     b44:	27a50130 	addiu	a1,sp,304
     b48:	0c000b63 	jal	2d8c <float32::operator*(float32 const&) const>
     b4c:	afa200e8 	sw	v0,232(sp)
     b50:	27a400e8 	addiu	a0,sp,232
     b54:	0c000b54 	jal	2d50 <float32::operator-=(float32 const&)>
     b58:	27a50010 	addiu	a1,sp,16
     b5c:	27a6013c 	addiu	a2,sp,316
     b60:	27a40010 	addiu	a0,sp,16
     b64:	0c000b63 	jal	2d8c <float32::operator*(float32 const&) const>
     b68:	27a50118 	addiu	a1,sp,280
     b6c:	27a400e8 	addiu	a0,sp,232
     b70:	0c000b54 	jal	2d50 <float32::operator-=(float32 const&)>
     b74:	27a50010 	addiu	a1,sp,16
     b78:	27a60138 	addiu	a2,sp,312
     b7c:	27a40010 	addiu	a0,sp,16
     b80:	0c000b63 	jal	2d8c <float32::operator*(float32 const&) const>
     b84:	27a50108 	addiu	a1,sp,264
     b88:	27a400e8 	addiu	a0,sp,232
     b8c:	0c000b54 	jal	2d50 <float32::operator-=(float32 const&)>
     b90:	27a50010 	addiu	a1,sp,16
     b94:	27a60134 	addiu	a2,sp,308
     b98:	27a40010 	addiu	a0,sp,16
     b9c:	0c000b63 	jal	2d8c <float32::operator*(float32 const&) const>
     ba0:	27a500f8 	addiu	a1,sp,248
     ba4:	27a400e8 	addiu	a0,sp,232
     ba8:	0c000b30 	jal	2cc0 <float32::operator+=(float32 const&)>
     bac:	27a50010 	addiu	a1,sp,16
     bb0:	27a40010 	addiu	a0,sp,16
     bb4:	27a5012c 	addiu	a1,sp,300
     bb8:	0c000b63 	jal	2d8c <float32::operator*(float32 const&) const>
     bbc:	27a60148 	addiu	a2,sp,328
     bc0:	8fa20010 	lw	v0,16(sp)
     bc4:	27a60144 	addiu	a2,sp,324
     bc8:	27a40010 	addiu	a0,sp,16
     bcc:	27a50128 	addiu	a1,sp,296
     bd0:	0c000b63 	jal	2d8c <float32::operator*(float32 const&) const>
     bd4:	afa200e4 	sw	v0,228(sp)
     bd8:	27a400e4 	addiu	a0,sp,228
     bdc:	0c000b30 	jal	2cc0 <float32::operator+=(float32 const&)>
     be0:	27a50010 	addiu	a1,sp,16
     be4:	27a60140 	addiu	a2,sp,320
     be8:	27a40010 	addiu	a0,sp,16
     bec:	0c000b63 	jal	2d8c <float32::operator*(float32 const&) const>
     bf0:	27a50120 	addiu	a1,sp,288
     bf4:	27a400e4 	addiu	a0,sp,228
     bf8:	0c000b54 	jal	2d50 <float32::operator-=(float32 const&)>
     bfc:	27a50010 	addiu	a1,sp,16
     c00:	27a6013c 	addiu	a2,sp,316
     c04:	27a40010 	addiu	a0,sp,16
     c08:	0c000b63 	jal	2d8c <float32::operator*(float32 const&) const>
     c0c:	27a50114 	addiu	a1,sp,276
     c10:	27a400e4 	addiu	a0,sp,228
     c14:	0c000b30 	jal	2cc0 <float32::operator+=(float32 const&)>
     c18:	27a50010 	addiu	a1,sp,16
     c1c:	27a60138 	addiu	a2,sp,312
     c20:	27a40010 	addiu	a0,sp,16
     c24:	0c000b63 	jal	2d8c <float32::operator*(float32 const&) const>
     c28:	27a50104 	addiu	a1,sp,260
     c2c:	27a400e4 	addiu	a0,sp,228
     c30:	0c000b30 	jal	2cc0 <float32::operator+=(float32 const&)>
     c34:	27a50010 	addiu	a1,sp,16
     c38:	27a60134 	addiu	a2,sp,308
     c3c:	27a40010 	addiu	a0,sp,16
     c40:	0c000b63 	jal	2d8c <float32::operator*(float32 const&) const>
     c44:	27a500f4 	addiu	a1,sp,244
     c48:	27a400e4 	addiu	a0,sp,228
     c4c:	0c000b30 	jal	2cc0 <float32::operator+=(float32 const&)>
     c50:	27a50010 	addiu	a1,sp,16
     c54:	27a40010 	addiu	a0,sp,16
     c58:	27a5012c 	addiu	a1,sp,300
     c5c:	0c000b63 	jal	2d8c <float32::operator*(float32 const&) const>
     c60:	27a60144 	addiu	a2,sp,324
     c64:	8fa20010 	lw	v0,16(sp)
     c68:	27a60140 	addiu	a2,sp,320
     c6c:	27a40010 	addiu	a0,sp,16
     c70:	27a5011c 	addiu	a1,sp,284
     c74:	0c000b63 	jal	2d8c <float32::operator*(float32 const&) const>
     c78:	afa200e0 	sw	v0,224(sp)
     c7c:	27a400e0 	addiu	a0,sp,224
     c80:	0c000b54 	jal	2d50 <float32::operator-=(float32 const&)>
     c84:	27a50010 	addiu	a1,sp,16
     c88:	27a60148 	addiu	a2,sp,328
     c8c:	27a40010 	addiu	a0,sp,16
     c90:	0c000b63 	jal	2d8c <float32::operator*(float32 const&) const>
     c94:	27a50128 	addiu	a1,sp,296
     c98:	27a400e0 	addiu	a0,sp,224
     c9c:	0c000b54 	jal	2d50 <float32::operator-=(float32 const&)>
     ca0:	27a50010 	addiu	a1,sp,16
     ca4:	27a6013c 	addiu	a2,sp,316
     ca8:	27a40010 	addiu	a0,sp,16
     cac:	0c000b63 	jal	2d8c <float32::operator*(float32 const&) const>
     cb0:	27a50110 	addiu	a1,sp,272
     cb4:	27a400e0 	addiu	a0,sp,224
     cb8:	0c000b54 	jal	2d50 <float32::operator-=(float32 const&)>
     cbc:	27a50010 	addiu	a1,sp,16
     cc0:	27a60138 	addiu	a2,sp,312
     cc4:	27a40010 	addiu	a0,sp,16
     cc8:	0c000b63 	jal	2d8c <float32::operator*(float32 const&) const>
     ccc:	27a50100 	addiu	a1,sp,256
     cd0:	27a400e0 	addiu	a0,sp,224
     cd4:	0c000b30 	jal	2cc0 <float32::operator+=(float32 const&)>
     cd8:	27a50010 	addiu	a1,sp,16
     cdc:	27a60134 	addiu	a2,sp,308
     ce0:	27a40010 	addiu	a0,sp,16
     ce4:	0c000b63 	jal	2d8c <float32::operator*(float32 const&) const>
     ce8:	27a500f0 	addiu	a1,sp,240
     cec:	27a400e0 	addiu	a0,sp,224
     cf0:	0c000b30 	jal	2cc0 <float32::operator+=(float32 const&)>
     cf4:	27a50010 	addiu	a1,sp,16
     cf8:	27a40010 	addiu	a0,sp,16
     cfc:	27a50124 	addiu	a1,sp,292
     d00:	0c000b63 	jal	2d8c <float32::operator*(float32 const&) const>
     d04:	27a60148 	addiu	a2,sp,328
     d08:	8fa20010 	lw	v0,16(sp)
     d0c:	27a60144 	addiu	a2,sp,324
     d10:	27a40010 	addiu	a0,sp,16
     d14:	27a50130 	addiu	a1,sp,304
     d18:	0c000b63 	jal	2d8c <float32::operator*(float32 const&) const>
     d1c:	afa200dc 	sw	v0,220(sp)
     d20:	27a400dc 	addiu	a0,sp,220
     d24:	0c000b30 	jal	2cc0 <float32::operator+=(float32 const&)>
     d28:	27a50010 	addiu	a1,sp,16
     d2c:	27a6013c 	addiu	a2,sp,316
     d30:	27a40010 	addiu	a0,sp,16
     d34:	0c000b63 	jal	2d8c <float32::operator*(float32 const&) const>
     d38:	27a5010c 	addiu	a1,sp,268
     d3c:	27a400dc 	addiu	a0,sp,220
     d40:	0c000b54 	jal	2d50 <float32::operator-=(float32 const&)>
     d44:	27a50010 	addiu	a1,sp,16
     d48:	27a60138 	addiu	a2,sp,312
     d4c:	27a40010 	addiu	a0,sp,16
     d50:	0c000b63 	jal	2d8c <float32::operator*(float32 const&) const>
     d54:	27a500fc 	addiu	a1,sp,252
     d58:	27a400dc 	addiu	a0,sp,220
     d5c:	0c000b54 	jal	2d50 <float32::operator-=(float32 const&)>
     d60:	27a50010 	addiu	a1,sp,16
     d64:	27a60134 	addiu	a2,sp,308
     d68:	27a40010 	addiu	a0,sp,16
     d6c:	0c000b63 	jal	2d8c <float32::operator*(float32 const&) const>
     d70:	27a500ec 	addiu	a1,sp,236
     d74:	27a400dc 	addiu	a0,sp,220
     d78:	0c000b30 	jal	2cc0 <float32::operator+=(float32 const&)>
     d7c:	27a50010 	addiu	a1,sp,16
     d80:	27a500e8 	addiu	a1,sp,232
     d84:	27a4003c 	addiu	a0,sp,60
     d88:	0c000b63 	jal	2d8c <float32::operator*(float32 const&) const>
     d8c:	00a03021 	move	a2,a1
     d90:	27a500e4 	addiu	a1,sp,228
     d94:	00a03021 	move	a2,a1
     d98:	0c000b63 	jal	2d8c <float32::operator*(float32 const&) const>
     d9c:	27a40010 	addiu	a0,sp,16
     da0:	27a4003c 	addiu	a0,sp,60
     da4:	0c000b30 	jal	2cc0 <float32::operator+=(float32 const&)>
     da8:	27a50010 	addiu	a1,sp,16
     dac:	27a500e0 	addiu	a1,sp,224
     db0:	00a03021 	move	a2,a1
     db4:	0c000b63 	jal	2d8c <float32::operator*(float32 const&) const>
     db8:	27a40010 	addiu	a0,sp,16
     dbc:	27a4003c 	addiu	a0,sp,60
     dc0:	0c000b30 	jal	2cc0 <float32::operator+=(float32 const&)>
     dc4:	27a50010 	addiu	a1,sp,16
     dc8:	27a500dc 	addiu	a1,sp,220
     dcc:	00a03021 	move	a2,a1
     dd0:	0c000b63 	jal	2d8c <float32::operator*(float32 const&) const>
     dd4:	27a40010 	addiu	a0,sp,16
     dd8:	27a4003c 	addiu	a0,sp,60
     ddc:	0c000b30 	jal	2cc0 <float32::operator+=(float32 const&)>
     de0:	27a50010 	addiu	a1,sp,16
     de4:	27a40010 	addiu	a0,sp,16
     de8:	0c000c35 	jal	30d4 <f32::rsqrt(float32 const&)>
     dec:	27a5003c 	addiu	a1,sp,60
     df0:	8fa20010 	lw	v0,16(sp)
     df4:	27a40010 	addiu	a0,sp,16
     df8:	27a500e8 	addiu	a1,sp,232
     dfc:	27a6015c 	addiu	a2,sp,348
     e00:	0c000b63 	jal	2d8c <float32::operator*(float32 const&) const>
     e04:	afa2015c 	sw	v0,348(sp)
     e08:	8fa20010 	lw	v0,16(sp)
     e0c:	27a40010 	addiu	a0,sp,16
     e10:	27a500e4 	addiu	a1,sp,228
     e14:	27a6015c 	addiu	a2,sp,348
     e18:	0c000b63 	jal	2d8c <float32::operator*(float32 const&) const>
     e1c:	afa200e8 	sw	v0,232(sp)
     e20:	8fa20010 	lw	v0,16(sp)
     e24:	27a40010 	addiu	a0,sp,16
     e28:	27a500e0 	addiu	a1,sp,224
     e2c:	27a6015c 	addiu	a2,sp,348
     e30:	0c000b63 	jal	2d8c <float32::operator*(float32 const&) const>
     e34:	afa200e4 	sw	v0,228(sp)
     e38:	8fa20010 	lw	v0,16(sp)
     e3c:	27a40010 	addiu	a0,sp,16
     e40:	27a500dc 	addiu	a1,sp,220
     e44:	27a6015c 	addiu	a2,sp,348
     e48:	0c000b63 	jal	2d8c <float32::operator*(float32 const&) const>
     e4c:	afa200e0 	sw	v0,224(sp)
     e50:	8fa20010 	lw	v0,16(sp)
     e54:	27a40010 	addiu	a0,sp,16
     e58:	27a500a8 	addiu	a1,sp,168
     e5c:	27a600e4 	addiu	a2,sp,228
     e60:	0c000b63 	jal	2d8c <float32::operator*(float32 const&) const>
     e64:	afa200dc 	sw	v0,220(sp)
     e68:	8fa20010 	lw	v0,16(sp)
     e6c:	27a600e8 	addiu	a2,sp,232
     e70:	27a40010 	addiu	a0,sp,16
     e74:	27a500a4 	addiu	a1,sp,164
     e78:	0c000b63 	jal	2d8c <float32::operator*(float32 const&) const>
     e7c:	afa200d8 	sw	v0,216(sp)
     e80:	27a400d8 	addiu	a0,sp,216
     e84:	0c000b54 	jal	2d50 <float32::operator-=(float32 const&)>
     e88:	27a50010 	addiu	a1,sp,16
     e8c:	27a600dc 	addiu	a2,sp,220
     e90:	27a40010 	addiu	a0,sp,16
     e94:	0c000b63 	jal	2d8c <float32::operator*(float32 const&) const>
     e98:	27a500a0 	addiu	a1,sp,160
     e9c:	27a400d8 	addiu	a0,sp,216
     ea0:	0c000b54 	jal	2d50 <float32::operator-=(float32 const&)>
     ea4:	27a50010 	addiu	a1,sp,16
     ea8:	27a600e0 	addiu	a2,sp,224
     eac:	27a40010 	addiu	a0,sp,16
     eb0:	0c000b63 	jal	2d8c <float32::operator*(float32 const&) const>
     eb4:	27a5009c 	addiu	a1,sp,156
     eb8:	27a400d8 	addiu	a0,sp,216
     ebc:	0c000b30 	jal	2cc0 <float32::operator+=(float32 const&)>
     ec0:	27a50010 	addiu	a1,sp,16
     ec4:	27a40010 	addiu	a0,sp,16
     ec8:	27a500a8 	addiu	a1,sp,168
     ecc:	0c000b63 	jal	2d8c <float32::operator*(float32 const&) const>
     ed0:	27a600e0 	addiu	a2,sp,224
     ed4:	8fa20010 	lw	v0,16(sp)
     ed8:	27a600dc 	addiu	a2,sp,220
     edc:	27a40010 	addiu	a0,sp,16
     ee0:	27a500a4 	addiu	a1,sp,164
     ee4:	0c000b63 	jal	2d8c <float32::operator*(float32 const&) const>
     ee8:	afa200d4 	sw	v0,212(sp)
     eec:	27a400d4 	addiu	a0,sp,212
     ef0:	0c000b30 	jal	2cc0 <float32::operator+=(float32 const&)>
     ef4:	27a50010 	addiu	a1,sp,16
     ef8:	27a600e8 	addiu	a2,sp,232
     efc:	27a40010 	addiu	a0,sp,16
     f00:	0c000b63 	jal	2d8c <float32::operator*(float32 const&) const>
     f04:	27a500a0 	addiu	a1,sp,160
     f08:	27a400d4 	addiu	a0,sp,212
     f0c:	0c000b54 	jal	2d50 <float32::operator-=(float32 const&)>
     f10:	27a50010 	addiu	a1,sp,16
     f14:	27a600e4 	addiu	a2,sp,228
     f18:	27a40010 	addiu	a0,sp,16
     f1c:	0c000b63 	jal	2d8c <float32::operator*(float32 const&) const>
     f20:	27a5009c 	addiu	a1,sp,156
     f24:	27a400d4 	addiu	a0,sp,212
     f28:	0c000b54 	jal	2d50 <float32::operator-=(float32 const&)>
     f2c:	27a50010 	addiu	a1,sp,16
     f30:	27a40010 	addiu	a0,sp,16
     f34:	27a500a8 	addiu	a1,sp,168
     f38:	0c000b63 	jal	2d8c <float32::operator*(float32 const&) const>
     f3c:	27a600dc 	addiu	a2,sp,220
     f40:	8fa20010 	lw	v0,16(sp)
     f44:	27a600e0 	addiu	a2,sp,224
     f48:	27a40010 	addiu	a0,sp,16
     f4c:	27a500a4 	addiu	a1,sp,164
     f50:	0c000b63 	jal	2d8c <float32::operator*(float32 const&) const>
     f54:	afa200d0 	sw	v0,208(sp)
     f58:	27a400d0 	addiu	a0,sp,208
     f5c:	0c000b54 	jal	2d50 <float32::operator-=(float32 const&)>
     f60:	27a50010 	addiu	a1,sp,16
     f64:	27a600e4 	addiu	a2,sp,228
     f68:	27a40010 	addiu	a0,sp,16
     f6c:	0c000b63 	jal	2d8c <float32::operator*(float32 const&) const>
     f70:	27a500a0 	addiu	a1,sp,160
     f74:	27a400d0 	addiu	a0,sp,208
     f78:	0c000b30 	jal	2cc0 <float32::operator+=(float32 const&)>
     f7c:	27a50010 	addiu	a1,sp,16
     f80:	27a600e8 	addiu	a2,sp,232
     f84:	27a40010 	addiu	a0,sp,16
     f88:	0c000b63 	jal	2d8c <float32::operator*(float32 const&) const>
     f8c:	27a5009c 	addiu	a1,sp,156
     f90:	27a400d0 	addiu	a0,sp,208
     f94:	0c000b54 	jal	2d50 <float32::operator-=(float32 const&)>
     f98:	27a50010 	addiu	a1,sp,16
     f9c:	27a60160 	addiu	a2,sp,352
     fa0:	27a40010 	addiu	a0,sp,16
     fa4:	0c000b63 	jal	2d8c <float32::operator*(float32 const&) const>
     fa8:	27a500d8 	addiu	a1,sp,216
     fac:	02e02021 	move	a0,s7
     fb0:	0c000b30 	jal	2cc0 <float32::operator+=(float32 const&)>
     fb4:	27a50010 	addiu	a1,sp,16
     fb8:	2676005c 	addiu	s6,s3,92
     fbc:	27a60160 	addiu	a2,sp,352
     fc0:	27a40010 	addiu	a0,sp,16
     fc4:	0c000b63 	jal	2d8c <float32::operator*(float32 const&) const>
     fc8:	27a500d4 	addiu	a1,sp,212
     fcc:	02c02021 	move	a0,s6
     fd0:	0c000b30 	jal	2cc0 <float32::operator+=(float32 const&)>
     fd4:	27a50010 	addiu	a1,sp,16
     fd8:	26750060 	addiu	s5,s3,96
     fdc:	27a60160 	addiu	a2,sp,352
     fe0:	27a40010 	addiu	a0,sp,16
     fe4:	0c000b63 	jal	2d8c <float32::operator*(float32 const&) const>
     fe8:	27a500d0 	addiu	a1,sp,208
     fec:	02a02021 	move	a0,s5
     ff0:	0c000b30 	jal	2cc0 <float32::operator+=(float32 const&)>
     ff4:	27a50010 	addiu	a1,sp,16
     ff8:	27a401b0 	addiu	a0,sp,432
     ffc:	0c000b54 	jal	2d50 <float32::operator-=(float32 const&)>
    1000:	02e02821 	move	a1,s7
    1004:	27a401ac 	addiu	a0,sp,428
    1008:	0c000b54 	jal	2d50 <float32::operator-=(float32 const&)>
    100c:	02c02821 	move	a1,s6
    1010:	27a401a8 	addiu	a0,sp,424
    1014:	0c000b54 	jal	2d50 <float32::operator-=(float32 const&)>
    1018:	02a02821 	move	a1,s5
    101c:	27a601b0 	addiu	a2,sp,432
    1020:	27a40010 	addiu	a0,sp,16
    1024:	0c000b63 	jal	2d8c <float32::operator*(float32 const&) const>
    1028:	27a500b4 	addiu	a1,sp,180
    102c:	27a40158 	addiu	a0,sp,344
    1030:	0c000b54 	jal	2d50 <float32::operator-=(float32 const&)>
    1034:	27a50010 	addiu	a1,sp,16
    1038:	27a601ac 	addiu	a2,sp,428
    103c:	27a40010 	addiu	a0,sp,16
    1040:	0c000b63 	jal	2d8c <float32::operator*(float32 const&) const>
    1044:	27a500b0 	addiu	a1,sp,176
    1048:	27a40158 	addiu	a0,sp,344
    104c:	0c000b54 	jal	2d50 <float32::operator-=(float32 const&)>
    1050:	27a50010 	addiu	a1,sp,16
    1054:	27a601a8 	addiu	a2,sp,424
    1058:	27a40010 	addiu	a0,sp,16
    105c:	0c000b63 	jal	2d8c <float32::operator*(float32 const&) const>
    1060:	27a500ac 	addiu	a1,sp,172
    1064:	27a40158 	addiu	a0,sp,344
    1068:	0c000b54 	jal	2d50 <float32::operator-=(float32 const&)>
    106c:	27a50010 	addiu	a1,sp,16
    1070:	27a40010 	addiu	a0,sp,16
    1074:	27a500b8 	addiu	a1,sp,184
    1078:	0c000b63 	jal	2d8c <float32::operator*(float32 const&) const>
    107c:	27a601b0 	addiu	a2,sp,432
    1080:	8fa20010 	lw	v0,16(sp)
    1084:	27a601a8 	addiu	a2,sp,424
    1088:	27a40010 	addiu	a0,sp,16
    108c:	27a500b0 	addiu	a1,sp,176
    1090:	0c000b63 	jal	2d8c <float32::operator*(float32 const&) const>
    1094:	afa20154 	sw	v0,340(sp)
    1098:	27a40154 	addiu	a0,sp,340
    109c:	0c000b30 	jal	2cc0 <float32::operator+=(float32 const&)>
    10a0:	27a50010 	addiu	a1,sp,16
    10a4:	27a601ac 	addiu	a2,sp,428
    10a8:	27a40010 	addiu	a0,sp,16
    10ac:	0c000b63 	jal	2d8c <float32::operator*(float32 const&) const>
    10b0:	27a500ac 	addiu	a1,sp,172
    10b4:	27a40154 	addiu	a0,sp,340
    10b8:	0c000b54 	jal	2d50 <float32::operator-=(float32 const&)>
    10bc:	27a50010 	addiu	a1,sp,16
    10c0:	27a40010 	addiu	a0,sp,16
    10c4:	27a500b8 	addiu	a1,sp,184
    10c8:	0c000b63 	jal	2d8c <float32::operator*(float32 const&) const>
    10cc:	27a601ac 	addiu	a2,sp,428
    10d0:	8fa20010 	lw	v0,16(sp)
    10d4:	27a601a8 	addiu	a2,sp,424
    10d8:	27a40010 	addiu	a0,sp,16
    10dc:	27a500b4 	addiu	a1,sp,180
    10e0:	0c000b63 	jal	2d8c <float32::operator*(float32 const&) const>
    10e4:	afa20150 	sw	v0,336(sp)
    10e8:	27a40150 	addiu	a0,sp,336
    10ec:	0c000b54 	jal	2d50 <float32::operator-=(float32 const&)>
    10f0:	27a50010 	addiu	a1,sp,16
    10f4:	27a601b0 	addiu	a2,sp,432
    10f8:	27a40010 	addiu	a0,sp,16
    10fc:	0c000b63 	jal	2d8c <float32::operator*(float32 const&) const>
    1100:	27a500ac 	addiu	a1,sp,172
    1104:	27a40150 	addiu	a0,sp,336
    1108:	0c000b30 	jal	2cc0 <float32::operator+=(float32 const&)>
    110c:	27a50010 	addiu	a1,sp,16
    1110:	27a40010 	addiu	a0,sp,16
    1114:	27a500b8 	addiu	a1,sp,184
    1118:	0c000b63 	jal	2d8c <float32::operator*(float32 const&) const>
    111c:	27a601a8 	addiu	a2,sp,424
    1120:	8fa20010 	lw	v0,16(sp)
    1124:	27a601ac 	addiu	a2,sp,428
    1128:	27a40010 	addiu	a0,sp,16
    112c:	27a500b4 	addiu	a1,sp,180
    1130:	0c000b63 	jal	2d8c <float32::operator*(float32 const&) const>
    1134:	afa2014c 	sw	v0,332(sp)
    1138:	27a4014c 	addiu	a0,sp,332
    113c:	0c000b30 	jal	2cc0 <float32::operator+=(float32 const&)>
    1140:	27a50010 	addiu	a1,sp,16
    1144:	27a601b0 	addiu	a2,sp,432
    1148:	27a40010 	addiu	a0,sp,16
    114c:	0c000b63 	jal	2d8c <float32::operator*(float32 const&) const>
    1150:	27a500b0 	addiu	a1,sp,176
    1154:	27a4014c 	addiu	a0,sp,332
    1158:	0c000b54 	jal	2d50 <float32::operator-=(float32 const&)>
    115c:	27a50010 	addiu	a1,sp,16
    1160:	27a40018 	addiu	a0,sp,24
    1164:	27a50164 	addiu	a1,sp,356
    1168:	0c000b63 	jal	2d8c <float32::operator*(float32 const&) const>
    116c:	27a600e8 	addiu	a2,sp,232
    1170:	26750018 	addiu	s5,s3,24
    1174:	27a40014 	addiu	a0,sp,20
    1178:	27a50158 	addiu	a1,sp,344
    117c:	0c000b3f 	jal	2cfc <float32::operator-(float32 const&) const>
    1180:	27a60018 	addiu	a2,sp,24
    1184:	02a03021 	move	a2,s5
    1188:	27a40010 	addiu	a0,sp,16
    118c:	0c000b63 	jal	2d8c <float32::operator*(float32 const&) const>
    1190:	27a50014 	addiu	a1,sp,20
    1194:	02802021 	move	a0,s4
    1198:	0c000b30 	jal	2cc0 <float32::operator+=(float32 const&)>
    119c:	27a50010 	addiu	a1,sp,16
    11a0:	27a40018 	addiu	a0,sp,24
    11a4:	27a50164 	addiu	a1,sp,356
    11a8:	0c000b63 	jal	2d8c <float32::operator*(float32 const&) const>
    11ac:	27a600e4 	addiu	a2,sp,228
    11b0:	27a40014 	addiu	a0,sp,20
    11b4:	27a50154 	addiu	a1,sp,340
    11b8:	0c000b3f 	jal	2cfc <float32::operator-(float32 const&) const>
    11bc:	27a60018 	addiu	a2,sp,24
    11c0:	02a03021 	move	a2,s5
    11c4:	27a40010 	addiu	a0,sp,16
    11c8:	0c000b63 	jal	2d8c <float32::operator*(float32 const&) const>
    11cc:	27a50014 	addiu	a1,sp,20
    11d0:	02402021 	move	a0,s2
    11d4:	0c000b30 	jal	2cc0 <float32::operator+=(float32 const&)>
    11d8:	27a50010 	addiu	a1,sp,16
    11dc:	27a40018 	addiu	a0,sp,24
    11e0:	27a50164 	addiu	a1,sp,356
    11e4:	0c000b63 	jal	2d8c <float32::operator*(float32 const&) const>
    11e8:	27a600e0 	addiu	a2,sp,224
    11ec:	27a40014 	addiu	a0,sp,20
    11f0:	27a50150 	addiu	a1,sp,336
    11f4:	0c000b3f 	jal	2cfc <float32::operator-(float32 const&) const>
    11f8:	27a60018 	addiu	a2,sp,24
    11fc:	02a03021 	move	a2,s5
    1200:	27a40010 	addiu	a0,sp,16
    1204:	0c000b63 	jal	2d8c <float32::operator*(float32 const&) const>
    1208:	27a50014 	addiu	a1,sp,20
    120c:	02202021 	move	a0,s1
    1210:	0c000b30 	jal	2cc0 <float32::operator+=(float32 const&)>
    1214:	27a50010 	addiu	a1,sp,16
    1218:	27a40018 	addiu	a0,sp,24
    121c:	27a50164 	addiu	a1,sp,356
    1220:	0c000b63 	jal	2d8c <float32::operator*(float32 const&) const>
    1224:	27a600dc 	addiu	a2,sp,220
    1228:	27a40014 	addiu	a0,sp,20
    122c:	27a5014c 	addiu	a1,sp,332
    1230:	0c000b3f 	jal	2cfc <float32::operator-(float32 const&) const>
    1234:	27a60018 	addiu	a2,sp,24
    1238:	02a03021 	move	a2,s5
    123c:	27a40010 	addiu	a0,sp,16
    1240:	0c000b63 	jal	2d8c <float32::operator*(float32 const&) const>
    1244:	27a50014 	addiu	a1,sp,20
    1248:	02002021 	move	a0,s0
    124c:	0c000b30 	jal	2cc0 <float32::operator+=(float32 const&)>
    1250:	27a50010 	addiu	a1,sp,16
    1254:	27a40038 	addiu	a0,sp,56
    1258:	02802821 	move	a1,s4
    125c:	0c000b63 	jal	2d8c <float32::operator*(float32 const&) const>
    1260:	02803021 	move	a2,s4
    1264:	02403021 	move	a2,s2
    1268:	27a40010 	addiu	a0,sp,16
    126c:	0c000b63 	jal	2d8c <float32::operator*(float32 const&) const>
    1270:	02402821 	move	a1,s2
    1274:	27a40038 	addiu	a0,sp,56
    1278:	0c000b30 	jal	2cc0 <float32::operator+=(float32 const&)>
    127c:	27a50010 	addiu	a1,sp,16
    1280:	02203021 	move	a2,s1
    1284:	27a40010 	addiu	a0,sp,16
    1288:	0c000b63 	jal	2d8c <float32::operator*(float32 const&) const>
    128c:	02202821 	move	a1,s1
    1290:	27a40038 	addiu	a0,sp,56
    1294:	0c000b30 	jal	2cc0 <float32::operator+=(float32 const&)>
    1298:	27a50010 	addiu	a1,sp,16
    129c:	02003021 	move	a2,s0
    12a0:	27a40010 	addiu	a0,sp,16
    12a4:	0c000b63 	jal	2d8c <float32::operator*(float32 const&) const>
    12a8:	02002821 	move	a1,s0
    12ac:	27a40038 	addiu	a0,sp,56
    12b0:	0c000b30 	jal	2cc0 <float32::operator+=(float32 const&)>
    12b4:	27a50010 	addiu	a1,sp,16
    12b8:	27a40010 	addiu	a0,sp,16
    12bc:	0c000c35 	jal	30d4 <f32::rsqrt(float32 const&)>
    12c0:	27a50038 	addiu	a1,sp,56
    12c4:	8fa20010 	lw	v0,16(sp)
    12c8:	02802021 	move	a0,s4
    12cc:	27a5015c 	addiu	a1,sp,348
    12d0:	0c000c60 	jal	3180 <float32::operator*=(float32 const&)>
    12d4:	afa2015c 	sw	v0,348(sp)
    12d8:	02402021 	move	a0,s2
    12dc:	0c000c60 	jal	3180 <float32::operator*=(float32 const&)>
    12e0:	27a5015c 	addiu	a1,sp,348
    12e4:	02202021 	move	a0,s1
    12e8:	0c000c60 	jal	3180 <float32::operator*=(float32 const&)>
    12ec:	27a5015c 	addiu	a1,sp,348
    12f0:	02002021 	move	a0,s0
    12f4:	0c000c60 	jal	3180 <float32::operator*=(float32 const&)>
    12f8:	27a5015c 	addiu	a1,sp,348
    12fc:	27a40010 	addiu	a0,sp,16
    1300:	02802821 	move	a1,s4
    1304:	0c000b63 	jal	2d8c <float32::operator*(float32 const&) const>
    1308:	02403021 	move	a2,s2
    130c:	8fa20010 	lw	v0,16(sp)
    1310:	27a40010 	addiu	a0,sp,16
    1314:	02802821 	move	a1,s4
    1318:	02203021 	move	a2,s1
    131c:	0c000b63 	jal	2d8c <float32::operator*(float32 const&) const>
    1320:	afa20070 	sw	v0,112(sp)
    1324:	8fa20010 	lw	v0,16(sp)
    1328:	27a40010 	addiu	a0,sp,16
    132c:	02802821 	move	a1,s4
    1330:	02003021 	move	a2,s0
    1334:	0c000b63 	jal	2d8c <float32::operator*(float32 const&) const>
    1338:	afa2006c 	sw	v0,108(sp)
    133c:	8fa20010 	lw	v0,16(sp)
    1340:	27a40010 	addiu	a0,sp,16
    1344:	02202821 	move	a1,s1
    1348:	02003021 	move	a2,s0
    134c:	0c000b63 	jal	2d8c <float32::operator*(float32 const&) const>
    1350:	afa20068 	sw	v0,104(sp)
    1354:	8fa20010 	lw	v0,16(sp)
    1358:	27a40010 	addiu	a0,sp,16
    135c:	02402821 	move	a1,s2
    1360:	02203021 	move	a2,s1
    1364:	0c000b63 	jal	2d8c <float32::operator*(float32 const&) const>
    1368:	afa2005c 	sw	v0,92(sp)
    136c:	8fa20010 	lw	v0,16(sp)
    1370:	27a40010 	addiu	a0,sp,16
    1374:	02402821 	move	a1,s2
    1378:	02003021 	move	a2,s0
    137c:	0c000b63 	jal	2d8c <float32::operator*(float32 const&) const>
    1380:	afa20064 	sw	v0,100(sp)
    1384:	8fa20010 	lw	v0,16(sp)
    1388:	27a40010 	addiu	a0,sp,16
    138c:	02402821 	move	a1,s2
    1390:	02403021 	move	a2,s2
    1394:	0c000b63 	jal	2d8c <float32::operator*(float32 const&) const>
    1398:	afa20060 	sw	v0,96(sp)
    139c:	8fa20010 	lw	v0,16(sp)
    13a0:	27a40010 	addiu	a0,sp,16
    13a4:	02202821 	move	a1,s1
    13a8:	02203021 	move	a2,s1
    13ac:	0c000b63 	jal	2d8c <float32::operator*(float32 const&) const>
    13b0:	afa20044 	sw	v0,68(sp)
    13b4:	8fa20010 	lw	v0,16(sp)
    13b8:	27a40010 	addiu	a0,sp,16
    13bc:	02002821 	move	a1,s0
    13c0:	02003021 	move	a2,s0
    13c4:	0c000b63 	jal	2d8c <float32::operator*(float32 const&) const>
    13c8:	afa20048 	sw	v0,72(sp)
    13cc:	8fa20010 	lw	v0,16(sp)
    13d0:	27a40018 	addiu	a0,sp,24
    13d4:	27a500c0 	addiu	a1,sp,192
    13d8:	27a60048 	addiu	a2,sp,72
    13dc:	0c000b3f 	jal	2cfc <float32::operator-(float32 const&) const>
    13e0:	afa20040 	sw	v0,64(sp)
    13e4:	27a40014 	addiu	a0,sp,20
    13e8:	27a50018 	addiu	a1,sp,24
    13ec:	0c000b3f 	jal	2cfc <float32::operator-(float32 const&) const>
    13f0:	27a60040 	addiu	a2,sp,64
    13f4:	27a40010 	addiu	a0,sp,16
    13f8:	27a50058 	addiu	a1,sp,88
    13fc:	0c000b63 	jal	2d8c <float32::operator*(float32 const&) const>
    1400:	27a60014 	addiu	a2,sp,20
    1404:	8fa20010 	lw	v0,16(sp)
    1408:	27a40014 	addiu	a0,sp,20
    140c:	27a50064 	addiu	a1,sp,100
    1410:	27a60068 	addiu	a2,sp,104
    1414:	0c000b3f 	jal	2cfc <float32::operator-(float32 const&) const>
    1418:	afa200cc 	sw	v0,204(sp)
    141c:	27a60014 	addiu	a2,sp,20
    1420:	27a40010 	addiu	a0,sp,16
    1424:	0c000b63 	jal	2d8c <float32::operator*(float32 const&) const>
    1428:	27a50054 	addiu	a1,sp,84
    142c:	27a400cc 	addiu	a0,sp,204
    1430:	0c000b30 	jal	2cc0 <float32::operator+=(float32 const&)>
    1434:	27a50010 	addiu	a1,sp,16
    1438:	27a40014 	addiu	a0,sp,20
    143c:	27a50060 	addiu	a1,sp,96
    1440:	0c000b1a 	jal	2c68 <float32::operator+(float32 const&) const>
    1444:	27a6006c 	addiu	a2,sp,108
    1448:	27a60014 	addiu	a2,sp,20
    144c:	27a40010 	addiu	a0,sp,16
    1450:	0c000b63 	jal	2d8c <float32::operator*(float32 const&) const>
    1454:	27a50050 	addiu	a1,sp,80
    1458:	27a400cc 	addiu	a0,sp,204
    145c:	0c000b30 	jal	2cc0 <float32::operator+=(float32 const&)>
    1460:	27a50010 	addiu	a1,sp,16
    1464:	27a40014 	addiu	a0,sp,20
    1468:	27a50064 	addiu	a1,sp,100
    146c:	0c000b1a 	jal	2c68 <float32::operator+(float32 const&) const>
    1470:	27a60068 	addiu	a2,sp,104
    1474:	27a40010 	addiu	a0,sp,16
    1478:	27a50058 	addiu	a1,sp,88
    147c:	0c000b63 	jal	2d8c <float32::operator*(float32 const&) const>
    1480:	27a60014 	addiu	a2,sp,20
    1484:	8fa20010 	lw	v0,16(sp)
    1488:	27a40018 	addiu	a0,sp,24
    148c:	27a500c0 	addiu	a1,sp,192
    1490:	27a60044 	addiu	a2,sp,68
    1494:	0c000b3f 	jal	2cfc <float32::operator-(float32 const&) const>
    1498:	afa200c8 	sw	v0,200(sp)
    149c:	27a40014 	addiu	a0,sp,20
    14a0:	27a50018 	addiu	a1,sp,24
    14a4:	0c000b3f 	jal	2cfc <float32::operator-(float32 const&) const>
    14a8:	27a60040 	addiu	a2,sp,64
    14ac:	27a60014 	addiu	a2,sp,20
    14b0:	27a40010 	addiu	a0,sp,16
    14b4:	0c000b63 	jal	2d8c <float32::operator*(float32 const&) const>
    14b8:	27a50054 	addiu	a1,sp,84
    14bc:	27a400c8 	addiu	a0,sp,200
    14c0:	0c000b30 	jal	2cc0 <float32::operator+=(float32 const&)>
    14c4:	27a50010 	addiu	a1,sp,16
    14c8:	27a40014 	addiu	a0,sp,20
    14cc:	27a5005c 	addiu	a1,sp,92
    14d0:	0c000b3f 	jal	2cfc <float32::operator-(float32 const&) const>
    14d4:	27a60070 	addiu	a2,sp,112
    14d8:	27a60014 	addiu	a2,sp,20
    14dc:	27a40010 	addiu	a0,sp,16
    14e0:	0c000b63 	jal	2d8c <float32::operator*(float32 const&) const>
    14e4:	27a50050 	addiu	a1,sp,80
    14e8:	27a400c8 	addiu	a0,sp,200
    14ec:	0c000b30 	jal	2cc0 <float32::operator+=(float32 const&)>
    14f0:	27a50010 	addiu	a1,sp,16
    14f4:	27a40014 	addiu	a0,sp,20
    14f8:	27a50060 	addiu	a1,sp,96
    14fc:	0c000b3f 	jal	2cfc <float32::operator-(float32 const&) const>
    1500:	27a6006c 	addiu	a2,sp,108
    1504:	27a40010 	addiu	a0,sp,16
    1508:	27a50058 	addiu	a1,sp,88
    150c:	0c000b63 	jal	2d8c <float32::operator*(float32 const&) const>
    1510:	27a60014 	addiu	a2,sp,20
    1514:	8fa20010 	lw	v0,16(sp)
    1518:	27a40014 	addiu	a0,sp,20
    151c:	27a5005c 	addiu	a1,sp,92
    1520:	27a60070 	addiu	a2,sp,112
    1524:	0c000b1a 	jal	2c68 <float32::operator+(float32 const&) const>
    1528:	afa200c4 	sw	v0,196(sp)
    152c:	27a60014 	addiu	a2,sp,20
    1530:	27a40010 	addiu	a0,sp,16
    1534:	0c000b63 	jal	2d8c <float32::operator*(float32 const&) const>
    1538:	27a50054 	addiu	a1,sp,84
    153c:	27a400c4 	addiu	a0,sp,196
    1540:	0c000b30 	jal	2cc0 <float32::operator+=(float32 const&)>
    1544:	27a50010 	addiu	a1,sp,16
    1548:	27a40018 	addiu	a0,sp,24
    154c:	27a500c0 	addiu	a1,sp,192
    1550:	0c000b3f 	jal	2cfc <float32::operator-(float32 const&) const>
    1554:	27a60044 	addiu	a2,sp,68
    1558:	27a40014 	addiu	a0,sp,20
    155c:	27a50018 	addiu	a1,sp,24
    1560:	0c000b3f 	jal	2cfc <float32::operator-(float32 const&) const>
    1564:	27a60048 	addiu	a2,sp,72
    1568:	27a60014 	addiu	a2,sp,20
    156c:	27a40010 	addiu	a0,sp,16
    1570:	0c000b63 	jal	2d8c <float32::operator*(float32 const&) const>
    1574:	27a50050 	addiu	a1,sp,80
    1578:	27a400c4 	addiu	a0,sp,196
    157c:	0c000b30 	jal	2cc0 <float32::operator+=(float32 const&)>
    1580:	27a50010 	addiu	a1,sp,16
    1584:	27a500cc 	addiu	a1,sp,204
    1588:	27a40030 	addiu	a0,sp,48
    158c:	0c000b63 	jal	2d8c <float32::operator*(float32 const&) const>
    1590:	00a03021 	move	a2,a1
    1594:	27a500c8 	addiu	a1,sp,200
    1598:	27a40034 	addiu	a0,sp,52
    159c:	0c000b63 	jal	2d8c <float32::operator*(float32 const&) const>
    15a0:	00a03021 	move	a2,a1
    15a4:	27a4002c 	addiu	a0,sp,44
    15a8:	27a50030 	addiu	a1,sp,48
    15ac:	0c000b1a 	jal	2c68 <float32::operator+(float32 const&) const>
    15b0:	27a60034 	addiu	a2,sp,52
    15b4:	8fa301d0 	lw	v1,464(sp)
    15b8:	8fa2002c 	lw	v0,44(sp)
    15bc:	27a40028 	addiu	a0,sp,40
    15c0:	27a50010 	addiu	a1,sp,16
    15c4:	27a60014 	addiu	a2,sp,20
    15c8:	afa30010 	sw	v1,16(sp)
    15cc:	0c000b63 	jal	2d8c <float32::operator*(float32 const&) const>
    15d0:	afa20014 	sw	v0,20(sp)
    15d4:	8fb5002c 	lw	s5,44(sp)
    15d8:	3c025f37 	lui	v0,0x5f37
    15dc:	244259df 	addiu	v0,v0,23007
    15e0:	afb50018 	sw	s5,24(sp)
    15e4:	0015a843 	sra	s5,s5,0x1
    15e8:	0055a823 	subu	s5,v0,s5
    15ec:	27a40014 	addiu	a0,sp,20
    15f0:	27a50018 	addiu	a1,sp,24
    15f4:	27a60010 	addiu	a2,sp,16
    15f8:	0c000b63 	jal	2d8c <float32::operator*(float32 const&) const>
    15fc:	afb50010 	sw	s5,16(sp)
    1600:	27a40024 	addiu	a0,sp,36
    1604:	27a50028 	addiu	a1,sp,40
    1608:	27a60010 	addiu	a2,sp,16
    160c:	0c000b63 	jal	2d8c <float32::operator*(float32 const&) const>
    1610:	afb50010 	sw	s5,16(sp)
    1614:	27a40020 	addiu	a0,sp,32
    1618:	27a50024 	addiu	a1,sp,36
    161c:	27a60010 	addiu	a2,sp,16
    1620:	0c000b63 	jal	2d8c <float32::operator*(float32 const&) const>
    1624:	afb50010 	sw	s5,16(sp)
    1628:	3c023fc0 	lui	v0,0x3fc0
    162c:	27a4001c 	addiu	a0,sp,28
    1630:	27a50010 	addiu	a1,sp,16
    1634:	27a60020 	addiu	a2,sp,32
    1638:	0c000b3f 	jal	2cfc <float32::operator-(float32 const&) const>
    163c:	afa20010 	sw	v0,16(sp)
    1640:	27a40010 	addiu	a0,sp,16
    1644:	27a50014 	addiu	a1,sp,20
    1648:	0c000b63 	jal	2d8c <float32::operator*(float32 const&) const>
    164c:	27a6001c 	addiu	a2,sp,28
    1650:	8fa20010 	lw	v0,16(sp)
    1654:	00000000 	nop
    1658:	ae620050 	sw	v0,80(s3)
    165c:	8fa200c4 	lw	v0,196(sp)
    1660:	0c00081a 	jal	2068 <_ZN6System8Registry8instanceEv.local.10>
    1664:	ae620054 	sw	v0,84(s3)
    1668:	8e630040 	lw	v1,64(s3)
    166c:	0c00081a 	jal	2068 <_ZN6System8Registry8instanceEv.local.10>
    1670:	ac430000 	sw	v1,0(v0)
    1674:	8e630044 	lw	v1,68(s3)
    1678:	0c00081a 	jal	2068 <_ZN6System8Registry8instanceEv.local.10>
    167c:	ac430004 	sw	v1,4(v0)
    1680:	8e630048 	lw	v1,72(s3)
    1684:	0c00081a 	jal	2068 <_ZN6System8Registry8instanceEv.local.10>
    1688:	ac430008 	sw	v1,8(v0)
    168c:	8e63004c 	lw	v1,76(s3)
    1690:	27a4002c 	addiu	a0,sp,44
    1694:	ac43000c 	sw	v1,12(v0)
    1698:	3c024265 	lui	v0,0x4265
    169c:	24422ee1 	addiu	v0,v0,12001
    16a0:	02802821 	move	a1,s4
    16a4:	02803021 	move	a2,s4
    16a8:	afa20034 	sw	v0,52(sp)
    16ac:	0c000b63 	jal	2d8c <float32::operator*(float32 const&) const>
    16b0:	afbe0030 	sw	s8,48(sp)
    16b4:	27a40028 	addiu	a0,sp,40
    16b8:	02402821 	move	a1,s2
    16bc:	0c000b63 	jal	2d8c <float32::operator*(float32 const&) const>
    16c0:	02403021 	move	a2,s2
    16c4:	27a40024 	addiu	a0,sp,36
    16c8:	02202821 	move	a1,s1
    16cc:	0c000b63 	jal	2d8c <float32::operator*(float32 const&) const>
    16d0:	02203021 	move	a2,s1
    16d4:	27a40020 	addiu	a0,sp,32
    16d8:	02002821 	move	a1,s0
    16dc:	0c000b63 	jal	2d8c <float32::operator*(float32 const&) const>
    16e0:	02003021 	move	a2,s0
    16e4:	27a4003c 	addiu	a0,sp,60
    16e8:	02802821 	move	a1,s4
    16ec:	0c000b63 	jal	2d8c <float32::operator*(float32 const&) const>
    16f0:	02403021 	move	a2,s2
    16f4:	27a40038 	addiu	a0,sp,56
    16f8:	02202821 	move	a1,s1
    16fc:	0c000b63 	jal	2d8c <float32::operator*(float32 const&) const>
    1700:	02003021 	move	a2,s0
    1704:	27a40040 	addiu	a0,sp,64
    1708:	27a5003c 	addiu	a1,sp,60
    170c:	0c000b1a 	jal	2c68 <float32::operator+(float32 const&) const>
    1710:	27a60038 	addiu	a2,sp,56
    1714:	27a40044 	addiu	a0,sp,68
    1718:	27a50030 	addiu	a1,sp,48
    171c:	0c000b63 	jal	2d8c <float32::operator*(float32 const&) const>
    1720:	27a60040 	addiu	a2,sp,64
    1724:	27a40010 	addiu	a0,sp,16
    1728:	27a5002c 	addiu	a1,sp,44
    172c:	0c000b3f 	jal	2cfc <float32::operator-(float32 const&) const>
    1730:	27a60028 	addiu	a2,sp,40
    1734:	27a40014 	addiu	a0,sp,20
    1738:	27a50010 	addiu	a1,sp,16
    173c:	0c000b3f 	jal	2cfc <float32::operator-(float32 const&) const>
    1740:	27a60024 	addiu	a2,sp,36
    1744:	27a40018 	addiu	a0,sp,24
    1748:	27a50014 	addiu	a1,sp,20
    174c:	0c000b1a 	jal	2c68 <float32::operator+(float32 const&) const>
    1750:	27a60020 	addiu	a2,sp,32
    1754:	27a40048 	addiu	a0,sp,72
    1758:	27a50044 	addiu	a1,sp,68
    175c:	0c000bd8 	jal	2f60 <f32::atan2(float32 const&, float32 const&)>
    1760:	27a60018 	addiu	a2,sp,24
    1764:	27a4001c 	addiu	a0,sp,28
    1768:	27a50048 	addiu	a1,sp,72
    176c:	0c000b63 	jal	2d8c <float32::operator*(float32 const&) const>
    1770:	27a60034 	addiu	a2,sp,52
    1774:	27a4003c 	addiu	a0,sp,60
    1778:	02802821 	move	a1,s4
    177c:	0c000b63 	jal	2d8c <float32::operator*(float32 const&) const>
    1780:	02203021 	move	a2,s1
    1784:	27a40038 	addiu	a0,sp,56
    1788:	02002821 	move	a1,s0
    178c:	0c000b63 	jal	2d8c <float32::operator*(float32 const&) const>
    1790:	02403021 	move	a2,s2
    1794:	27a40040 	addiu	a0,sp,64
    1798:	27a5003c 	addiu	a1,sp,60
    179c:	0c000b3f 	jal	2cfc <float32::operator-(float32 const&) const>
    17a0:	27a60038 	addiu	a2,sp,56
    17a4:	27a40044 	addiu	a0,sp,68
    17a8:	27a50030 	addiu	a1,sp,48
    17ac:	0c000b63 	jal	2d8c <float32::operator*(float32 const&) const>
    17b0:	27a60040 	addiu	a2,sp,64
    17b4:	27a50044 	addiu	a1,sp,68
    17b8:	3c023ec8 	lui	v0,0x3ec8
    17bc:	00a03021 	move	a2,a1
    17c0:	24423127 	addiu	v0,v0,12583
    17c4:	27a40014 	addiu	a0,sp,20
    17c8:	0c000b63 	jal	2d8c <float32::operator*(float32 const&) const>
    17cc:	afa20018 	sw	v0,24(sp)
    17d0:	27a40014 	addiu	a0,sp,20
    17d4:	0c000c60 	jal	3180 <float32::operator*=(float32 const&)>
    17d8:	00802821 	move	a1,a0
    17dc:	27a40014 	addiu	a0,sp,20
    17e0:	0c000c60 	jal	3180 <float32::operator*=(float32 const&)>
    17e4:	27a50044 	addiu	a1,sp,68
    17e8:	27a40010 	addiu	a0,sp,16
    17ec:	27a50018 	addiu	a1,sp,24
    17f0:	0c000b63 	jal	2d8c <float32::operator*(float32 const&) const>
    17f4:	27a60014 	addiu	a2,sp,20
    17f8:	27a40048 	addiu	a0,sp,72
    17fc:	27a50044 	addiu	a1,sp,68
    1800:	0c000b1a 	jal	2c68 <float32::operator+(float32 const&) const>
    1804:	27a60010 	addiu	a2,sp,16
    1808:	27a40014 	addiu	a0,sp,20
    180c:	27a50048 	addiu	a1,sp,72
    1810:	0c000b63 	jal	2d8c <float32::operator*(float32 const&) const>
    1814:	27a60034 	addiu	a2,sp,52
    1818:	27a40044 	addiu	a0,sp,68
    181c:	02802821 	move	a1,s4
    1820:	0c000b63 	jal	2d8c <float32::operator*(float32 const&) const>
    1824:	02003021 	move	a2,s0
    1828:	27a40040 	addiu	a0,sp,64
    182c:	02402821 	move	a1,s2
    1830:	0c000b63 	jal	2d8c <float32::operator*(float32 const&) const>
    1834:	02203021 	move	a2,s1
    1838:	27a40048 	addiu	a0,sp,72
    183c:	27a50044 	addiu	a1,sp,68
    1840:	0c000b1a 	jal	2c68 <float32::operator+(float32 const&) const>
    1844:	27a60040 	addiu	a2,sp,64
    1848:	27a4004c 	addiu	a0,sp,76
    184c:	27a50030 	addiu	a1,sp,48
    1850:	0c000b63 	jal	2d8c <float32::operator*(float32 const&) const>
    1854:	27a60048 	addiu	a2,sp,72
    1858:	27a40018 	addiu	a0,sp,24
    185c:	27a5002c 	addiu	a1,sp,44
    1860:	0c000b1a 	jal	2c68 <float32::operator+(float32 const&) const>
    1864:	27a60028 	addiu	a2,sp,40
    1868:	27a40038 	addiu	a0,sp,56
    186c:	27a50018 	addiu	a1,sp,24
    1870:	0c000b3f 	jal	2cfc <float32::operator-(float32 const&) const>
    1874:	27a60024 	addiu	a2,sp,36
    1878:	27a4003c 	addiu	a0,sp,60
    187c:	27a50038 	addiu	a1,sp,56
    1880:	0c000b3f 	jal	2cfc <float32::operator-(float32 const&) const>
    1884:	27a60020 	addiu	a2,sp,32
    1888:	27a40050 	addiu	a0,sp,80
    188c:	27a5004c 	addiu	a1,sp,76
    1890:	0c000bd8 	jal	2f60 <f32::atan2(float32 const&, float32 const&)>
    1894:	27a6003c 	addiu	a2,sp,60
    1898:	27a40010 	addiu	a0,sp,16
    189c:	27a50050 	addiu	a1,sp,80
    18a0:	0c000b63 	jal	2d8c <float32::operator*(float32 const&) const>
    18a4:	27a60034 	addiu	a2,sp,52
    18a8:	0c00081a 	jal	2068 <_ZN6System8Registry8instanceEv.local.10>
    18ac:	00000000 	nop
    18b0:	8fa3001c 	lw	v1,28(sp)
    18b4:	0c00081a 	jal	2068 <_ZN6System8Registry8instanceEv.local.10>
    18b8:	ac430010 	sw	v1,16(v0)
    18bc:	8fa30014 	lw	v1,20(sp)
    18c0:	0c00081a 	jal	2068 <_ZN6System8Registry8instanceEv.local.10>
    18c4:	ac430014 	sw	v1,20(v0)
    18c8:	8fa30010 	lw	v1,16(sp)
    18cc:	8fbf01fc 	lw	ra,508(sp)
    18d0:	8fbe01f8 	lw	s8,504(sp)
    18d4:	8fb701f4 	lw	s7,500(sp)
    18d8:	8fb601f0 	lw	s6,496(sp)
    18dc:	8fb501ec 	lw	s5,492(sp)
    18e0:	8fb401e8 	lw	s4,488(sp)
    18e4:	8fb301e4 	lw	s3,484(sp)
    18e8:	8fb201e0 	lw	s2,480(sp)
    18ec:	8fb101dc 	lw	s1,476(sp)
    18f0:	8fb001d8 	lw	s0,472(sp)
    18f4:	ac430018 	sw	v1,24(v0)
    18f8:	03e00008 	jr	ra
    18fc:	27bd0200 	addiu	sp,sp,512

00001900 <Radio::Digital::XBeeReadIdleTask::start()>:
    1900:	8c020018 	lw	v0,24(zero)
    1904:	00000000 	nop
    1908:	00021403 	sra	v0,v0,0x10
    190c:	1040004a 	beqz	v0,1a38 <Radio::Digital::XBeeReadIdleTask::start()+0x138>
    1910:	00000000 	nop
    1914:	8c050018 	lw	a1,24(zero)
    1918:	8c820040 	lw	v0,64(a0)
    191c:	27bdffe8 	addiu	sp,sp,-24
    1920:	30a300ff 	andi	v1,a1,0xff
    1924:	afb00010 	sw	s0,16(sp)
    1928:	afbf0014 	sw	ra,20(sp)
    192c:	00808021 	move	s0,a0
    1930:	ac000018 	sw	zero,24(zero)
    1934:	1440000f 	bnez	v0,1974 <Radio::Digital::XBeeReadIdleTask::start()+0x74>
    1938:	00000000 	nop
    193c:	30a200ff 	andi	v0,a1,0xff
    1940:	2404003e 	li	a0,62
    1944:	14440005 	bne	v0,a0,195c <Radio::Digital::XBeeReadIdleTask::start()+0x5c>
    1948:	00000000 	nop
    194c:	3c020000 	lui	v0,0x0
    1950:	a200003c 	sb	zero,60(s0)
    1954:	08000685 	j	1a14 <Radio::Digital::XBeeReadIdleTask::start()+0x114>
    1958:	24423c58 	addiu	v0,v0,15448
    195c:	10600033 	beqz	v1,1a2c <Radio::Digital::XBeeReadIdleTask::start()+0x12c>
    1960:	28430005 	slti	v1,v0,5
    1964:	14600025 	bnez	v1,19fc <Radio::Digital::XBeeReadIdleTask::start()+0xfc>
    1968:	3c038000 	lui	v1,0x8000
    196c:	0800068b 	j	1a2c <Radio::Digital::XBeeReadIdleTask::start()+0x12c>
    1970:	00000000 	nop
    1974:	8c840038 	lw	a0,56(a0)
    1978:	00000000 	nop
    197c:	2c870020 	sltiu	a3,a0,32
    1980:	10e00006 	beqz	a3,199c <Radio::Digital::XBeeReadIdleTask::start()+0x9c>
    1984:	24060001 	li	a2,1
    1988:	02043021 	addu	a2,s0,a0
    198c:	24840001 	addiu	a0,a0,1
    1990:	a0c50014 	sb	a1,20(a2)
    1994:	ae040038 	sw	a0,56(s0)
    1998:	00003021 	move	a2,zero
    199c:	3c040000 	lui	a0,0x0
    19a0:	24843c58 	addiu	a0,a0,15448
    19a4:	1444000a 	bne	v0,a0,19d0 <Radio::Digital::XBeeReadIdleTask::start()+0xd0>
    19a8:	2404000d 	li	a0,13
    19ac:	10640003 	beq	v1,a0,19bc <Radio::Digital::XBeeReadIdleTask::start()+0xbc>
    19b0:	2404000a 	li	a0,10
    19b4:	1464000b 	bne	v1,a0,19e4 <Radio::Digital::XBeeReadIdleTask::start()+0xe4>
    19b8:	00000000 	nop
    19bc:	8e030038 	lw	v1,56(s0)
    19c0:	00000000 	nop
    19c4:	02031821 	addu	v1,s0,v1
    19c8:	08000687 	j	1a1c <Radio::Digital::XBeeReadIdleTask::start()+0x11c>
    19cc:	a0600014 	sb	zero,20(v1)
    19d0:	9203003c 	lbu	v1,60(s0)
    19d4:	8e040038 	lw	a0,56(s0)
    19d8:	00000000 	nop
    19dc:	1083000f 	beq	a0,v1,1a1c <Radio::Digital::XBeeReadIdleTask::start()+0x11c>
    19e0:	00000000 	nop
    19e4:	10c00011 	beqz	a2,1a2c <Radio::Digital::XBeeReadIdleTask::start()+0x12c>
    19e8:	00000000 	nop
    19ec:	ae000038 	sw	zero,56(s0)
    19f0:	a200003c 	sb	zero,60(s0)
    19f4:	0800068b 	j	1a2c <Radio::Digital::XBeeReadIdleTask::start()+0x12c>
    19f8:	ae000040 	sw	zero,64(s0)
    19fc:	2463012c 	addiu	v1,v1,300
    1a00:	000210c0 	sll	v0,v0,0x3
    1a04:	00621021 	addu	v0,v1,v0
    1a08:	90430000 	lbu	v1,0(v0)
    1a0c:	8c420004 	lw	v0,4(v0)
    1a10:	a203003c 	sb	v1,60(s0)
    1a14:	0800068b 	j	1a2c <Radio::Digital::XBeeReadIdleTask::start()+0x12c>
    1a18:	ae020040 	sw	v0,64(s0)
    1a1c:	0040f809 	jalr	v0
    1a20:	26040014 	addiu	a0,s0,20
    1a24:	0800067c 	j	19f0 <Radio::Digital::XBeeReadIdleTask::start()+0xf0>
    1a28:	ae000038 	sw	zero,56(s0)
    1a2c:	8fbf0014 	lw	ra,20(sp)
    1a30:	8fb00010 	lw	s0,16(sp)
    1a34:	27bd0018 	addiu	sp,sp,24
    1a38:	03e00008 	jr	ra
    1a3c:	00000000 	nop

00001a40 <System::Tasking::Task::start()>:
    1a40:	03e00008 	jr	ra
    1a44:	00000000 	nop

00001a48 <_ZN7float3212roundAndPackEbij.1834>:
    1a48:	30a2ffff 	andi	v0,a1,0xffff
    1a4c:	2c4200fd 	sltiu	v0,v0,253
    1a50:	1440001b 	bnez	v0,1ac0 <_ZN7float3212roundAndPackEbij.1834+0x78>
    1a54:	30c3007f 	andi	v1,a2,0x7f
    1a58:	28a200fe 	slti	v0,a1,254
    1a5c:	10400007 	beqz	v0,1a7c <_ZN7float3212roundAndPackEbij.1834+0x34>
    1a60:	000417c0 	sll	v0,a0,0x1f
    1a64:	240200fd 	li	v0,253
    1a68:	14a20007 	bne	a1,v0,1a88 <_ZN7float3212roundAndPackEbij.1834+0x40>
    1a6c:	24c20040 	addiu	v0,a2,64
    1a70:	04410013 	bgez	v0,1ac0 <_ZN7float3212roundAndPackEbij.1834+0x78>
    1a74:	00000000 	nop
    1a78:	000417c0 	sll	v0,a0,0x1f
    1a7c:	3c037f80 	lui	v1,0x7f80
    1a80:	03e00008 	jr	ra
    1a84:	00431021 	addu	v0,v0,v1
    1a88:	04a1000d 	bgez	a1,1ac0 <_ZN7float3212roundAndPackEbij.1834+0x78>
    1a8c:	00000000 	nop
    1a90:	00051023 	negu	v0,a1
    1a94:	28430020 	slti	v1,v0,32
    1a98:	10600006 	beqz	v1,1ab4 <_ZN7float3212roundAndPackEbij.1834+0x6c>
    1a9c:	00000000 	nop
    1aa0:	00461006 	srlv	v0,a2,v0
    1aa4:	00a63004 	sllv	a2,a2,a1
    1aa8:	0006302b 	sltu	a2,zero,a2
    1aac:	080006ae 	j	1ab8 <_ZN7float3212roundAndPackEbij.1834+0x70>
    1ab0:	00c23025 	or	a2,a2,v0
    1ab4:	0006302b 	sltu	a2,zero,a2
    1ab8:	30c3007f 	andi	v1,a2,0x7f
    1abc:	00002821 	move	a1,zero
    1ac0:	24c60040 	addiu	a2,a2,64
    1ac4:	000639c2 	srl	a3,a2,0x7
    1ac8:	38660040 	xori	a2,v1,0x40
    1acc:	2cc60001 	sltiu	a2,a2,1
    1ad0:	00063027 	nor	a2,zero,a2
    1ad4:	00c73024 	and	a2,a2,a3
    1ad8:	0006102b 	sltu	v0,zero,a2
    1adc:	00021023 	negu	v0,v0
    1ae0:	00a22824 	and	a1,a1,v0
    1ae4:	000417c0 	sll	v0,a0,0x1f
    1ae8:	00c21021 	addu	v0,a2,v0
    1aec:	00052dc0 	sll	a1,a1,0x17
    1af0:	03e00008 	jr	ra
    1af4:	00451021 	addu	v0,v0,a1

00001af8 <_ZNK7float32dvERKS_.1685>:
    1af8:	8ca20000 	lw	v0,0(a1)
    1afc:	8cc70000 	lw	a3,0(a2)
    1b00:	27bdffe8 	addiu	sp,sp,-24
    1b04:	00022dc2 	srl	a1,v0,0x17
    1b08:	000735c2 	srl	a2,a3,0x17
    1b0c:	afb00010 	sw	s0,16(sp)
    1b10:	30a500ff 	andi	a1,a1,0xff
    1b14:	00808021 	move	s0,a0
    1b18:	240300ff 	li	v1,255
    1b1c:	00472026 	xor	a0,v0,a3
    1b20:	afbf0014 	sw	ra,20(sp)
    1b24:	30c600ff 	andi	a2,a2,0xff
    1b28:	14a30005 	bne	a1,v1,1b40 <_ZNK7float32dvERKS_.1685+0x48>
    1b2c:	000427c2 	srl	a0,a0,0x1f
    1b30:	14c50011 	bne	a2,a1,1b78 <_ZNK7float32dvERKS_.1685+0x80>
    1b34:	2402ffff 	li	v0,-1
    1b38:	08000788 	j	1e20 <_ZNK7float32dvERKS_.1685+0x328>
    1b3c:	ae020000 	sw	v0,0(s0)
    1b40:	14c30003 	bne	a2,v1,1b50 <_ZNK7float32dvERKS_.1685+0x58>
    1b44:	00000000 	nop
    1b48:	08000701 	j	1c04 <_ZNK7float32dvERKS_.1685+0x10c>
    1b4c:	000427c0 	sll	a0,a0,0x1f
    1b50:	3c03007f 	lui	v1,0x7f
    1b54:	3463ffff 	ori	v1,v1,0xffff
    1b58:	00431024 	and	v0,v0,v1
    1b5c:	14c00024 	bnez	a2,1bf0 <_ZNK7float32dvERKS_.1685+0xf8>
    1b60:	00e31824 	and	v1,a3,v1
    1b64:	14600008 	bnez	v1,1b88 <_ZNK7float32dvERKS_.1685+0x90>
    1b68:	00000000 	nop
    1b6c:	00a21025 	or	v0,a1,v0
    1b70:	104000aa 	beqz	v0,1e1c <_ZNK7float32dvERKS_.1685+0x324>
    1b74:	2402ffff 	li	v0,-1
    1b78:	000427c0 	sll	a0,a0,0x1f
    1b7c:	3c027f80 	lui	v0,0x7f80
    1b80:	08000701 	j	1c04 <_ZNK7float32dvERKS_.1685+0x10c>
    1b84:	00822021 	addu	a0,a0,v0
    1b88:	3c060001 	lui	a2,0x1
    1b8c:	0066302b 	sltu	a2,v1,a2
    1b90:	10c00008 	beqz	a2,1bb4 <_ZNK7float32dvERKS_.1685+0xbc>
    1b94:	00603821 	move	a3,v1
    1b98:	00033c00 	sll	a3,v1,0x10
    1b9c:	3c080100 	lui	t0,0x100
    1ba0:	00e8402b 	sltu	t0,a3,t0
    1ba4:	11000006 	beqz	t0,1bc0 <_ZNK7float32dvERKS_.1685+0xc8>
    1ba8:	24060010 	li	a2,16
    1bac:	080006ef 	j	1bbc <_ZNK7float32dvERKS_.1685+0xc4>
    1bb0:	24c60008 	addiu	a2,a2,8
    1bb4:	00003021 	move	a2,zero
    1bb8:	24c60008 	addiu	a2,a2,8
    1bbc:	00073a00 	sll	a3,a3,0x8
    1bc0:	3c088000 	lui	t0,0x8000
    1bc4:	00073e02 	srl	a3,a3,0x18
    1bc8:	25080020 	addiu	t0,t0,32
    1bcc:	00e83821 	addu	a3,a3,t0
    1bd0:	90e70000 	lbu	a3,0(a3)
    1bd4:	24c6fff8 	addiu	a2,a2,-8
    1bd8:	00c73021 	addu	a2,a2,a3
    1bdc:	00063600 	sll	a2,a2,0x18
    1be0:	00063603 	sra	a2,a2,0x18
    1be4:	24070001 	li	a3,1
    1be8:	00c31804 	sllv	v1,v1,a2
    1bec:	00e63023 	subu	a2,a3,a2
    1bf0:	14a00020 	bnez	a1,1c74 <_ZNK7float32dvERKS_.1685+0x17c>
    1bf4:	00000000 	nop
    1bf8:	14400004 	bnez	v0,1c0c <_ZNK7float32dvERKS_.1685+0x114>
    1bfc:	00000000 	nop
    1c00:	000427c0 	sll	a0,a0,0x1f
    1c04:	08000788 	j	1e20 <_ZNK7float32dvERKS_.1685+0x328>
    1c08:	ae040000 	sw	a0,0(s0)
    1c0c:	3c050001 	lui	a1,0x1
    1c10:	0045282b 	sltu	a1,v0,a1
    1c14:	10a00008 	beqz	a1,1c38 <_ZNK7float32dvERKS_.1685+0x140>
    1c18:	00403821 	move	a3,v0
    1c1c:	00023c00 	sll	a3,v0,0x10
    1c20:	3c080100 	lui	t0,0x100
    1c24:	00e8402b 	sltu	t0,a3,t0
    1c28:	11000006 	beqz	t0,1c44 <_ZNK7float32dvERKS_.1685+0x14c>
    1c2c:	24050010 	li	a1,16
    1c30:	08000710 	j	1c40 <_ZNK7float32dvERKS_.1685+0x148>
    1c34:	24a50008 	addiu	a1,a1,8
    1c38:	00002821 	move	a1,zero
    1c3c:	24a50008 	addiu	a1,a1,8
    1c40:	00073a00 	sll	a3,a3,0x8
    1c44:	3c088000 	lui	t0,0x8000
    1c48:	00073e02 	srl	a3,a3,0x18
    1c4c:	25080020 	addiu	t0,t0,32
    1c50:	00e83821 	addu	a3,a3,t0
    1c54:	90e70000 	lbu	a3,0(a3)
    1c58:	24a5fff8 	addiu	a1,a1,-8
    1c5c:	00a72821 	addu	a1,a1,a3
    1c60:	00052e00 	sll	a1,a1,0x18
    1c64:	00052e03 	sra	a1,a1,0x18
    1c68:	24070001 	li	a3,1
    1c6c:	00a21004 	sllv	v0,v0,a1
    1c70:	00e52823 	subu	a1,a3,a1
    1c74:	00a62823 	subu	a1,a1,a2
    1c78:	3c060080 	lui	a2,0x80
    1c7c:	00461025 	or	v0,v0,a2
    1c80:	00661825 	or	v1,v1,a2
    1c84:	000239c0 	sll	a3,v0,0x7
    1c88:	00031a00 	sll	v1,v1,0x8
    1c8c:	00021200 	sll	v0,v0,0x8
    1c90:	0043102b 	sltu	v0,v0,v1
    1c94:	10400003 	beqz	v0,1ca4 <_ZNK7float32dvERKS_.1685+0x1ac>
    1c98:	00000000 	nop
    1c9c:	0800072b 	j	1cac <_ZNK7float32dvERKS_.1685+0x1b4>
    1ca0:	24a5007d 	addiu	a1,a1,125
    1ca4:	00073842 	srl	a3,a3,0x1
    1ca8:	24a5007e 	addiu	a1,a1,126
    1cac:	00e3102b 	sltu	v0,a3,v1
    1cb0:	10400044 	beqz	v0,1dc4 <_ZNK7float32dvERKS_.1685+0x2cc>
    1cb4:	2406ffff 	li	a2,-1
    1cb8:	00034c02 	srl	t1,v1,0x10
    1cbc:	00091400 	sll	v0,t1,0x10
    1cc0:	00e2402b 	sltu	t0,a3,v0
    1cc4:	11000014 	beqz	t0,1d18 <_ZNK7float32dvERKS_.1685+0x220>
    1cc8:	3c06ffff 	lui	a2,0xffff
    1ccc:	00003021 	move	a2,zero
    1cd0:	2408001f 	li	t0,31
    1cd4:	00005021 	move	t2,zero
    1cd8:	240c0001 	li	t4,1
    1cdc:	240bffff 	li	t3,-1
    1ce0:	010c6804 	sllv	t5,t4,t0
    1ce4:	01a76824 	and	t5,t5,a3
    1ce8:	010d6807 	srav	t5,t5,t0
    1cec:	000a5040 	sll	t2,t2,0x1
    1cf0:	014d5021 	addu	t2,t2,t5
    1cf4:	0149682a 	slt	t5,t2,t1
    1cf8:	15a00003 	bnez	t5,1d08 <_ZNK7float32dvERKS_.1685+0x210>
    1cfc:	00063040 	sll	a2,a2,0x1
    1d00:	01495023 	subu	t2,t2,t1
    1d04:	24c60001 	addiu	a2,a2,1
    1d08:	2508ffff 	addiu	t0,t0,-1
    1d0c:	150bfff4 	bne	t0,t3,1ce0 <_ZNK7float32dvERKS_.1685+0x1e8>
    1d10:	00000000 	nop
    1d14:	00063400 	sll	a2,a2,0x10
    1d18:	00c30019 	multu	a2,v1
    1d1c:	00036400 	sll	t4,v1,0x10
    1d20:	3c0dffff 	lui	t5,0xffff
    1d24:	00005812 	mflo	t3
    1d28:	000b4023 	negu	t0,t3
    1d2c:	0008582b 	sltu	t3,zero,t0
    1d30:	00005010 	mfhi	t2
    1d34:	00ea5023 	subu	t2,a3,t2
    1d38:	014b5023 	subu	t2,t2,t3
    1d3c:	08000757 	j	1d5c <_ZNK7float32dvERKS_.1685+0x264>
    1d40:	01005821 	move	t3,t0
    1d44:	010c5821 	addu	t3,t0,t4
    1d48:	0168402b 	sltu	t0,t3,t0
    1d4c:	01495021 	addu	t2,t2,t1
    1d50:	010a5021 	addu	t2,t0,t2
    1d54:	00cd3021 	addu	a2,a2,t5
    1d58:	01604021 	move	t0,t3
    1d5c:	0540fff9 	bltz	t2,1d44 <_ZNK7float32dvERKS_.1685+0x24c>
    1d60:	000b5c02 	srl	t3,t3,0x10
    1d64:	000a5400 	sll	t2,t2,0x10
    1d68:	016a5025 	or	t2,t3,t2
    1d6c:	0142102b 	sltu	v0,t2,v0
    1d70:	10400013 	beqz	v0,1dc0 <_ZNK7float32dvERKS_.1685+0x2c8>
    1d74:	3408ffff 	li	t0,0xffff
    1d78:	00004021 	move	t0,zero
    1d7c:	240b001f 	li	t3,31
    1d80:	00006021 	move	t4,zero
    1d84:	240d0001 	li	t5,1
    1d88:	2402ffff 	li	v0,-1
    1d8c:	016d7004 	sllv	t6,t5,t3
    1d90:	01ca7024 	and	t6,t6,t2
    1d94:	016e7007 	srav	t6,t6,t3
    1d98:	000c6040 	sll	t4,t4,0x1
    1d9c:	018e6021 	addu	t4,t4,t6
    1da0:	0189702a 	slt	t6,t4,t1
    1da4:	15c00003 	bnez	t6,1db4 <_ZNK7float32dvERKS_.1685+0x2bc>
    1da8:	00084040 	sll	t0,t0,0x1
    1dac:	01896023 	subu	t4,t4,t1
    1db0:	25080001 	addiu	t0,t0,1
    1db4:	256bffff 	addiu	t3,t3,-1
    1db8:	1562fff5 	bne	t3,v0,1d90 <_ZNK7float32dvERKS_.1685+0x298>
    1dbc:	016d7004 	sllv	t6,t5,t3
    1dc0:	01063025 	or	a2,t0,a2
    1dc4:	30c2003f 	andi	v0,a2,0x3f
    1dc8:	2c420003 	sltiu	v0,v0,3
    1dcc:	10400011 	beqz	v0,1e14 <_ZNK7float32dvERKS_.1685+0x31c>
    1dd0:	00c30019 	multu	a2,v1
    1dd4:	00004812 	mflo	t1
    1dd8:	00094823 	negu	t1,t1
    1ddc:	0009102b 	sltu	v0,zero,t1
    1de0:	00004010 	mfhi	t0
    1de4:	00e83823 	subu	a3,a3,t0
    1de8:	00e23823 	subu	a3,a3,v0
    1dec:	08000782 	j	1e08 <_ZNK7float32dvERKS_.1685+0x310>
    1df0:	01201021 	move	v0,t1
    1df4:	01231021 	addu	v0,t1,v1
    1df8:	0049482b 	sltu	t1,v0,t1
    1dfc:	01273821 	addu	a3,t1,a3
    1e00:	24c6ffff 	addiu	a2,a2,-1
    1e04:	00404821 	move	t1,v0
    1e08:	04e0fffa 	bltz	a3,1df4 <_ZNK7float32dvERKS_.1685+0x2fc>
    1e0c:	0002102b 	sltu	v0,zero,v0
    1e10:	00c23025 	or	a2,a2,v0
    1e14:	0c000692 	jal	1a48 <_ZN7float3212roundAndPackEbij.1834>
    1e18:	00000000 	nop
    1e1c:	ae020000 	sw	v0,0(s0)
    1e20:	8fbf0014 	lw	ra,20(sp)
    1e24:	02001021 	move	v0,s0
    1e28:	8fb00010 	lw	s0,16(sp)
    1e2c:	03e00008 	jr	ra
    1e30:	27bd0018 	addiu	sp,sp,24

00001e34 <_ZN7float327addSigsEjjb.1829>:
    1e34:	3c07007f 	lui	a3,0x7f
    1e38:	00801021 	move	v0,a0
    1e3c:	34e7ffff 	ori	a3,a3,0xffff
    1e40:	00474024 	and	t0,v0,a3
    1e44:	00024dc2 	srl	t1,v0,0x17
    1e48:	00a73824 	and	a3,a1,a3
    1e4c:	00052dc2 	srl	a1,a1,0x17
    1e50:	312900ff 	andi	t1,t1,0xff
    1e54:	30a500ff 	andi	a1,a1,0xff
    1e58:	01251823 	subu	v1,t1,a1
    1e5c:	00c02021 	move	a0,a2
    1e60:	00084180 	sll	t0,t0,0x6
    1e64:	18600017 	blez	v1,1ec4 <_ZN7float327addSigsEjjb.1829+0x90>
    1e68:	00073980 	sll	a3,a3,0x6
    1e6c:	240600ff 	li	a2,255
    1e70:	11260045 	beq	t1,a2,1f88 <_ZN7float327addSigsEjjb.1829+0x154>
    1e74:	00000000 	nop
    1e78:	14a00006 	bnez	a1,1e94 <_ZN7float327addSigsEjjb.1829+0x60>
    1e7c:	3c022000 	lui	v0,0x2000
    1e80:	2463ffff 	addiu	v1,v1,-1
    1e84:	10600036 	beqz	v1,1f60 <_ZN7float327addSigsEjjb.1829+0x12c>
    1e88:	01202821 	move	a1,t1
    1e8c:	080007a7 	j	1e9c <_ZN7float327addSigsEjjb.1829+0x68>
    1e90:	28620020 	slti	v0,v1,32
    1e94:	00e23825 	or	a3,a3,v0
    1e98:	28620020 	slti	v0,v1,32
    1e9c:	10400006 	beqz	v0,1eb8 <_ZN7float327addSigsEjjb.1829+0x84>
    1ea0:	00671006 	srlv	v0,a3,v1
    1ea4:	00031823 	negu	v1,v1
    1ea8:	00673804 	sllv	a3,a3,v1
    1eac:	0007382b 	sltu	a3,zero,a3
    1eb0:	080007af 	j	1ebc <_ZN7float327addSigsEjjb.1829+0x88>
    1eb4:	00e23825 	or	a3,a3,v0
    1eb8:	0007382b 	sltu	a3,zero,a3
    1ebc:	080007d8 	j	1f60 <_ZN7float327addSigsEjjb.1829+0x12c>
    1ec0:	01202821 	move	a1,t1
    1ec4:	10600017 	beqz	v1,1f24 <_ZN7float327addSigsEjjb.1829+0xf0>
    1ec8:	00000000 	nop
    1ecc:	240200ff 	li	v0,255
    1ed0:	14a20004 	bne	a1,v0,1ee4 <_ZN7float327addSigsEjjb.1829+0xb0>
    1ed4:	000617c0 	sll	v0,a2,0x1f
    1ed8:	3c037f80 	lui	v1,0x7f80
    1edc:	03e00008 	jr	ra
    1ee0:	00431021 	addu	v0,v0,v1
    1ee4:	15200003 	bnez	t1,1ef4 <_ZN7float327addSigsEjjb.1829+0xc0>
    1ee8:	3c022000 	lui	v0,0x2000
    1eec:	080007be 	j	1ef8 <_ZN7float327addSigsEjjb.1829+0xc4>
    1ef0:	24630001 	addiu	v1,v1,1
    1ef4:	01024025 	or	t0,t0,v0
    1ef8:	00031023 	negu	v0,v1
    1efc:	10400018 	beqz	v0,1f60 <_ZN7float327addSigsEjjb.1829+0x12c>
    1f00:	28460020 	slti	a2,v0,32
    1f04:	10c00005 	beqz	a2,1f1c <_ZN7float327addSigsEjjb.1829+0xe8>
    1f08:	00481006 	srlv	v0,t0,v0
    1f0c:	00684004 	sllv	t0,t0,v1
    1f10:	0008402b 	sltu	t0,zero,t0
    1f14:	080007d8 	j	1f60 <_ZN7float327addSigsEjjb.1829+0x12c>
    1f18:	01024025 	or	t0,t0,v0
    1f1c:	080007d8 	j	1f60 <_ZN7float327addSigsEjjb.1829+0x12c>
    1f20:	0008402b 	sltu	t0,zero,t0
    1f24:	240300ff 	li	v1,255
    1f28:	11230017 	beq	t1,v1,1f88 <_ZN7float327addSigsEjjb.1829+0x154>
    1f2c:	00000000 	nop
    1f30:	15200006 	bnez	t1,1f4c <_ZN7float327addSigsEjjb.1829+0x118>
    1f34:	00000000 	nop
    1f38:	00e81021 	addu	v0,a3,t0
    1f3c:	000627c0 	sll	a0,a2,0x1f
    1f40:	00021182 	srl	v0,v0,0x6
    1f44:	03e00008 	jr	ra
    1f48:	00441021 	addu	v0,v0,a0
    1f4c:	3c034000 	lui	v1,0x4000
    1f50:	01034021 	addu	t0,t0,v1
    1f54:	01073021 	addu	a2,t0,a3
    1f58:	080007e0 	j	1f80 <_ZN7float327addSigsEjjb.1829+0x14c>
    1f5c:	01202821 	move	a1,t1
    1f60:	3c032000 	lui	v1,0x2000
    1f64:	01034025 	or	t0,t0,v1
    1f68:	01073021 	addu	a2,t0,a3
    1f6c:	00061040 	sll	v0,a2,0x1
    1f70:	04400003 	bltz	v0,1f80 <_ZN7float327addSigsEjjb.1829+0x14c>
    1f74:	00000000 	nop
    1f78:	24a5ffff 	addiu	a1,a1,-1
    1f7c:	00403021 	move	a2,v0
    1f80:	08000692 	j	1a48 <_ZN7float3212roundAndPackEbij.1834>
    1f84:	00000000 	nop
    1f88:	03e00008 	jr	ra
    1f8c:	00000000 	nop

00001f90 <_ZNK7float32ltERKS_.1842>:
    1f90:	8c830000 	lw	v1,0(a0)
    1f94:	8ca40000 	lw	a0,0(a1)
    1f98:	00032dc2 	srl	a1,v1,0x17
    1f9c:	30a500ff 	andi	a1,a1,0xff
    1fa0:	240200ff 	li	v0,255
    1fa4:	14a20007 	bne	a1,v0,1fc4 <_ZNK7float32ltERKS_.1842+0x34>
    1fa8:	00042dc2 	srl	a1,a0,0x17
    1fac:	3c05007f 	lui	a1,0x7f
    1fb0:	34a5ffff 	ori	a1,a1,0xffff
    1fb4:	00652824 	and	a1,v1,a1
    1fb8:	14a00020 	bnez	a1,203c <_ZNK7float32ltERKS_.1842+0xac>
    1fbc:	00001021 	move	v0,zero
    1fc0:	00042dc2 	srl	a1,a0,0x17
    1fc4:	30a500ff 	andi	a1,a1,0xff
    1fc8:	240200ff 	li	v0,255
    1fcc:	14a20016 	bne	a1,v0,2028 <_ZNK7float32ltERKS_.1842+0x98>
    1fd0:	00032fc2 	srl	a1,v1,0x1f
    1fd4:	3c05007f 	lui	a1,0x7f
    1fd8:	34a5ffff 	ori	a1,a1,0xffff
    1fdc:	00852824 	and	a1,a0,a1
    1fe0:	14a00016 	bnez	a1,203c <_ZNK7float32ltERKS_.1842+0xac>
    1fe4:	00001021 	move	v0,zero
    1fe8:	0800080a 	j	2028 <_ZNK7float32ltERKS_.1842+0x98>
    1fec:	00032fc2 	srl	a1,v1,0x1f
    1ff0:	10a00012 	beqz	a1,203c <_ZNK7float32ltERKS_.1842+0xac>
    1ff4:	00001021 	move	v0,zero
    1ff8:	00831825 	or	v1,a0,v1
    1ffc:	00031840 	sll	v1,v1,0x1
    2000:	1060000e 	beqz	v1,203c <_ZNK7float32ltERKS_.1842+0xac>
    2004:	00000000 	nop
    2008:	03e00008 	jr	ra
    200c:	24020001 	li	v0,1
    2010:	10640003 	beq	v1,a0,2020 <_ZNK7float32ltERKS_.1842+0x90>
    2014:	0064182b 	sltu	v1,v1,a0
    2018:	14a3fffb 	bne	a1,v1,2008 <_ZNK7float32ltERKS_.1842+0x78>
    201c:	00000000 	nop
    2020:	03e00008 	jr	ra
    2024:	00001021 	move	v0,zero
    2028:	000417c2 	srl	v0,a0,0x1f
    202c:	14a2fff0 	bne	a1,v0,1ff0 <_ZNK7float32ltERKS_.1842+0x60>
    2030:	00000000 	nop
    2034:	08000804 	j	2010 <_ZNK7float32ltERKS_.1842+0x80>
    2038:	00000000 	nop
    203c:	03e00008 	jr	ra
    2040:	00000000 	nop

00002044 <_ZN5Radio8Messages14defaultHandlerEPc.1846>:
    2044:	03e00008 	jr	ra
    2048:	00000000 	nop

0000204c <_ZN6System7Tasking14ContinuousTaskC2Ev.local.5>:
    204c:	3c028000 	lui	v0,0x8000
    2050:	24420128 	addiu	v0,v0,296
    2054:	ac800004 	sw	zero,4(a0)
    2058:	ac800008 	sw	zero,8(a0)
    205c:	ac80000c 	sw	zero,12(a0)
    2060:	03e00008 	jr	ra
    2064:	ac820000 	sw	v0,0(a0)

00002068 <_ZN6System8Registry8instanceEv.local.10>:
    2068:	3c028000 	lui	v0,0x8000
    206c:	804304b8 	lb	v1,1208(v0)
    2070:	00402021 	move	a0,v0
    2074:	14600012 	bnez	v1,20c0 <_ZN6System8Registry8instanceEv.local.10+0x58>
    2078:	3c028000 	lui	v0,0x8000
    207c:	3c038000 	lui	v1,0x8000
    2080:	244504c0 	addiu	a1,v0,1216
    2084:	246304dc 	addiu	v1,v1,1244
    2088:	24a500b8 	addiu	a1,a1,184
    208c:	ac600000 	sw	zero,0(v1)
    2090:	24630004 	addiu	v1,v1,4
    2094:	1465fffd 	bne	v1,a1,208c <_ZN6System8Registry8instanceEv.local.10+0x24>
    2098:	244704c0 	addiu	a3,v0,1216
    209c:	00001821 	move	v1,zero
    20a0:	24050007 	li	a1,7
    20a4:	00033080 	sll	a2,v1,0x2
    20a8:	00e63021 	addu	a2,a3,a2
    20ac:	24630001 	addiu	v1,v1,1
    20b0:	1465fffc 	bne	v1,a1,20a4 <_ZN6System8Registry8instanceEv.local.10+0x3c>
    20b4:	acc00000 	sw	zero,0(a2)
    20b8:	24030001 	li	v1,1
    20bc:	a08304b8 	sb	v1,1208(a0)
    20c0:	03e00008 	jr	ra
    20c4:	244204c0 	addiu	v0,v0,1216

000020c8 <Control::StabilizationAndEngineUpdateTask::start()>:
    20c8:	27bdffd0 	addiu	sp,sp,-48
    20cc:	afb0001c 	sw	s0,28(sp)
    20d0:	00808021 	move	s0,a0
    20d4:	8e020028 	lw	v0,40(s0)
    20d8:	8c840024 	lw	a0,36(a0)
    20dc:	8c420000 	lw	v0,0(v0)
    20e0:	8c830000 	lw	v1,0(a0)
    20e4:	afbf002c 	sw	ra,44(sp)
    20e8:	00621823 	subu	v1,v1,v0
    20ec:	8e020034 	lw	v0,52(s0)
    20f0:	afb30028 	sw	s3,40(sp)
    20f4:	00621021 	addu	v0,v1,v0
    20f8:	afb20024 	sw	s2,36(sp)
    20fc:	afb10020 	sw	s1,32(sp)
    2100:	ae020034 	sw	v0,52(s0)
    2104:	8c850000 	lw	a1,0(a0)
    2108:	8e04002c 	lw	a0,44(s0)
    210c:	00000000 	nop
    2110:	00a42026 	xor	a0,a1,a0
    2114:	04810003 	bgez	a0,2124 <Control::StabilizationAndEngineUpdateTask::start()+0x5c>
    2118:	000227c3 	sra	a0,v0,0x1f
    211c:	08000851 	j	2144 <Control::StabilizationAndEngineUpdateTask::start()+0x7c>
    2120:	ae000034 	sw	zero,52(s0)
    2124:	8e050020 	lw	a1,32(s0)
    2128:	00823026 	xor	a2,a0,v0
    212c:	8ca50000 	lw	a1,0(a1)
    2130:	00c42023 	subu	a0,a2,a0
    2134:	0085202b 	sltu	a0,a0,a1
    2138:	10800002 	beqz	a0,2144 <Control::StabilizationAndEngineUpdateTask::start()+0x7c>
    213c:	00621021 	addu	v0,v1,v0
    2140:	ae020034 	sw	v0,52(s0)
    2144:	8e020014 	lw	v0,20(s0)
    2148:	00000000 	nop
    214c:	8c420000 	lw	v0,0(v0)
    2150:	00000000 	nop
    2154:	00620018 	mult	v1,v0
    2158:	8e020018 	lw	v0,24(s0)
    215c:	00000000 	nop
    2160:	8c430000 	lw	v1,0(v0)
    2164:	8e020034 	lw	v0,52(s0)
    2168:	00002012 	mflo	a0
    216c:	00048a03 	sra	s1,a0,0x8
    2170:	00000000 	nop
    2174:	00620018 	mult	v1,v0
    2178:	00002012 	mflo	a0
    217c:	00041203 	sra	v0,a0,0x8
    2180:	02228821 	addu	s1,s1,v0
    2184:	8e02001c 	lw	v0,28(s0)
    2188:	00000000 	nop
    218c:	8c520000 	lw	s2,0(v0)
    2190:	0c00081a 	jal	2068 <_ZN6System8Registry8instanceEv.local.10>
    2194:	00000000 	nop
    2198:	8c420034 	lw	v0,52(v0)
    219c:	00000000 	nop
    21a0:	02420018 	mult	s2,v0
    21a4:	00001812 	mflo	v1
    21a8:	00031203 	sra	v0,v1,0x8
    21ac:	02228821 	addu	s1,s1,v0
    21b0:	8e020024 	lw	v0,36(s0)
    21b4:	ae110030 	sw	s1,48(s0)
    21b8:	8c420000 	lw	v0,0(v0)
    21bc:	0c00081a 	jal	2068 <_ZN6System8Registry8instanceEv.local.10>
    21c0:	ae02002c 	sw	v0,44(s0)
    21c4:	ac5100ac 	sw	s1,172(v0)
    21c8:	8e04004c 	lw	a0,76(s0)
    21cc:	8e020050 	lw	v0,80(s0)
    21d0:	8c830000 	lw	v1,0(a0)
    21d4:	8c420000 	lw	v0,0(v0)
    21d8:	00000000 	nop
    21dc:	00621823 	subu	v1,v1,v0
    21e0:	8e02005c 	lw	v0,92(s0)
    21e4:	00000000 	nop
    21e8:	00621021 	addu	v0,v1,v0
    21ec:	ae02005c 	sw	v0,92(s0)
    21f0:	8c850000 	lw	a1,0(a0)
    21f4:	8e040054 	lw	a0,84(s0)
    21f8:	00000000 	nop
    21fc:	00a42026 	xor	a0,a1,a0
    2200:	04810003 	bgez	a0,2210 <Control::StabilizationAndEngineUpdateTask::start()+0x148>
    2204:	000227c3 	sra	a0,v0,0x1f
    2208:	0800088c 	j	2230 <Control::StabilizationAndEngineUpdateTask::start()+0x168>
    220c:	ae00005c 	sw	zero,92(s0)
    2210:	8e050048 	lw	a1,72(s0)
    2214:	00823026 	xor	a2,a0,v0
    2218:	8ca50000 	lw	a1,0(a1)
    221c:	00c42023 	subu	a0,a2,a0
    2220:	0085202b 	sltu	a0,a0,a1
    2224:	10800002 	beqz	a0,2230 <Control::StabilizationAndEngineUpdateTask::start()+0x168>
    2228:	00621021 	addu	v0,v1,v0
    222c:	ae02005c 	sw	v0,92(s0)
    2230:	8e02003c 	lw	v0,60(s0)
    2234:	00000000 	nop
    2238:	8c420000 	lw	v0,0(v0)
    223c:	00000000 	nop
    2240:	00620018 	mult	v1,v0
    2244:	8e020040 	lw	v0,64(s0)
    2248:	00000000 	nop
    224c:	8c430000 	lw	v1,0(v0)
    2250:	8e02005c 	lw	v0,92(s0)
    2254:	00002012 	mflo	a0
    2258:	00048a03 	sra	s1,a0,0x8
    225c:	00000000 	nop
    2260:	00620018 	mult	v1,v0
    2264:	00002012 	mflo	a0
    2268:	00041203 	sra	v0,a0,0x8
    226c:	02228821 	addu	s1,s1,v0
    2270:	8e020044 	lw	v0,68(s0)
    2274:	00000000 	nop
    2278:	8c520000 	lw	s2,0(v0)
    227c:	0c00081a 	jal	2068 <_ZN6System8Registry8instanceEv.local.10>
    2280:	00000000 	nop
    2284:	8c420038 	lw	v0,56(v0)
    2288:	00000000 	nop
    228c:	02420018 	mult	s2,v0
    2290:	00001812 	mflo	v1
    2294:	00031203 	sra	v0,v1,0x8
    2298:	02228821 	addu	s1,s1,v0
    229c:	8e02004c 	lw	v0,76(s0)
    22a0:	ae110058 	sw	s1,88(s0)
    22a4:	8c420000 	lw	v0,0(v0)
    22a8:	0c00081a 	jal	2068 <_ZN6System8Registry8instanceEv.local.10>
    22ac:	ae020054 	sw	v0,84(s0)
    22b0:	0c00081a 	jal	2068 <_ZN6System8Registry8instanceEv.local.10>
    22b4:	ac5100b0 	sw	s1,176(v0)
    22b8:	8c500060 	lw	s0,96(v0)
    22bc:	00000000 	nop
    22c0:	2e0200c9 	sltiu	v0,s0,201
    22c4:	14400011 	bnez	v0,230c <Control::StabilizationAndEngineUpdateTask::start()+0x244>
    22c8:	00000000 	nop
    22cc:	0c00081a 	jal	2068 <_ZN6System8Registry8instanceEv.local.10>
    22d0:	00000000 	nop
    22d4:	8c5300ac 	lw	s3,172(v0)
    22d8:	0c00081a 	jal	2068 <_ZN6System8Registry8instanceEv.local.10>
    22dc:	02139821 	addu	s3,s0,s3
    22e0:	8c5100b0 	lw	s1,176(v0)
    22e4:	0c00081a 	jal	2068 <_ZN6System8Registry8instanceEv.local.10>
    22e8:	02118823 	subu	s1,s0,s1
    22ec:	8c5200ac 	lw	s2,172(v0)
    22f0:	0c00081a 	jal	2068 <_ZN6System8Registry8instanceEv.local.10>
    22f4:	02129023 	subu	s2,s0,s2
    22f8:	8c4200b0 	lw	v0,176(v0)
    22fc:	00000000 	nop
    2300:	02021021 	addu	v0,s0,v0
    2304:	080008c6 	j	2318 <Control::StabilizationAndEngineUpdateTask::start()+0x250>
    2308:	02608021 	move	s0,s3
    230c:	02001021 	move	v0,s0
    2310:	02009021 	move	s2,s0
    2314:	02008821 	move	s1,s0
    2318:	00108400 	sll	s0,s0,0x10
    231c:	00118c00 	sll	s1,s1,0x10
    2320:	8fbf002c 	lw	ra,44(sp)
    2324:	02129025 	or	s2,s0,s2
    2328:	02221025 	or	v0,s1,v0
    232c:	ac12001c 	sw	s2,28(zero)
    2330:	8fb30028 	lw	s3,40(sp)
    2334:	8fb20024 	lw	s2,36(sp)
    2338:	8fb10020 	lw	s1,32(sp)
    233c:	8fb0001c 	lw	s0,28(sp)
    2340:	ac020020 	sw	v0,32(zero)
    2344:	03e00008 	jr	ra
    2348:	27bd0030 	addiu	sp,sp,48

0000234c <_ZN6System3Bus4UART13write_waitingEPKcj.constprop.37>:
    234c:	080008d6 	j	2358 <_ZN6System3Bus4UART13write_waitingEPKcj.constprop.37+0xc>
    2350:	00801021 	move	v0,a0
    2354:	24420001 	addiu	v0,v0,1
    2358:	80450000 	lb	a1,0(v0)
    235c:	00000000 	nop
    2360:	14a0fffc 	bnez	a1,2354 <_ZN6System3Bus4UART13write_waitingEPKcj.constprop.37+0x8>
    2364:	00441823 	subu	v1,v0,a0
    2368:	080008dd 	j	2374 <_ZN6System3Bus4UART13write_waitingEPKcj.constprop.37+0x28>
    236c:	2405001f 	li	a1,31
    2370:	00000000 	nop
    2374:	8c020014 	lw	v0,20(zero)
    2378:	00000000 	nop
    237c:	00a21023 	subu	v0,a1,v0
    2380:	0043102b 	sltu	v0,v0,v1
    2384:	1440fffa 	bnez	v0,2370 <_ZN6System3Bus4UART13write_waitingEPKcj.constprop.37+0x24>
    2388:	00000000 	nop
    238c:	2405001f 	li	a1,31
    2390:	00821821 	addu	v1,a0,v0
    2394:	80630000 	lb	v1,0(v1)
    2398:	00000000 	nop
    239c:	10600004 	beqz	v1,23b0 <_ZN6System3Bus4UART13write_waitingEPKcj.constprop.37+0x64>
    23a0:	00000000 	nop
    23a4:	24420001 	addiu	v0,v0,1
    23a8:	1445fff9 	bne	v0,a1,2390 <_ZN6System3Bus4UART13write_waitingEPKcj.constprop.37+0x44>
    23ac:	ac030014 	sw	v1,20(zero)
    23b0:	03e00008 	jr	ra
    23b4:	00000000 	nop

000023b8 <set_pitchroll_pid(int, int, int)>:
    23b8:	27bdffe0 	addiu	sp,sp,-32
    23bc:	afbf001c 	sw	ra,28(sp)
    23c0:	afb20018 	sw	s2,24(sp)
    23c4:	afb10014 	sw	s1,20(sp)
    23c8:	00c09021 	move	s2,a2
    23cc:	00a08821 	move	s1,a1
    23d0:	afb00010 	sw	s0,16(sp)
    23d4:	0c00081a 	jal	2068 <_ZN6System8Registry8instanceEv.local.10>
    23d8:	00808021 	move	s0,a0
    23dc:	0c00081a 	jal	2068 <_ZN6System8Registry8instanceEv.local.10>
    23e0:	ac50007c 	sw	s0,124(v0)
    23e4:	0c00081a 	jal	2068 <_ZN6System8Registry8instanceEv.local.10>
    23e8:	ac510080 	sw	s1,128(v0)
    23ec:	ac520084 	sw	s2,132(v0)
    23f0:	8fbf001c 	lw	ra,28(sp)
    23f4:	8fb20018 	lw	s2,24(sp)
    23f8:	8fb10014 	lw	s1,20(sp)
    23fc:	8fb00010 	lw	s0,16(sp)
    2400:	3c048000 	lui	a0,0x8000
    2404:	24840000 	addiu	a0,a0,0
    2408:	080008d3 	j	234c <_ZN6System3Bus4UART13write_waitingEPKcj.constprop.37>
    240c:	27bd0020 	addiu	sp,sp,32

00002410 <set_heading_pid(int, int, int)>:
    2410:	27bdffe0 	addiu	sp,sp,-32
    2414:	afbf001c 	sw	ra,28(sp)
    2418:	afb20018 	sw	s2,24(sp)
    241c:	afb10014 	sw	s1,20(sp)
    2420:	00c09021 	move	s2,a2
    2424:	00a08821 	move	s1,a1
    2428:	afb00010 	sw	s0,16(sp)
    242c:	0c00081a 	jal	2068 <_ZN6System8Registry8instanceEv.local.10>
    2430:	00808021 	move	s0,a0
    2434:	0c00081a 	jal	2068 <_ZN6System8Registry8instanceEv.local.10>
    2438:	ac50008c 	sw	s0,140(v0)
    243c:	0c00081a 	jal	2068 <_ZN6System8Registry8instanceEv.local.10>
    2440:	ac510090 	sw	s1,144(v0)
    2444:	ac520094 	sw	s2,148(v0)
    2448:	8fbf001c 	lw	ra,28(sp)
    244c:	8fb20018 	lw	s2,24(sp)
    2450:	8fb10014 	lw	s1,20(sp)
    2454:	8fb00010 	lw	s0,16(sp)
    2458:	3c048000 	lui	a0,0x8000
    245c:	24840000 	addiu	a0,a0,0
    2460:	080008d3 	j	234c <_ZN6System3Bus4UART13write_waitingEPKcj.constprop.37>
    2464:	27bd0020 	addiu	sp,sp,32

00002468 <set_altitude_pid(int, int, int)>:
    2468:	27bdffe0 	addiu	sp,sp,-32
    246c:	afbf001c 	sw	ra,28(sp)
    2470:	afb20018 	sw	s2,24(sp)
    2474:	afb10014 	sw	s1,20(sp)
    2478:	00c09021 	move	s2,a2
    247c:	00a08821 	move	s1,a1
    2480:	afb00010 	sw	s0,16(sp)
    2484:	0c00081a 	jal	2068 <_ZN6System8Registry8instanceEv.local.10>
    2488:	00808021 	move	s0,a0
    248c:	0c00081a 	jal	2068 <_ZN6System8Registry8instanceEv.local.10>
    2490:	ac50009c 	sw	s0,156(v0)
    2494:	0c00081a 	jal	2068 <_ZN6System8Registry8instanceEv.local.10>
    2498:	ac5100a0 	sw	s1,160(v0)
    249c:	ac5200a4 	sw	s2,164(v0)
    24a0:	8fbf001c 	lw	ra,28(sp)
    24a4:	8fb20018 	lw	s2,24(sp)
    24a8:	8fb10014 	lw	s1,20(sp)
    24ac:	8fb00010 	lw	s0,16(sp)
    24b0:	3c048000 	lui	a0,0x8000
    24b4:	24840000 	addiu	a0,a0,0
    24b8:	080008d3 	j	234c <_ZN6System3Bus4UART13write_waitingEPKcj.constprop.37>
    24bc:	27bd0020 	addiu	sp,sp,32

000024c0 <System::Bus::UART::write_waiting(long long)>:
    24c0:	24020008 	li	v0,8
    24c4:	2406001f 	li	a2,31
    24c8:	00041e03 	sra	v1,a0,0x18
    24cc:	14600004 	bnez	v1,24e0 <System::Bus::UART::write_waiting(long long)+0x20>
    24d0:	00000000 	nop
    24d4:	03e00008 	jr	ra
    24d8:	00000000 	nop
    24dc:	00000000 	nop
    24e0:	8c070014 	lw	a3,20(zero)
    24e4:	00000000 	nop
    24e8:	10e6fffc 	beq	a3,a2,24dc <System::Bus::UART::write_waiting(long long)+0x1c>
    24ec:	00000000 	nop
    24f0:	ac030014 	sw	v1,20(zero)
    24f4:	00042200 	sll	a0,a0,0x8
    24f8:	00051e02 	srl	v1,a1,0x18
    24fc:	2442ffff 	addiu	v0,v0,-1
    2500:	00642025 	or	a0,v1,a0
    2504:	1440fff0 	bnez	v0,24c8 <System::Bus::UART::write_waiting(long long)+0x8>
    2508:	00052a00 	sll	a1,a1,0x8
    250c:	03e00008 	jr	ra
    2510:	00000000 	nop

00002514 <System::Tasking::TaskScheduler::selectNextTask(unsigned int)>:
    2514:	27bdfff8 	addiu	sp,sp,-8
    2518:	24820004 	addiu	v0,a0,4
    251c:	afa20000 	sw	v0,0(sp)
    2520:	24820008 	addiu	v0,a0,8
    2524:	afa20004 	sw	v0,4(sp)
    2528:	2402ffff 	li	v0,-1
    252c:	ac820018 	sw	v0,24(a0)
    2530:	00001821 	move	v1,zero
    2534:	24080008 	li	t0,8
    2538:	03a31021 	addu	v0,sp,v1
    253c:	8c420000 	lw	v0,0(v0)
    2540:	00000000 	nop
    2544:	8c460000 	lw	a2,0(v0)
    2548:	00000000 	nop
    254c:	14c00006 	bnez	a2,2568 <System::Tasking::TaskScheduler::selectNextTask(unsigned int)+0x54>
    2550:	00c01021 	move	v0,a2
    2554:	24630004 	addiu	v1,v1,4
    2558:	1468fff7 	bne	v1,t0,2538 <System::Tasking::TaskScheduler::selectNextTask(unsigned int)+0x24>
    255c:	00000000 	nop
    2560:	0800096c 	j	25b0 <System::Tasking::TaskScheduler::selectNextTask(unsigned int)+0x9c>
    2564:	27bd0008 	addiu	sp,sp,8
    2568:	8c470004 	lw	a3,4(v0)
    256c:	8c890018 	lw	t1,24(a0)
    2570:	00e53823 	subu	a3,a3,a1
    2574:	00e9482b 	sltu	t1,a3,t1
    2578:	11200007 	beqz	t1,2598 <System::Tasking::TaskScheduler::selectNextTask(unsigned int)+0x84>
    257c:	00000000 	nop
    2580:	8c890004 	lw	t1,4(a0)
    2584:	ac820010 	sw	v0,16(a0)
    2588:	00c94826 	xor	t1,a2,t1
    258c:	0009482b 	sltu	t1,zero,t1
    2590:	ac890014 	sw	t1,20(a0)
    2594:	ac870018 	sw	a3,24(a0)
    2598:	8c42000c 	lw	v0,12(v0)
    259c:	00000000 	nop
    25a0:	1440fff1 	bnez	v0,2568 <System::Tasking::TaskScheduler::selectNextTask(unsigned int)+0x54>
    25a4:	00000000 	nop
    25a8:	08000956 	j	2558 <System::Tasking::TaskScheduler::selectNextTask(unsigned int)+0x44>
    25ac:	24630004 	addiu	v1,v1,4
    25b0:	03e00008 	jr	ra
    25b4:	00000000 	nop

000025b8 <System::Tasking::TaskScheduler::addTask(System::Tasking::ContinuousTask*, int)>:
    25b8:	aca60008 	sw	a2,8(a1)
    25bc:	8c030010 	lw	v1,16(zero)
    25c0:	aca40010 	sw	a0,16(a1)
    25c4:	00c33021 	addu	a2,a2,v1
    25c8:	8c830004 	lw	v1,4(a0)
    25cc:	00a01021 	move	v0,a1
    25d0:	14600004 	bnez	v1,25e4 <System::Tasking::TaskScheduler::addTask(System::Tasking::ContinuousTask*, int)+0x2c>
    25d4:	aca60004 	sw	a2,4(a1)
    25d8:	03e00008 	jr	ra
    25dc:	ac850004 	sw	a1,4(a0)
    25e0:	00801821 	move	v1,a0
    25e4:	8c64000c 	lw	a0,12(v1)
    25e8:	00000000 	nop
    25ec:	1480fffc 	bnez	a0,25e0 <System::Tasking::TaskScheduler::addTask(System::Tasking::ContinuousTask*, int)+0x28>
    25f0:	00000000 	nop
    25f4:	03e00008 	jr	ra
    25f8:	ac62000c 	sw	v0,12(v1)

000025fc <System::Bus::I2C::write(unsigned char)>:
    25fc:	3c020002 	lui	v0,0x2
    2600:	24420100 	addiu	v0,v0,256
    2604:	00822025 	or	a0,a0,v0
    2608:	ac04000c 	sw	a0,12(zero)
    260c:	8c02000c 	lw	v0,12(zero)
    2610:	00000000 	nop
    2614:	0440fffd 	bltz	v0,260c <System::Bus::I2C::write(unsigned char)+0x10>
    2618:	00000000 	nop
    261c:	8c02000c 	lw	v0,12(zero)
    2620:	03e00008 	jr	ra
    2624:	304200ff 	andi	v0,v0,0xff

00002628 <System::Bus::I2C::read()>:
    2628:	3c020002 	lui	v0,0x2
    262c:	244200ff 	addiu	v0,v0,255
    2630:	ac02000c 	sw	v0,12(zero)
    2634:	8c02000c 	lw	v0,12(zero)
    2638:	00000000 	nop
    263c:	0440fffd 	bltz	v0,2634 <System::Bus::I2C::read()+0xc>
    2640:	00000000 	nop
    2644:	8c02000c 	lw	v0,12(zero)
    2648:	03e00008 	jr	ra
    264c:	304200ff 	andi	v0,v0,0xff

00002650 <System::Bus::I2C::stop()>:
    2650:	3c020001 	lui	v0,0x1
    2654:	244200ff 	addiu	v0,v0,255
    2658:	ac02000c 	sw	v0,12(zero)
    265c:	8c02000c 	lw	v0,12(zero)
    2660:	00000000 	nop
    2664:	0440fffd 	bltz	v0,265c <System::Bus::I2C::stop()+0xc>
    2668:	00000000 	nop
    266c:	03e00008 	jr	ra
    2670:	00000000 	nop

00002674 <System::Bus::I2C::start()>:
    2674:	3c020004 	lui	v0,0x4
    2678:	244200ff 	addiu	v0,v0,255
    267c:	ac02000c 	sw	v0,12(zero)
    2680:	8c02000c 	lw	v0,12(zero)
    2684:	00000000 	nop
    2688:	0440fffd 	bltz	v0,2680 <System::Bus::I2C::start()+0xc>
    268c:	00000000 	nop
    2690:	03e00008 	jr	ra
    2694:	00000000 	nop

00002698 <Control::MagnetometerTask::start()>:
    2698:	27bdffd0 	addiu	sp,sp,-48
    269c:	afbf002c 	sw	ra,44(sp)
    26a0:	afb50028 	sw	s5,40(sp)
    26a4:	afb40024 	sw	s4,36(sp)
    26a8:	afb30020 	sw	s3,32(sp)
    26ac:	afb2001c 	sw	s2,28(sp)
    26b0:	afb00014 	sw	s0,20(sp)
    26b4:	0c00099d 	jal	2674 <System::Bus::I2C::start()>
    26b8:	afb10018 	sw	s1,24(sp)
    26bc:	0c00097f 	jal	25fc <System::Bus::I2C::write(unsigned char)>
    26c0:	2404003c 	li	a0,60
    26c4:	0c00097f 	jal	25fc <System::Bus::I2C::write(unsigned char)>
    26c8:	24040003 	li	a0,3
    26cc:	0c000994 	jal	2650 <System::Bus::I2C::stop()>
    26d0:	00000000 	nop
    26d4:	0c00099d 	jal	2674 <System::Bus::I2C::start()>
    26d8:	00000000 	nop
    26dc:	0c00097f 	jal	25fc <System::Bus::I2C::write(unsigned char)>
    26e0:	2404003d 	li	a0,61
    26e4:	0c00098a 	jal	2628 <System::Bus::I2C::read()>
    26e8:	00000000 	nop
    26ec:	0c00098a 	jal	2628 <System::Bus::I2C::read()>
    26f0:	00409021 	move	s2,v0
    26f4:	0c00098a 	jal	2628 <System::Bus::I2C::read()>
    26f8:	0040a821 	move	s5,v0
    26fc:	00408021 	move	s0,v0
    2700:	0c00098a 	jal	2628 <System::Bus::I2C::read()>
    2704:	00129200 	sll	s2,s2,0x8
    2708:	00409821 	move	s3,v0
    270c:	0c00098a 	jal	2628 <System::Bus::I2C::read()>
    2710:	02559025 	or	s2,s2,s5
    2714:	240400ff 	li	a0,255
    2718:	0c00097f 	jal	25fc <System::Bus::I2C::write(unsigned char)>
    271c:	0040a021 	move	s4,v0
    2720:	3243ffff 	andi	v1,s2,0xffff
    2724:	00031bc3 	sra	v1,v1,0xf
    2728:	10600003 	beqz	v1,2738 <Control::MagnetometerTask::start()+0xa0>
    272c:	00148a00 	sll	s1,s4,0x8
    2730:	3c03ffff 	lui	v1,0xffff
    2734:	02439025 	or	s2,s2,v1
    2738:	02228825 	or	s1,s1,v0
    273c:	3222ffff 	andi	v0,s1,0xffff
    2740:	000213c3 	sra	v0,v0,0xf
    2744:	10400002 	beqz	v0,2750 <Control::MagnetometerTask::start()+0xb8>
    2748:	3c02ffff 	lui	v0,0xffff
    274c:	02228825 	or	s1,s1,v0
    2750:	00108200 	sll	s0,s0,0x8
    2754:	02138025 	or	s0,s0,s3
    2758:	3202ffff 	andi	v0,s0,0xffff
    275c:	000213c3 	sra	v0,v0,0xf
    2760:	10400002 	beqz	v0,276c <Control::MagnetometerTask::start()+0xd4>
    2764:	3c02ffff 	lui	v0,0xffff
    2768:	02028025 	or	s0,s0,v0
    276c:	0c000994 	jal	2650 <System::Bus::I2C::stop()>
    2770:	00000000 	nop
    2774:	0c00081a 	jal	2068 <_ZN6System8Registry8instanceEv.local.10>
    2778:	00000000 	nop
    277c:	0c00081a 	jal	2068 <_ZN6System8Registry8instanceEv.local.10>
    2780:	ac520040 	sw	s2,64(v0)
    2784:	0c00081a 	jal	2068 <_ZN6System8Registry8instanceEv.local.10>
    2788:	ac510044 	sw	s1,68(v0)
    278c:	8fbf002c 	lw	ra,44(sp)
    2790:	ac500048 	sw	s0,72(v0)
    2794:	8fb50028 	lw	s5,40(sp)
    2798:	8fb40024 	lw	s4,36(sp)
    279c:	8fb30020 	lw	s3,32(sp)
    27a0:	8fb2001c 	lw	s2,28(sp)
    27a4:	8fb10018 	lw	s1,24(sp)
    27a8:	8fb00014 	lw	s0,20(sp)
    27ac:	03e00008 	jr	ra
    27b0:	27bd0030 	addiu	sp,sp,48

000027b4 <_ZN7Sensors4BaroL11updateValueEv.3158.1769>:
    27b4:	27bdffe8 	addiu	sp,sp,-24
    27b8:	afbf0014 	sw	ra,20(sp)
    27bc:	0c00099d 	jal	2674 <System::Bus::I2C::start()>
    27c0:	afb00010 	sw	s0,16(sp)
    27c4:	0c00097f 	jal	25fc <System::Bus::I2C::write(unsigned char)>
    27c8:	240400ee 	li	a0,238
    27cc:	0c00097f 	jal	25fc <System::Bus::I2C::write(unsigned char)>
    27d0:	00002021 	move	a0,zero
    27d4:	0c000994 	jal	2650 <System::Bus::I2C::stop()>
    27d8:	00000000 	nop
    27dc:	0c00099d 	jal	2674 <System::Bus::I2C::start()>
    27e0:	00000000 	nop
    27e4:	0c00097f 	jal	25fc <System::Bus::I2C::write(unsigned char)>
    27e8:	240400ef 	li	a0,239
    27ec:	0c00098a 	jal	2628 <System::Bus::I2C::read()>
    27f0:	00000000 	nop
    27f4:	0c00098a 	jal	2628 <System::Bus::I2C::read()>
    27f8:	00408021 	move	s0,v0
    27fc:	00021200 	sll	v0,v0,0x8
    2800:	240400ff 	li	a0,255
    2804:	00108400 	sll	s0,s0,0x10
    2808:	0c00097f 	jal	25fc <System::Bus::I2C::write(unsigned char)>
    280c:	02028025 	or	s0,s0,v0
    2810:	0c000994 	jal	2650 <System::Bus::I2C::stop()>
    2814:	02028025 	or	s0,s0,v0
    2818:	8fbf0014 	lw	ra,20(sp)
    281c:	02001021 	move	v0,s0
    2820:	8fb00010 	lw	s0,16(sp)
    2824:	03e00008 	jr	ra
    2828:	27bd0018 	addiu	sp,sp,24

0000282c <_ZN7Sensors4Baro17updateTemperatureEv.1596>:
    282c:	27bdffe0 	addiu	sp,sp,-32
    2830:	afbf001c 	sw	ra,28(sp)
    2834:	0c0009ed 	jal	27b4 <_ZN7Sensors4BaroL11updateValueEv.3158.1769>
    2838:	afb00018 	sw	s0,24(sp)
    283c:	3c058000 	lui	a1,0x8000
    2840:	24a50578 	addiu	a1,a1,1400
    2844:	8ca40010 	lw	a0,16(a1)
    2848:	8ca60014 	lw	a2,20(a1)
    284c:	00042200 	sll	a0,a0,0x8
    2850:	00442023 	subu	a0,v0,a0
    2854:	0044182b 	sltu	v1,v0,a0
    2858:	00031823 	negu	v1,v1
    285c:	00660018 	mult	v1,a2
    2860:	3c028000 	lui	v0,0x8000
    2864:	ac4304a0 	sw	v1,1184(v0)
    2868:	ac4404a4 	sw	a0,1188(v0)
    286c:	00001012 	mflo	v0
    2870:	00000000 	nop
    2874:	00000000 	nop
    2878:	00860019 	multu	a0,a2
    287c:	00003010 	mfhi	a2
    2880:	00462821 	addu	a1,v0,a2
    2884:	3c02007f 	lui	v0,0x7f
    2888:	000537c3 	sra	a2,a1,0x1f
    288c:	3442ffff 	ori	v0,v0,0xffff
    2890:	00c21024 	and	v0,a2,v0
    2894:	00003812 	mflo	a3
    2898:	00474021 	addu	t0,v0,a3
    289c:	0102102b 	sltu	v0,t0,v0
    28a0:	00451021 	addu	v0,v0,a1
    28a4:	00022a40 	sll	a1,v0,0x9
    28a8:	000845c2 	srl	t0,t0,0x17
    28ac:	00a84025 	or	t0,a1,t0
    28b0:	250907d0 	addiu	t1,t0,2000
    28b4:	000215c3 	sra	v0,v0,0x17
    28b8:	0128502b 	sltu	t2,t1,t0
    28bc:	01425021 	addu	t2,t2,v0
    28c0:	3c078000 	lui	a3,0x8000
    28c4:	0461001d 	bgez	v1,293c <_ZN7Sensors4Baro17updateTemperatureEv.1596+0x110>
    28c8:	3c068000 	lui	a2,0x8000
    28cc:	00640018 	mult	v1,a0
    28d0:	ace004a8 	sw	zero,1192(a3)
    28d4:	acc004b0 	sw	zero,1200(a2)
    28d8:	00001012 	mflo	v0
    28dc:	00021040 	sll	v0,v0,0x1
    28e0:	00000000 	nop
    28e4:	00840019 	multu	a0,a0
    28e8:	00002812 	mflo	a1
    28ec:	00051fc2 	srl	v1,a1,0x1f
    28f0:	00002010 	mfhi	a0
    28f4:	00442021 	addu	a0,v0,a0
    28f8:	00045840 	sll	t3,a0,0x1
    28fc:	01080018 	mult	t0,t0
    2900:	000417c3 	sra	v0,a0,0x1f
    2904:	00082042 	srl	a0,t0,0x1
    2908:	ace404ac 	sw	a0,1196(a3)
    290c:	01631825 	or	v1,t3,v1
    2910:	00002012 	mflo	a0
    2914:	afa40010 	sw	a0,16(sp)
    2918:	24040005 	li	a0,5
    291c:	00002812 	mflo	a1
    2920:	00000000 	nop
    2924:	00000000 	nop
    2928:	00a40018 	mult	a1,a0
    292c:	00002812 	mflo	a1
    2930:	00052082 	srl	a0,a1,0x2
    2934:	08000a55 	j	2954 <_ZN7Sensors4Baro17updateTemperatureEv.1596+0x128>
    2938:	acc404b4 	sw	a0,1204(a2)
    293c:	00001821 	move	v1,zero
    2940:	00001021 	move	v0,zero
    2944:	ace304ac 	sw	v1,1196(a3)
    2948:	ace204a8 	sw	v0,1192(a3)
    294c:	acc304b4 	sw	v1,1204(a2)
    2950:	acc204b0 	sw	v0,1200(a2)
    2954:	01238023 	subu	s0,t1,v1
    2958:	0130482b 	sltu	t1,t1,s0
    295c:	01421023 	subu	v0,t2,v0
    2960:	00491023 	subu	v0,v0,t1
    2964:	2843ffff 	slti	v1,v0,-1
    2968:	14600005 	bnez	v1,2980 <_ZN7Sensors4Baro17updateTemperatureEv.1596+0x154>
    296c:	2403ffff 	li	v1,-1
    2970:	1443001d 	bne	v0,v1,29e8 <_ZN7Sensors4Baro17updateTemperatureEv.1596+0x1bc>
    2974:	2e02fa24 	sltiu	v0,s0,-1500
    2978:	1040001b 	beqz	v0,29e8 <_ZN7Sensors4Baro17updateTemperatureEv.1596+0x1bc>
    297c:	00000000 	nop
    2980:	260205dc 	addiu	v0,s0,1500
    2984:	00420018 	mult	v0,v0
    2988:	24040007 	li	a0,7
    298c:	8ce304ac 	lw	v1,1196(a3)
    2990:	8ce504a8 	lw	a1,1192(a3)
    2994:	00001012 	mflo	v0
    2998:	00000000 	nop
    299c:	00000000 	nop
    29a0:	00440018 	mult	v0,a0
    29a4:	00002012 	mflo	a0
    29a8:	00831821 	addu	v1,a0,v1
    29ac:	0064202b 	sltu	a0,v1,a0
    29b0:	ace304ac 	sw	v1,1196(a3)
    29b4:	2403000b 	li	v1,11
    29b8:	00430018 	mult	v0,v1
    29bc:	00852021 	addu	a0,a0,a1
    29c0:	8cc204b4 	lw	v0,1204(a2)
    29c4:	ace404a8 	sw	a0,1192(a3)
    29c8:	00002012 	mflo	a0
    29cc:	00041842 	srl	v1,a0,0x1
    29d0:	00621021 	addu	v0,v1,v0
    29d4:	8cc404b0 	lw	a0,1200(a2)
    29d8:	0043182b 	sltu	v1,v0,v1
    29dc:	00641821 	addu	v1,v1,a0
    29e0:	acc304b0 	sw	v1,1200(a2)
    29e4:	acc204b4 	sw	v0,1204(a2)
    29e8:	0c00081a 	jal	2068 <_ZN6System8Registry8instanceEv.local.10>
    29ec:	00000000 	nop
    29f0:	8fbf001c 	lw	ra,28(sp)
    29f4:	ac500050 	sw	s0,80(v0)
    29f8:	8fb00018 	lw	s0,24(sp)
    29fc:	03e00008 	jr	ra
    2a00:	27bd0020 	addiu	sp,sp,32

00002a04 <_ZN7Sensors3IMU7MPU6050L13mpu6050_setupEcc.3289>:
    2a04:	27bdffe0 	addiu	sp,sp,-32
    2a08:	afbf001c 	sw	ra,28(sp)
    2a0c:	afb10018 	sw	s1,24(sp)
    2a10:	afb00014 	sw	s0,20(sp)
    2a14:	00a08821 	move	s1,a1
    2a18:	0c00099d 	jal	2674 <System::Bus::I2C::start()>
    2a1c:	00808021 	move	s0,a0
    2a20:	0c00097f 	jal	25fc <System::Bus::I2C::write(unsigned char)>
    2a24:	240400d0 	li	a0,208
    2a28:	0c00097f 	jal	25fc <System::Bus::I2C::write(unsigned char)>
    2a2c:	320400ff 	andi	a0,s0,0xff
    2a30:	0c00097f 	jal	25fc <System::Bus::I2C::write(unsigned char)>
    2a34:	322400ff 	andi	a0,s1,0xff
    2a38:	8fbf001c 	lw	ra,28(sp)
    2a3c:	8fb10018 	lw	s1,24(sp)
    2a40:	8fb00014 	lw	s0,20(sp)
    2a44:	08000994 	j	2650 <System::Bus::I2C::stop()>
    2a48:	27bd0020 	addiu	sp,sp,32

00002a4c <float32::normalizeRoundAndPack(bool, int, unsigned int)>:
    2a4c:	3c020001 	lui	v0,0x1
    2a50:	00c2102b 	sltu	v0,a2,v0
    2a54:	10400003 	beqz	v0,2a64 <float32::normalizeRoundAndPack(bool, int, unsigned int)+0x18>
    2a58:	00061400 	sll	v0,a2,0x10
    2a5c:	08000a9b 	j	2a6c <float32::normalizeRoundAndPack(bool, int, unsigned int)+0x20>
    2a60:	24030010 	li	v1,16
    2a64:	00c01021 	move	v0,a2
    2a68:	00001821 	move	v1,zero
    2a6c:	3c070100 	lui	a3,0x100
    2a70:	0047382b 	sltu	a3,v0,a3
    2a74:	10e00005 	beqz	a3,2a8c <float32::normalizeRoundAndPack(bool, int, unsigned int)+0x40>
    2a78:	3c078000 	lui	a3,0x8000
    2a7c:	24630008 	addiu	v1,v1,8
    2a80:	00031e00 	sll	v1,v1,0x18
    2a84:	00031e03 	sra	v1,v1,0x18
    2a88:	00021200 	sll	v0,v0,0x8
    2a8c:	00021602 	srl	v0,v0,0x18
    2a90:	24e70020 	addiu	a3,a3,32
    2a94:	00471021 	addu	v0,v0,a3
    2a98:	90420000 	lbu	v0,0(v0)
    2a9c:	2463ffff 	addiu	v1,v1,-1
    2aa0:	00621821 	addu	v1,v1,v0
    2aa4:	00031e00 	sll	v1,v1,0x18
    2aa8:	00031e03 	sra	v1,v1,0x18
    2aac:	00a32823 	subu	a1,a1,v1
    2ab0:	08000692 	j	1a48 <_ZN7float3212roundAndPackEbij.1834>
    2ab4:	00663004 	sllv	a2,a2,v1

00002ab8 <float32::float32(int)>:
    2ab8:	27bdffe8 	addiu	sp,sp,-24
    2abc:	afb00010 	sw	s0,16(sp)
    2ac0:	afbf0014 	sw	ra,20(sp)
    2ac4:	14a00003 	bnez	a1,2ad4 <float32::float32(int)+0x1c>
    2ac8:	00808021 	move	s0,a0
    2acc:	08000ac0 	j	2b00 <float32::float32(int)+0x48>
    2ad0:	ac800000 	sw	zero,0(a0)
    2ad4:	3c028000 	lui	v0,0x8000
    2ad8:	14a20003 	bne	a1,v0,2ae8 <float32::float32(int)+0x30>
    2adc:	000527c2 	srl	a0,a1,0x1f
    2ae0:	08000abf 	j	2afc <float32::float32(int)+0x44>
    2ae4:	3c02cf00 	lui	v0,0xcf00
    2ae8:	10800002 	beqz	a0,2af4 <float32::float32(int)+0x3c>
    2aec:	00a03021 	move	a2,a1
    2af0:	00053023 	negu	a2,a1
    2af4:	0c000a93 	jal	2a4c <float32::normalizeRoundAndPack(bool, int, unsigned int)>
    2af8:	2405009c 	li	a1,156
    2afc:	ae020000 	sw	v0,0(s0)
    2b00:	8fbf0014 	lw	ra,20(sp)
    2b04:	8fb00010 	lw	s0,16(sp)
    2b08:	03e00008 	jr	ra
    2b0c:	27bd0018 	addiu	sp,sp,24

00002b10 <_ZN7float327subSigsEjjb.1811>:
    2b10:	3c03007f 	lui	v1,0x7f
    2b14:	00801021 	move	v0,a0
    2b18:	3463ffff 	ori	v1,v1,0xffff
    2b1c:	00433824 	and	a3,v0,v1
    2b20:	00024dc2 	srl	t1,v0,0x17
    2b24:	00a31824 	and	v1,a1,v1
    2b28:	00052dc2 	srl	a1,a1,0x17
    2b2c:	312900ff 	andi	t1,t1,0xff
    2b30:	30a500ff 	andi	a1,a1,0xff
    2b34:	01254023 	subu	t0,t1,a1
    2b38:	00c02021 	move	a0,a2
    2b3c:	000739c0 	sll	a3,a3,0x7
    2b40:	1d00002c 	bgtz	t0,2bf4 <_ZN7float327subSigsEjjb.1811+0xe4>
    2b44:	000319c0 	sll	v1,v1,0x7
    2b48:	1500000e 	bnez	t0,2b84 <_ZN7float327subSigsEjjb.1811+0x74>
    2b4c:	240200ff 	li	v0,255
    2b50:	11220043 	beq	t1,v0,2c60 <_ZN7float327subSigsEjjb.1811+0x150>
    2b54:	2402ffff 	li	v0,-1
    2b58:	15200003 	bnez	t1,2b68 <_ZN7float327subSigsEjjb.1811+0x58>
    2b5c:	0067102b 	sltu	v0,v1,a3
    2b60:	24050001 	li	a1,1
    2b64:	24090001 	li	t1,1
    2b68:	14400039 	bnez	v0,2c50 <_ZN7float327subSigsEjjb.1811+0x140>
    2b6c:	00000000 	nop
    2b70:	00e3102b 	sltu	v0,a3,v1
    2b74:	1440001c 	bnez	v0,2be8 <_ZN7float327subSigsEjjb.1811+0xd8>
    2b78:	00000000 	nop
    2b7c:	03e00008 	jr	ra
    2b80:	00001021 	move	v0,zero
    2b84:	14a20005 	bne	a1,v0,2b9c <_ZN7float327subSigsEjjb.1811+0x8c>
    2b88:	38c20001 	xori	v0,a2,0x1
    2b8c:	3c037f80 	lui	v1,0x7f80
    2b90:	000217c0 	sll	v0,v0,0x1f
    2b94:	03e00008 	jr	ra
    2b98:	00431021 	addu	v0,v0,v1
    2b9c:	15200003 	bnez	t1,2bac <_ZN7float327subSigsEjjb.1811+0x9c>
    2ba0:	3c024000 	lui	v0,0x4000
    2ba4:	08000aec 	j	2bb0 <_ZN7float327subSigsEjjb.1811+0xa0>
    2ba8:	25080001 	addiu	t0,t0,1
    2bac:	00e23825 	or	a3,a3,v0
    2bb0:	00081023 	negu	v0,t0
    2bb4:	1040000a 	beqz	v0,2be0 <_ZN7float327subSigsEjjb.1811+0xd0>
    2bb8:	00000000 	nop
    2bbc:	28460020 	slti	a2,v0,32
    2bc0:	10c00006 	beqz	a2,2bdc <_ZN7float327subSigsEjjb.1811+0xcc>
    2bc4:	00000000 	nop
    2bc8:	00471006 	srlv	v0,a3,v0
    2bcc:	01073804 	sllv	a3,a3,t0
    2bd0:	0007382b 	sltu	a3,zero,a3
    2bd4:	08000af8 	j	2be0 <_ZN7float327subSigsEjjb.1811+0xd0>
    2bd8:	00e23825 	or	a3,a3,v0
    2bdc:	0007382b 	sltu	a3,zero,a3
    2be0:	3c024000 	lui	v0,0x4000
    2be4:	00621825 	or	v1,v1,v0
    2be8:	00673023 	subu	a2,v1,a3
    2bec:	08000b16 	j	2c58 <_ZN7float327subSigsEjjb.1811+0x148>
    2bf0:	38840001 	xori	a0,a0,0x1
    2bf4:	240600ff 	li	a2,255
    2bf8:	11260019 	beq	t1,a2,2c60 <_ZN7float327subSigsEjjb.1811+0x150>
    2bfc:	00000000 	nop
    2c00:	14a00006 	bnez	a1,2c1c <_ZN7float327subSigsEjjb.1811+0x10c>
    2c04:	3c024000 	lui	v0,0x4000
    2c08:	2508ffff 	addiu	t0,t0,-1
    2c0c:	1100000f 	beqz	t0,2c4c <_ZN7float327subSigsEjjb.1811+0x13c>
    2c10:	00000000 	nop
    2c14:	08000b09 	j	2c24 <_ZN7float327subSigsEjjb.1811+0x114>
    2c18:	29020020 	slti	v0,t0,32
    2c1c:	00621825 	or	v1,v1,v0
    2c20:	29020020 	slti	v0,t0,32
    2c24:	10400007 	beqz	v0,2c44 <_ZN7float327subSigsEjjb.1811+0x134>
    2c28:	00000000 	nop
    2c2c:	01031006 	srlv	v0,v1,t0
    2c30:	00084023 	negu	t0,t0
    2c34:	01031804 	sllv	v1,v1,t0
    2c38:	0003182b 	sltu	v1,zero,v1
    2c3c:	08000b12 	j	2c48 <_ZN7float327subSigsEjjb.1811+0x138>
    2c40:	00621825 	or	v1,v1,v0
    2c44:	0003182b 	sltu	v1,zero,v1
    2c48:	3c024000 	lui	v0,0x4000
    2c4c:	00e23825 	or	a3,a3,v0
    2c50:	00e33023 	subu	a2,a3,v1
    2c54:	01202821 	move	a1,t1
    2c58:	08000a93 	j	2a4c <float32::normalizeRoundAndPack(bool, int, unsigned int)>
    2c5c:	24a5ffff 	addiu	a1,a1,-1
    2c60:	03e00008 	jr	ra
    2c64:	00000000 	nop

00002c68 <float32::operator+(float32 const&) const>:
    2c68:	27bdffe8 	addiu	sp,sp,-24
    2c6c:	afb00010 	sw	s0,16(sp)
    2c70:	00808021 	move	s0,a0
    2c74:	8ca40000 	lw	a0,0(a1)
    2c78:	8cc50000 	lw	a1,0(a2)
    2c7c:	000417c2 	srl	v0,a0,0x1f
    2c80:	00051fc2 	srl	v1,a1,0x1f
    2c84:	afbf0014 	sw	ra,20(sp)
    2c88:	14430005 	bne	v0,v1,2ca0 <float32::operator+(float32 const&) const+0x38>
    2c8c:	00403021 	move	a2,v0
    2c90:	0c00078d 	jal	1e34 <_ZN7float327addSigsEjjb.1829>
    2c94:	00000000 	nop
    2c98:	08000b2a 	j	2ca8 <float32::operator+(float32 const&) const+0x40>
    2c9c:	00000000 	nop
    2ca0:	0c000ac4 	jal	2b10 <_ZN7float327subSigsEjjb.1811>
    2ca4:	00000000 	nop
    2ca8:	8fbf0014 	lw	ra,20(sp)
    2cac:	ae020000 	sw	v0,0(s0)
    2cb0:	02001021 	move	v0,s0
    2cb4:	8fb00010 	lw	s0,16(sp)
    2cb8:	03e00008 	jr	ra
    2cbc:	27bd0018 	addiu	sp,sp,24

00002cc0 <float32::operator+=(float32 const&)>:
    2cc0:	27bdffe0 	addiu	sp,sp,-32
    2cc4:	afb00018 	sw	s0,24(sp)
    2cc8:	00808021 	move	s0,a0
    2ccc:	00a03021 	move	a2,a1
    2cd0:	27a40010 	addiu	a0,sp,16
    2cd4:	afbf001c 	sw	ra,28(sp)
    2cd8:	0c000b1a 	jal	2c68 <float32::operator+(float32 const&) const>
    2cdc:	02002821 	move	a1,s0
    2ce0:	8fa20010 	lw	v0,16(sp)
    2ce4:	8fbf001c 	lw	ra,28(sp)
    2ce8:	ae020000 	sw	v0,0(s0)
    2cec:	02001021 	move	v0,s0
    2cf0:	8fb00018 	lw	s0,24(sp)
    2cf4:	03e00008 	jr	ra
    2cf8:	27bd0020 	addiu	sp,sp,32

00002cfc <float32::operator-(float32 const&) const>:
    2cfc:	27bdffe8 	addiu	sp,sp,-24
    2d00:	afb00010 	sw	s0,16(sp)
    2d04:	00808021 	move	s0,a0
    2d08:	8ca40000 	lw	a0,0(a1)
    2d0c:	8cc50000 	lw	a1,0(a2)
    2d10:	000437c2 	srl	a2,a0,0x1f
    2d14:	000517c2 	srl	v0,a1,0x1f
    2d18:	14c20005 	bne	a2,v0,2d30 <float32::operator-(float32 const&) const+0x34>
    2d1c:	afbf0014 	sw	ra,20(sp)
    2d20:	0c000ac4 	jal	2b10 <_ZN7float327subSigsEjjb.1811>
    2d24:	00000000 	nop
    2d28:	08000b4e 	j	2d38 <float32::operator-(float32 const&) const+0x3c>
    2d2c:	00000000 	nop
    2d30:	0c00078d 	jal	1e34 <_ZN7float327addSigsEjjb.1829>
    2d34:	00000000 	nop
    2d38:	8fbf0014 	lw	ra,20(sp)
    2d3c:	ae020000 	sw	v0,0(s0)
    2d40:	02001021 	move	v0,s0
    2d44:	8fb00010 	lw	s0,16(sp)
    2d48:	03e00008 	jr	ra
    2d4c:	27bd0018 	addiu	sp,sp,24

00002d50 <float32::operator-=(float32 const&)>:
    2d50:	27bdffe0 	addiu	sp,sp,-32
    2d54:	afb00018 	sw	s0,24(sp)
    2d58:	00808021 	move	s0,a0
    2d5c:	00a03021 	move	a2,a1
    2d60:	27a40010 	addiu	a0,sp,16
    2d64:	afbf001c 	sw	ra,28(sp)
    2d68:	0c000b3f 	jal	2cfc <float32::operator-(float32 const&) const>
    2d6c:	02002821 	move	a1,s0
    2d70:	8fa20010 	lw	v0,16(sp)
    2d74:	8fbf001c 	lw	ra,28(sp)
    2d78:	ae020000 	sw	v0,0(s0)
    2d7c:	02001021 	move	v0,s0
    2d80:	8fb00018 	lw	s0,24(sp)
    2d84:	03e00008 	jr	ra
    2d88:	27bd0020 	addiu	sp,sp,32

00002d8c <float32::operator*(float32 const&) const>:
    2d8c:	27bdffe8 	addiu	sp,sp,-24
    2d90:	8ca80000 	lw	t0,0(a1)
    2d94:	3c02007f 	lui	v0,0x7f
    2d98:	afb00010 	sw	s0,16(sp)
    2d9c:	00808021 	move	s0,a0
    2da0:	8cc40000 	lw	a0,0(a2)
    2da4:	00082dc2 	srl	a1,t0,0x17
    2da8:	3442ffff 	ori	v0,v0,0xffff
    2dac:	00043dc2 	srl	a3,a0,0x17
    2db0:	00821824 	and	v1,a0,v0
    2db4:	30a500ff 	andi	a1,a1,0xff
    2db8:	01042026 	xor	a0,t0,a0
    2dbc:	240600ff 	li	a2,255
    2dc0:	afbf0014 	sw	ra,20(sp)
    2dc4:	30e700ff 	andi	a3,a3,0xff
    2dc8:	14a60006 	bne	a1,a2,2de4 <float32::operator*(float32 const&) const+0x58>
    2dcc:	000427c2 	srl	a0,a0,0x1f
    2dd0:	00e31825 	or	v1,a3,v1
    2dd4:	1060005c 	beqz	v1,2f48 <float32::operator*(float32 const&) const+0x1bc>
    2dd8:	2402ffff 	li	v0,-1
    2ddc:	08000b7c 	j	2df0 <float32::operator*(float32 const&) const+0x64>
    2de0:	000427c0 	sll	a0,a0,0x1f
    2de4:	14e60005 	bne	a3,a2,2dfc <float32::operator*(float32 const&) const+0x70>
    2de8:	00e04821 	move	t1,a3
    2dec:	000427c0 	sll	a0,a0,0x1f
    2df0:	3c027f80 	lui	v0,0x7f80
    2df4:	08000ba4 	j	2e90 <float32::operator*(float32 const&) const+0x104>
    2df8:	00822021 	addu	a0,a0,v0
    2dfc:	14a0001f 	bnez	a1,2e7c <float32::operator*(float32 const&) const+0xf0>
    2e00:	01021024 	and	v0,t0,v0
    2e04:	14400003 	bnez	v0,2e14 <float32::operator*(float32 const&) const+0x88>
    2e08:	00000000 	nop
    2e0c:	08000ba4 	j	2e90 <float32::operator*(float32 const&) const+0x104>
    2e10:	000427c0 	sll	a0,a0,0x1f
    2e14:	3c050001 	lui	a1,0x1
    2e18:	0045282b 	sltu	a1,v0,a1
    2e1c:	10a00008 	beqz	a1,2e40 <float32::operator*(float32 const&) const+0xb4>
    2e20:	00403021 	move	a2,v0
    2e24:	00023400 	sll	a2,v0,0x10
    2e28:	3c080100 	lui	t0,0x100
    2e2c:	00c8402b 	sltu	t0,a2,t0
    2e30:	11000006 	beqz	t0,2e4c <float32::operator*(float32 const&) const+0xc0>
    2e34:	24050010 	li	a1,16
    2e38:	08000b92 	j	2e48 <float32::operator*(float32 const&) const+0xbc>
    2e3c:	24a50008 	addiu	a1,a1,8
    2e40:	00002821 	move	a1,zero
    2e44:	24a50008 	addiu	a1,a1,8
    2e48:	00063200 	sll	a2,a2,0x8
    2e4c:	3c088000 	lui	t0,0x8000
    2e50:	00063602 	srl	a2,a2,0x18
    2e54:	25080020 	addiu	t0,t0,32
    2e58:	00c83021 	addu	a2,a2,t0
    2e5c:	90c60000 	lbu	a2,0(a2)
    2e60:	24a5fff8 	addiu	a1,a1,-8
    2e64:	00a62821 	addu	a1,a1,a2
    2e68:	00052e00 	sll	a1,a1,0x18
    2e6c:	00052e03 	sra	a1,a1,0x18
    2e70:	24060001 	li	a2,1
    2e74:	00a21004 	sllv	v0,v0,a1
    2e78:	00c52823 	subu	a1,a2,a1
    2e7c:	14e0001f 	bnez	a3,2efc <float32::operator*(float32 const&) const+0x170>
    2e80:	00000000 	nop
    2e84:	14600004 	bnez	v1,2e98 <float32::operator*(float32 const&) const+0x10c>
    2e88:	3c060001 	lui	a2,0x1
    2e8c:	000427c0 	sll	a0,a0,0x1f
    2e90:	08000bd3 	j	2f4c <float32::operator*(float32 const&) const+0x1c0>
    2e94:	ae040000 	sw	a0,0(s0)
    2e98:	0066302b 	sltu	a2,v1,a2
    2e9c:	10c00008 	beqz	a2,2ec0 <float32::operator*(float32 const&) const+0x134>
    2ea0:	00603021 	move	a2,v1
    2ea4:	00033400 	sll	a2,v1,0x10
    2ea8:	3c070100 	lui	a3,0x100
    2eac:	00c7382b 	sltu	a3,a2,a3
    2eb0:	10e00006 	beqz	a3,2ecc <float32::operator*(float32 const&) const+0x140>
    2eb4:	24090010 	li	t1,16
    2eb8:	08000bb2 	j	2ec8 <float32::operator*(float32 const&) const+0x13c>
    2ebc:	25290008 	addiu	t1,t1,8
    2ec0:	00004821 	move	t1,zero
    2ec4:	25290008 	addiu	t1,t1,8
    2ec8:	00063200 	sll	a2,a2,0x8
    2ecc:	3c078000 	lui	a3,0x8000
    2ed0:	00063602 	srl	a2,a2,0x18
    2ed4:	24e70020 	addiu	a3,a3,32
    2ed8:	00c73021 	addu	a2,a2,a3
    2edc:	90c60000 	lbu	a2,0(a2)
    2ee0:	2529fff8 	addiu	t1,t1,-8
    2ee4:	01264821 	addu	t1,t1,a2
    2ee8:	00094e00 	sll	t1,t1,0x18
    2eec:	00094e03 	sra	t1,t1,0x18
    2ef0:	24060001 	li	a2,1
    2ef4:	01231804 	sllv	v1,v1,t1
    2ef8:	00c94823 	subu	t1,a2,t1
    2efc:	3c070080 	lui	a3,0x80
    2f00:	00471025 	or	v0,v0,a3
    2f04:	00673025 	or	a2,v1,a3
    2f08:	000211c0 	sll	v0,v0,0x7
    2f0c:	00063200 	sll	a2,a2,0x8
    2f10:	00c20019 	multu	a2,v0
    2f14:	00003812 	mflo	a3
    2f18:	0007102b 	sltu	v0,zero,a3
    2f1c:	00003010 	mfhi	a2
    2f20:	00463025 	or	a2,v0,a2
    2f24:	00061040 	sll	v0,a2,0x1
    2f28:	04410003 	bgez	v0,2f38 <float32::operator*(float32 const&) const+0x1ac>
    2f2c:	01252821 	addu	a1,t1,a1
    2f30:	08000bd0 	j	2f40 <float32::operator*(float32 const&) const+0x1b4>
    2f34:	24a5ff81 	addiu	a1,a1,-127
    2f38:	24a5ff80 	addiu	a1,a1,-128
    2f3c:	00403021 	move	a2,v0
    2f40:	0c000692 	jal	1a48 <_ZN7float3212roundAndPackEbij.1834>
    2f44:	00000000 	nop
    2f48:	ae020000 	sw	v0,0(s0)
    2f4c:	8fbf0014 	lw	ra,20(sp)
    2f50:	02001021 	move	v0,s0
    2f54:	8fb00010 	lw	s0,16(sp)
    2f58:	03e00008 	jr	ra
    2f5c:	27bd0018 	addiu	sp,sp,24

00002f60 <f32::atan2(float32 const&, float32 const&)>:
    2f60:	3c023f49 	lui	v0,0x3f49
    2f64:	27bdffc0 	addiu	sp,sp,-64
    2f68:	24420fdb 	addiu	v0,v0,4059
    2f6c:	afa2001c 	sw	v0,28(sp)
    2f70:	3c024016 	lui	v0,0x4016
    2f74:	3442cbe4 	ori	v0,v0,0xcbe4
    2f78:	8ca30000 	lw	v1,0(a1)
    2f7c:	afa20018 	sw	v0,24(sp)
    2f80:	3c027fff 	lui	v0,0x7fff
    2f84:	3442ffff 	ori	v0,v0,0xffff
    2f88:	00621024 	and	v0,v1,v0
    2f8c:	afa20020 	sw	v0,32(sp)
    2f90:	3c022edb 	lui	v0,0x2edb
    2f94:	3442e6ff 	ori	v0,v0,0xe6ff
    2f98:	afb20038 	sw	s2,56(sp)
    2f9c:	afb10034 	sw	s1,52(sp)
    2fa0:	afb00030 	sw	s0,48(sp)
    2fa4:	00808821 	move	s1,a0
    2fa8:	00c08021 	move	s0,a2
    2fac:	27a40014 	addiu	a0,sp,20
    2fb0:	27a60010 	addiu	a2,sp,16
    2fb4:	00a09021 	move	s2,a1
    2fb8:	27a50020 	addiu	a1,sp,32
    2fbc:	afbf003c 	sw	ra,60(sp)
    2fc0:	0c000b1a 	jal	2c68 <float32::operator+(float32 const&) const>
    2fc4:	afa20010 	sw	v0,16(sp)
    2fc8:	02002021 	move	a0,s0
    2fcc:	27a50010 	addiu	a1,sp,16
    2fd0:	0c0007e4 	jal	1f90 <_ZNK7float32ltERKS_.1842>
    2fd4:	afa00010 	sw	zero,16(sp)
    2fd8:	27a40024 	addiu	a0,sp,36
    2fdc:	02002821 	move	a1,s0
    2fe0:	14400012 	bnez	v0,302c <f32::atan2(float32 const&, float32 const&)+0xcc>
    2fe4:	27a60014 	addiu	a2,sp,20
    2fe8:	0c000b3f 	jal	2cfc <float32::operator-(float32 const&) const>
    2fec:	00000000 	nop
    2ff0:	27a40020 	addiu	a0,sp,32
    2ff4:	02002821 	move	a1,s0
    2ff8:	0c000b1a 	jal	2c68 <float32::operator+(float32 const&) const>
    2ffc:	27a60014 	addiu	a2,sp,20
    3000:	27a40010 	addiu	a0,sp,16
    3004:	27a50024 	addiu	a1,sp,36
    3008:	0c0006be 	jal	1af8 <_ZNK7float32dvERKS_.1685>
    300c:	27a60020 	addiu	a2,sp,32
    3010:	27a40024 	addiu	a0,sp,36
    3014:	27a5001c 	addiu	a1,sp,28
    3018:	0c000b63 	jal	2d8c <float32::operator*(float32 const&) const>
    301c:	27a60010 	addiu	a2,sp,16
    3020:	27a40028 	addiu	a0,sp,40
    3024:	08000c1b 	j	306c <f32::atan2(float32 const&, float32 const&)+0x10c>
    3028:	27a5001c 	addiu	a1,sp,28
    302c:	0c000b1a 	jal	2c68 <float32::operator+(float32 const&) const>
    3030:	00000000 	nop
    3034:	27a40020 	addiu	a0,sp,32
    3038:	27a50014 	addiu	a1,sp,20
    303c:	0c000b3f 	jal	2cfc <float32::operator-(float32 const&) const>
    3040:	02003021 	move	a2,s0
    3044:	27a40010 	addiu	a0,sp,16
    3048:	27a50024 	addiu	a1,sp,36
    304c:	0c0006be 	jal	1af8 <_ZNK7float32dvERKS_.1685>
    3050:	27a60020 	addiu	a2,sp,32
    3054:	27a40024 	addiu	a0,sp,36
    3058:	27a5001c 	addiu	a1,sp,28
    305c:	0c000b63 	jal	2d8c <float32::operator*(float32 const&) const>
    3060:	27a60010 	addiu	a2,sp,16
    3064:	27a40028 	addiu	a0,sp,40
    3068:	27a50018 	addiu	a1,sp,24
    306c:	0c000b3f 	jal	2cfc <float32::operator-(float32 const&) const>
    3070:	27a60024 	addiu	a2,sp,36
    3074:	8fa20028 	lw	v0,40(sp)
    3078:	02402021 	move	a0,s2
    307c:	27a50010 	addiu	a1,sp,16
    3080:	afa20020 	sw	v0,32(sp)
    3084:	0c0007e4 	jal	1f90 <_ZNK7float32ltERKS_.1842>
    3088:	afa00010 	sw	zero,16(sp)
    308c:	10400007 	beqz	v0,30ac <f32::atan2(float32 const&, float32 const&)+0x14c>
    3090:	02202021 	move	a0,s1
    3094:	27a50010 	addiu	a1,sp,16
    3098:	27a60020 	addiu	a2,sp,32
    309c:	0c000b3f 	jal	2cfc <float32::operator-(float32 const&) const>
    30a0:	afa00010 	sw	zero,16(sp)
    30a4:	08000c2e 	j	30b8 <f32::atan2(float32 const&, float32 const&)+0x158>
    30a8:	00000000 	nop
    30ac:	8fa20020 	lw	v0,32(sp)
    30b0:	00000000 	nop
    30b4:	ae220000 	sw	v0,0(s1)
    30b8:	8fbf003c 	lw	ra,60(sp)
    30bc:	02201021 	move	v0,s1
    30c0:	8fb20038 	lw	s2,56(sp)
    30c4:	8fb10034 	lw	s1,52(sp)
    30c8:	8fb00030 	lw	s0,48(sp)
    30cc:	03e00008 	jr	ra
    30d0:	27bd0040 	addiu	sp,sp,64

000030d4 <f32::rsqrt(float32 const&)>:
    30d4:	8ca20000 	lw	v0,0(a1)
    30d8:	27bdffc8 	addiu	sp,sp,-56
    30dc:	afbf0034 	sw	ra,52(sp)
    30e0:	afb00030 	sw	s0,48(sp)
    30e4:	00808021 	move	s0,a0
    30e8:	ac820000 	sw	v0,0(a0)
    30ec:	3c023fc0 	lui	v0,0x3fc0
    30f0:	afa20018 	sw	v0,24(sp)
    30f4:	27a40010 	addiu	a0,sp,16
    30f8:	3c023f00 	lui	v0,0x3f00
    30fc:	27a50014 	addiu	a1,sp,20
    3100:	02003021 	move	a2,s0
    3104:	0c000b63 	jal	2d8c <float32::operator*(float32 const&) const>
    3108:	afa20014 	sw	v0,20(sp)
    310c:	8e030000 	lw	v1,0(s0)
    3110:	3c025f37 	lui	v0,0x5f37
    3114:	00031843 	sra	v1,v1,0x1
    3118:	24425a86 	addiu	v0,v0,23174
    311c:	00431023 	subu	v0,v0,v1
    3120:	ae020000 	sw	v0,0(s0)
    3124:	27a4001c 	addiu	a0,sp,28
    3128:	27a50010 	addiu	a1,sp,16
    312c:	0c000b63 	jal	2d8c <float32::operator*(float32 const&) const>
    3130:	02003021 	move	a2,s0
    3134:	27a40020 	addiu	a0,sp,32
    3138:	27a5001c 	addiu	a1,sp,28
    313c:	0c000b63 	jal	2d8c <float32::operator*(float32 const&) const>
    3140:	02003021 	move	a2,s0
    3144:	27a40024 	addiu	a0,sp,36
    3148:	27a50018 	addiu	a1,sp,24
    314c:	0c000b3f 	jal	2cfc <float32::operator-(float32 const&) const>
    3150:	27a60020 	addiu	a2,sp,32
    3154:	27a40028 	addiu	a0,sp,40
    3158:	02002821 	move	a1,s0
    315c:	0c000b63 	jal	2d8c <float32::operator*(float32 const&) const>
    3160:	27a60024 	addiu	a2,sp,36
    3164:	8fa20028 	lw	v0,40(sp)
    3168:	8fbf0034 	lw	ra,52(sp)
    316c:	ae020000 	sw	v0,0(s0)
    3170:	02001021 	move	v0,s0
    3174:	8fb00030 	lw	s0,48(sp)
    3178:	03e00008 	jr	ra
    317c:	27bd0038 	addiu	sp,sp,56

00003180 <float32::operator*=(float32 const&)>:
    3180:	27bdffe0 	addiu	sp,sp,-32
    3184:	afb00018 	sw	s0,24(sp)
    3188:	00808021 	move	s0,a0
    318c:	00a03021 	move	a2,a1
    3190:	27a40010 	addiu	a0,sp,16
    3194:	afbf001c 	sw	ra,28(sp)
    3198:	0c000b63 	jal	2d8c <float32::operator*(float32 const&) const>
    319c:	02002821 	move	a1,s0
    31a0:	8fa20010 	lw	v0,16(sp)
    31a4:	8fbf001c 	lw	ra,28(sp)
    31a8:	ae020000 	sw	v0,0(s0)
    31ac:	02001021 	move	v0,s0
    31b0:	8fb00018 	lw	s0,24(sp)
    31b4:	03e00008 	jr	ra
    31b8:	27bd0020 	addiu	sp,sp,32

000031bc <float32::operator int() const>:
    31bc:	8c850000 	lw	a1,0(a0)
    31c0:	3c02007f 	lui	v0,0x7f
    31c4:	00051dc2 	srl	v1,a1,0x17
    31c8:	306300ff 	andi	v1,v1,0xff
    31cc:	3442ffff 	ori	v0,v0,0xffff
    31d0:	2464ff6a 	addiu	a0,v1,-150
    31d4:	00a21024 	and	v0,a1,v0
    31d8:	04800013 	bltz	a0,3228 <float32::operator int() const+0x6c>
    31dc:	000537c2 	srl	a2,a1,0x1f
    31e0:	2867009e 	slti	a3,v1,158
    31e4:	14e0000c 	bnez	a3,3218 <float32::operator int() const+0x5c>
    31e8:	00000000 	nop
    31ec:	3c04cf00 	lui	a0,0xcf00
    31f0:	10a40024 	beq	a1,a0,3284 <float32::operator int() const+0xc8>
    31f4:	00000000 	nop
    31f8:	10c0001f 	beqz	a2,3278 <float32::operator int() const+0xbc>
    31fc:	240400ff 	li	a0,255
    3200:	14640020 	bne	v1,a0,3284 <float32::operator int() const+0xc8>
    3204:	00000000 	nop
    3208:	1040001e 	beqz	v0,3284 <float32::operator int() const+0xc8>
    320c:	00000000 	nop
    3210:	08000c9f 	j	327c <float32::operator int() const+0xc0>
    3214:	3c027fff 	lui	v0,0x7fff
    3218:	3c030080 	lui	v1,0x80
    321c:	00431025 	or	v0,v0,v1
    3220:	08000c9a 	j	3268 <float32::operator int() const+0xac>
    3224:	00821004 	sllv	v0,v0,a0
    3228:	2865007e 	slti	a1,v1,126
    322c:	10a00003 	beqz	a1,323c <float32::operator int() const+0x80>
    3230:	00621825 	or	v1,v1,v0
    3234:	08000c94 	j	3250 <float32::operator int() const+0x94>
    3238:	00001021 	move	v0,zero
    323c:	3c030080 	lui	v1,0x80
    3240:	00431025 	or	v0,v0,v1
    3244:	00821804 	sllv	v1,v0,a0
    3248:	00042023 	negu	a0,a0
    324c:	00821006 	srlv	v0,v0,a0
    3250:	04610005 	bgez	v1,3268 <float32::operator int() const+0xac>
    3254:	00031840 	sll	v1,v1,0x1
    3258:	14600003 	bnez	v1,3268 <float32::operator int() const+0xac>
    325c:	24420001 	addiu	v0,v0,1
    3260:	2403fffe 	li	v1,-2
    3264:	00431024 	and	v0,v0,v1
    3268:	10c00007 	beqz	a2,3288 <float32::operator int() const+0xcc>
    326c:	00000000 	nop
    3270:	03e00008 	jr	ra
    3274:	00021023 	negu	v0,v0
    3278:	3c027fff 	lui	v0,0x7fff
    327c:	03e00008 	jr	ra
    3280:	3442ffff 	ori	v0,v0,0xffff
    3284:	3c028000 	lui	v0,0x8000
    3288:	03e00008 	jr	ra
    328c:	00000000 	nop

00003290 <_Z8f32todecRK7float32.1453>:
    3290:	27bdffa0 	addiu	sp,sp,-96
    3294:	3c02447a 	lui	v0,0x447a
    3298:	8c830000 	lw	v1,0(a0)
    329c:	afa20014 	sw	v0,20(sp)
    32a0:	3c027fff 	lui	v0,0x7fff
    32a4:	3442ffff 	ori	v0,v0,0xffff
    32a8:	00621024 	and	v0,v1,v0
    32ac:	afb60050 	sw	s6,80(sp)
    32b0:	00022dc2 	srl	a1,v0,0x17
    32b4:	0080b021 	move	s6,a0
    32b8:	240400ff 	li	a0,255
    32bc:	afbf005c 	sw	ra,92(sp)
    32c0:	afbe0058 	sw	s8,88(sp)
    32c4:	afb70054 	sw	s7,84(sp)
    32c8:	afb5004c 	sw	s5,76(sp)
    32cc:	afb40048 	sw	s4,72(sp)
    32d0:	afb30044 	sw	s3,68(sp)
    32d4:	afb20040 	sw	s2,64(sp)
    32d8:	afb1003c 	sw	s1,60(sp)
    32dc:	afb00038 	sw	s0,56(sp)
    32e0:	14a40095 	bne	a1,a0,3538 <_Z8f32todecRK7float32.1453+0x2a8>
    32e4:	afa20010 	sw	v0,16(sp)
    32e8:	3c04007f 	lui	a0,0x7f
    32ec:	3484ffff 	ori	a0,a0,0xffff
    32f0:	3c134f42 	lui	s3,0x4f42
    32f4:	3c122020 	lui	s2,0x2020
    32f8:	00641824 	and	v1,v1,a0
    32fc:	36734947 	ori	s3,s3,0x4947
    3300:	146000a8 	bnez	v1,35a4 <_Z8f32todecRK7float32.1453+0x314>
    3304:	36522054 	ori	s2,s2,0x2054
    3308:	08000d4f 	j	353c <_Z8f32todecRK7float32.1453+0x2ac>
    330c:	3c03447a 	lui	v1,0x447a
    3310:	1440008c 	bnez	v0,3544 <_Z8f32todecRK7float32.1453+0x2b4>
    3314:	3c134f42 	lui	s3,0x4f42
    3318:	3c122020 	lui	s2,0x2020
    331c:	36734947 	ori	s3,s3,0x4947
    3320:	08000d69 	j	35a4 <_Z8f32todecRK7float32.1453+0x314>
    3324:	36522054 	ori	s2,s2,0x2054
    3328:	27a50010 	addiu	a1,sp,16
    332c:	0c000b63 	jal	2d8c <float32::operator*(float32 const&) const>
    3330:	2694ffff 	addiu	s4,s4,-1
    3334:	27a40018 	addiu	a0,sp,24
    3338:	0c000aae 	jal	2ab8 <float32::float32(int)>
    333c:	02802821 	move	a1,s4
    3340:	27a4001c 	addiu	a0,sp,28
    3344:	27a50018 	addiu	a1,sp,24
    3348:	0c000b63 	jal	2d8c <float32::operator*(float32 const&) const>
    334c:	27a60014 	addiu	a2,sp,20
    3350:	27a40024 	addiu	a0,sp,36
    3354:	27a50020 	addiu	a1,sp,32
    3358:	0c000b3f 	jal	2cfc <float32::operator-(float32 const&) const>
    335c:	27a6001c 	addiu	a2,sp,28
    3360:	0c000c6f 	jal	31bc <float32::operator int() const>
    3364:	27a40024 	addiu	a0,sp,36
    3368:	2c440001 	sltiu	a0,v0,1
    336c:	2e830001 	sltiu	v1,s4,1
    3370:	3c132e20 	lui	s3,0x2e20
    3374:	3c122020 	lui	s2,0x2020
    3378:	00831824 	and	v1,a0,v1
    337c:	36732030 	ori	s3,s3,0x2030
    3380:	14600088 	bnez	v1,35a4 <_Z8f32todecRK7float32.1453+0x314>
    3384:	36522020 	ori	s2,s2,0x2020
    3388:	3c112e20 	lui	s1,0x2e20
    338c:	3c102020 	lui	s0,0x2020
    3390:	0000b821 	move	s7,zero
    3394:	36312020 	ori	s1,s1,0x2020
    3398:	36102020 	ori	s0,s0,0x2020
    339c:	241e0001 	li	s8,1
    33a0:	2407ffff 	li	a3,-1
    33a4:	2408fff6 	li	t0,-10
    33a8:	08000d14 	j	3450 <_Z8f32todecRK7float32.1453+0x1c0>
    33ac:	24090018 	li	t1,24
    33b0:	009e2804 	sllv	a1,s8,a0
    33b4:	00a22824 	and	a1,a1,v0
    33b8:	00852807 	srav	a1,a1,a0
    33bc:	00031840 	sll	v1,v1,0x1
    33c0:	00651821 	addu	v1,v1,a1
    33c4:	2865000a 	slti	a1,v1,10
    33c8:	14a00003 	bnez	a1,33d8 <_Z8f32todecRK7float32.1453+0x148>
    33cc:	0015a840 	sll	s5,s5,0x1
    33d0:	2463fff6 	addiu	v1,v1,-10
    33d4:	26b50001 	addiu	s5,s5,1
    33d8:	2484ffff 	addiu	a0,a0,-1
    33dc:	1487fff5 	bne	a0,a3,33b4 <_Z8f32todecRK7float32.1453+0x124>
    33e0:	009e2804 	sllv	a1,s8,a0
    33e4:	02a80018 	mult	s5,t0
    33e8:	00002812 	mflo	a1
    33ec:	00a21821 	addu	v1,a1,v0
    33f0:	04600006 	bltz	v1,340c <_Z8f32todecRK7float32.1453+0x17c>
    33f4:	00000000 	nop
    33f8:	24420030 	addiu	v0,v0,48
    33fc:	00452821 	addu	a1,v0,a1
    3400:	00052e00 	sll	a1,a1,0x18
    3404:	08000d04 	j	3410 <_Z8f32todecRK7float32.1453+0x180>
    3408:	00052e03 	sra	a1,a1,0x18
    340c:	24050030 	li	a1,48
    3410:	02e03021 	move	a2,s7
    3414:	000527c3 	sra	a0,a1,0x1f
    3418:	afa70030 	sw	a3,48(sp)
    341c:	afa80034 	sw	t0,52(sp)
    3420:	0c001792 	jal	5e48 <__ashldi3>
    3424:	afa9002c 	sw	t1,44(sp)
    3428:	8fa9002c 	lw	t1,44(sp)
    342c:	00501025 	or	v0,v0,s0
    3430:	02231825 	or	v1,s1,v1
    3434:	26f70008 	addiu	s7,s7,8
    3438:	00408021 	move	s0,v0
    343c:	00608821 	move	s1,v1
    3440:	8fa70030 	lw	a3,48(sp)
    3444:	8fa80034 	lw	t0,52(sp)
    3448:	12e90027 	beq	s7,t1,34e8 <_Z8f32todecRK7float32.1453+0x258>
    344c:	02a01021 	move	v0,s5
    3450:	0000a821 	move	s5,zero
    3454:	2404001f 	li	a0,31
    3458:	08000cec 	j	33b0 <_Z8f32todecRK7float32.1453+0x120>
    345c:	00001821 	move	v1,zero
    3460:	2402001f 	li	v0,31
    3464:	00001821 	move	v1,zero
    3468:	005e2004 	sllv	a0,s8,v0
    346c:	00942024 	and	a0,a0,s4
    3470:	00442007 	srav	a0,a0,v0
    3474:	00031840 	sll	v1,v1,0x1
    3478:	00641821 	addu	v1,v1,a0
    347c:	2864000a 	slti	a0,v1,10
    3480:	14800003 	bnez	a0,3490 <_Z8f32todecRK7float32.1453+0x200>
    3484:	0015a840 	sll	s5,s5,0x1
    3488:	2463fff6 	addiu	v1,v1,-10
    348c:	26b50001 	addiu	s5,s5,1
    3490:	2442ffff 	addiu	v0,v0,-1
    3494:	1447fff4 	bne	v0,a3,3468 <_Z8f32todecRK7float32.1453+0x1d8>
    3498:	02a80018 	mult	s5,t0
    349c:	26850030 	addiu	a1,s4,48
    34a0:	001730c0 	sll	a2,s7,0x3
    34a4:	afa70030 	sw	a3,48(sp)
    34a8:	afa80034 	sw	t0,52(sp)
    34ac:	26f70001 	addiu	s7,s7,1
    34b0:	02a0a021 	move	s4,s5
    34b4:	00001012 	mflo	v0
    34b8:	00a22821 	addu	a1,a1,v0
    34bc:	00052e00 	sll	a1,a1,0x18
    34c0:	00052e03 	sra	a1,a1,0x18
    34c4:	0c001792 	jal	5e48 <__ashldi3>
    34c8:	000527c3 	sra	a0,a1,0x1f
    34cc:	00501025 	or	v0,v0,s0
    34d0:	02231825 	or	v1,s1,v1
    34d4:	00408021 	move	s0,v0
    34d8:	8fa70030 	lw	a3,48(sp)
    34dc:	8fa80034 	lw	t0,52(sp)
    34e0:	08000d3e 	j	34f8 <_Z8f32todecRK7float32.1453+0x268>
    34e4:	00608821 	move	s1,v1
    34e8:	24170004 	li	s7,4
    34ec:	241e0001 	li	s8,1
    34f0:	2407ffff 	li	a3,-1
    34f4:	2408fff6 	li	t0,-10
    34f8:	1680ffd9 	bnez	s4,3460 <_Z8f32todecRK7float32.1453+0x1d0>
    34fc:	0000a821 	move	s5,zero
    3500:	02c02021 	move	a0,s6
    3504:	27a50018 	addiu	a1,sp,24
    3508:	0c0007e4 	jal	1f90 <_ZNK7float32ltERKS_.1842>
    350c:	afa00018 	sw	zero,24(sp)
    3510:	2405002b 	li	a1,43
    3514:	10400003 	beqz	v0,3524 <_Z8f32todecRK7float32.1453+0x294>
    3518:	00002021 	move	a0,zero
    351c:	2405002d 	li	a1,45
    3520:	00002021 	move	a0,zero
    3524:	0c001792 	jal	5e48 <__ashldi3>
    3528:	001730c0 	sll	a2,s7,0x3
    352c:	00509025 	or	s2,v0,s0
    3530:	08000d69 	j	35a4 <_Z8f32todecRK7float32.1453+0x314>
    3534:	00719825 	or	s3,v1,s1
    3538:	3c03447a 	lui	v1,0x447a
    353c:	1443ff74 	bne	v0,v1,3310 <_Z8f32todecRK7float32.1453+0x80>
    3540:	0043102b 	sltu	v0,v0,v1
    3544:	0c000c6f 	jal	31bc <float32::operator int() const>
    3548:	27a40010 	addiu	a0,sp,16
    354c:	0040a021 	move	s4,v0
    3550:	27a60014 	addiu	a2,sp,20
    3554:	27a40020 	addiu	a0,sp,32
    3558:	0c000b63 	jal	2d8c <float32::operator*(float32 const&) const>
    355c:	27a50010 	addiu	a1,sp,16
    3560:	27a40018 	addiu	a0,sp,24
    3564:	0c000aae 	jal	2ab8 <float32::float32(int)>
    3568:	02802821 	move	a1,s4
    356c:	27a4001c 	addiu	a0,sp,28
    3570:	27a50018 	addiu	a1,sp,24
    3574:	0c000b63 	jal	2d8c <float32::operator*(float32 const&) const>
    3578:	27a60014 	addiu	a2,sp,20
    357c:	27a40024 	addiu	a0,sp,36
    3580:	27a50020 	addiu	a1,sp,32
    3584:	0c000b3f 	jal	2cfc <float32::operator-(float32 const&) const>
    3588:	27a6001c 	addiu	a2,sp,28
    358c:	0c000c6f 	jal	31bc <float32::operator int() const>
    3590:	27a40024 	addiu	a0,sp,36
    3594:	0441ff74 	bgez	v0,3368 <_Z8f32todecRK7float32.1453+0xd8>
    3598:	27a60014 	addiu	a2,sp,20
    359c:	08000cca 	j	3328 <_Z8f32todecRK7float32.1453+0x98>
    35a0:	27a40020 	addiu	a0,sp,32
    35a4:	8fbf005c 	lw	ra,92(sp)
    35a8:	02401021 	move	v0,s2
    35ac:	02601821 	move	v1,s3
    35b0:	8fbe0058 	lw	s8,88(sp)
    35b4:	8fb70054 	lw	s7,84(sp)
    35b8:	8fb60050 	lw	s6,80(sp)
    35bc:	8fb5004c 	lw	s5,76(sp)
    35c0:	8fb40048 	lw	s4,72(sp)
    35c4:	8fb30044 	lw	s3,68(sp)
    35c8:	8fb20040 	lw	s2,64(sp)
    35cc:	8fb1003c 	lw	s1,60(sp)
    35d0:	8fb00038 	lw	s0,56(sp)
    35d4:	03e00008 	jr	ra
    35d8:	27bd0060 	addiu	sp,sp,96

000035dc <Radio::Digital::TelemetryTask::start()>:
    35dc:	27bdffe8 	addiu	sp,sp,-24
    35e0:	afbf0014 	sw	ra,20(sp)
    35e4:	0c00081a 	jal	2068 <_ZN6System8Registry8instanceEv.local.10>
    35e8:	afb00010 	sw	s0,16(sp)
    35ec:	0c000ca4 	jal	3290 <_Z8f32todecRK7float32.1453>
    35f0:	24440010 	addiu	a0,v0,16
    35f4:	00602821 	move	a1,v1
    35f8:	00402021 	move	a0,v0
    35fc:	0c000930 	jal	24c0 <System::Bus::UART::write_waiting(long long)>
    3600:	3c108000 	lui	s0,0x8000
    3604:	0c0008d3 	jal	234c <_ZN6System3Bus4UART13write_waitingEPKcj.constprop.37>
    3608:	26040004 	addiu	a0,s0,4
    360c:	0c00081a 	jal	2068 <_ZN6System8Registry8instanceEv.local.10>
    3610:	00000000 	nop
    3614:	0c000ca4 	jal	3290 <_Z8f32todecRK7float32.1453>
    3618:	24440014 	addiu	a0,v0,20
    361c:	00602821 	move	a1,v1
    3620:	0c000930 	jal	24c0 <System::Bus::UART::write_waiting(long long)>
    3624:	00402021 	move	a0,v0
    3628:	0c0008d3 	jal	234c <_ZN6System3Bus4UART13write_waitingEPKcj.constprop.37>
    362c:	26040004 	addiu	a0,s0,4
    3630:	0c00081a 	jal	2068 <_ZN6System8Registry8instanceEv.local.10>
    3634:	00000000 	nop
    3638:	0c000ca4 	jal	3290 <_Z8f32todecRK7float32.1453>
    363c:	24440018 	addiu	a0,v0,24
    3640:	00402021 	move	a0,v0
    3644:	0c000930 	jal	24c0 <System::Bus::UART::write_waiting(long long)>
    3648:	00602821 	move	a1,v1
    364c:	8fbf0014 	lw	ra,20(sp)
    3650:	8fb00010 	lw	s0,16(sp)
    3654:	3c048000 	lui	a0,0x8000
    3658:	24840008 	addiu	a0,a0,8
    365c:	080008d3 	j	234c <_ZN6System3Bus4UART13write_waitingEPKcj.constprop.37>
    3660:	27bd0018 	addiu	sp,sp,24

00003664 <Control::AltitudeTask::start()>:
    3664:	8c820014 	lw	v0,20(a0)
    3668:	27bdff88 	addiu	sp,sp,-120
    366c:	afb0006c 	sw	s0,108(sp)
    3670:	afbf0074 	sw	ra,116(sp)
    3674:	afb10070 	sw	s1,112(sp)
    3678:	14400062 	bnez	v0,3804 <Control::AltitudeTask::start()+0x1a0>
    367c:	00808021 	move	s0,a0
    3680:	0c0009ed 	jal	27b4 <_ZN7Sensors4BaroL11updateValueEv.3158.1769>
    3684:	00000000 	nop
    3688:	3c038000 	lui	v1,0x8000
    368c:	3c058000 	lui	a1,0x8000
    3690:	8c6a04a0 	lw	t2,1184(v1)
    3694:	8c6704a4 	lw	a3,1188(v1)
    3698:	8ca30578 	lw	v1,1400(a1)
    369c:	24a50578 	addiu	a1,a1,1400
    36a0:	8ca80008 	lw	t0,8(a1)
    36a4:	00035c42 	srl	t3,v1,0x11
    36a8:	01480018 	mult	t2,t0
    36ac:	00031bc0 	sll	v1,v1,0xf
    36b0:	000237c3 	sra	a2,v0,0x1f
    36b4:	00002012 	mflo	a0
    36b8:	00000000 	nop
    36bc:	00000000 	nop
    36c0:	00e80019 	multu	a3,t0
    36c4:	00004010 	mfhi	t0
    36c8:	00884021 	addu	t0,a0,t0
    36cc:	00086600 	sll	t4,t0,0x18
    36d0:	00004812 	mflo	t1
    36d4:	00092202 	srl	a0,t1,0x8
    36d8:	01842025 	or	a0,t4,a0
    36dc:	00642021 	addu	a0,v1,a0
    36e0:	00084203 	sra	t0,t0,0x8
    36e4:	01684021 	addu	t0,t3,t0
    36e8:	0083182b 	sltu	v1,a0,v1
    36ec:	00684021 	addu	t0,v1,t0
    36f0:	3c038000 	lui	v1,0x8000
    36f4:	8c6904b0 	lw	t1,1200(v1)
    36f8:	8c6304b4 	lw	v1,1204(v1)
    36fc:	01094023 	subu	t0,t0,t1
    3700:	00831823 	subu	v1,a0,v1
    3704:	00c30018 	mult	a2,v1
    3708:	0083202b 	sltu	a0,a0,v1
    370c:	01042023 	subu	a0,t0,a0
    3710:	00004012 	mflo	t0
    3714:	00000000 	nop
    3718:	00000000 	nop
    371c:	00820018 	mult	a0,v0
    3720:	00003012 	mflo	a2
    3724:	01062021 	addu	a0,t0,a2
    3728:	8ca6000c 	lw	a2,12(a1)
    372c:	00430019 	multu	v0,v1
    3730:	8ca80004 	lw	t0,4(a1)
    3734:	00000000 	nop
    3738:	00084c02 	srl	t1,t0,0x10
    373c:	00084400 	sll	t0,t0,0x10
    3740:	00001010 	mfhi	v0
    3744:	00821021 	addu	v0,a0,v0
    3748:	000222c0 	sll	a0,v0,0xb
    374c:	00001812 	mflo	v1
    3750:	00031d42 	srl	v1,v1,0x15
    3754:	00831825 	or	v1,a0,v1
    3758:	01460018 	mult	t2,a2
    375c:	00021543 	sra	v0,v0,0x15
    3760:	00002012 	mflo	a0
    3764:	00000000 	nop
    3768:	00000000 	nop
    376c:	00c70019 	multu	a2,a3
    3770:	00003010 	mfhi	a2
    3774:	00863021 	addu	a2,a0,a2
    3778:	00062e40 	sll	a1,a2,0x19
    377c:	00003812 	mflo	a3
    3780:	000721c2 	srl	a0,a3,0x7
    3784:	00a42025 	or	a0,a1,a0
    3788:	3c058000 	lui	a1,0x8000
    378c:	8cb104ac 	lw	s1,1196(a1)
    3790:	01042021 	addu	a0,t0,a0
    3794:	000631c3 	sra	a2,a2,0x7
    3798:	01263021 	addu	a2,t1,a2
    379c:	8ca704a8 	lw	a3,1192(a1)
    37a0:	0088402b 	sltu	t0,a0,t0
    37a4:	01064021 	addu	t0,t0,a2
    37a8:	00918823 	subu	s1,a0,s1
    37ac:	01074023 	subu	t0,t0,a3
    37b0:	0091202b 	sltu	a0,a0,s1
    37b4:	01042023 	subu	a0,t0,a0
    37b8:	00718823 	subu	s1,v1,s1
    37bc:	00441023 	subu	v0,v0,a0
    37c0:	0071182b 	sltu	v1,v1,s1
    37c4:	00431823 	subu	v1,v0,v1
    37c8:	00031c40 	sll	v1,v1,0x11
    37cc:	00118bc2 	srl	s1,s1,0xf
    37d0:	0c00081a 	jal	2068 <_ZN6System8Registry8instanceEv.local.10>
    37d4:	00718825 	or	s1,v1,s1
    37d8:	0c00099d 	jal	2674 <System::Bus::I2C::start()>
    37dc:	ac510054 	sw	s1,84(v0)
    37e0:	0c00097f 	jal	25fc <System::Bus::I2C::write(unsigned char)>
    37e4:	240400ee 	li	a0,238
    37e8:	0c00097f 	jal	25fc <System::Bus::I2C::write(unsigned char)>
    37ec:	24040050 	li	a0,80
    37f0:	0c000994 	jal	2650 <System::Bus::I2C::stop()>
    37f4:	00000000 	nop
    37f8:	24020001 	li	v0,1
    37fc:	08000e0f 	j	383c <Control::AltitudeTask::start()+0x1d8>
    3800:	ae020014 	sw	v0,20(s0)
    3804:	24030001 	li	v1,1
    3808:	1443000c 	bne	v0,v1,383c <Control::AltitudeTask::start()+0x1d8>
    380c:	00000000 	nop
    3810:	0c000a0b 	jal	282c <_ZN7Sensors4Baro17updateTemperatureEv.1596>
    3814:	00000000 	nop
    3818:	0c00099d 	jal	2674 <System::Bus::I2C::start()>
    381c:	00000000 	nop
    3820:	0c00097f 	jal	25fc <System::Bus::I2C::write(unsigned char)>
    3824:	240400ee 	li	a0,238
    3828:	0c00097f 	jal	25fc <System::Bus::I2C::write(unsigned char)>
    382c:	24040040 	li	a0,64
    3830:	0c000994 	jal	2650 <System::Bus::I2C::stop()>
    3834:	00000000 	nop
    3838:	ae000014 	sw	zero,20(s0)
    383c:	0c00081a 	jal	2068 <_ZN6System8Registry8instanceEv.local.10>
    3840:	00000000 	nop
    3844:	8c450054 	lw	a1,84(v0)
    3848:	0c000aae 	jal	2ab8 <float32::float32(int)>
    384c:	27a40058 	addiu	a0,sp,88
    3850:	0c00081a 	jal	2068 <_ZN6System8Registry8instanceEv.local.10>
    3854:	00000000 	nop
    3858:	8c450050 	lw	a1,80(v0)
    385c:	0c000aae 	jal	2ab8 <float32::float32(int)>
    3860:	27a40054 	addiu	a0,sp,84
    3864:	3c0247c5 	lui	v0,0x47c5
    3868:	3442e680 	ori	v0,v0,0xe680
    386c:	27a4005c 	addiu	a0,sp,92
    3870:	27a50050 	addiu	a1,sp,80
    3874:	27a60058 	addiu	a2,sp,88
    3878:	0c0006be 	jal	1af8 <_ZNK7float32dvERKS_.1685>
    387c:	afa20050 	sw	v0,80(sp)
    3880:	3c02bc2c 	lui	v0,0xbc2c
    3884:	24420831 	addiu	v0,v0,2097
    3888:	afa20010 	sw	v0,16(sp)
    388c:	3c023d9f 	lui	v0,0x3d9f
    3890:	3442be77 	ori	v0,v0,0xbe77
    3894:	afa20014 	sw	v0,20(sp)
    3898:	3c02be7c 	lui	v0,0xbe7c
    389c:	244201a3 	addiu	v0,v0,419
    38a0:	afa20018 	sw	v0,24(sp)
    38a4:	3c023efb 	lui	v0,0x3efb
    38a8:	2442089a 	addiu	v0,v0,2202
    38ac:	27a5005c 	addiu	a1,sp,92
    38b0:	afa2001c 	sw	v0,28(sp)
    38b4:	3c023f30 	lui	v0,0x3f30
    38b8:	2442346e 	addiu	v0,v0,13422
    38bc:	00a03021 	move	a2,a1
    38c0:	27a40048 	addiu	a0,sp,72
    38c4:	0c000b63 	jal	2d8c <float32::operator*(float32 const&) const>
    38c8:	afa20020 	sw	v0,32(sp)
    38cc:	27a40034 	addiu	a0,sp,52
    38d0:	27a50010 	addiu	a1,sp,16
    38d4:	0c000b63 	jal	2d8c <float32::operator*(float32 const&) const>
    38d8:	27a60048 	addiu	a2,sp,72
    38dc:	27a40030 	addiu	a0,sp,48
    38e0:	27a50034 	addiu	a1,sp,52
    38e4:	0c000b63 	jal	2d8c <float32::operator*(float32 const&) const>
    38e8:	27a60048 	addiu	a2,sp,72
    38ec:	27a4003c 	addiu	a0,sp,60
    38f0:	27a50014 	addiu	a1,sp,20
    38f4:	0c000b63 	jal	2d8c <float32::operator*(float32 const&) const>
    38f8:	27a60048 	addiu	a2,sp,72
    38fc:	27a40038 	addiu	a0,sp,56
    3900:	27a5003c 	addiu	a1,sp,60
    3904:	0c000b63 	jal	2d8c <float32::operator*(float32 const&) const>
    3908:	27a6005c 	addiu	a2,sp,92
    390c:	27a4002c 	addiu	a0,sp,44
    3910:	27a50030 	addiu	a1,sp,48
    3914:	0c000b1a 	jal	2c68 <float32::operator+(float32 const&) const>
    3918:	27a60038 	addiu	a2,sp,56
    391c:	27a40040 	addiu	a0,sp,64
    3920:	27a50018 	addiu	a1,sp,24
    3924:	0c000b63 	jal	2d8c <float32::operator*(float32 const&) const>
    3928:	27a60048 	addiu	a2,sp,72
    392c:	27a40028 	addiu	a0,sp,40
    3930:	27a5002c 	addiu	a1,sp,44
    3934:	0c000b1a 	jal	2c68 <float32::operator+(float32 const&) const>
    3938:	27a60040 	addiu	a2,sp,64
    393c:	27a40044 	addiu	a0,sp,68
    3940:	27a5001c 	addiu	a1,sp,28
    3944:	0c000b63 	jal	2d8c <float32::operator*(float32 const&) const>
    3948:	27a6005c 	addiu	a2,sp,92
    394c:	27a40024 	addiu	a0,sp,36
    3950:	27a50028 	addiu	a1,sp,40
    3954:	0c000b1a 	jal	2c68 <float32::operator+(float32 const&) const>
    3958:	27a60044 	addiu	a2,sp,68
    395c:	27a4004c 	addiu	a0,sp,76
    3960:	27a50024 	addiu	a1,sp,36
    3964:	0c000b1a 	jal	2c68 <float32::operator+(float32 const&) const>
    3968:	27a60020 	addiu	a2,sp,32
    396c:	3c023f80 	lui	v0,0x3f80
    3970:	27a40034 	addiu	a0,sp,52
    3974:	27a5004c 	addiu	a1,sp,76
    3978:	27a60030 	addiu	a2,sp,48
    397c:	0c000b3f 	jal	2cfc <float32::operator-(float32 const&) const>
    3980:	afa20030 	sw	v0,48(sp)
    3984:	3c0246d5 	lui	v0,0x46d5
    3988:	24426600 	addiu	v0,v0,26112
    398c:	27a4002c 	addiu	a0,sp,44
    3990:	27a50054 	addiu	a1,sp,84
    3994:	27a60028 	addiu	a2,sp,40
    3998:	0c000b1a 	jal	2c68 <float32::operator+(float32 const&) const>
    399c:	afa20028 	sw	v0,40(sp)
    39a0:	27a40038 	addiu	a0,sp,56
    39a4:	27a50034 	addiu	a1,sp,52
    39a8:	0c000b63 	jal	2d8c <float32::operator*(float32 const&) const>
    39ac:	27a6002c 	addiu	a2,sp,44
    39b0:	3c023bd4 	lui	v0,0x3bd4
    39b4:	3442fdf4 	ori	v0,v0,0xfdf4
    39b8:	27a50038 	addiu	a1,sp,56
    39bc:	27a40010 	addiu	a0,sp,16
    39c0:	27a60024 	addiu	a2,sp,36
    39c4:	0c0006be 	jal	1af8 <_ZNK7float32dvERKS_.1685>
    39c8:	afa20024 	sw	v0,36(sp)
    39cc:	0c000c6f 	jal	31bc <float32::operator int() const>
    39d0:	27a40010 	addiu	a0,sp,16
    39d4:	8e030098 	lw	v1,152(s0)
    39d8:	24050020 	li	a1,32
    39dc:	24640001 	addiu	a0,v1,1
    39e0:	10850003 	beq	a0,a1,39f0 <Control::AltitudeTask::start()+0x38c>
    39e4:	00000000 	nop
    39e8:	08000e7d 	j	39f4 <Control::AltitudeTask::start()+0x390>
    39ec:	ae040098 	sw	a0,152(s0)
    39f0:	ae000098 	sw	zero,152(s0)
    39f4:	00031880 	sll	v1,v1,0x2
    39f8:	02031821 	addu	v1,s0,v1
    39fc:	8c710018 	lw	s1,24(v1)
    3a00:	8e04009c 	lw	a0,156(s0)
    3a04:	00518823 	subu	s1,v0,s1
    3a08:	02248821 	addu	s1,s1,a0
    3a0c:	ae11009c 	sw	s1,156(s0)
    3a10:	0c00081a 	jal	2068 <_ZN6System8Registry8instanceEv.local.10>
    3a14:	ac620018 	sw	v0,24(v1)
    3a18:	8fbf0074 	lw	ra,116(sp)
    3a1c:	00118943 	sra	s1,s1,0x5
    3a20:	ac510058 	sw	s1,88(v0)
    3a24:	8fb0006c 	lw	s0,108(sp)
    3a28:	8fb10070 	lw	s1,112(sp)
    3a2c:	03e00008 	jr	ra
    3a30:	27bd0078 	addiu	sp,sp,120

00003a34 <b32todec(int)>:
    3a34:	000417c3 	sra	v0,a0,0x1f
    3a38:	00442826 	xor	a1,v0,a0
    3a3c:	00a22823 	subu	a1,a1,v0
    3a40:	3c020098 	lui	v0,0x98
    3a44:	34429680 	ori	v0,v0,0x9680
    3a48:	27bdffc0 	addiu	sp,sp,-64
    3a4c:	00a2102a 	slt	v0,a1,v0
    3a50:	afb5002c 	sw	s5,44(sp)
    3a54:	afbf003c 	sw	ra,60(sp)
    3a58:	afbe0038 	sw	s8,56(sp)
    3a5c:	afb70034 	sw	s7,52(sp)
    3a60:	afb60030 	sw	s6,48(sp)
    3a64:	afb40028 	sw	s4,40(sp)
    3a68:	afb30024 	sw	s3,36(sp)
    3a6c:	afb20020 	sw	s2,32(sp)
    3a70:	afb1001c 	sw	s1,28(sp)
    3a74:	afb00018 	sw	s0,24(sp)
    3a78:	1040003b 	beqz	v0,3b68 <b32todec(int)+0x134>
    3a7c:	0080a821 	move	s5,a0
    3a80:	3c132020 	lui	s3,0x2020
    3a84:	3c122020 	lui	s2,0x2020
    3a88:	36732030 	ori	s3,s3,0x2030
    3a8c:	10a0003f 	beqz	a1,3b8c <b32todec(int)+0x158>
    3a90:	36522020 	ori	s2,s2,0x2020
    3a94:	3c112020 	lui	s1,0x2020
    3a98:	3c102020 	lui	s0,0x2020
    3a9c:	36312020 	ori	s1,s1,0x2020
    3aa0:	36102020 	ori	s0,s0,0x2020
    3aa4:	0000b021 	move	s6,zero
    3aa8:	24170001 	li	s7,1
    3aac:	241effff 	li	s8,-1
    3ab0:	08000ecc 	j	3b30 <b32todec(int)+0xfc>
    3ab4:	2407fff6 	li	a3,-10
    3ab8:	00772004 	sllv	a0,s7,v1
    3abc:	00852024 	and	a0,a0,a1
    3ac0:	00642007 	srav	a0,a0,v1
    3ac4:	00021040 	sll	v0,v0,0x1
    3ac8:	00441021 	addu	v0,v0,a0
    3acc:	2844000a 	slti	a0,v0,10
    3ad0:	14800003 	bnez	a0,3ae0 <b32todec(int)+0xac>
    3ad4:	0014a040 	sll	s4,s4,0x1
    3ad8:	2442fff6 	addiu	v0,v0,-10
    3adc:	26940001 	addiu	s4,s4,1
    3ae0:	2463ffff 	addiu	v1,v1,-1
    3ae4:	147efff4 	bne	v1,s8,3ab8 <b32todec(int)+0x84>
    3ae8:	02870018 	mult	s4,a3
    3aec:	24a50030 	addiu	a1,a1,48
    3af0:	001630c0 	sll	a2,s6,0x3
    3af4:	afa70014 	sw	a3,20(sp)
    3af8:	26d60001 	addiu	s6,s6,1
    3afc:	00001012 	mflo	v0
    3b00:	00a22821 	addu	a1,a1,v0
    3b04:	00052e00 	sll	a1,a1,0x18
    3b08:	00052e03 	sra	a1,a1,0x18
    3b0c:	0c001792 	jal	5e48 <__ashldi3>
    3b10:	000527c3 	sra	a0,a1,0x1f
    3b14:	00501025 	or	v0,v0,s0
    3b18:	02231825 	or	v1,s1,v1
    3b1c:	00408021 	move	s0,v0
    3b20:	00608821 	move	s1,v1
    3b24:	8fa70014 	lw	a3,20(sp)
    3b28:	12800005 	beqz	s4,3b40 <b32todec(int)+0x10c>
    3b2c:	02802821 	move	a1,s4
    3b30:	0000a021 	move	s4,zero
    3b34:	2403001f 	li	v1,31
    3b38:	08000eae 	j	3ab8 <b32todec(int)+0x84>
    3b3c:	00001021 	move	v0,zero
    3b40:	2405002b 	li	a1,43
    3b44:	06a10003 	bgez	s5,3b54 <b32todec(int)+0x120>
    3b48:	00002021 	move	a0,zero
    3b4c:	2405002d 	li	a1,45
    3b50:	00002021 	move	a0,zero
    3b54:	0c001792 	jal	5e48 <__ashldi3>
    3b58:	001630c0 	sll	a2,s6,0x3
    3b5c:	00509025 	or	s2,v0,s0
    3b60:	08000ee3 	j	3b8c <b32todec(int)+0x158>
    3b64:	00719825 	or	s3,v1,s1
    3b68:	3c134f42 	lui	s3,0x4f42
    3b6c:	3c122020 	lui	s2,0x2020
    3b70:	36734947 	ori	s3,s3,0x4947
    3b74:	04810005 	bgez	a0,3b8c <b32todec(int)+0x158>
    3b78:	36522b54 	ori	s2,s2,0x2b54
    3b7c:	3c134f42 	lui	s3,0x4f42
    3b80:	3c122020 	lui	s2,0x2020
    3b84:	36734947 	ori	s3,s3,0x4947
    3b88:	36522d54 	ori	s2,s2,0x2d54
    3b8c:	8fbf003c 	lw	ra,60(sp)
    3b90:	02401021 	move	v0,s2
    3b94:	02601821 	move	v1,s3
    3b98:	8fbe0038 	lw	s8,56(sp)
    3b9c:	8fb70034 	lw	s7,52(sp)
    3ba0:	8fb60030 	lw	s6,48(sp)
    3ba4:	8fb5002c 	lw	s5,44(sp)
    3ba8:	8fb40028 	lw	s4,40(sp)
    3bac:	8fb30024 	lw	s3,36(sp)
    3bb0:	8fb20020 	lw	s2,32(sp)
    3bb4:	8fb1001c 	lw	s1,28(sp)
    3bb8:	8fb00018 	lw	s0,24(sp)
    3bbc:	03e00008 	jr	ra
    3bc0:	27bd0040 	addiu	sp,sp,64

00003bc4 <b32tohex(unsigned int)>:
    3bc4:	27bdffd0 	addiu	sp,sp,-48
    3bc8:	afb50028 	sw	s5,40(sp)
    3bcc:	3c158000 	lui	s5,0x8000
    3bd0:	afb40024 	sw	s4,36(sp)
    3bd4:	afb30020 	sw	s3,32(sp)
    3bd8:	afb2001c 	sw	s2,28(sp)
    3bdc:	afb10018 	sw	s1,24(sp)
    3be0:	afb00014 	sw	s0,20(sp)
    3be4:	afbf002c 	sw	ra,44(sp)
    3be8:	00809821 	move	s3,a0
    3bec:	24120038 	li	s2,56
    3bf0:	00008821 	move	s1,zero
    3bf4:	00008021 	move	s0,zero
    3bf8:	26b5000c 	addiu	s5,s5,12
    3bfc:	2414fff8 	li	s4,-8
    3c00:	00131702 	srl	v0,s3,0x1c
    3c04:	02a21021 	addu	v0,s5,v0
    3c08:	80450000 	lb	a1,0(v0)
    3c0c:	02403021 	move	a2,s2
    3c10:	0c001792 	jal	5e48 <__ashldi3>
    3c14:	000527c3 	sra	a0,a1,0x1f
    3c18:	00501025 	or	v0,v0,s0
    3c1c:	02231825 	or	v1,s1,v1
    3c20:	2652fff8 	addiu	s2,s2,-8
    3c24:	00408021 	move	s0,v0
    3c28:	00608821 	move	s1,v1
    3c2c:	1654fff4 	bne	s2,s4,3c00 <b32tohex(unsigned int)+0x3c>
    3c30:	00139900 	sll	s3,s3,0x4
    3c34:	8fbf002c 	lw	ra,44(sp)
    3c38:	8fb50028 	lw	s5,40(sp)
    3c3c:	8fb40024 	lw	s4,36(sp)
    3c40:	8fb30020 	lw	s3,32(sp)
    3c44:	8fb2001c 	lw	s2,28(sp)
    3c48:	8fb10018 	lw	s1,24(sp)
    3c4c:	8fb00014 	lw	s0,20(sp)
    3c50:	03e00008 	jr	ra
    3c54:	27bd0030 	addiu	sp,sp,48

00003c58 <Radio::Messages::consoleHandler(char*)>:
    3c58:	27bdffb8 	addiu	sp,sp,-72
    3c5c:	afb5003c 	sw	s5,60(sp)
    3c60:	afb40038 	sw	s4,56(sp)
    3c64:	3c158000 	lui	s5,0x8000
    3c68:	3c148000 	lui	s4,0x8000
    3c6c:	afb30034 	sw	s3,52(sp)
    3c70:	afb20030 	sw	s2,48(sp)
    3c74:	afb1002c 	sw	s1,44(sp)
    3c78:	afb00028 	sw	s0,40(sp)
    3c7c:	afbf0044 	sw	ra,68(sp)
    3c80:	afb60040 	sw	s6,64(sp)
    3c84:	00808021 	move	s0,a0
    3c88:	afa00010 	sw	zero,16(sp)
    3c8c:	afa00014 	sw	zero,20(sp)
    3c90:	afa00018 	sw	zero,24(sp)
    3c94:	24020001 	li	v0,1
    3c98:	2412002b 	li	s2,43
    3c9c:	00008821 	move	s1,zero
    3ca0:	2694015c 	addiu	s4,s4,348
    3ca4:	3c138000 	lui	s3,0x8000
    3ca8:	26b503dc 	addiu	s5,s5,988
    3cac:	2443ffff 	addiu	v1,v0,-1
    3cb0:	2c6400a0 	sltiu	a0,v1,160
    3cb4:	1080084e 	beqz	a0,5df0 <Radio::Messages::consoleHandler(char*)+0x2198>
    3cb8:	00031880 	sll	v1,v1,0x2
    3cbc:	02831821 	addu	v1,s4,v1
    3cc0:	8c630000 	lw	v1,0(v1)
    3cc4:	00000000 	nop
    3cc8:	00600008 	jr	v1
    3ccc:	00000000 	nop
    3cd0:	82030000 	lb	v1,0(s0)
    3cd4:	24040068 	li	a0,104
    3cd8:	1064063b 	beq	v1,a0,55c8 <Radio::Messages::consoleHandler(char*)+0x1970>
    3cdc:	28640069 	slti	a0,v1,105
    3ce0:	10800008 	beqz	a0,3d04 <Radio::Messages::consoleHandler(char*)+0xac>
    3ce4:	24040020 	li	a0,32
    3ce8:	1064083e 	beq	v1,a0,5de4 <Radio::Messages::consoleHandler(char*)+0x218c>
    3cec:	00000000 	nop
    3cf0:	24020067 	li	v0,103
    3cf4:	1462083f 	bne	v1,v0,5df4 <Radio::Messages::consoleHandler(char*)+0x219c>
    3cf8:	3c048000 	lui	a0,0x8000
    3cfc:	080016a1 	j	5a84 <Radio::Messages::consoleHandler(char*)+0x1e2c>
    3d00:	24020002 	li	v0,2
    3d04:	24020073 	li	v0,115
    3d08:	1462083a 	bne	v1,v0,5df4 <Radio::Messages::consoleHandler(char*)+0x219c>
    3d0c:	3c048000 	lui	a0,0x8000
    3d10:	08001574 	j	55d0 <Radio::Messages::consoleHandler(char*)+0x1978>
    3d14:	24020044 	li	v0,68
    3d18:	82030000 	lb	v1,0(s0)
    3d1c:	24020065 	li	v0,101
    3d20:	14620834 	bne	v1,v0,5df4 <Radio::Messages::consoleHandler(char*)+0x219c>
    3d24:	3c048000 	lui	a0,0x8000
    3d28:	080016a3 	j	5a8c <Radio::Messages::consoleHandler(char*)+0x1e34>
    3d2c:	24020003 	li	v0,3
    3d30:	82030000 	lb	v1,0(s0)
    3d34:	24020074 	li	v0,116
    3d38:	1462082e 	bne	v1,v0,5df4 <Radio::Messages::consoleHandler(char*)+0x219c>
    3d3c:	3c048000 	lui	a0,0x8000
    3d40:	080016a5 	j	5a94 <Radio::Messages::consoleHandler(char*)+0x1e3c>
    3d44:	24020004 	li	v0,4
    3d48:	82030000 	lb	v1,0(s0)
    3d4c:	2402005f 	li	v0,95
    3d50:	14620828 	bne	v1,v0,5df4 <Radio::Messages::consoleHandler(char*)+0x219c>
    3d54:	3c048000 	lui	a0,0x8000
    3d58:	080016a7 	j	5a9c <Radio::Messages::consoleHandler(char*)+0x1e44>
    3d5c:	24020005 	li	v0,5
    3d60:	92020000 	lbu	v0,0(s0)
    3d64:	00000000 	nop
    3d68:	2442ff9f 	addiu	v0,v0,-97
    3d6c:	304200ff 	andi	v0,v0,0xff
    3d70:	2c430014 	sltiu	v1,v0,20
    3d74:	1060081f 	beqz	v1,5df4 <Radio::Messages::consoleHandler(char*)+0x219c>
    3d78:	3c048000 	lui	a0,0x8000
    3d7c:	00021080 	sll	v0,v0,0x2
    3d80:	02a21021 	addu	v0,s5,v0
    3d84:	8c420000 	lw	v0,0(v0)
    3d88:	00000000 	nop
    3d8c:	00400008 	jr	v0
    3d90:	00000000 	nop
    3d94:	08001779 	j	5de4 <Radio::Messages::consoleHandler(char*)+0x218c>
    3d98:	24020006 	li	v0,6
    3d9c:	82020000 	lb	v0,0(s0)
    3da0:	2403006c 	li	v1,108
    3da4:	10430741 	beq	v0,v1,5aac <Radio::Messages::consoleHandler(char*)+0x1e54>
    3da8:	00000000 	nop
    3dac:	2403006e 	li	v1,110
    3db0:	104305f9 	beq	v0,v1,5598 <Radio::Messages::consoleHandler(char*)+0x1940>
    3db4:	00000000 	nop
    3db8:	24030063 	li	v1,99
    3dbc:	1443080d 	bne	v0,v1,5df4 <Radio::Messages::consoleHandler(char*)+0x219c>
    3dc0:	3c048000 	lui	a0,0x8000
    3dc4:	08001779 	j	5de4 <Radio::Messages::consoleHandler(char*)+0x218c>
    3dc8:	24020007 	li	v0,7
    3dcc:	82030000 	lb	v1,0(s0)
    3dd0:	24020063 	li	v0,99
    3dd4:	14620806 	bne	v1,v0,5df0 <Radio::Messages::consoleHandler(char*)+0x2198>
    3dd8:	00000000 	nop
    3ddc:	080013f6 	j	4fd8 <Radio::Messages::consoleHandler(char*)+0x1380>
    3de0:	00000000 	nop
    3de4:	82030000 	lb	v1,0(s0)
    3de8:	2404000a 	li	a0,10
    3dec:	1064080c 	beq	v1,a0,5e20 <Radio::Messages::consoleHandler(char*)+0x21c8>
    3df0:	2864000b 	slti	a0,v1,11
    3df4:	10800005 	beqz	a0,3e0c <Radio::Messages::consoleHandler(char*)+0x1b4>
    3df8:	2404000d 	li	a0,13
    3dfc:	10600808 	beqz	v1,5e20 <Radio::Messages::consoleHandler(char*)+0x21c8>
    3e00:	3c048000 	lui	a0,0x8000
    3e04:	0800177e 	j	5df8 <Radio::Messages::consoleHandler(char*)+0x21a0>
    3e08:	24840158 	addiu	a0,a0,344
    3e0c:	10640804 	beq	v1,a0,5e20 <Radio::Messages::consoleHandler(char*)+0x21c8>
    3e10:	24040020 	li	a0,32
    3e14:	146407f7 	bne	v1,a0,5df4 <Radio::Messages::consoleHandler(char*)+0x219c>
    3e18:	3c048000 	lui	a0,0x8000
    3e1c:	08000f2b 	j	3cac <Radio::Messages::consoleHandler(char*)+0x54>
    3e20:	26100001 	addiu	s0,s0,1
    3e24:	82030000 	lb	v1,0(s0)
    3e28:	24020074 	li	v0,116
    3e2c:	146207f0 	bne	v1,v0,5df0 <Radio::Messages::consoleHandler(char*)+0x2198>
    3e30:	00000000 	nop
    3e34:	08001559 	j	5564 <Radio::Messages::consoleHandler(char*)+0x190c>
    3e38:	00000000 	nop
    3e3c:	82020000 	lb	v0,0(s0)
    3e40:	2403000d 	li	v1,13
    3e44:	104307f6 	beq	v0,v1,5e20 <Radio::Messages::consoleHandler(char*)+0x21c8>
    3e48:	2843000e 	slti	v1,v0,14
    3e4c:	10600007 	beqz	v1,3e6c <Radio::Messages::consoleHandler(char*)+0x214>
    3e50:	24030020 	li	v1,32
    3e54:	104007f2 	beqz	v0,5e20 <Radio::Messages::consoleHandler(char*)+0x21c8>
    3e58:	2403000a 	li	v1,10
    3e5c:	144307e5 	bne	v0,v1,5df4 <Radio::Messages::consoleHandler(char*)+0x219c>
    3e60:	3c048000 	lui	a0,0x8000
    3e64:	08001788 	j	5e20 <Radio::Messages::consoleHandler(char*)+0x21c8>
    3e68:	00000000 	nop
    3e6c:	10430006 	beq	v0,v1,3e88 <Radio::Messages::consoleHandler(char*)+0x230>
    3e70:	00000000 	nop
    3e74:	24030069 	li	v1,105
    3e78:	144307de 	bne	v0,v1,5df4 <Radio::Messages::consoleHandler(char*)+0x219c>
    3e7c:	3c048000 	lui	a0,0x8000
    3e80:	080016ad 	j	5ab4 <Radio::Messages::consoleHandler(char*)+0x1e5c>
    3e84:	2402000b 	li	v0,11
    3e88:	08001779 	j	5de4 <Radio::Messages::consoleHandler(char*)+0x218c>
    3e8c:	24020008 	li	v0,8
    3e90:	82030000 	lb	v1,0(s0)
    3e94:	24020074 	li	v0,116
    3e98:	146207d6 	bne	v1,v0,5df4 <Radio::Messages::consoleHandler(char*)+0x219c>
    3e9c:	3c048000 	lui	a0,0x8000
    3ea0:	080016af 	j	5abc <Radio::Messages::consoleHandler(char*)+0x1e64>
    3ea4:	2402000c 	li	v0,12
    3ea8:	82030000 	lb	v1,0(s0)
    3eac:	24020075 	li	v0,117
    3eb0:	146207d0 	bne	v1,v0,5df4 <Radio::Messages::consoleHandler(char*)+0x219c>
    3eb4:	3c048000 	lui	a0,0x8000
    3eb8:	080016b1 	j	5ac4 <Radio::Messages::consoleHandler(char*)+0x1e6c>
    3ebc:	2402000d 	li	v0,13
    3ec0:	82030000 	lb	v1,0(s0)
    3ec4:	24020064 	li	v0,100
    3ec8:	146207ca 	bne	v1,v0,5df4 <Radio::Messages::consoleHandler(char*)+0x219c>
    3ecc:	3c048000 	lui	a0,0x8000
    3ed0:	080016b3 	j	5acc <Radio::Messages::consoleHandler(char*)+0x1e74>
    3ed4:	2402000e 	li	v0,14
    3ed8:	82030000 	lb	v1,0(s0)
    3edc:	24020065 	li	v0,101
    3ee0:	146207c4 	bne	v1,v0,5df4 <Radio::Messages::consoleHandler(char*)+0x219c>
    3ee4:	3c048000 	lui	a0,0x8000
    3ee8:	080016b5 	j	5ad4 <Radio::Messages::consoleHandler(char*)+0x1e7c>
    3eec:	2402000f 	li	v0,15
    3ef0:	82030000 	lb	v1,0(s0)
    3ef4:	2402005f 	li	v0,95
    3ef8:	146207be 	bne	v1,v0,5df4 <Radio::Messages::consoleHandler(char*)+0x219c>
    3efc:	3c048000 	lui	a0,0x8000
    3f00:	080016b7 	j	5adc <Radio::Messages::consoleHandler(char*)+0x1e84>
    3f04:	24020010 	li	v0,16
    3f08:	82030000 	lb	v1,0(s0)
    3f0c:	24020070 	li	v0,112
    3f10:	146207b8 	bne	v1,v0,5df4 <Radio::Messages::consoleHandler(char*)+0x219c>
    3f14:	3c048000 	lui	a0,0x8000
    3f18:	080016b9 	j	5ae4 <Radio::Messages::consoleHandler(char*)+0x1e8c>
    3f1c:	24020011 	li	v0,17
    3f20:	82030000 	lb	v1,0(s0)
    3f24:	24020069 	li	v0,105
    3f28:	146207b2 	bne	v1,v0,5df4 <Radio::Messages::consoleHandler(char*)+0x219c>
    3f2c:	3c048000 	lui	a0,0x8000
    3f30:	080016bb 	j	5aec <Radio::Messages::consoleHandler(char*)+0x1e94>
    3f34:	24020012 	li	v0,18
    3f38:	82030000 	lb	v1,0(s0)
    3f3c:	24020064 	li	v0,100
    3f40:	146207ab 	bne	v1,v0,5df0 <Radio::Messages::consoleHandler(char*)+0x2198>
    3f44:	00000000 	nop
    3f48:	08001417 	j	505c <Radio::Messages::consoleHandler(char*)+0x1404>
    3f4c:	00000000 	nop
    3f50:	82030000 	lb	v1,0(s0)
    3f54:	24020067 	li	v0,103
    3f58:	146207a6 	bne	v1,v0,5df4 <Radio::Messages::consoleHandler(char*)+0x219c>
    3f5c:	3c048000 	lui	a0,0x8000
    3f60:	080016bd 	j	5af4 <Radio::Messages::consoleHandler(char*)+0x1e9c>
    3f64:	24020014 	li	v0,20
    3f68:	82030000 	lb	v1,0(s0)
    3f6c:	2402006c 	li	v0,108
    3f70:	146207a0 	bne	v1,v0,5df4 <Radio::Messages::consoleHandler(char*)+0x219c>
    3f74:	3c048000 	lui	a0,0x8000
    3f78:	080016bf 	j	5afc <Radio::Messages::consoleHandler(char*)+0x1ea4>
    3f7c:	24020015 	li	v0,21
    3f80:	82030000 	lb	v1,0(s0)
    3f84:	24020065 	li	v0,101
    3f88:	1462079a 	bne	v1,v0,5df4 <Radio::Messages::consoleHandler(char*)+0x219c>
    3f8c:	3c048000 	lui	a0,0x8000
    3f90:	080016c1 	j	5b04 <Radio::Messages::consoleHandler(char*)+0x1eac>
    3f94:	24020016 	li	v0,22
    3f98:	82030000 	lb	v1,0(s0)
    3f9c:	24020073 	li	v0,115
    3fa0:	14620793 	bne	v1,v0,5df0 <Radio::Messages::consoleHandler(char*)+0x2198>
    3fa4:	00000000 	nop
    3fa8:	08001438 	j	50e0 <Radio::Messages::consoleHandler(char*)+0x1488>
    3fac:	00000000 	nop
    3fb0:	82030000 	lb	v1,0(s0)
    3fb4:	24020079 	li	v0,121
    3fb8:	1462078e 	bne	v1,v0,5df4 <Radio::Messages::consoleHandler(char*)+0x219c>
    3fbc:	3c048000 	lui	a0,0x8000
    3fc0:	080016c3 	j	5b0c <Radio::Messages::consoleHandler(char*)+0x1eb4>
    3fc4:	24020018 	li	v0,24
    3fc8:	82030000 	lb	v1,0(s0)
    3fcc:	24020072 	li	v0,114
    3fd0:	14620788 	bne	v1,v0,5df4 <Radio::Messages::consoleHandler(char*)+0x219c>
    3fd4:	3c048000 	lui	a0,0x8000
    3fd8:	080016c5 	j	5b14 <Radio::Messages::consoleHandler(char*)+0x1ebc>
    3fdc:	24020019 	li	v0,25
    3fe0:	82030000 	lb	v1,0(s0)
    3fe4:	2402006f 	li	v0,111
    3fe8:	14620781 	bne	v1,v0,5df0 <Radio::Messages::consoleHandler(char*)+0x2198>
    3fec:	00000000 	nop
    3ff0:	0800145c 	j	5170 <Radio::Messages::consoleHandler(char*)+0x1518>
    3ff4:	00000000 	nop
    3ff8:	82030000 	lb	v1,0(s0)
    3ffc:	24020065 	li	v0,101
    4000:	1462077c 	bne	v1,v0,5df4 <Radio::Messages::consoleHandler(char*)+0x219c>
    4004:	3c048000 	lui	a0,0x8000
    4008:	080016c7 	j	5b1c <Radio::Messages::consoleHandler(char*)+0x1ec4>
    400c:	2402001b 	li	v0,27
    4010:	82030000 	lb	v1,0(s0)
    4014:	24020061 	li	v0,97
    4018:	14620776 	bne	v1,v0,5df4 <Radio::Messages::consoleHandler(char*)+0x219c>
    401c:	3c048000 	lui	a0,0x8000
    4020:	080016c9 	j	5b24 <Radio::Messages::consoleHandler(char*)+0x1ecc>
    4024:	2402001c 	li	v0,28
    4028:	82030000 	lb	v1,0(s0)
    402c:	24020064 	li	v0,100
    4030:	14620770 	bne	v1,v0,5df4 <Radio::Messages::consoleHandler(char*)+0x219c>
    4034:	3c048000 	lui	a0,0x8000
    4038:	080016cb 	j	5b2c <Radio::Messages::consoleHandler(char*)+0x1ed4>
    403c:	2402001d 	li	v0,29
    4040:	82030000 	lb	v1,0(s0)
    4044:	24020069 	li	v0,105
    4048:	1462076a 	bne	v1,v0,5df4 <Radio::Messages::consoleHandler(char*)+0x219c>
    404c:	3c048000 	lui	a0,0x8000
    4050:	080016cd 	j	5b34 <Radio::Messages::consoleHandler(char*)+0x1edc>
    4054:	2402001e 	li	v0,30
    4058:	82030000 	lb	v1,0(s0)
    405c:	2402006e 	li	v0,110
    4060:	14620764 	bne	v1,v0,5df4 <Radio::Messages::consoleHandler(char*)+0x219c>
    4064:	3c048000 	lui	a0,0x8000
    4068:	080016cf 	j	5b3c <Radio::Messages::consoleHandler(char*)+0x1ee4>
    406c:	2402001f 	li	v0,31
    4070:	82030000 	lb	v1,0(s0)
    4074:	24020067 	li	v0,103
    4078:	1462075e 	bne	v1,v0,5df4 <Radio::Messages::consoleHandler(char*)+0x219c>
    407c:	3c048000 	lui	a0,0x8000
    4080:	080016d1 	j	5b44 <Radio::Messages::consoleHandler(char*)+0x1eec>
    4084:	24020020 	li	v0,32
    4088:	82030000 	lb	v1,0(s0)
    408c:	2402005f 	li	v0,95
    4090:	14620758 	bne	v1,v0,5df4 <Radio::Messages::consoleHandler(char*)+0x219c>
    4094:	3c048000 	lui	a0,0x8000
    4098:	080016d3 	j	5b4c <Radio::Messages::consoleHandler(char*)+0x1ef4>
    409c:	24020021 	li	v0,33
    40a0:	82030000 	lb	v1,0(s0)
    40a4:	24020070 	li	v0,112
    40a8:	14620752 	bne	v1,v0,5df4 <Radio::Messages::consoleHandler(char*)+0x219c>
    40ac:	3c048000 	lui	a0,0x8000
    40b0:	080016d5 	j	5b54 <Radio::Messages::consoleHandler(char*)+0x1efc>
    40b4:	24020022 	li	v0,34
    40b8:	82030000 	lb	v1,0(s0)
    40bc:	24020069 	li	v0,105
    40c0:	1462074c 	bne	v1,v0,5df4 <Radio::Messages::consoleHandler(char*)+0x219c>
    40c4:	3c048000 	lui	a0,0x8000
    40c8:	080016d7 	j	5b5c <Radio::Messages::consoleHandler(char*)+0x1f04>
    40cc:	24020023 	li	v0,35
    40d0:	82030000 	lb	v1,0(s0)
    40d4:	24020064 	li	v0,100
    40d8:	14620745 	bne	v1,v0,5df0 <Radio::Messages::consoleHandler(char*)+0x2198>
    40dc:	00000000 	nop
    40e0:	0800147d 	j	51f4 <Radio::Messages::consoleHandler(char*)+0x159c>
    40e4:	00000000 	nop
    40e8:	82030000 	lb	v1,0(s0)
    40ec:	24020061 	li	v0,97
    40f0:	14620740 	bne	v1,v0,5df4 <Radio::Messages::consoleHandler(char*)+0x219c>
    40f4:	3c048000 	lui	a0,0x8000
    40f8:	080016d9 	j	5b64 <Radio::Messages::consoleHandler(char*)+0x1f0c>
    40fc:	24020025 	li	v0,37
    4100:	82030000 	lb	v1,0(s0)
    4104:	24020067 	li	v0,103
    4108:	1462073a 	bne	v1,v0,5df4 <Radio::Messages::consoleHandler(char*)+0x219c>
    410c:	3c048000 	lui	a0,0x8000
    4110:	080016db 	j	5b6c <Radio::Messages::consoleHandler(char*)+0x1f14>
    4114:	24020026 	li	v0,38
    4118:	82030000 	lb	v1,0(s0)
    411c:	2402006e 	li	v0,110
    4120:	14620733 	bne	v1,v0,5df0 <Radio::Messages::consoleHandler(char*)+0x2198>
    4124:	00000000 	nop
    4128:	0800149e 	j	5278 <Radio::Messages::consoleHandler(char*)+0x1620>
    412c:	00000000 	nop
    4130:	82020000 	lb	v0,0(s0)
    4134:	24030069 	li	v1,105
    4138:	10430006 	beq	v0,v1,4154 <Radio::Messages::consoleHandler(char*)+0x4fc>
    413c:	00000000 	nop
    4140:	24030072 	li	v1,114
    4144:	1443072b 	bne	v0,v1,5df4 <Radio::Messages::consoleHandler(char*)+0x219c>
    4148:	3c048000 	lui	a0,0x8000
    414c:	080016dd 	j	5b74 <Radio::Messages::consoleHandler(char*)+0x1f1c>
    4150:	24020033 	li	v0,51
    4154:	08001779 	j	5de4 <Radio::Messages::consoleHandler(char*)+0x218c>
    4158:	24020028 	li	v0,40
    415c:	82030000 	lb	v1,0(s0)
    4160:	24020074 	li	v0,116
    4164:	14620723 	bne	v1,v0,5df4 <Radio::Messages::consoleHandler(char*)+0x219c>
    4168:	3c048000 	lui	a0,0x8000
    416c:	080016df 	j	5b7c <Radio::Messages::consoleHandler(char*)+0x1f24>
    4170:	24020029 	li	v0,41
    4174:	82030000 	lb	v1,0(s0)
    4178:	24020063 	li	v0,99
    417c:	1462071d 	bne	v1,v0,5df4 <Radio::Messages::consoleHandler(char*)+0x219c>
    4180:	3c048000 	lui	a0,0x8000
    4184:	080016e1 	j	5b84 <Radio::Messages::consoleHandler(char*)+0x1f2c>
    4188:	2402002a 	li	v0,42
    418c:	82030000 	lb	v1,0(s0)
    4190:	24020068 	li	v0,104
    4194:	14620717 	bne	v1,v0,5df4 <Radio::Messages::consoleHandler(char*)+0x219c>
    4198:	3c048000 	lui	a0,0x8000
    419c:	080016e3 	j	5b8c <Radio::Messages::consoleHandler(char*)+0x1f34>
    41a0:	2402002b 	li	v0,43
    41a4:	82030000 	lb	v1,0(s0)
    41a8:	24020072 	li	v0,114
    41ac:	14620711 	bne	v1,v0,5df4 <Radio::Messages::consoleHandler(char*)+0x219c>
    41b0:	3c048000 	lui	a0,0x8000
    41b4:	080016e5 	j	5b94 <Radio::Messages::consoleHandler(char*)+0x1f3c>
    41b8:	2402002c 	li	v0,44
    41bc:	82030000 	lb	v1,0(s0)
    41c0:	2402006f 	li	v0,111
    41c4:	1462070b 	bne	v1,v0,5df4 <Radio::Messages::consoleHandler(char*)+0x219c>
    41c8:	3c048000 	lui	a0,0x8000
    41cc:	080016e7 	j	5b9c <Radio::Messages::consoleHandler(char*)+0x1f44>
    41d0:	2402002d 	li	v0,45
    41d4:	82030000 	lb	v1,0(s0)
    41d8:	2402006c 	li	v0,108
    41dc:	14620705 	bne	v1,v0,5df4 <Radio::Messages::consoleHandler(char*)+0x219c>
    41e0:	3c048000 	lui	a0,0x8000
    41e4:	080016e9 	j	5ba4 <Radio::Messages::consoleHandler(char*)+0x1f4c>
    41e8:	2402002e 	li	v0,46
    41ec:	82030000 	lb	v1,0(s0)
    41f0:	2402006c 	li	v0,108
    41f4:	146206ff 	bne	v1,v0,5df4 <Radio::Messages::consoleHandler(char*)+0x219c>
    41f8:	3c048000 	lui	a0,0x8000
    41fc:	080016eb 	j	5bac <Radio::Messages::consoleHandler(char*)+0x1f54>
    4200:	2402002f 	li	v0,47
    4204:	82030000 	lb	v1,0(s0)
    4208:	2402005f 	li	v0,95
    420c:	146206f9 	bne	v1,v0,5df4 <Radio::Messages::consoleHandler(char*)+0x219c>
    4210:	3c048000 	lui	a0,0x8000
    4214:	080016ed 	j	5bb4 <Radio::Messages::consoleHandler(char*)+0x1f5c>
    4218:	24020030 	li	v0,48
    421c:	82030000 	lb	v1,0(s0)
    4220:	24020070 	li	v0,112
    4224:	146206f3 	bne	v1,v0,5df4 <Radio::Messages::consoleHandler(char*)+0x219c>
    4228:	3c048000 	lui	a0,0x8000
    422c:	080016ef 	j	5bbc <Radio::Messages::consoleHandler(char*)+0x1f64>
    4230:	24020031 	li	v0,49
    4234:	82030000 	lb	v1,0(s0)
    4238:	24020069 	li	v0,105
    423c:	146206ed 	bne	v1,v0,5df4 <Radio::Messages::consoleHandler(char*)+0x219c>
    4240:	3c048000 	lui	a0,0x8000
    4244:	080016f1 	j	5bc4 <Radio::Messages::consoleHandler(char*)+0x1f6c>
    4248:	24020032 	li	v0,50
    424c:	82030000 	lb	v1,0(s0)
    4250:	24020064 	li	v0,100
    4254:	146206e6 	bne	v1,v0,5df0 <Radio::Messages::consoleHandler(char*)+0x2198>
    4258:	00000000 	nop
    425c:	080014bf 	j	52fc <Radio::Messages::consoleHandler(char*)+0x16a4>
    4260:	00000000 	nop
    4264:	82030000 	lb	v1,0(s0)
    4268:	24020065 	li	v0,101
    426c:	146206e1 	bne	v1,v0,5df4 <Radio::Messages::consoleHandler(char*)+0x219c>
    4270:	3c048000 	lui	a0,0x8000
    4274:	080016f3 	j	5bcc <Radio::Messages::consoleHandler(char*)+0x1f74>
    4278:	24020034 	li	v0,52
    427c:	82030000 	lb	v1,0(s0)
    4280:	24020073 	li	v0,115
    4284:	146206db 	bne	v1,v0,5df4 <Radio::Messages::consoleHandler(char*)+0x219c>
    4288:	3c048000 	lui	a0,0x8000
    428c:	080016f5 	j	5bd4 <Radio::Messages::consoleHandler(char*)+0x1f7c>
    4290:	24020035 	li	v0,53
    4294:	82030000 	lb	v1,0(s0)
    4298:	24020073 	li	v0,115
    429c:	146206d4 	bne	v1,v0,5df0 <Radio::Messages::consoleHandler(char*)+0x2198>
    42a0:	00000000 	nop
    42a4:	080014e0 	j	5380 <Radio::Messages::consoleHandler(char*)+0x1728>
    42a8:	00000000 	nop
    42ac:	82030000 	lb	v1,0(s0)
    42b0:	24020075 	li	v0,117
    42b4:	146206cf 	bne	v1,v0,5df4 <Radio::Messages::consoleHandler(char*)+0x219c>
    42b8:	3c048000 	lui	a0,0x8000
    42bc:	080016f7 	j	5bdc <Radio::Messages::consoleHandler(char*)+0x1f84>
    42c0:	24020037 	li	v0,55
    42c4:	82030000 	lb	v1,0(s0)
    42c8:	24020061 	li	v0,97
    42cc:	146206c9 	bne	v1,v0,5df4 <Radio::Messages::consoleHandler(char*)+0x219c>
    42d0:	3c048000 	lui	a0,0x8000
    42d4:	080016f9 	j	5be4 <Radio::Messages::consoleHandler(char*)+0x1f8c>
    42d8:	24020038 	li	v0,56
    42dc:	82030000 	lb	v1,0(s0)
    42e0:	24020074 	li	v0,116
    42e4:	146206c2 	bne	v1,v0,5df0 <Radio::Messages::consoleHandler(char*)+0x2198>
    42e8:	00000000 	nop
    42ec:	080014ed 	j	53b4 <Radio::Messages::consoleHandler(char*)+0x175c>
    42f0:	00000000 	nop
    42f4:	82020000 	lb	v0,0(s0)
    42f8:	24030065 	li	v1,101
    42fc:	10430006 	beq	v0,v1,4318 <Radio::Messages::consoleHandler(char*)+0x6c0>
    4300:	00000000 	nop
    4304:	24030068 	li	v1,104
    4308:	144306ba 	bne	v0,v1,5df4 <Radio::Messages::consoleHandler(char*)+0x219c>
    430c:	3c048000 	lui	a0,0x8000
    4310:	080016fb 	j	5bec <Radio::Messages::consoleHandler(char*)+0x1f94>
    4314:	2402003c 	li	v0,60
    4318:	08001779 	j	5de4 <Radio::Messages::consoleHandler(char*)+0x218c>
    431c:	2402003a 	li	v0,58
    4320:	82030000 	lb	v1,0(s0)
    4324:	2402006d 	li	v0,109
    4328:	146206b2 	bne	v1,v0,5df4 <Radio::Messages::consoleHandler(char*)+0x219c>
    432c:	3c048000 	lui	a0,0x8000
    4330:	080016fd 	j	5bf4 <Radio::Messages::consoleHandler(char*)+0x1f9c>
    4334:	2402003b 	li	v0,59
    4338:	82030000 	lb	v1,0(s0)
    433c:	24020070 	li	v0,112
    4340:	146206ab 	bne	v1,v0,5df0 <Radio::Messages::consoleHandler(char*)+0x2198>
    4344:	00000000 	nop
    4348:	08001518 	j	5460 <Radio::Messages::consoleHandler(char*)+0x1808>
    434c:	00000000 	nop
    4350:	82030000 	lb	v1,0(s0)
    4354:	24020072 	li	v0,114
    4358:	146206a6 	bne	v1,v0,5df4 <Radio::Messages::consoleHandler(char*)+0x219c>
    435c:	3c048000 	lui	a0,0x8000
    4360:	080016ff 	j	5bfc <Radio::Messages::consoleHandler(char*)+0x1fa4>
    4364:	2402003d 	li	v0,61
    4368:	82030000 	lb	v1,0(s0)
    436c:	2402006f 	li	v0,111
    4370:	146206a0 	bne	v1,v0,5df4 <Radio::Messages::consoleHandler(char*)+0x219c>
    4374:	3c048000 	lui	a0,0x8000
    4378:	08001701 	j	5c04 <Radio::Messages::consoleHandler(char*)+0x1fac>
    437c:	2402003e 	li	v0,62
    4380:	82030000 	lb	v1,0(s0)
    4384:	24020074 	li	v0,116
    4388:	1462069a 	bne	v1,v0,5df4 <Radio::Messages::consoleHandler(char*)+0x219c>
    438c:	3c048000 	lui	a0,0x8000
    4390:	08001703 	j	5c0c <Radio::Messages::consoleHandler(char*)+0x1fb4>
    4394:	2402003f 	li	v0,63
    4398:	82030000 	lb	v1,0(s0)
    439c:	24020074 	li	v0,116
    43a0:	14620694 	bne	v1,v0,5df4 <Radio::Messages::consoleHandler(char*)+0x219c>
    43a4:	3c048000 	lui	a0,0x8000
    43a8:	08001705 	j	5c14 <Radio::Messages::consoleHandler(char*)+0x1fbc>
    43ac:	24020040 	li	v0,64
    43b0:	82030000 	lb	v1,0(s0)
    43b4:	2402006c 	li	v0,108
    43b8:	1462068e 	bne	v1,v0,5df4 <Radio::Messages::consoleHandler(char*)+0x219c>
    43bc:	3c048000 	lui	a0,0x8000
    43c0:	08001707 	j	5c1c <Radio::Messages::consoleHandler(char*)+0x1fc4>
    43c4:	24020041 	li	v0,65
    43c8:	82030000 	lb	v1,0(s0)
    43cc:	24020065 	li	v0,101
    43d0:	14620687 	bne	v1,v0,5df0 <Radio::Messages::consoleHandler(char*)+0x2198>
    43d4:	00000000 	nop
    43d8:	08001525 	j	5494 <Radio::Messages::consoleHandler(char*)+0x183c>
    43dc:	00000000 	nop
    43e0:	82030000 	lb	v1,0(s0)
    43e4:	24020065 	li	v0,101
    43e8:	14620682 	bne	v1,v0,5df4 <Radio::Messages::consoleHandler(char*)+0x219c>
    43ec:	3c048000 	lui	a0,0x8000
    43f0:	08001709 	j	5c24 <Radio::Messages::consoleHandler(char*)+0x1fcc>
    43f4:	24020043 	li	v0,67
    43f8:	82030000 	lb	v1,0(s0)
    43fc:	24020079 	li	v0,121
    4400:	1462067c 	bne	v1,v0,5df4 <Radio::Messages::consoleHandler(char*)+0x219c>
    4404:	3c048000 	lui	a0,0x8000
    4408:	08001532 	j	54c8 <Radio::Messages::consoleHandler(char*)+0x1870>
    440c:	00000000 	nop
    4410:	82030000 	lb	v1,0(s0)
    4414:	24020065 	li	v0,101
    4418:	14620676 	bne	v1,v0,5df4 <Radio::Messages::consoleHandler(char*)+0x219c>
    441c:	3c048000 	lui	a0,0x8000
    4420:	0800170b 	j	5c2c <Radio::Messages::consoleHandler(char*)+0x1fd4>
    4424:	24020045 	li	v0,69
    4428:	82030000 	lb	v1,0(s0)
    442c:	24020074 	li	v0,116
    4430:	14620670 	bne	v1,v0,5df4 <Radio::Messages::consoleHandler(char*)+0x219c>
    4434:	3c048000 	lui	a0,0x8000
    4438:	0800170d 	j	5c34 <Radio::Messages::consoleHandler(char*)+0x1fdc>
    443c:	24020046 	li	v0,70
    4440:	82030000 	lb	v1,0(s0)
    4444:	2402005f 	li	v0,95
    4448:	1462066a 	bne	v1,v0,5df4 <Radio::Messages::consoleHandler(char*)+0x219c>
    444c:	3c048000 	lui	a0,0x8000
    4450:	0800170f 	j	5c3c <Radio::Messages::consoleHandler(char*)+0x1fe4>
    4454:	24020047 	li	v0,71
    4458:	82020000 	lb	v0,0(s0)
    445c:	24030070 	li	v1,112
    4460:	1043045d 	beq	v0,v1,55d8 <Radio::Messages::consoleHandler(char*)+0x1980>
    4464:	00000000 	nop
    4468:	28430071 	slti	v1,v0,113
    446c:	10600009 	beqz	v1,4494 <Radio::Messages::consoleHandler(char*)+0x83c>
    4470:	24030074 	li	v1,116
    4474:	24030061 	li	v1,97
    4478:	10430010 	beq	v0,v1,44bc <Radio::Messages::consoleHandler(char*)+0x864>
    447c:	00000000 	nop
    4480:	24030068 	li	v1,104
    4484:	1443065b 	bne	v0,v1,5df4 <Radio::Messages::consoleHandler(char*)+0x219c>
    4488:	3c048000 	lui	a0,0x8000
    448c:	08001711 	j	5c44 <Radio::Messages::consoleHandler(char*)+0x1fec>
    4490:	2402005d 	li	v0,93
    4494:	10430454 	beq	v0,v1,55e8 <Radio::Messages::consoleHandler(char*)+0x1990>
    4498:	00000000 	nop
    449c:	24030079 	li	v1,121
    44a0:	10430453 	beq	v0,v1,55f0 <Radio::Messages::consoleHandler(char*)+0x1998>
    44a4:	00000000 	nop
    44a8:	24030072 	li	v1,114
    44ac:	14430651 	bne	v0,v1,5df4 <Radio::Messages::consoleHandler(char*)+0x219c>
    44b0:	3c048000 	lui	a0,0x8000
    44b4:	08001578 	j	55e0 <Radio::Messages::consoleHandler(char*)+0x1988>
    44b8:	2402008a 	li	v0,138
    44bc:	08001779 	j	5de4 <Radio::Messages::consoleHandler(char*)+0x218c>
    44c0:	24020048 	li	v0,72
    44c4:	82030000 	lb	v1,0(s0)
    44c8:	2402006c 	li	v0,108
    44cc:	14620649 	bne	v1,v0,5df4 <Radio::Messages::consoleHandler(char*)+0x219c>
    44d0:	3c048000 	lui	a0,0x8000
    44d4:	08001713 	j	5c4c <Radio::Messages::consoleHandler(char*)+0x1ff4>
    44d8:	24020049 	li	v0,73
    44dc:	82030000 	lb	v1,0(s0)
    44e0:	24020074 	li	v0,116
    44e4:	14620643 	bne	v1,v0,5df4 <Radio::Messages::consoleHandler(char*)+0x219c>
    44e8:	3c048000 	lui	a0,0x8000
    44ec:	08001715 	j	5c54 <Radio::Messages::consoleHandler(char*)+0x1ffc>
    44f0:	2402004a 	li	v0,74
    44f4:	82030000 	lb	v1,0(s0)
    44f8:	24020069 	li	v0,105
    44fc:	1462063d 	bne	v1,v0,5df4 <Radio::Messages::consoleHandler(char*)+0x219c>
    4500:	3c048000 	lui	a0,0x8000
    4504:	08001717 	j	5c5c <Radio::Messages::consoleHandler(char*)+0x2004>
    4508:	2402004b 	li	v0,75
    450c:	82030000 	lb	v1,0(s0)
    4510:	24020074 	li	v0,116
    4514:	14620637 	bne	v1,v0,5df4 <Radio::Messages::consoleHandler(char*)+0x219c>
    4518:	3c048000 	lui	a0,0x8000
    451c:	08001719 	j	5c64 <Radio::Messages::consoleHandler(char*)+0x200c>
    4520:	2402004c 	li	v0,76
    4524:	82030000 	lb	v1,0(s0)
    4528:	24020075 	li	v0,117
    452c:	14620631 	bne	v1,v0,5df4 <Radio::Messages::consoleHandler(char*)+0x219c>
    4530:	3c048000 	lui	a0,0x8000
    4534:	0800171b 	j	5c6c <Radio::Messages::consoleHandler(char*)+0x2014>
    4538:	2402004d 	li	v0,77
    453c:	82030000 	lb	v1,0(s0)
    4540:	24020064 	li	v0,100
    4544:	1462062b 	bne	v1,v0,5df4 <Radio::Messages::consoleHandler(char*)+0x219c>
    4548:	3c048000 	lui	a0,0x8000
    454c:	0800171d 	j	5c74 <Radio::Messages::consoleHandler(char*)+0x201c>
    4550:	2402004e 	li	v0,78
    4554:	82030000 	lb	v1,0(s0)
    4558:	24020065 	li	v0,101
    455c:	14620625 	bne	v1,v0,5df4 <Radio::Messages::consoleHandler(char*)+0x219c>
    4560:	3c048000 	lui	a0,0x8000
    4564:	0800171f 	j	5c7c <Radio::Messages::consoleHandler(char*)+0x2024>
    4568:	2402004f 	li	v0,79
    456c:	82030000 	lb	v1,0(s0)
    4570:	2402005f 	li	v0,95
    4574:	1462061f 	bne	v1,v0,5df4 <Radio::Messages::consoleHandler(char*)+0x219c>
    4578:	3c048000 	lui	a0,0x8000
    457c:	08001721 	j	5c84 <Radio::Messages::consoleHandler(char*)+0x202c>
    4580:	24020050 	li	v0,80
    4584:	82030000 	lb	v1,0(s0)
    4588:	24020070 	li	v0,112
    458c:	14620619 	bne	v1,v0,5df4 <Radio::Messages::consoleHandler(char*)+0x219c>
    4590:	3c048000 	lui	a0,0x8000
    4594:	08001723 	j	5c8c <Radio::Messages::consoleHandler(char*)+0x2034>
    4598:	24020051 	li	v0,81
    459c:	82030000 	lb	v1,0(s0)
    45a0:	24020069 	li	v0,105
    45a4:	14620613 	bne	v1,v0,5df4 <Radio::Messages::consoleHandler(char*)+0x219c>
    45a8:	3c048000 	lui	a0,0x8000
    45ac:	08001725 	j	5c94 <Radio::Messages::consoleHandler(char*)+0x203c>
    45b0:	24020052 	li	v0,82
    45b4:	82030000 	lb	v1,0(s0)
    45b8:	24020064 	li	v0,100
    45bc:	1462060d 	bne	v1,v0,5df4 <Radio::Messages::consoleHandler(char*)+0x219c>
    45c0:	3c048000 	lui	a0,0x8000
    45c4:	08001727 	j	5c9c <Radio::Messages::consoleHandler(char*)+0x2044>
    45c8:	24020053 	li	v0,83
    45cc:	82030000 	lb	v1,0(s0)
    45d0:	24020020 	li	v0,32
    45d4:	14620607 	bne	v1,v0,5df4 <Radio::Messages::consoleHandler(char*)+0x219c>
    45d8:	3c048000 	lui	a0,0x8000
    45dc:	08001729 	j	5ca4 <Radio::Messages::consoleHandler(char*)+0x204c>
    45e0:	24020054 	li	v0,84
    45e4:	82030000 	lb	v1,0(s0)
    45e8:	2404002b 	li	a0,43
    45ec:	10640448 	beq	v1,a0,5710 <Radio::Messages::consoleHandler(char*)+0x1ab8>
    45f0:	2404002d 	li	a0,45
    45f4:	10640446 	beq	v1,a0,5710 <Radio::Messages::consoleHandler(char*)+0x1ab8>
    45f8:	24040020 	li	a0,32
    45fc:	08001183 	j	460c <Radio::Messages::consoleHandler(char*)+0x9b4>
    4600:	00000000 	nop
    4604:	82030000 	lb	v1,0(s0)
    4608:	24040020 	li	a0,32
    460c:	106405f5 	beq	v1,a0,5de4 <Radio::Messages::consoleHandler(char*)+0x218c>
    4610:	00000000 	nop
    4614:	2463ffd0 	addiu	v1,v1,-48
    4618:	306300ff 	andi	v1,v1,0xff
    461c:	2c63000a 	sltiu	v1,v1,10
    4620:	14600418 	bnez	v1,5684 <Radio::Messages::consoleHandler(char*)+0x1a2c>
    4624:	24020056 	li	v0,86
    4628:	0800177d 	j	5df4 <Radio::Messages::consoleHandler(char*)+0x219c>
    462c:	3c048000 	lui	a0,0x8000
    4630:	82030000 	lb	v1,0(s0)
    4634:	24040020 	li	a0,32
    4638:	1064041f 	beq	v1,a0,56b8 <Radio::Messages::consoleHandler(char*)+0x1a60>
    463c:	2463ffd0 	addiu	v1,v1,-48
    4640:	080013f1 	j	4fc4 <Radio::Messages::consoleHandler(char*)+0x136c>
    4644:	306300ff 	andi	v1,v1,0xff
    4648:	82030000 	lb	v1,0(s0)
    464c:	2404002b 	li	a0,43
    4650:	10640431 	beq	v1,a0,5718 <Radio::Messages::consoleHandler(char*)+0x1ac0>
    4654:	2404002d 	li	a0,45
    4658:	1064042f 	beq	v1,a0,5718 <Radio::Messages::consoleHandler(char*)+0x1ac0>
    465c:	24040020 	li	a0,32
    4660:	0800119c 	j	4670 <Radio::Messages::consoleHandler(char*)+0xa18>
    4664:	00000000 	nop
    4668:	82030000 	lb	v1,0(s0)
    466c:	24040020 	li	a0,32
    4670:	106405dc 	beq	v1,a0,5de4 <Radio::Messages::consoleHandler(char*)+0x218c>
    4674:	00000000 	nop
    4678:	2463ffd0 	addiu	v1,v1,-48
    467c:	306300ff 	andi	v1,v1,0xff
    4680:	2c63000a 	sltiu	v1,v1,10
    4684:	146003ff 	bnez	v1,5684 <Radio::Messages::consoleHandler(char*)+0x1a2c>
    4688:	24020059 	li	v0,89
    468c:	0800177d 	j	5df4 <Radio::Messages::consoleHandler(char*)+0x219c>
    4690:	3c048000 	lui	a0,0x8000
    4694:	82030000 	lb	v1,0(s0)
    4698:	24040020 	li	a0,32
    469c:	10640408 	beq	v1,a0,56c0 <Radio::Messages::consoleHandler(char*)+0x1a68>
    46a0:	2463ffd0 	addiu	v1,v1,-48
    46a4:	080013f1 	j	4fc4 <Radio::Messages::consoleHandler(char*)+0x136c>
    46a8:	306300ff 	andi	v1,v1,0xff
    46ac:	82030000 	lb	v1,0(s0)
    46b0:	2404002b 	li	a0,43
    46b4:	1064041a 	beq	v1,a0,5720 <Radio::Messages::consoleHandler(char*)+0x1ac8>
    46b8:	2404002d 	li	a0,45
    46bc:	10640418 	beq	v1,a0,5720 <Radio::Messages::consoleHandler(char*)+0x1ac8>
    46c0:	24040020 	li	a0,32
    46c4:	080011b5 	j	46d4 <Radio::Messages::consoleHandler(char*)+0xa7c>
    46c8:	00000000 	nop
    46cc:	82030000 	lb	v1,0(s0)
    46d0:	24040020 	li	a0,32
    46d4:	106405c3 	beq	v1,a0,5de4 <Radio::Messages::consoleHandler(char*)+0x218c>
    46d8:	00000000 	nop
    46dc:	2463ffd0 	addiu	v1,v1,-48
    46e0:	306300ff 	andi	v1,v1,0xff
    46e4:	2c63000a 	sltiu	v1,v1,10
    46e8:	146003e6 	bnez	v1,5684 <Radio::Messages::consoleHandler(char*)+0x1a2c>
    46ec:	2402005c 	li	v0,92
    46f0:	0800177d 	j	5df4 <Radio::Messages::consoleHandler(char*)+0x219c>
    46f4:	3c048000 	lui	a0,0x8000
    46f8:	82030000 	lb	v1,0(s0)
    46fc:	2404000a 	li	a0,10
    4700:	106403bd 	beq	v1,a0,55f8 <Radio::Messages::consoleHandler(char*)+0x19a0>
    4704:	2864000b 	slti	a0,v1,11
    4708:	10800005 	beqz	a0,4720 <Radio::Messages::consoleHandler(char*)+0xac8>
    470c:	00000000 	nop
    4710:	106003b9 	beqz	v1,55f8 <Radio::Messages::consoleHandler(char*)+0x19a0>
    4714:	2463ffd0 	addiu	v1,v1,-48
    4718:	080013f1 	j	4fc4 <Radio::Messages::consoleHandler(char*)+0x136c>
    471c:	306300ff 	andi	v1,v1,0xff
    4720:	2404000d 	li	a0,13
    4724:	106403b4 	beq	v1,a0,55f8 <Radio::Messages::consoleHandler(char*)+0x19a0>
    4728:	24040020 	li	a0,32
    472c:	1064036a 	beq	v1,a0,54d8 <Radio::Messages::consoleHandler(char*)+0x1880>
    4730:	2463ffd0 	addiu	v1,v1,-48
    4734:	080013f1 	j	4fc4 <Radio::Messages::consoleHandler(char*)+0x136c>
    4738:	306300ff 	andi	v1,v1,0xff
    473c:	82030000 	lb	v1,0(s0)
    4740:	24020065 	li	v0,101
    4744:	146205ab 	bne	v1,v0,5df4 <Radio::Messages::consoleHandler(char*)+0x219c>
    4748:	3c048000 	lui	a0,0x8000
    474c:	0800172b 	j	5cac <Radio::Messages::consoleHandler(char*)+0x2054>
    4750:	2402005e 	li	v0,94
    4754:	82030000 	lb	v1,0(s0)
    4758:	24020061 	li	v0,97
    475c:	146205a5 	bne	v1,v0,5df4 <Radio::Messages::consoleHandler(char*)+0x219c>
    4760:	3c048000 	lui	a0,0x8000
    4764:	0800172d 	j	5cb4 <Radio::Messages::consoleHandler(char*)+0x205c>
    4768:	2402005f 	li	v0,95
    476c:	82030000 	lb	v1,0(s0)
    4770:	24020064 	li	v0,100
    4774:	1462059f 	bne	v1,v0,5df4 <Radio::Messages::consoleHandler(char*)+0x219c>
    4778:	3c048000 	lui	a0,0x8000
    477c:	0800172f 	j	5cbc <Radio::Messages::consoleHandler(char*)+0x2064>
    4780:	24020060 	li	v0,96
    4784:	82030000 	lb	v1,0(s0)
    4788:	24020069 	li	v0,105
    478c:	14620599 	bne	v1,v0,5df4 <Radio::Messages::consoleHandler(char*)+0x219c>
    4790:	3c048000 	lui	a0,0x8000
    4794:	08001731 	j	5cc4 <Radio::Messages::consoleHandler(char*)+0x206c>
    4798:	24020061 	li	v0,97
    479c:	82030000 	lb	v1,0(s0)
    47a0:	2402006e 	li	v0,110
    47a4:	14620593 	bne	v1,v0,5df4 <Radio::Messages::consoleHandler(char*)+0x219c>
    47a8:	3c048000 	lui	a0,0x8000
    47ac:	08001733 	j	5ccc <Radio::Messages::consoleHandler(char*)+0x2074>
    47b0:	24020062 	li	v0,98
    47b4:	82030000 	lb	v1,0(s0)
    47b8:	24020067 	li	v0,103
    47bc:	1462058d 	bne	v1,v0,5df4 <Radio::Messages::consoleHandler(char*)+0x219c>
    47c0:	3c048000 	lui	a0,0x8000
    47c4:	08001735 	j	5cd4 <Radio::Messages::consoleHandler(char*)+0x207c>
    47c8:	24020063 	li	v0,99
    47cc:	82030000 	lb	v1,0(s0)
    47d0:	2402005f 	li	v0,95
    47d4:	14620587 	bne	v1,v0,5df4 <Radio::Messages::consoleHandler(char*)+0x219c>
    47d8:	3c048000 	lui	a0,0x8000
    47dc:	08001737 	j	5cdc <Radio::Messages::consoleHandler(char*)+0x2084>
    47e0:	24020064 	li	v0,100
    47e4:	82030000 	lb	v1,0(s0)
    47e8:	24020070 	li	v0,112
    47ec:	14620581 	bne	v1,v0,5df4 <Radio::Messages::consoleHandler(char*)+0x219c>
    47f0:	3c048000 	lui	a0,0x8000
    47f4:	08001739 	j	5ce4 <Radio::Messages::consoleHandler(char*)+0x208c>
    47f8:	24020065 	li	v0,101
    47fc:	82030000 	lb	v1,0(s0)
    4800:	24020069 	li	v0,105
    4804:	1462057b 	bne	v1,v0,5df4 <Radio::Messages::consoleHandler(char*)+0x219c>
    4808:	3c048000 	lui	a0,0x8000
    480c:	0800173b 	j	5cec <Radio::Messages::consoleHandler(char*)+0x2094>
    4810:	24020066 	li	v0,102
    4814:	82030000 	lb	v1,0(s0)
    4818:	24020064 	li	v0,100
    481c:	14620575 	bne	v1,v0,5df4 <Radio::Messages::consoleHandler(char*)+0x219c>
    4820:	3c048000 	lui	a0,0x8000
    4824:	0800173d 	j	5cf4 <Radio::Messages::consoleHandler(char*)+0x209c>
    4828:	24020067 	li	v0,103
    482c:	82030000 	lb	v1,0(s0)
    4830:	24020020 	li	v0,32
    4834:	1462056f 	bne	v1,v0,5df4 <Radio::Messages::consoleHandler(char*)+0x219c>
    4838:	3c048000 	lui	a0,0x8000
    483c:	0800173f 	j	5cfc <Radio::Messages::consoleHandler(char*)+0x20a4>
    4840:	24020068 	li	v0,104
    4844:	82030000 	lb	v1,0(s0)
    4848:	2404002b 	li	a0,43
    484c:	106403b6 	beq	v1,a0,5728 <Radio::Messages::consoleHandler(char*)+0x1ad0>
    4850:	2404002d 	li	a0,45
    4854:	106403b4 	beq	v1,a0,5728 <Radio::Messages::consoleHandler(char*)+0x1ad0>
    4858:	24040020 	li	a0,32
    485c:	0800121b 	j	486c <Radio::Messages::consoleHandler(char*)+0xc14>
    4860:	00000000 	nop
    4864:	82030000 	lb	v1,0(s0)
    4868:	24040020 	li	a0,32
    486c:	1064055d 	beq	v1,a0,5de4 <Radio::Messages::consoleHandler(char*)+0x218c>
    4870:	00000000 	nop
    4874:	2463ffd0 	addiu	v1,v1,-48
    4878:	306300ff 	andi	v1,v1,0xff
    487c:	2c63000a 	sltiu	v1,v1,10
    4880:	14600380 	bnez	v1,5684 <Radio::Messages::consoleHandler(char*)+0x1a2c>
    4884:	2402006a 	li	v0,106
    4888:	0800177d 	j	5df4 <Radio::Messages::consoleHandler(char*)+0x219c>
    488c:	3c048000 	lui	a0,0x8000
    4890:	82030000 	lb	v1,0(s0)
    4894:	24040020 	li	a0,32
    4898:	1064038b 	beq	v1,a0,56c8 <Radio::Messages::consoleHandler(char*)+0x1a70>
    489c:	2463ffd0 	addiu	v1,v1,-48
    48a0:	080013f1 	j	4fc4 <Radio::Messages::consoleHandler(char*)+0x136c>
    48a4:	306300ff 	andi	v1,v1,0xff
    48a8:	82030000 	lb	v1,0(s0)
    48ac:	2404002b 	li	a0,43
    48b0:	1064039f 	beq	v1,a0,5730 <Radio::Messages::consoleHandler(char*)+0x1ad8>
    48b4:	2404002d 	li	a0,45
    48b8:	1064039d 	beq	v1,a0,5730 <Radio::Messages::consoleHandler(char*)+0x1ad8>
    48bc:	24040020 	li	a0,32
    48c0:	08001234 	j	48d0 <Radio::Messages::consoleHandler(char*)+0xc78>
    48c4:	00000000 	nop
    48c8:	82030000 	lb	v1,0(s0)
    48cc:	24040020 	li	a0,32
    48d0:	10640544 	beq	v1,a0,5de4 <Radio::Messages::consoleHandler(char*)+0x218c>
    48d4:	00000000 	nop
    48d8:	2463ffd0 	addiu	v1,v1,-48
    48dc:	306300ff 	andi	v1,v1,0xff
    48e0:	2c63000a 	sltiu	v1,v1,10
    48e4:	14600367 	bnez	v1,5684 <Radio::Messages::consoleHandler(char*)+0x1a2c>
    48e8:	2402006d 	li	v0,109
    48ec:	0800177d 	j	5df4 <Radio::Messages::consoleHandler(char*)+0x219c>
    48f0:	3c048000 	lui	a0,0x8000
    48f4:	82030000 	lb	v1,0(s0)
    48f8:	24040020 	li	a0,32
    48fc:	10640374 	beq	v1,a0,56d0 <Radio::Messages::consoleHandler(char*)+0x1a78>
    4900:	2463ffd0 	addiu	v1,v1,-48
    4904:	080013f1 	j	4fc4 <Radio::Messages::consoleHandler(char*)+0x136c>
    4908:	306300ff 	andi	v1,v1,0xff
    490c:	82030000 	lb	v1,0(s0)
    4910:	2404002b 	li	a0,43
    4914:	10640388 	beq	v1,a0,5738 <Radio::Messages::consoleHandler(char*)+0x1ae0>
    4918:	2404002d 	li	a0,45
    491c:	10640386 	beq	v1,a0,5738 <Radio::Messages::consoleHandler(char*)+0x1ae0>
    4920:	24040020 	li	a0,32
    4924:	0800124d 	j	4934 <Radio::Messages::consoleHandler(char*)+0xcdc>
    4928:	00000000 	nop
    492c:	82030000 	lb	v1,0(s0)
    4930:	24040020 	li	a0,32
    4934:	1064052b 	beq	v1,a0,5de4 <Radio::Messages::consoleHandler(char*)+0x218c>
    4938:	00000000 	nop
    493c:	2463ffd0 	addiu	v1,v1,-48
    4940:	306300ff 	andi	v1,v1,0xff
    4944:	2c63000a 	sltiu	v1,v1,10
    4948:	1460034e 	bnez	v1,5684 <Radio::Messages::consoleHandler(char*)+0x1a2c>
    494c:	24020070 	li	v0,112
    4950:	0800177d 	j	5df4 <Radio::Messages::consoleHandler(char*)+0x219c>
    4954:	3c048000 	lui	a0,0x8000
    4958:	82030000 	lb	v1,0(s0)
    495c:	2404000a 	li	a0,10
    4960:	1064032a 	beq	v1,a0,560c <Radio::Messages::consoleHandler(char*)+0x19b4>
    4964:	2864000b 	slti	a0,v1,11
    4968:	10800005 	beqz	a0,4980 <Radio::Messages::consoleHandler(char*)+0xd28>
    496c:	00000000 	nop
    4970:	10600326 	beqz	v1,560c <Radio::Messages::consoleHandler(char*)+0x19b4>
    4974:	2463ffd0 	addiu	v1,v1,-48
    4978:	080013f1 	j	4fc4 <Radio::Messages::consoleHandler(char*)+0x136c>
    497c:	306300ff 	andi	v1,v1,0xff
    4980:	2404000d 	li	a0,13
    4984:	10640321 	beq	v1,a0,560c <Radio::Messages::consoleHandler(char*)+0x19b4>
    4988:	24040020 	li	a0,32
    498c:	106402d7 	beq	v1,a0,54ec <Radio::Messages::consoleHandler(char*)+0x1894>
    4990:	2463ffd0 	addiu	v1,v1,-48
    4994:	080013f1 	j	4fc4 <Radio::Messages::consoleHandler(char*)+0x136c>
    4998:	306300ff 	andi	v1,v1,0xff
    499c:	82030000 	lb	v1,0(s0)
    49a0:	24020069 	li	v0,105
    49a4:	14620513 	bne	v1,v0,5df4 <Radio::Messages::consoleHandler(char*)+0x219c>
    49a8:	3c048000 	lui	a0,0x8000
    49ac:	08001741 	j	5d04 <Radio::Messages::consoleHandler(char*)+0x20ac>
    49b0:	24020072 	li	v0,114
    49b4:	82030000 	lb	v1,0(s0)
    49b8:	24020074 	li	v0,116
    49bc:	1462050d 	bne	v1,v0,5df4 <Radio::Messages::consoleHandler(char*)+0x219c>
    49c0:	3c048000 	lui	a0,0x8000
    49c4:	08001743 	j	5d0c <Radio::Messages::consoleHandler(char*)+0x20b4>
    49c8:	24020073 	li	v0,115
    49cc:	82030000 	lb	v1,0(s0)
    49d0:	24020063 	li	v0,99
    49d4:	14620507 	bne	v1,v0,5df4 <Radio::Messages::consoleHandler(char*)+0x219c>
    49d8:	3c048000 	lui	a0,0x8000
    49dc:	08001745 	j	5d14 <Radio::Messages::consoleHandler(char*)+0x20bc>
    49e0:	24020074 	li	v0,116
    49e4:	82030000 	lb	v1,0(s0)
    49e8:	24020068 	li	v0,104
    49ec:	14620501 	bne	v1,v0,5df4 <Radio::Messages::consoleHandler(char*)+0x219c>
    49f0:	3c048000 	lui	a0,0x8000
    49f4:	08001747 	j	5d1c <Radio::Messages::consoleHandler(char*)+0x20c4>
    49f8:	24020075 	li	v0,117
    49fc:	82020000 	lb	v0,0(s0)
    4a00:	24030020 	li	v1,32
    4a04:	10430006 	beq	v0,v1,4a20 <Radio::Messages::consoleHandler(char*)+0xdc8>
    4a08:	00000000 	nop
    4a0c:	24030072 	li	v1,114
    4a10:	144304f8 	bne	v0,v1,5df4 <Radio::Messages::consoleHandler(char*)+0x219c>
    4a14:	3c048000 	lui	a0,0x8000
    4a18:	08001749 	j	5d24 <Radio::Messages::consoleHandler(char*)+0x20cc>
    4a1c:	24020079 	li	v0,121
    4a20:	08001779 	j	5de4 <Radio::Messages::consoleHandler(char*)+0x218c>
    4a24:	24020076 	li	v0,118
    4a28:	82030000 	lb	v1,0(s0)
    4a2c:	2404002b 	li	a0,43
    4a30:	10640343 	beq	v1,a0,5740 <Radio::Messages::consoleHandler(char*)+0x1ae8>
    4a34:	2404002d 	li	a0,45
    4a38:	10640341 	beq	v1,a0,5740 <Radio::Messages::consoleHandler(char*)+0x1ae8>
    4a3c:	24040020 	li	a0,32
    4a40:	08001294 	j	4a50 <Radio::Messages::consoleHandler(char*)+0xdf8>
    4a44:	00000000 	nop
    4a48:	82030000 	lb	v1,0(s0)
    4a4c:	24040020 	li	a0,32
    4a50:	106404e4 	beq	v1,a0,5de4 <Radio::Messages::consoleHandler(char*)+0x218c>
    4a54:	00000000 	nop
    4a58:	2463ffd0 	addiu	v1,v1,-48
    4a5c:	306300ff 	andi	v1,v1,0xff
    4a60:	2c63000a 	sltiu	v1,v1,10
    4a64:	14600307 	bnez	v1,5684 <Radio::Messages::consoleHandler(char*)+0x1a2c>
    4a68:	24020078 	li	v0,120
    4a6c:	0800177d 	j	5df4 <Radio::Messages::consoleHandler(char*)+0x219c>
    4a70:	3c048000 	lui	a0,0x8000
    4a74:	82030000 	lb	v1,0(s0)
    4a78:	2404000a 	li	a0,10
    4a7c:	106402e8 	beq	v1,a0,5620 <Radio::Messages::consoleHandler(char*)+0x19c8>
    4a80:	2864000b 	slti	a0,v1,11
    4a84:	10800005 	beqz	a0,4a9c <Radio::Messages::consoleHandler(char*)+0xe44>
    4a88:	00000000 	nop
    4a8c:	106002e4 	beqz	v1,5620 <Radio::Messages::consoleHandler(char*)+0x19c8>
    4a90:	2463ffd0 	addiu	v1,v1,-48
    4a94:	080013f1 	j	4fc4 <Radio::Messages::consoleHandler(char*)+0x136c>
    4a98:	306300ff 	andi	v1,v1,0xff
    4a9c:	2404000d 	li	a0,13
    4aa0:	106402df 	beq	v1,a0,5620 <Radio::Messages::consoleHandler(char*)+0x19c8>
    4aa4:	24040020 	li	a0,32
    4aa8:	10640295 	beq	v1,a0,5500 <Radio::Messages::consoleHandler(char*)+0x18a8>
    4aac:	2463ffd0 	addiu	v1,v1,-48
    4ab0:	080013f1 	j	4fc4 <Radio::Messages::consoleHandler(char*)+0x136c>
    4ab4:	306300ff 	andi	v1,v1,0xff
    4ab8:	82030000 	lb	v1,0(s0)
    4abc:	2402006f 	li	v0,111
    4ac0:	146204cc 	bne	v1,v0,5df4 <Radio::Messages::consoleHandler(char*)+0x219c>
    4ac4:	3c048000 	lui	a0,0x8000
    4ac8:	0800174b 	j	5d2c <Radio::Messages::consoleHandler(char*)+0x20d4>
    4acc:	2402007a 	li	v0,122
    4ad0:	82030000 	lb	v1,0(s0)
    4ad4:	2402006c 	li	v0,108
    4ad8:	146204c6 	bne	v1,v0,5df4 <Radio::Messages::consoleHandler(char*)+0x219c>
    4adc:	3c048000 	lui	a0,0x8000
    4ae0:	0800174d 	j	5d34 <Radio::Messages::consoleHandler(char*)+0x20dc>
    4ae4:	2402007b 	li	v0,123
    4ae8:	82030000 	lb	v1,0(s0)
    4aec:	2402006c 	li	v0,108
    4af0:	146204c0 	bne	v1,v0,5df4 <Radio::Messages::consoleHandler(char*)+0x219c>
    4af4:	3c048000 	lui	a0,0x8000
    4af8:	0800174f 	j	5d3c <Radio::Messages::consoleHandler(char*)+0x20e4>
    4afc:	2402007c 	li	v0,124
    4b00:	82030000 	lb	v1,0(s0)
    4b04:	2402005f 	li	v0,95
    4b08:	146204ba 	bne	v1,v0,5df4 <Radio::Messages::consoleHandler(char*)+0x219c>
    4b0c:	3c048000 	lui	a0,0x8000
    4b10:	08001751 	j	5d44 <Radio::Messages::consoleHandler(char*)+0x20ec>
    4b14:	2402007d 	li	v0,125
    4b18:	82030000 	lb	v1,0(s0)
    4b1c:	24020070 	li	v0,112
    4b20:	146204b4 	bne	v1,v0,5df4 <Radio::Messages::consoleHandler(char*)+0x219c>
    4b24:	3c048000 	lui	a0,0x8000
    4b28:	08001753 	j	5d4c <Radio::Messages::consoleHandler(char*)+0x20f4>
    4b2c:	2402007e 	li	v0,126
    4b30:	82030000 	lb	v1,0(s0)
    4b34:	24020069 	li	v0,105
    4b38:	146204ae 	bne	v1,v0,5df4 <Radio::Messages::consoleHandler(char*)+0x219c>
    4b3c:	3c048000 	lui	a0,0x8000
    4b40:	08001755 	j	5d54 <Radio::Messages::consoleHandler(char*)+0x20fc>
    4b44:	2402007f 	li	v0,127
    4b48:	82030000 	lb	v1,0(s0)
    4b4c:	24020064 	li	v0,100
    4b50:	146204a8 	bne	v1,v0,5df4 <Radio::Messages::consoleHandler(char*)+0x219c>
    4b54:	3c048000 	lui	a0,0x8000
    4b58:	08001757 	j	5d5c <Radio::Messages::consoleHandler(char*)+0x2104>
    4b5c:	24020080 	li	v0,128
    4b60:	82030000 	lb	v1,0(s0)
    4b64:	24020020 	li	v0,32
    4b68:	146204a2 	bne	v1,v0,5df4 <Radio::Messages::consoleHandler(char*)+0x219c>
    4b6c:	3c048000 	lui	a0,0x8000
    4b70:	08001759 	j	5d64 <Radio::Messages::consoleHandler(char*)+0x210c>
    4b74:	24020081 	li	v0,129
    4b78:	82030000 	lb	v1,0(s0)
    4b7c:	2404002b 	li	a0,43
    4b80:	106402f1 	beq	v1,a0,5748 <Radio::Messages::consoleHandler(char*)+0x1af0>
    4b84:	2404002d 	li	a0,45
    4b88:	106402ef 	beq	v1,a0,5748 <Radio::Messages::consoleHandler(char*)+0x1af0>
    4b8c:	24040020 	li	a0,32
    4b90:	080012e8 	j	4ba0 <Radio::Messages::consoleHandler(char*)+0xf48>
    4b94:	00000000 	nop
    4b98:	82030000 	lb	v1,0(s0)
    4b9c:	24040020 	li	a0,32
    4ba0:	10640490 	beq	v1,a0,5de4 <Radio::Messages::consoleHandler(char*)+0x218c>
    4ba4:	00000000 	nop
    4ba8:	2463ffd0 	addiu	v1,v1,-48
    4bac:	306300ff 	andi	v1,v1,0xff
    4bb0:	2c63000a 	sltiu	v1,v1,10
    4bb4:	146002b3 	bnez	v1,5684 <Radio::Messages::consoleHandler(char*)+0x1a2c>
    4bb8:	24020083 	li	v0,131
    4bbc:	0800177d 	j	5df4 <Radio::Messages::consoleHandler(char*)+0x219c>
    4bc0:	3c048000 	lui	a0,0x8000
    4bc4:	82030000 	lb	v1,0(s0)
    4bc8:	24040020 	li	a0,32
    4bcc:	106402c2 	beq	v1,a0,56d8 <Radio::Messages::consoleHandler(char*)+0x1a80>
    4bd0:	2463ffd0 	addiu	v1,v1,-48
    4bd4:	080013f1 	j	4fc4 <Radio::Messages::consoleHandler(char*)+0x136c>
    4bd8:	306300ff 	andi	v1,v1,0xff
    4bdc:	82030000 	lb	v1,0(s0)
    4be0:	2404002b 	li	a0,43
    4be4:	106402da 	beq	v1,a0,5750 <Radio::Messages::consoleHandler(char*)+0x1af8>
    4be8:	2404002d 	li	a0,45
    4bec:	106402d8 	beq	v1,a0,5750 <Radio::Messages::consoleHandler(char*)+0x1af8>
    4bf0:	24040020 	li	a0,32
    4bf4:	08001301 	j	4c04 <Radio::Messages::consoleHandler(char*)+0xfac>
    4bf8:	00000000 	nop
    4bfc:	82030000 	lb	v1,0(s0)
    4c00:	24040020 	li	a0,32
    4c04:	10640477 	beq	v1,a0,5de4 <Radio::Messages::consoleHandler(char*)+0x218c>
    4c08:	00000000 	nop
    4c0c:	2463ffd0 	addiu	v1,v1,-48
    4c10:	306300ff 	andi	v1,v1,0xff
    4c14:	2c63000a 	sltiu	v1,v1,10
    4c18:	1460029a 	bnez	v1,5684 <Radio::Messages::consoleHandler(char*)+0x1a2c>
    4c1c:	24020086 	li	v0,134
    4c20:	0800177d 	j	5df4 <Radio::Messages::consoleHandler(char*)+0x219c>
    4c24:	3c048000 	lui	a0,0x8000
    4c28:	82030000 	lb	v1,0(s0)
    4c2c:	24040020 	li	a0,32
    4c30:	106402ab 	beq	v1,a0,56e0 <Radio::Messages::consoleHandler(char*)+0x1a88>
    4c34:	2463ffd0 	addiu	v1,v1,-48
    4c38:	080013f1 	j	4fc4 <Radio::Messages::consoleHandler(char*)+0x136c>
    4c3c:	306300ff 	andi	v1,v1,0xff
    4c40:	82030000 	lb	v1,0(s0)
    4c44:	2404002b 	li	a0,43
    4c48:	106402c3 	beq	v1,a0,5758 <Radio::Messages::consoleHandler(char*)+0x1b00>
    4c4c:	2404002d 	li	a0,45
    4c50:	106402c1 	beq	v1,a0,5758 <Radio::Messages::consoleHandler(char*)+0x1b00>
    4c54:	24040020 	li	a0,32
    4c58:	0800131a 	j	4c68 <Radio::Messages::consoleHandler(char*)+0x1010>
    4c5c:	00000000 	nop
    4c60:	82030000 	lb	v1,0(s0)
    4c64:	24040020 	li	a0,32
    4c68:	1064045e 	beq	v1,a0,5de4 <Radio::Messages::consoleHandler(char*)+0x218c>
    4c6c:	00000000 	nop
    4c70:	2463ffd0 	addiu	v1,v1,-48
    4c74:	306300ff 	andi	v1,v1,0xff
    4c78:	2c63000a 	sltiu	v1,v1,10
    4c7c:	14600281 	bnez	v1,5684 <Radio::Messages::consoleHandler(char*)+0x1a2c>
    4c80:	24020089 	li	v0,137
    4c84:	0800177d 	j	5df4 <Radio::Messages::consoleHandler(char*)+0x219c>
    4c88:	3c048000 	lui	a0,0x8000
    4c8c:	82030000 	lb	v1,0(s0)
    4c90:	2404000a 	li	a0,10
    4c94:	10640267 	beq	v1,a0,5634 <Radio::Messages::consoleHandler(char*)+0x19dc>
    4c98:	2864000b 	slti	a0,v1,11
    4c9c:	10800005 	beqz	a0,4cb4 <Radio::Messages::consoleHandler(char*)+0x105c>
    4ca0:	00000000 	nop
    4ca4:	10600263 	beqz	v1,5634 <Radio::Messages::consoleHandler(char*)+0x19dc>
    4ca8:	2463ffd0 	addiu	v1,v1,-48
    4cac:	080013f1 	j	4fc4 <Radio::Messages::consoleHandler(char*)+0x136c>
    4cb0:	306300ff 	andi	v1,v1,0xff
    4cb4:	2404000d 	li	a0,13
    4cb8:	1064025e 	beq	v1,a0,5634 <Radio::Messages::consoleHandler(char*)+0x19dc>
    4cbc:	24040020 	li	a0,32
    4cc0:	10640214 	beq	v1,a0,5514 <Radio::Messages::consoleHandler(char*)+0x18bc>
    4cc4:	2463ffd0 	addiu	v1,v1,-48
    4cc8:	080013f1 	j	4fc4 <Radio::Messages::consoleHandler(char*)+0x136c>
    4ccc:	306300ff 	andi	v1,v1,0xff
    4cd0:	82030000 	lb	v1,0(s0)
    4cd4:	2402006f 	li	v0,111
    4cd8:	14620446 	bne	v1,v0,5df4 <Radio::Messages::consoleHandler(char*)+0x219c>
    4cdc:	3c048000 	lui	a0,0x8000
    4ce0:	0800175b 	j	5d6c <Radio::Messages::consoleHandler(char*)+0x2114>
    4ce4:	2402008b 	li	v0,139
    4ce8:	82030000 	lb	v1,0(s0)
    4cec:	2402006c 	li	v0,108
    4cf0:	14620440 	bne	v1,v0,5df4 <Radio::Messages::consoleHandler(char*)+0x219c>
    4cf4:	3c048000 	lui	a0,0x8000
    4cf8:	0800175d 	j	5d74 <Radio::Messages::consoleHandler(char*)+0x211c>
    4cfc:	2402008c 	li	v0,140
    4d00:	82030000 	lb	v1,0(s0)
    4d04:	2402006c 	li	v0,108
    4d08:	1462043a 	bne	v1,v0,5df4 <Radio::Messages::consoleHandler(char*)+0x219c>
    4d0c:	3c048000 	lui	a0,0x8000
    4d10:	0800175f 	j	5d7c <Radio::Messages::consoleHandler(char*)+0x2124>
    4d14:	2402008d 	li	v0,141
    4d18:	82030000 	lb	v1,0(s0)
    4d1c:	24020020 	li	v0,32
    4d20:	14620434 	bne	v1,v0,5df4 <Radio::Messages::consoleHandler(char*)+0x219c>
    4d24:	3c048000 	lui	a0,0x8000
    4d28:	08001761 	j	5d84 <Radio::Messages::consoleHandler(char*)+0x212c>
    4d2c:	2402008e 	li	v0,142
    4d30:	82030000 	lb	v1,0(s0)
    4d34:	2404002b 	li	a0,43
    4d38:	10640289 	beq	v1,a0,5760 <Radio::Messages::consoleHandler(char*)+0x1b08>
    4d3c:	2404002d 	li	a0,45
    4d40:	10640287 	beq	v1,a0,5760 <Radio::Messages::consoleHandler(char*)+0x1b08>
    4d44:	24040020 	li	a0,32
    4d48:	08001356 	j	4d58 <Radio::Messages::consoleHandler(char*)+0x1100>
    4d4c:	00000000 	nop
    4d50:	82030000 	lb	v1,0(s0)
    4d54:	24040020 	li	a0,32
    4d58:	10640422 	beq	v1,a0,5de4 <Radio::Messages::consoleHandler(char*)+0x218c>
    4d5c:	00000000 	nop
    4d60:	2463ffd0 	addiu	v1,v1,-48
    4d64:	306300ff 	andi	v1,v1,0xff
    4d68:	2c63000a 	sltiu	v1,v1,10
    4d6c:	14600245 	bnez	v1,5684 <Radio::Messages::consoleHandler(char*)+0x1a2c>
    4d70:	24020090 	li	v0,144
    4d74:	0800177d 	j	5df4 <Radio::Messages::consoleHandler(char*)+0x219c>
    4d78:	3c048000 	lui	a0,0x8000
    4d7c:	82030000 	lb	v1,0(s0)
    4d80:	2404000a 	li	a0,10
    4d84:	10640230 	beq	v1,a0,5648 <Radio::Messages::consoleHandler(char*)+0x19f0>
    4d88:	2864000b 	slti	a0,v1,11
    4d8c:	10800005 	beqz	a0,4da4 <Radio::Messages::consoleHandler(char*)+0x114c>
    4d90:	00000000 	nop
    4d94:	1060022c 	beqz	v1,5648 <Radio::Messages::consoleHandler(char*)+0x19f0>
    4d98:	2463ffd0 	addiu	v1,v1,-48
    4d9c:	080013f1 	j	4fc4 <Radio::Messages::consoleHandler(char*)+0x136c>
    4da0:	306300ff 	andi	v1,v1,0xff
    4da4:	2404000d 	li	a0,13
    4da8:	10640227 	beq	v1,a0,5648 <Radio::Messages::consoleHandler(char*)+0x19f0>
    4dac:	24040020 	li	a0,32
    4db0:	106401dd 	beq	v1,a0,5528 <Radio::Messages::consoleHandler(char*)+0x18d0>
    4db4:	2463ffd0 	addiu	v1,v1,-48
    4db8:	080013f1 	j	4fc4 <Radio::Messages::consoleHandler(char*)+0x136c>
    4dbc:	306300ff 	andi	v1,v1,0xff
    4dc0:	82030000 	lb	v1,0(s0)
    4dc4:	24020068 	li	v0,104
    4dc8:	1462040a 	bne	v1,v0,5df4 <Radio::Messages::consoleHandler(char*)+0x219c>
    4dcc:	3c048000 	lui	a0,0x8000
    4dd0:	08001763 	j	5d8c <Radio::Messages::consoleHandler(char*)+0x2134>
    4dd4:	24020092 	li	v0,146
    4dd8:	82030000 	lb	v1,0(s0)
    4ddc:	24020072 	li	v0,114
    4de0:	14620404 	bne	v1,v0,5df4 <Radio::Messages::consoleHandler(char*)+0x219c>
    4de4:	3c048000 	lui	a0,0x8000
    4de8:	08001765 	j	5d94 <Radio::Messages::consoleHandler(char*)+0x213c>
    4dec:	24020093 	li	v0,147
    4df0:	82030000 	lb	v1,0(s0)
    4df4:	2402006f 	li	v0,111
    4df8:	146203fe 	bne	v1,v0,5df4 <Radio::Messages::consoleHandler(char*)+0x219c>
    4dfc:	3c048000 	lui	a0,0x8000
    4e00:	08001767 	j	5d9c <Radio::Messages::consoleHandler(char*)+0x2144>
    4e04:	24020094 	li	v0,148
    4e08:	82030000 	lb	v1,0(s0)
    4e0c:	24020074 	li	v0,116
    4e10:	146203f8 	bne	v1,v0,5df4 <Radio::Messages::consoleHandler(char*)+0x219c>
    4e14:	3c048000 	lui	a0,0x8000
    4e18:	08001769 	j	5da4 <Radio::Messages::consoleHandler(char*)+0x214c>
    4e1c:	24020095 	li	v0,149
    4e20:	82030000 	lb	v1,0(s0)
    4e24:	24020074 	li	v0,116
    4e28:	146203f2 	bne	v1,v0,5df4 <Radio::Messages::consoleHandler(char*)+0x219c>
    4e2c:	3c048000 	lui	a0,0x8000
    4e30:	0800176b 	j	5dac <Radio::Messages::consoleHandler(char*)+0x2154>
    4e34:	24020096 	li	v0,150
    4e38:	82030000 	lb	v1,0(s0)
    4e3c:	2402006c 	li	v0,108
    4e40:	146203ec 	bne	v1,v0,5df4 <Radio::Messages::consoleHandler(char*)+0x219c>
    4e44:	3c048000 	lui	a0,0x8000
    4e48:	0800176d 	j	5db4 <Radio::Messages::consoleHandler(char*)+0x215c>
    4e4c:	24020097 	li	v0,151
    4e50:	82030000 	lb	v1,0(s0)
    4e54:	24020065 	li	v0,101
    4e58:	146203e6 	bne	v1,v0,5df4 <Radio::Messages::consoleHandler(char*)+0x219c>
    4e5c:	3c048000 	lui	a0,0x8000
    4e60:	0800176f 	j	5dbc <Radio::Messages::consoleHandler(char*)+0x2164>
    4e64:	24020098 	li	v0,152
    4e68:	82030000 	lb	v1,0(s0)
    4e6c:	24020020 	li	v0,32
    4e70:	146203e0 	bne	v1,v0,5df4 <Radio::Messages::consoleHandler(char*)+0x219c>
    4e74:	3c048000 	lui	a0,0x8000
    4e78:	08001771 	j	5dc4 <Radio::Messages::consoleHandler(char*)+0x216c>
    4e7c:	24020099 	li	v0,153
    4e80:	82030000 	lb	v1,0(s0)
    4e84:	24040020 	li	a0,32
    4e88:	106403d6 	beq	v1,a0,5de4 <Radio::Messages::consoleHandler(char*)+0x218c>
    4e8c:	00000000 	nop
    4e90:	2463ffd0 	addiu	v1,v1,-48
    4e94:	306300ff 	andi	v1,v1,0xff
    4e98:	2c63000a 	sltiu	v1,v1,10
    4e9c:	146001f9 	bnez	v1,5684 <Radio::Messages::consoleHandler(char*)+0x1a2c>
    4ea0:	2402009a 	li	v0,154
    4ea4:	0800177d 	j	5df4 <Radio::Messages::consoleHandler(char*)+0x219c>
    4ea8:	3c048000 	lui	a0,0x8000
    4eac:	82030000 	lb	v1,0(s0)
    4eb0:	2404000a 	li	a0,10
    4eb4:	106401e9 	beq	v1,a0,565c <Radio::Messages::consoleHandler(char*)+0x1a04>
    4eb8:	2864000b 	slti	a0,v1,11
    4ebc:	10800005 	beqz	a0,4ed4 <Radio::Messages::consoleHandler(char*)+0x127c>
    4ec0:	00000000 	nop
    4ec4:	106001e5 	beqz	v1,565c <Radio::Messages::consoleHandler(char*)+0x1a04>
    4ec8:	2463ffd0 	addiu	v1,v1,-48
    4ecc:	080013f1 	j	4fc4 <Radio::Messages::consoleHandler(char*)+0x136c>
    4ed0:	306300ff 	andi	v1,v1,0xff
    4ed4:	2404000d 	li	a0,13
    4ed8:	106401e0 	beq	v1,a0,565c <Radio::Messages::consoleHandler(char*)+0x1a04>
    4edc:	24040020 	li	a0,32
    4ee0:	10640196 	beq	v1,a0,553c <Radio::Messages::consoleHandler(char*)+0x18e4>
    4ee4:	2463ffd0 	addiu	v1,v1,-48
    4ee8:	080013f1 	j	4fc4 <Radio::Messages::consoleHandler(char*)+0x136c>
    4eec:	306300ff 	andi	v1,v1,0xff
    4ef0:	82030000 	lb	v1,0(s0)
    4ef4:	24020061 	li	v0,97
    4ef8:	146203be 	bne	v1,v0,5df4 <Radio::Messages::consoleHandler(char*)+0x219c>
    4efc:	3c048000 	lui	a0,0x8000
    4f00:	08001773 	j	5dcc <Radio::Messages::consoleHandler(char*)+0x2174>
    4f04:	2402009c 	li	v0,156
    4f08:	82030000 	lb	v1,0(s0)
    4f0c:	24020077 	li	v0,119
    4f10:	146203b8 	bne	v1,v0,5df4 <Radio::Messages::consoleHandler(char*)+0x219c>
    4f14:	3c048000 	lui	a0,0x8000
    4f18:	08001775 	j	5dd4 <Radio::Messages::consoleHandler(char*)+0x217c>
    4f1c:	2402009d 	li	v0,157
    4f20:	82030000 	lb	v1,0(s0)
    4f24:	24020020 	li	v0,32
    4f28:	146203b2 	bne	v1,v0,5df4 <Radio::Messages::consoleHandler(char*)+0x219c>
    4f2c:	3c048000 	lui	a0,0x8000
    4f30:	08001777 	j	5ddc <Radio::Messages::consoleHandler(char*)+0x2184>
    4f34:	2402009e 	li	v0,158
    4f38:	82030000 	lb	v1,0(s0)
    4f3c:	2404002b 	li	a0,43
    4f40:	10640209 	beq	v1,a0,5768 <Radio::Messages::consoleHandler(char*)+0x1b10>
    4f44:	2404002d 	li	a0,45
    4f48:	10640207 	beq	v1,a0,5768 <Radio::Messages::consoleHandler(char*)+0x1b10>
    4f4c:	24040020 	li	a0,32
    4f50:	080013d8 	j	4f60 <Radio::Messages::consoleHandler(char*)+0x1308>
    4f54:	00000000 	nop
    4f58:	82030000 	lb	v1,0(s0)
    4f5c:	24040020 	li	a0,32
    4f60:	106403a0 	beq	v1,a0,5de4 <Radio::Messages::consoleHandler(char*)+0x218c>
    4f64:	00000000 	nop
    4f68:	2463ffd0 	addiu	v1,v1,-48
    4f6c:	306300ff 	andi	v1,v1,0xff
    4f70:	2c63000a 	sltiu	v1,v1,10
    4f74:	146001c3 	bnez	v1,5684 <Radio::Messages::consoleHandler(char*)+0x1a2c>
    4f78:	240200a0 	li	v0,160
    4f7c:	0800177d 	j	5df4 <Radio::Messages::consoleHandler(char*)+0x219c>
    4f80:	3c048000 	lui	a0,0x8000
    4f84:	82030000 	lb	v1,0(s0)
    4f88:	2404000a 	li	a0,10
    4f8c:	106401b8 	beq	v1,a0,5670 <Radio::Messages::consoleHandler(char*)+0x1a18>
    4f90:	2864000b 	slti	a0,v1,11
    4f94:	10800005 	beqz	a0,4fac <Radio::Messages::consoleHandler(char*)+0x1354>
    4f98:	00000000 	nop
    4f9c:	106001b4 	beqz	v1,5670 <Radio::Messages::consoleHandler(char*)+0x1a18>
    4fa0:	2463ffd0 	addiu	v1,v1,-48
    4fa4:	080013f1 	j	4fc4 <Radio::Messages::consoleHandler(char*)+0x136c>
    4fa8:	306300ff 	andi	v1,v1,0xff
    4fac:	2404000d 	li	a0,13
    4fb0:	106401af 	beq	v1,a0,5670 <Radio::Messages::consoleHandler(char*)+0x1a18>
    4fb4:	24040020 	li	a0,32
    4fb8:	10640165 	beq	v1,a0,5550 <Radio::Messages::consoleHandler(char*)+0x18f8>
    4fbc:	2463ffd0 	addiu	v1,v1,-48
    4fc0:	306300ff 	andi	v1,v1,0xff
    4fc4:	2c63000a 	sltiu	v1,v1,10
    4fc8:	146001ae 	bnez	v1,5684 <Radio::Messages::consoleHandler(char*)+0x1a2c>
    4fcc:	3c048000 	lui	a0,0x8000
    4fd0:	0800177e 	j	5df8 <Radio::Messages::consoleHandler(char*)+0x21a0>
    4fd4:	24840158 	addiu	a0,a0,344
    4fd8:	0c00081a 	jal	2068 <_ZN6System8Registry8instanceEv.local.10>
    4fdc:	3c168000 	lui	s6,0x8000
    4fe0:	8c44001c 	lw	a0,28(v0)
    4fe4:	0c000ef1 	jal	3bc4 <b32tohex(unsigned int)>
    4fe8:	26100001 	addiu	s0,s0,1
    4fec:	00602821 	move	a1,v1
    4ff0:	0c000930 	jal	24c0 <System::Bus::UART::write_waiting(long long)>
    4ff4:	00402021 	move	a0,v0
    4ff8:	0c0008d3 	jal	234c <_ZN6System3Bus4UART13write_waitingEPKcj.constprop.37>
    4ffc:	26c40004 	addiu	a0,s6,4
    5000:	0c00081a 	jal	2068 <_ZN6System8Registry8instanceEv.local.10>
    5004:	00000000 	nop
    5008:	8c440020 	lw	a0,32(v0)
    500c:	0c000ef1 	jal	3bc4 <b32tohex(unsigned int)>
    5010:	00000000 	nop
    5014:	00602821 	move	a1,v1
    5018:	0c000930 	jal	24c0 <System::Bus::UART::write_waiting(long long)>
    501c:	00402021 	move	a0,v0
    5020:	0c0008d3 	jal	234c <_ZN6System3Bus4UART13write_waitingEPKcj.constprop.37>
    5024:	26c40004 	addiu	a0,s6,4
    5028:	0c00081a 	jal	2068 <_ZN6System8Registry8instanceEv.local.10>
    502c:	00000000 	nop
    5030:	8c440024 	lw	a0,36(v0)
    5034:	0c000ef1 	jal	3bc4 <b32tohex(unsigned int)>
    5038:	00000000 	nop
    503c:	00402021 	move	a0,v0
    5040:	0c000930 	jal	24c0 <System::Bus::UART::write_waiting(long long)>
    5044:	00602821 	move	a1,v1
    5048:	3c048000 	lui	a0,0x8000
    504c:	0c0008d3 	jal	234c <_ZN6System3Bus4UART13write_waitingEPKcj.constprop.37>
    5050:	24840008 	addiu	a0,a0,8
    5054:	0800177a 	j	5de8 <Radio::Messages::consoleHandler(char*)+0x2190>
    5058:	24020008 	li	v0,8
    505c:	0c00081a 	jal	2068 <_ZN6System8Registry8instanceEv.local.10>
    5060:	3c168000 	lui	s6,0x8000
    5064:	8c44009c 	lw	a0,156(v0)
    5068:	0c000ef1 	jal	3bc4 <b32tohex(unsigned int)>
    506c:	26100001 	addiu	s0,s0,1
    5070:	00602821 	move	a1,v1
    5074:	0c000930 	jal	24c0 <System::Bus::UART::write_waiting(long long)>
    5078:	00402021 	move	a0,v0
    507c:	0c0008d3 	jal	234c <_ZN6System3Bus4UART13write_waitingEPKcj.constprop.37>
    5080:	26c40004 	addiu	a0,s6,4
    5084:	0c00081a 	jal	2068 <_ZN6System8Registry8instanceEv.local.10>
    5088:	00000000 	nop
    508c:	8c4400a0 	lw	a0,160(v0)
    5090:	0c000ef1 	jal	3bc4 <b32tohex(unsigned int)>
    5094:	00000000 	nop
    5098:	00602821 	move	a1,v1
    509c:	0c000930 	jal	24c0 <System::Bus::UART::write_waiting(long long)>
    50a0:	00402021 	move	a0,v0
    50a4:	0c0008d3 	jal	234c <_ZN6System3Bus4UART13write_waitingEPKcj.constprop.37>
    50a8:	26c40004 	addiu	a0,s6,4
    50ac:	0c00081a 	jal	2068 <_ZN6System8Registry8instanceEv.local.10>
    50b0:	00000000 	nop
    50b4:	8c4400a4 	lw	a0,164(v0)
    50b8:	0c000ef1 	jal	3bc4 <b32tohex(unsigned int)>
    50bc:	00000000 	nop
    50c0:	00402021 	move	a0,v0
    50c4:	0c000930 	jal	24c0 <System::Bus::UART::write_waiting(long long)>
    50c8:	00602821 	move	a1,v1
    50cc:	3c048000 	lui	a0,0x8000
    50d0:	0c0008d3 	jal	234c <_ZN6System3Bus4UART13write_waitingEPKcj.constprop.37>
    50d4:	24840008 	addiu	a0,a0,8
    50d8:	0800177a 	j	5de8 <Radio::Messages::consoleHandler(char*)+0x2190>
    50dc:	24020008 	li	v0,8
    50e0:	0c00081a 	jal	2068 <_ZN6System8Registry8instanceEv.local.10>
    50e4:	3c168000 	lui	s6,0x8000
    50e8:	0c000c6f 	jal	31bc <float32::operator int() const>
    50ec:	24440010 	addiu	a0,v0,16
    50f0:	0c000e8d 	jal	3a34 <b32todec(int)>
    50f4:	00402021 	move	a0,v0
    50f8:	00602821 	move	a1,v1
    50fc:	0c000930 	jal	24c0 <System::Bus::UART::write_waiting(long long)>
    5100:	00402021 	move	a0,v0
    5104:	0c0008d3 	jal	234c <_ZN6System3Bus4UART13write_waitingEPKcj.constprop.37>
    5108:	26c40004 	addiu	a0,s6,4
    510c:	0c00081a 	jal	2068 <_ZN6System8Registry8instanceEv.local.10>
    5110:	26100001 	addiu	s0,s0,1
    5114:	0c000c6f 	jal	31bc <float32::operator int() const>
    5118:	24440014 	addiu	a0,v0,20
    511c:	0c000e8d 	jal	3a34 <b32todec(int)>
    5120:	00402021 	move	a0,v0
    5124:	00602821 	move	a1,v1
    5128:	0c000930 	jal	24c0 <System::Bus::UART::write_waiting(long long)>
    512c:	00402021 	move	a0,v0
    5130:	0c0008d3 	jal	234c <_ZN6System3Bus4UART13write_waitingEPKcj.constprop.37>
    5134:	26c40004 	addiu	a0,s6,4
    5138:	0c00081a 	jal	2068 <_ZN6System8Registry8instanceEv.local.10>
    513c:	00000000 	nop
    5140:	0c000c6f 	jal	31bc <float32::operator int() const>
    5144:	24440018 	addiu	a0,v0,24
    5148:	0c000e8d 	jal	3a34 <b32todec(int)>
    514c:	00402021 	move	a0,v0
    5150:	00402021 	move	a0,v0
    5154:	0c000930 	jal	24c0 <System::Bus::UART::write_waiting(long long)>
    5158:	00602821 	move	a1,v1
    515c:	3c048000 	lui	a0,0x8000
    5160:	0c0008d3 	jal	234c <_ZN6System3Bus4UART13write_waitingEPKcj.constprop.37>
    5164:	24840008 	addiu	a0,a0,8
    5168:	0800177a 	j	5de8 <Radio::Messages::consoleHandler(char*)+0x2190>
    516c:	24020008 	li	v0,8
    5170:	0c00081a 	jal	2068 <_ZN6System8Registry8instanceEv.local.10>
    5174:	3c168000 	lui	s6,0x8000
    5178:	8c440034 	lw	a0,52(v0)
    517c:	0c000ef1 	jal	3bc4 <b32tohex(unsigned int)>
    5180:	26100001 	addiu	s0,s0,1
    5184:	00602821 	move	a1,v1
    5188:	0c000930 	jal	24c0 <System::Bus::UART::write_waiting(long long)>
    518c:	00402021 	move	a0,v0
    5190:	0c0008d3 	jal	234c <_ZN6System3Bus4UART13write_waitingEPKcj.constprop.37>
    5194:	26c40004 	addiu	a0,s6,4
    5198:	0c00081a 	jal	2068 <_ZN6System8Registry8instanceEv.local.10>
    519c:	00000000 	nop
    51a0:	8c440038 	lw	a0,56(v0)
    51a4:	0c000ef1 	jal	3bc4 <b32tohex(unsigned int)>
    51a8:	00000000 	nop
    51ac:	00602821 	move	a1,v1
    51b0:	0c000930 	jal	24c0 <System::Bus::UART::write_waiting(long long)>
    51b4:	00402021 	move	a0,v0
    51b8:	0c0008d3 	jal	234c <_ZN6System3Bus4UART13write_waitingEPKcj.constprop.37>
    51bc:	26c40004 	addiu	a0,s6,4
    51c0:	0c00081a 	jal	2068 <_ZN6System8Registry8instanceEv.local.10>
    51c4:	00000000 	nop
    51c8:	8c44003c 	lw	a0,60(v0)
    51cc:	0c000ef1 	jal	3bc4 <b32tohex(unsigned int)>
    51d0:	00000000 	nop
    51d4:	00402021 	move	a0,v0
    51d8:	0c000930 	jal	24c0 <System::Bus::UART::write_waiting(long long)>
    51dc:	00602821 	move	a1,v1
    51e0:	3c048000 	lui	a0,0x8000
    51e4:	0c0008d3 	jal	234c <_ZN6System3Bus4UART13write_waitingEPKcj.constprop.37>
    51e8:	24840008 	addiu	a0,a0,8
    51ec:	0800177a 	j	5de8 <Radio::Messages::consoleHandler(char*)+0x2190>
    51f0:	24020008 	li	v0,8
    51f4:	0c00081a 	jal	2068 <_ZN6System8Registry8instanceEv.local.10>
    51f8:	3c168000 	lui	s6,0x8000
    51fc:	8c44008c 	lw	a0,140(v0)
    5200:	0c000ef1 	jal	3bc4 <b32tohex(unsigned int)>
    5204:	26100001 	addiu	s0,s0,1
    5208:	00602821 	move	a1,v1
    520c:	0c000930 	jal	24c0 <System::Bus::UART::write_waiting(long long)>
    5210:	00402021 	move	a0,v0
    5214:	0c0008d3 	jal	234c <_ZN6System3Bus4UART13write_waitingEPKcj.constprop.37>
    5218:	26c40004 	addiu	a0,s6,4
    521c:	0c00081a 	jal	2068 <_ZN6System8Registry8instanceEv.local.10>
    5220:	00000000 	nop
    5224:	8c440090 	lw	a0,144(v0)
    5228:	0c000ef1 	jal	3bc4 <b32tohex(unsigned int)>
    522c:	00000000 	nop
    5230:	00602821 	move	a1,v1
    5234:	0c000930 	jal	24c0 <System::Bus::UART::write_waiting(long long)>
    5238:	00402021 	move	a0,v0
    523c:	0c0008d3 	jal	234c <_ZN6System3Bus4UART13write_waitingEPKcj.constprop.37>
    5240:	26c40004 	addiu	a0,s6,4
    5244:	0c00081a 	jal	2068 <_ZN6System8Registry8instanceEv.local.10>
    5248:	00000000 	nop
    524c:	8c440094 	lw	a0,148(v0)
    5250:	0c000ef1 	jal	3bc4 <b32tohex(unsigned int)>
    5254:	00000000 	nop
    5258:	00402021 	move	a0,v0
    525c:	0c000930 	jal	24c0 <System::Bus::UART::write_waiting(long long)>
    5260:	00602821 	move	a1,v1
    5264:	3c048000 	lui	a0,0x8000
    5268:	0c0008d3 	jal	234c <_ZN6System3Bus4UART13write_waitingEPKcj.constprop.37>
    526c:	24840008 	addiu	a0,a0,8
    5270:	0800177a 	j	5de8 <Radio::Messages::consoleHandler(char*)+0x2190>
    5274:	24020008 	li	v0,8
    5278:	0c00081a 	jal	2068 <_ZN6System8Registry8instanceEv.local.10>
    527c:	3c168000 	lui	s6,0x8000
    5280:	8c440040 	lw	a0,64(v0)
    5284:	0c000ef1 	jal	3bc4 <b32tohex(unsigned int)>
    5288:	26100001 	addiu	s0,s0,1
    528c:	00602821 	move	a1,v1
    5290:	0c000930 	jal	24c0 <System::Bus::UART::write_waiting(long long)>
    5294:	00402021 	move	a0,v0
    5298:	0c0008d3 	jal	234c <_ZN6System3Bus4UART13write_waitingEPKcj.constprop.37>
    529c:	26c40004 	addiu	a0,s6,4
    52a0:	0c00081a 	jal	2068 <_ZN6System8Registry8instanceEv.local.10>
    52a4:	00000000 	nop
    52a8:	8c440044 	lw	a0,68(v0)
    52ac:	0c000ef1 	jal	3bc4 <b32tohex(unsigned int)>
    52b0:	00000000 	nop
    52b4:	00602821 	move	a1,v1
    52b8:	0c000930 	jal	24c0 <System::Bus::UART::write_waiting(long long)>
    52bc:	00402021 	move	a0,v0
    52c0:	0c0008d3 	jal	234c <_ZN6System3Bus4UART13write_waitingEPKcj.constprop.37>
    52c4:	26c40004 	addiu	a0,s6,4
    52c8:	0c00081a 	jal	2068 <_ZN6System8Registry8instanceEv.local.10>
    52cc:	00000000 	nop
    52d0:	8c440048 	lw	a0,72(v0)
    52d4:	0c000ef1 	jal	3bc4 <b32tohex(unsigned int)>
    52d8:	00000000 	nop
    52dc:	00402021 	move	a0,v0
    52e0:	0c000930 	jal	24c0 <System::Bus::UART::write_waiting(long long)>
    52e4:	00602821 	move	a1,v1
    52e8:	3c048000 	lui	a0,0x8000
    52ec:	0c0008d3 	jal	234c <_ZN6System3Bus4UART13write_waitingEPKcj.constprop.37>
    52f0:	24840008 	addiu	a0,a0,8
    52f4:	0800177a 	j	5de8 <Radio::Messages::consoleHandler(char*)+0x2190>
    52f8:	24020008 	li	v0,8
    52fc:	0c00081a 	jal	2068 <_ZN6System8Registry8instanceEv.local.10>
    5300:	3c168000 	lui	s6,0x8000
    5304:	8c44007c 	lw	a0,124(v0)
    5308:	0c000ef1 	jal	3bc4 <b32tohex(unsigned int)>
    530c:	26100001 	addiu	s0,s0,1
    5310:	00602821 	move	a1,v1
    5314:	0c000930 	jal	24c0 <System::Bus::UART::write_waiting(long long)>
    5318:	00402021 	move	a0,v0
    531c:	0c0008d3 	jal	234c <_ZN6System3Bus4UART13write_waitingEPKcj.constprop.37>
    5320:	26c40004 	addiu	a0,s6,4
    5324:	0c00081a 	jal	2068 <_ZN6System8Registry8instanceEv.local.10>
    5328:	00000000 	nop
    532c:	8c440080 	lw	a0,128(v0)
    5330:	0c000ef1 	jal	3bc4 <b32tohex(unsigned int)>
    5334:	00000000 	nop
    5338:	00602821 	move	a1,v1
    533c:	0c000930 	jal	24c0 <System::Bus::UART::write_waiting(long long)>
    5340:	00402021 	move	a0,v0
    5344:	0c0008d3 	jal	234c <_ZN6System3Bus4UART13write_waitingEPKcj.constprop.37>
    5348:	26c40004 	addiu	a0,s6,4
    534c:	0c00081a 	jal	2068 <_ZN6System8Registry8instanceEv.local.10>
    5350:	00000000 	nop
    5354:	8c440084 	lw	a0,132(v0)
    5358:	0c000ef1 	jal	3bc4 <b32tohex(unsigned int)>
    535c:	00000000 	nop
    5360:	00402021 	move	a0,v0
    5364:	0c000930 	jal	24c0 <System::Bus::UART::write_waiting(long long)>
    5368:	00602821 	move	a1,v1
    536c:	3c048000 	lui	a0,0x8000
    5370:	0c0008d3 	jal	234c <_ZN6System3Bus4UART13write_waitingEPKcj.constprop.37>
    5374:	24840008 	addiu	a0,a0,8
    5378:	0800177a 	j	5de8 <Radio::Messages::consoleHandler(char*)+0x2190>
    537c:	24020008 	li	v0,8
    5380:	0c00081a 	jal	2068 <_ZN6System8Registry8instanceEv.local.10>
    5384:	26100001 	addiu	s0,s0,1
    5388:	8c440054 	lw	a0,84(v0)
    538c:	0c000e8d 	jal	3a34 <b32todec(int)>
    5390:	00000000 	nop
    5394:	00402021 	move	a0,v0
    5398:	0c000930 	jal	24c0 <System::Bus::UART::write_waiting(long long)>
    539c:	00602821 	move	a1,v1
    53a0:	3c048000 	lui	a0,0x8000
    53a4:	0c0008d3 	jal	234c <_ZN6System3Bus4UART13write_waitingEPKcj.constprop.37>
    53a8:	24840008 	addiu	a0,a0,8
    53ac:	0800177a 	j	5de8 <Radio::Messages::consoleHandler(char*)+0x2190>
    53b0:	24020008 	li	v0,8
    53b4:	0c00081a 	jal	2068 <_ZN6System8Registry8instanceEv.local.10>
    53b8:	3c168000 	lui	s6,0x8000
    53bc:	8c440000 	lw	a0,0(v0)
    53c0:	0c000ef1 	jal	3bc4 <b32tohex(unsigned int)>
    53c4:	26100001 	addiu	s0,s0,1
    53c8:	00602821 	move	a1,v1
    53cc:	0c000930 	jal	24c0 <System::Bus::UART::write_waiting(long long)>
    53d0:	00402021 	move	a0,v0
    53d4:	0c0008d3 	jal	234c <_ZN6System3Bus4UART13write_waitingEPKcj.constprop.37>
    53d8:	26c40004 	addiu	a0,s6,4
    53dc:	0c00081a 	jal	2068 <_ZN6System8Registry8instanceEv.local.10>
    53e0:	00000000 	nop
    53e4:	8c440004 	lw	a0,4(v0)
    53e8:	0c000ef1 	jal	3bc4 <b32tohex(unsigned int)>
    53ec:	00000000 	nop
    53f0:	00602821 	move	a1,v1
    53f4:	0c000930 	jal	24c0 <System::Bus::UART::write_waiting(long long)>
    53f8:	00402021 	move	a0,v0
    53fc:	0c0008d3 	jal	234c <_ZN6System3Bus4UART13write_waitingEPKcj.constprop.37>
    5400:	26c40004 	addiu	a0,s6,4
    5404:	0c00081a 	jal	2068 <_ZN6System8Registry8instanceEv.local.10>
    5408:	00000000 	nop
    540c:	8c440008 	lw	a0,8(v0)
    5410:	0c000ef1 	jal	3bc4 <b32tohex(unsigned int)>
    5414:	00000000 	nop
    5418:	00602821 	move	a1,v1
    541c:	0c000930 	jal	24c0 <System::Bus::UART::write_waiting(long long)>
    5420:	00402021 	move	a0,v0
    5424:	0c0008d3 	jal	234c <_ZN6System3Bus4UART13write_waitingEPKcj.constprop.37>
    5428:	26c40004 	addiu	a0,s6,4
    542c:	0c00081a 	jal	2068 <_ZN6System8Registry8instanceEv.local.10>
    5430:	00000000 	nop
    5434:	8c44000c 	lw	a0,12(v0)
    5438:	0c000ef1 	jal	3bc4 <b32tohex(unsigned int)>
    543c:	00000000 	nop
    5440:	00402021 	move	a0,v0
    5444:	0c000930 	jal	24c0 <System::Bus::UART::write_waiting(long long)>
    5448:	00602821 	move	a1,v1
    544c:	3c048000 	lui	a0,0x8000
    5450:	0c0008d3 	jal	234c <_ZN6System3Bus4UART13write_waitingEPKcj.constprop.37>
    5454:	24840008 	addiu	a0,a0,8
    5458:	0800177a 	j	5de8 <Radio::Messages::consoleHandler(char*)+0x2190>
    545c:	24020008 	li	v0,8
    5460:	0c00081a 	jal	2068 <_ZN6System8Registry8instanceEv.local.10>
    5464:	26100001 	addiu	s0,s0,1
    5468:	8c440050 	lw	a0,80(v0)
    546c:	0c000e8d 	jal	3a34 <b32todec(int)>
    5470:	00000000 	nop
    5474:	00402021 	move	a0,v0
    5478:	0c000930 	jal	24c0 <System::Bus::UART::write_waiting(long long)>
    547c:	00602821 	move	a1,v1
    5480:	3c048000 	lui	a0,0x8000
    5484:	0c0008d3 	jal	234c <_ZN6System3Bus4UART13write_waitingEPKcj.constprop.37>
    5488:	24840008 	addiu	a0,a0,8
    548c:	0800177a 	j	5de8 <Radio::Messages::consoleHandler(char*)+0x2190>
    5490:	24020008 	li	v0,8
    5494:	0c00081a 	jal	2068 <_ZN6System8Registry8instanceEv.local.10>
    5498:	26100001 	addiu	s0,s0,1
    549c:	8c440060 	lw	a0,96(v0)
    54a0:	0c000ef1 	jal	3bc4 <b32tohex(unsigned int)>
    54a4:	00000000 	nop
    54a8:	00402021 	move	a0,v0
    54ac:	0c000930 	jal	24c0 <System::Bus::UART::write_waiting(long long)>
    54b0:	00602821 	move	a1,v1
    54b4:	3c048000 	lui	a0,0x8000
    54b8:	0c0008d3 	jal	234c <_ZN6System3Bus4UART13write_waitingEPKcj.constprop.37>
    54bc:	24840008 	addiu	a0,a0,8
    54c0:	0800177a 	j	5de8 <Radio::Messages::consoleHandler(char*)+0x2190>
    54c4:	24020008 	li	v0,8
    54c8:	0c0008d3 	jal	234c <_ZN6System3Bus4UART13write_waitingEPKcj.constprop.37>
    54cc:	26640000 	addiu	a0,s3,0
    54d0:	08001779 	j	5de4 <Radio::Messages::consoleHandler(char*)+0x218c>
    54d4:	24020008 	li	v0,8
    54d8:	2402002d 	li	v0,45
    54dc:	164200c9 	bne	s2,v0,5804 <Radio::Messages::consoleHandler(char*)+0x1bac>
    54e0:	00000000 	nop
    54e4:	080015fb 	j	57ec <Radio::Messages::consoleHandler(char*)+0x1b94>
    54e8:	27a30010 	addiu	v1,sp,16
    54ec:	2402002d 	li	v0,45
    54f0:	164200b7 	bne	s2,v0,57d0 <Radio::Messages::consoleHandler(char*)+0x1b78>
    54f4:	00000000 	nop
    54f8:	080015ee 	j	57b8 <Radio::Messages::consoleHandler(char*)+0x1b60>
    54fc:	00111080 	sll	v0,s1,0x2
    5500:	2402002d 	li	v0,45
    5504:	164200da 	bne	s2,v0,5870 <Radio::Messages::consoleHandler(char*)+0x1c18>
    5508:	00000000 	nop
    550c:	08001616 	j	5858 <Radio::Messages::consoleHandler(char*)+0x1c00>
    5510:	00111080 	sll	v0,s1,0x2
    5514:	2402002d 	li	v0,45
    5518:	164200a0 	bne	s2,v0,579c <Radio::Messages::consoleHandler(char*)+0x1b44>
    551c:	00000000 	nop
    5520:	080015e1 	j	5784 <Radio::Messages::consoleHandler(char*)+0x1b2c>
    5524:	00111080 	sll	v0,s1,0x2
    5528:	2402002d 	li	v0,45
    552c:	164200ec 	bne	s2,v0,58e0 <Radio::Messages::consoleHandler(char*)+0x1c88>
    5530:	00000000 	nop
    5534:	08001632 	j	58c8 <Radio::Messages::consoleHandler(char*)+0x1c70>
    5538:	27a30010 	addiu	v1,sp,16
    553c:	2402002d 	li	v0,45
    5540:	164200bd 	bne	s2,v0,5838 <Radio::Messages::consoleHandler(char*)+0x1be0>
    5544:	00000000 	nop
    5548:	08001608 	j	5820 <Radio::Messages::consoleHandler(char*)+0x1bc8>
    554c:	00111080 	sll	v0,s1,0x2
    5550:	2402002d 	li	v0,45
    5554:	164200d4 	bne	s2,v0,58a8 <Radio::Messages::consoleHandler(char*)+0x1c50>
    5558:	00000000 	nop
    555c:	08001624 	j	5890 <Radio::Messages::consoleHandler(char*)+0x1c38>
    5560:	00111080 	sll	v0,s1,0x2
    5564:	0c00081a 	jal	2068 <_ZN6System8Registry8instanceEv.local.10>
    5568:	26100001 	addiu	s0,s0,1
    556c:	8c440058 	lw	a0,88(v0)
    5570:	0c000e8d 	jal	3a34 <b32todec(int)>
    5574:	00000000 	nop
    5578:	00402021 	move	a0,v0
    557c:	0c000930 	jal	24c0 <System::Bus::UART::write_waiting(long long)>
    5580:	00602821 	move	a1,v1
    5584:	3c048000 	lui	a0,0x8000
    5588:	0c0008d3 	jal	234c <_ZN6System3Bus4UART13write_waitingEPKcj.constprop.37>
    558c:	24840008 	addiu	a0,a0,8
    5590:	0800177a 	j	5de8 <Radio::Messages::consoleHandler(char*)+0x2190>
    5594:	2402000a 	li	v0,10
    5598:	08001779 	j	5de4 <Radio::Messages::consoleHandler(char*)+0x218c>
    559c:	24020013 	li	v0,19
    55a0:	08001779 	j	5de4 <Radio::Messages::consoleHandler(char*)+0x218c>
    55a4:	2402001a 	li	v0,26
    55a8:	08001779 	j	5de4 <Radio::Messages::consoleHandler(char*)+0x218c>
    55ac:	24020024 	li	v0,36
    55b0:	08001779 	j	5de4 <Radio::Messages::consoleHandler(char*)+0x218c>
    55b4:	24020027 	li	v0,39
    55b8:	08001779 	j	5de4 <Radio::Messages::consoleHandler(char*)+0x218c>
    55bc:	24020036 	li	v0,54
    55c0:	08001779 	j	5de4 <Radio::Messages::consoleHandler(char*)+0x218c>
    55c4:	24020039 	li	v0,57
    55c8:	08001779 	j	5de4 <Radio::Messages::consoleHandler(char*)+0x218c>
    55cc:	24020042 	li	v0,66
    55d0:	08000f2b 	j	3cac <Radio::Messages::consoleHandler(char*)+0x54>
    55d4:	26100001 	addiu	s0,s0,1
    55d8:	08001779 	j	5de4 <Radio::Messages::consoleHandler(char*)+0x218c>
    55dc:	24020071 	li	v0,113
    55e0:	08000f2b 	j	3cac <Radio::Messages::consoleHandler(char*)+0x54>
    55e4:	26100001 	addiu	s0,s0,1
    55e8:	08001779 	j	5de4 <Radio::Messages::consoleHandler(char*)+0x218c>
    55ec:	24020091 	li	v0,145
    55f0:	08001779 	j	5de4 <Radio::Messages::consoleHandler(char*)+0x218c>
    55f4:	2402009b 	li	v0,155
    55f8:	2402002d 	li	v0,45
    55fc:	164200ea 	bne	s2,v0,59a8 <Radio::Messages::consoleHandler(char*)+0x1d50>
    5600:	00118880 	sll	s1,s1,0x2
    5604:	08001665 	j	5994 <Radio::Messages::consoleHandler(char*)+0x1d3c>
    5608:	27a60010 	addiu	a2,sp,16
    560c:	2402002d 	li	v0,45
    5610:	164200d3 	bne	s2,v0,5960 <Radio::Messages::consoleHandler(char*)+0x1d08>
    5614:	00118880 	sll	s1,s1,0x2
    5618:	08001653 	j	594c <Radio::Messages::consoleHandler(char*)+0x1cf4>
    561c:	27a50010 	addiu	a1,sp,16
    5620:	2402002d 	li	v0,45
    5624:	164200fc 	bne	s2,v0,5a18 <Radio::Messages::consoleHandler(char*)+0x1dc0>
    5628:	00118880 	sll	s1,s1,0x2
    562c:	08001681 	j	5a04 <Radio::Messages::consoleHandler(char*)+0x1dac>
    5630:	27a30010 	addiu	v1,sp,16
    5634:	2402002d 	li	v0,45
    5638:	164200b7 	bne	s2,v0,5918 <Radio::Messages::consoleHandler(char*)+0x1cc0>
    563c:	00000000 	nop
    5640:	08001640 	j	5900 <Radio::Messages::consoleHandler(char*)+0x1ca8>
    5644:	00118880 	sll	s1,s1,0x2
    5648:	2402002d 	li	v0,45
    564c:	16420108 	bne	s2,v0,5a70 <Radio::Messages::consoleHandler(char*)+0x1e18>
    5650:	00118880 	sll	s1,s1,0x2
    5654:	08001697 	j	5a5c <Radio::Messages::consoleHandler(char*)+0x1e04>
    5658:	27a50010 	addiu	a1,sp,16
    565c:	2402002d 	li	v0,45
    5660:	164200e3 	bne	s2,v0,59f0 <Radio::Messages::consoleHandler(char*)+0x1d98>
    5664:	27a20010 	addiu	v0,sp,16
    5668:	08001677 	j	59dc <Radio::Messages::consoleHandler(char*)+0x1d84>
    566c:	00118880 	sll	s1,s1,0x2
    5670:	2402002d 	li	v0,45
    5674:	164200f4 	bne	s2,v0,5a48 <Radio::Messages::consoleHandler(char*)+0x1df0>
    5678:	00118880 	sll	s1,s1,0x2
    567c:	0800168d 	j	5a34 <Radio::Messages::consoleHandler(char*)+0x1ddc>
    5680:	27a40010 	addiu	a0,sp,16
    5684:	27a40010 	addiu	a0,sp,16
    5688:	00111880 	sll	v1,s1,0x2
    568c:	00831821 	addu	v1,a0,v1
    5690:	8c640000 	lw	a0,0(v1)
    5694:	2405000a 	li	a1,10
    5698:	00a40018 	mult	a1,a0
    569c:	82040000 	lb	a0,0(s0)
    56a0:	00000000 	nop
    56a4:	2484ffd0 	addiu	a0,a0,-48
    56a8:	00003012 	mflo	a2
    56ac:	00c42021 	addu	a0,a2,a0
    56b0:	08001779 	j	5de4 <Radio::Messages::consoleHandler(char*)+0x218c>
    56b4:	ac640000 	sw	a0,0(v1)
    56b8:	080015b9 	j	56e4 <Radio::Messages::consoleHandler(char*)+0x1a8c>
    56bc:	24020057 	li	v0,87
    56c0:	080015b9 	j	56e4 <Radio::Messages::consoleHandler(char*)+0x1a8c>
    56c4:	2402005a 	li	v0,90
    56c8:	080015b9 	j	56e4 <Radio::Messages::consoleHandler(char*)+0x1a8c>
    56cc:	2402006b 	li	v0,107
    56d0:	080015b9 	j	56e4 <Radio::Messages::consoleHandler(char*)+0x1a8c>
    56d4:	2402006e 	li	v0,110
    56d8:	080015b9 	j	56e4 <Radio::Messages::consoleHandler(char*)+0x1a8c>
    56dc:	24020084 	li	v0,132
    56e0:	24020087 	li	v0,135
    56e4:	2403002d 	li	v1,45
    56e8:	16430007 	bne	s2,v1,5708 <Radio::Messages::consoleHandler(char*)+0x1ab0>
    56ec:	27a40010 	addiu	a0,sp,16
    56f0:	00111880 	sll	v1,s1,0x2
    56f4:	00831821 	addu	v1,a0,v1
    56f8:	8c640000 	lw	a0,0(v1)
    56fc:	2412002b 	li	s2,43
    5700:	00042023 	negu	a0,a0
    5704:	ac640000 	sw	a0,0(v1)
    5708:	08001779 	j	5de4 <Radio::Messages::consoleHandler(char*)+0x218c>
    570c:	26310001 	addiu	s1,s1,1
    5710:	080015db 	j	576c <Radio::Messages::consoleHandler(char*)+0x1b14>
    5714:	24020055 	li	v0,85
    5718:	080015db 	j	576c <Radio::Messages::consoleHandler(char*)+0x1b14>
    571c:	24020058 	li	v0,88
    5720:	080015db 	j	576c <Radio::Messages::consoleHandler(char*)+0x1b14>
    5724:	2402005b 	li	v0,91
    5728:	080015db 	j	576c <Radio::Messages::consoleHandler(char*)+0x1b14>
    572c:	24020069 	li	v0,105
    5730:	080015db 	j	576c <Radio::Messages::consoleHandler(char*)+0x1b14>
    5734:	2402006c 	li	v0,108
    5738:	080015db 	j	576c <Radio::Messages::consoleHandler(char*)+0x1b14>
    573c:	2402006f 	li	v0,111
    5740:	080015db 	j	576c <Radio::Messages::consoleHandler(char*)+0x1b14>
    5744:	24020077 	li	v0,119
    5748:	080015db 	j	576c <Radio::Messages::consoleHandler(char*)+0x1b14>
    574c:	24020082 	li	v0,130
    5750:	080015db 	j	576c <Radio::Messages::consoleHandler(char*)+0x1b14>
    5754:	24020085 	li	v0,133
    5758:	080015db 	j	576c <Radio::Messages::consoleHandler(char*)+0x1b14>
    575c:	24020088 	li	v0,136
    5760:	080015db 	j	576c <Radio::Messages::consoleHandler(char*)+0x1b14>
    5764:	2402008f 	li	v0,143
    5768:	2402009f 	li	v0,159
    576c:	82040000 	lb	a0,0(s0)
    5770:	2403002d 	li	v1,45
    5774:	1483019b 	bne	a0,v1,5de4 <Radio::Messages::consoleHandler(char*)+0x218c>
    5778:	00000000 	nop
    577c:	08001779 	j	5de4 <Radio::Messages::consoleHandler(char*)+0x218c>
    5780:	2412002d 	li	s2,45
    5784:	27a50010 	addiu	a1,sp,16
    5788:	00a21021 	addu	v0,a1,v0
    578c:	8c430000 	lw	v1,0(v0)
    5790:	2412002b 	li	s2,43
    5794:	00031823 	negu	v1,v1
    5798:	ac430000 	sw	v1,0(v0)
    579c:	8fa40010 	lw	a0,16(sp)
    57a0:	8fa50014 	lw	a1,20(sp)
    57a4:	8fa60018 	lw	a2,24(sp)
    57a8:	0c0008ee 	jal	23b8 <set_pitchroll_pid(int, int, int)>
    57ac:	26310001 	addiu	s1,s1,1
    57b0:	08001779 	j	5de4 <Radio::Messages::consoleHandler(char*)+0x218c>
    57b4:	24020008 	li	v0,8
    57b8:	27a60010 	addiu	a2,sp,16
    57bc:	00c21021 	addu	v0,a2,v0
    57c0:	8c430000 	lw	v1,0(v0)
    57c4:	2412002b 	li	s2,43
    57c8:	00031823 	negu	v1,v1
    57cc:	ac430000 	sw	v1,0(v0)
    57d0:	8fa40010 	lw	a0,16(sp)
    57d4:	8fa50014 	lw	a1,20(sp)
    57d8:	8fa60018 	lw	a2,24(sp)
    57dc:	0c000904 	jal	2410 <set_heading_pid(int, int, int)>
    57e0:	26310001 	addiu	s1,s1,1
    57e4:	08001779 	j	5de4 <Radio::Messages::consoleHandler(char*)+0x218c>
    57e8:	24020008 	li	v0,8
    57ec:	00111080 	sll	v0,s1,0x2
    57f0:	00621021 	addu	v0,v1,v0
    57f4:	8c430000 	lw	v1,0(v0)
    57f8:	2412002b 	li	s2,43
    57fc:	00031823 	negu	v1,v1
    5800:	ac430000 	sw	v1,0(v0)
    5804:	8fa40010 	lw	a0,16(sp)
    5808:	8fa50014 	lw	a1,20(sp)
    580c:	8fa60018 	lw	a2,24(sp)
    5810:	0c00091a 	jal	2468 <set_altitude_pid(int, int, int)>
    5814:	26310001 	addiu	s1,s1,1
    5818:	08001779 	j	5de4 <Radio::Messages::consoleHandler(char*)+0x218c>
    581c:	24020008 	li	v0,8
    5820:	27a40010 	addiu	a0,sp,16
    5824:	00821021 	addu	v0,a0,v0
    5828:	8c430000 	lw	v1,0(v0)
    582c:	2412002b 	li	s2,43
    5830:	00031823 	negu	v1,v1
    5834:	ac430000 	sw	v1,0(v0)
    5838:	8fb60010 	lw	s6,16(sp)
    583c:	0c00081a 	jal	2068 <_ZN6System8Registry8instanceEv.local.10>
    5840:	26310001 	addiu	s1,s1,1
    5844:	ac560060 	sw	s6,96(v0)
    5848:	0c0008d3 	jal	234c <_ZN6System3Bus4UART13write_waitingEPKcj.constprop.37>
    584c:	26640000 	addiu	a0,s3,0
    5850:	08001779 	j	5de4 <Radio::Messages::consoleHandler(char*)+0x218c>
    5854:	24020008 	li	v0,8
    5858:	27a50010 	addiu	a1,sp,16
    585c:	00a21021 	addu	v0,a1,v0
    5860:	8c430000 	lw	v1,0(v0)
    5864:	2412002b 	li	s2,43
    5868:	00031823 	negu	v1,v1
    586c:	ac430000 	sw	v1,0(v0)
    5870:	8fb60010 	lw	s6,16(sp)
    5874:	0c00081a 	jal	2068 <_ZN6System8Registry8instanceEv.local.10>
    5878:	26310001 	addiu	s1,s1,1
    587c:	ac560070 	sw	s6,112(v0)
    5880:	0c0008d3 	jal	234c <_ZN6System3Bus4UART13write_waitingEPKcj.constprop.37>
    5884:	26640000 	addiu	a0,s3,0
    5888:	08001779 	j	5de4 <Radio::Messages::consoleHandler(char*)+0x218c>
    588c:	24020008 	li	v0,8
    5890:	27a60010 	addiu	a2,sp,16
    5894:	00c21021 	addu	v0,a2,v0
    5898:	8c430000 	lw	v1,0(v0)
    589c:	2412002b 	li	s2,43
    58a0:	00031823 	negu	v1,v1
    58a4:	ac430000 	sw	v1,0(v0)
    58a8:	8fb60010 	lw	s6,16(sp)
    58ac:	0c00081a 	jal	2068 <_ZN6System8Registry8instanceEv.local.10>
    58b0:	26310001 	addiu	s1,s1,1
    58b4:	ac560074 	sw	s6,116(v0)
    58b8:	0c0008d3 	jal	234c <_ZN6System3Bus4UART13write_waitingEPKcj.constprop.37>
    58bc:	26640000 	addiu	a0,s3,0
    58c0:	08001779 	j	5de4 <Radio::Messages::consoleHandler(char*)+0x218c>
    58c4:	24020008 	li	v0,8
    58c8:	00111080 	sll	v0,s1,0x2
    58cc:	00621021 	addu	v0,v1,v0
    58d0:	8c430000 	lw	v1,0(v0)
    58d4:	2412002b 	li	s2,43
    58d8:	00031823 	negu	v1,v1
    58dc:	ac430000 	sw	v1,0(v0)
    58e0:	8fb60010 	lw	s6,16(sp)
    58e4:	0c00081a 	jal	2068 <_ZN6System8Registry8instanceEv.local.10>
    58e8:	26310001 	addiu	s1,s1,1
    58ec:	ac560078 	sw	s6,120(v0)
    58f0:	0c0008d3 	jal	234c <_ZN6System3Bus4UART13write_waitingEPKcj.constprop.37>
    58f4:	26640000 	addiu	a0,s3,0
    58f8:	08001779 	j	5de4 <Radio::Messages::consoleHandler(char*)+0x218c>
    58fc:	24020008 	li	v0,8
    5900:	27a40010 	addiu	a0,sp,16
    5904:	00918821 	addu	s1,a0,s1
    5908:	8e220000 	lw	v0,0(s1)
    590c:	00000000 	nop
    5910:	00021023 	negu	v0,v0
    5914:	ae220000 	sw	v0,0(s1)
    5918:	8fa40010 	lw	a0,16(sp)
    591c:	8fa50014 	lw	a1,20(sp)
    5920:	8fa60018 	lw	a2,24(sp)
    5924:	8fbf0044 	lw	ra,68(sp)
    5928:	8fb60040 	lw	s6,64(sp)
    592c:	8fb5003c 	lw	s5,60(sp)
    5930:	8fb40038 	lw	s4,56(sp)
    5934:	8fb30034 	lw	s3,52(sp)
    5938:	8fb20030 	lw	s2,48(sp)
    593c:	8fb1002c 	lw	s1,44(sp)
    5940:	8fb00028 	lw	s0,40(sp)
    5944:	080008ee 	j	23b8 <set_pitchroll_pid(int, int, int)>
    5948:	27bd0048 	addiu	sp,sp,72
    594c:	00b18821 	addu	s1,a1,s1
    5950:	8e220000 	lw	v0,0(s1)
    5954:	00000000 	nop
    5958:	00021023 	negu	v0,v0
    595c:	ae220000 	sw	v0,0(s1)
    5960:	8fa40010 	lw	a0,16(sp)
    5964:	8fa50014 	lw	a1,20(sp)
    5968:	8fa60018 	lw	a2,24(sp)
    596c:	8fbf0044 	lw	ra,68(sp)
    5970:	8fb60040 	lw	s6,64(sp)
    5974:	8fb5003c 	lw	s5,60(sp)
    5978:	8fb40038 	lw	s4,56(sp)
    597c:	8fb30034 	lw	s3,52(sp)
    5980:	8fb20030 	lw	s2,48(sp)
    5984:	8fb1002c 	lw	s1,44(sp)
    5988:	8fb00028 	lw	s0,40(sp)
    598c:	08000904 	j	2410 <set_heading_pid(int, int, int)>
    5990:	27bd0048 	addiu	sp,sp,72
    5994:	00d18821 	addu	s1,a2,s1
    5998:	8e220000 	lw	v0,0(s1)
    599c:	00000000 	nop
    59a0:	00021023 	negu	v0,v0
    59a4:	ae220000 	sw	v0,0(s1)
    59a8:	8fa40010 	lw	a0,16(sp)
    59ac:	8fa50014 	lw	a1,20(sp)
    59b0:	8fa60018 	lw	a2,24(sp)
    59b4:	8fbf0044 	lw	ra,68(sp)
    59b8:	8fb60040 	lw	s6,64(sp)
    59bc:	8fb5003c 	lw	s5,60(sp)
    59c0:	8fb40038 	lw	s4,56(sp)
    59c4:	8fb30034 	lw	s3,52(sp)
    59c8:	8fb20030 	lw	s2,48(sp)
    59cc:	8fb1002c 	lw	s1,44(sp)
    59d0:	8fb00028 	lw	s0,40(sp)
    59d4:	0800091a 	j	2468 <set_altitude_pid(int, int, int)>
    59d8:	27bd0048 	addiu	sp,sp,72
    59dc:	00518821 	addu	s1,v0,s1
    59e0:	8e220000 	lw	v0,0(s1)
    59e4:	00000000 	nop
    59e8:	00021023 	negu	v0,v0
    59ec:	ae220000 	sw	v0,0(s1)
    59f0:	8fb00010 	lw	s0,16(sp)
    59f4:	0c00081a 	jal	2068 <_ZN6System8Registry8instanceEv.local.10>
    59f8:	00000000 	nop
    59fc:	0800168a 	j	5a28 <Radio::Messages::consoleHandler(char*)+0x1dd0>
    5a00:	ac500060 	sw	s0,96(v0)
    5a04:	00718821 	addu	s1,v1,s1
    5a08:	8e220000 	lw	v0,0(s1)
    5a0c:	00000000 	nop
    5a10:	00021023 	negu	v0,v0
    5a14:	ae220000 	sw	v0,0(s1)
    5a18:	8fb00010 	lw	s0,16(sp)
    5a1c:	0c00081a 	jal	2068 <_ZN6System8Registry8instanceEv.local.10>
    5a20:	00000000 	nop
    5a24:	ac500070 	sw	s0,112(v0)
    5a28:	3c048000 	lui	a0,0x8000
    5a2c:	0800177e 	j	5df8 <Radio::Messages::consoleHandler(char*)+0x21a0>
    5a30:	24840000 	addiu	a0,a0,0
    5a34:	00918821 	addu	s1,a0,s1
    5a38:	8e220000 	lw	v0,0(s1)
    5a3c:	00000000 	nop
    5a40:	00021023 	negu	v0,v0
    5a44:	ae220000 	sw	v0,0(s1)
    5a48:	8fb00010 	lw	s0,16(sp)
    5a4c:	0c00081a 	jal	2068 <_ZN6System8Registry8instanceEv.local.10>
    5a50:	00000000 	nop
    5a54:	0800168a 	j	5a28 <Radio::Messages::consoleHandler(char*)+0x1dd0>
    5a58:	ac500074 	sw	s0,116(v0)
    5a5c:	00b18821 	addu	s1,a1,s1
    5a60:	8e220000 	lw	v0,0(s1)
    5a64:	00000000 	nop
    5a68:	00021023 	negu	v0,v0
    5a6c:	ae220000 	sw	v0,0(s1)
    5a70:	8fb00010 	lw	s0,16(sp)
    5a74:	0c00081a 	jal	2068 <_ZN6System8Registry8instanceEv.local.10>
    5a78:	00000000 	nop
    5a7c:	0800168a 	j	5a28 <Radio::Messages::consoleHandler(char*)+0x1dd0>
    5a80:	ac500078 	sw	s0,120(v0)
    5a84:	08000f2b 	j	3cac <Radio::Messages::consoleHandler(char*)+0x54>
    5a88:	26100001 	addiu	s0,s0,1
    5a8c:	08000f2b 	j	3cac <Radio::Messages::consoleHandler(char*)+0x54>
    5a90:	26100001 	addiu	s0,s0,1
    5a94:	08000f2b 	j	3cac <Radio::Messages::consoleHandler(char*)+0x54>
    5a98:	26100001 	addiu	s0,s0,1
    5a9c:	08000f2b 	j	3cac <Radio::Messages::consoleHandler(char*)+0x54>
    5aa0:	26100001 	addiu	s0,s0,1
    5aa4:	08001779 	j	5de4 <Radio::Messages::consoleHandler(char*)+0x218c>
    5aa8:	24020017 	li	v0,23
    5aac:	08001779 	j	5de4 <Radio::Messages::consoleHandler(char*)+0x218c>
    5ab0:	24020009 	li	v0,9
    5ab4:	08000f2b 	j	3cac <Radio::Messages::consoleHandler(char*)+0x54>
    5ab8:	26100001 	addiu	s0,s0,1
    5abc:	08000f2b 	j	3cac <Radio::Messages::consoleHandler(char*)+0x54>
    5ac0:	26100001 	addiu	s0,s0,1
    5ac4:	08000f2b 	j	3cac <Radio::Messages::consoleHandler(char*)+0x54>
    5ac8:	26100001 	addiu	s0,s0,1
    5acc:	08000f2b 	j	3cac <Radio::Messages::consoleHandler(char*)+0x54>
    5ad0:	26100001 	addiu	s0,s0,1
    5ad4:	08000f2b 	j	3cac <Radio::Messages::consoleHandler(char*)+0x54>
    5ad8:	26100001 	addiu	s0,s0,1
    5adc:	08000f2b 	j	3cac <Radio::Messages::consoleHandler(char*)+0x54>
    5ae0:	26100001 	addiu	s0,s0,1
    5ae4:	08000f2b 	j	3cac <Radio::Messages::consoleHandler(char*)+0x54>
    5ae8:	26100001 	addiu	s0,s0,1
    5aec:	08000f2b 	j	3cac <Radio::Messages::consoleHandler(char*)+0x54>
    5af0:	26100001 	addiu	s0,s0,1
    5af4:	08000f2b 	j	3cac <Radio::Messages::consoleHandler(char*)+0x54>
    5af8:	26100001 	addiu	s0,s0,1
    5afc:	08000f2b 	j	3cac <Radio::Messages::consoleHandler(char*)+0x54>
    5b00:	26100001 	addiu	s0,s0,1
    5b04:	08000f2b 	j	3cac <Radio::Messages::consoleHandler(char*)+0x54>
    5b08:	26100001 	addiu	s0,s0,1
    5b0c:	08000f2b 	j	3cac <Radio::Messages::consoleHandler(char*)+0x54>
    5b10:	26100001 	addiu	s0,s0,1
    5b14:	08000f2b 	j	3cac <Radio::Messages::consoleHandler(char*)+0x54>
    5b18:	26100001 	addiu	s0,s0,1
    5b1c:	08000f2b 	j	3cac <Radio::Messages::consoleHandler(char*)+0x54>
    5b20:	26100001 	addiu	s0,s0,1
    5b24:	08000f2b 	j	3cac <Radio::Messages::consoleHandler(char*)+0x54>
    5b28:	26100001 	addiu	s0,s0,1
    5b2c:	08000f2b 	j	3cac <Radio::Messages::consoleHandler(char*)+0x54>
    5b30:	26100001 	addiu	s0,s0,1
    5b34:	08000f2b 	j	3cac <Radio::Messages::consoleHandler(char*)+0x54>
    5b38:	26100001 	addiu	s0,s0,1
    5b3c:	08000f2b 	j	3cac <Radio::Messages::consoleHandler(char*)+0x54>
    5b40:	26100001 	addiu	s0,s0,1
    5b44:	08000f2b 	j	3cac <Radio::Messages::consoleHandler(char*)+0x54>
    5b48:	26100001 	addiu	s0,s0,1
    5b4c:	08000f2b 	j	3cac <Radio::Messages::consoleHandler(char*)+0x54>
    5b50:	26100001 	addiu	s0,s0,1
    5b54:	08000f2b 	j	3cac <Radio::Messages::consoleHandler(char*)+0x54>
    5b58:	26100001 	addiu	s0,s0,1
    5b5c:	08000f2b 	j	3cac <Radio::Messages::consoleHandler(char*)+0x54>
    5b60:	26100001 	addiu	s0,s0,1
    5b64:	08000f2b 	j	3cac <Radio::Messages::consoleHandler(char*)+0x54>
    5b68:	26100001 	addiu	s0,s0,1
    5b6c:	08000f2b 	j	3cac <Radio::Messages::consoleHandler(char*)+0x54>
    5b70:	26100001 	addiu	s0,s0,1
    5b74:	08000f2b 	j	3cac <Radio::Messages::consoleHandler(char*)+0x54>
    5b78:	26100001 	addiu	s0,s0,1
    5b7c:	08000f2b 	j	3cac <Radio::Messages::consoleHandler(char*)+0x54>
    5b80:	26100001 	addiu	s0,s0,1
    5b84:	08000f2b 	j	3cac <Radio::Messages::consoleHandler(char*)+0x54>
    5b88:	26100001 	addiu	s0,s0,1
    5b8c:	08000f2b 	j	3cac <Radio::Messages::consoleHandler(char*)+0x54>
    5b90:	26100001 	addiu	s0,s0,1
    5b94:	08000f2b 	j	3cac <Radio::Messages::consoleHandler(char*)+0x54>
    5b98:	26100001 	addiu	s0,s0,1
    5b9c:	08000f2b 	j	3cac <Radio::Messages::consoleHandler(char*)+0x54>
    5ba0:	26100001 	addiu	s0,s0,1
    5ba4:	08000f2b 	j	3cac <Radio::Messages::consoleHandler(char*)+0x54>
    5ba8:	26100001 	addiu	s0,s0,1
    5bac:	08000f2b 	j	3cac <Radio::Messages::consoleHandler(char*)+0x54>
    5bb0:	26100001 	addiu	s0,s0,1
    5bb4:	08000f2b 	j	3cac <Radio::Messages::consoleHandler(char*)+0x54>
    5bb8:	26100001 	addiu	s0,s0,1
    5bbc:	08000f2b 	j	3cac <Radio::Messages::consoleHandler(char*)+0x54>
    5bc0:	26100001 	addiu	s0,s0,1
    5bc4:	08000f2b 	j	3cac <Radio::Messages::consoleHandler(char*)+0x54>
    5bc8:	26100001 	addiu	s0,s0,1
    5bcc:	08000f2b 	j	3cac <Radio::Messages::consoleHandler(char*)+0x54>
    5bd0:	26100001 	addiu	s0,s0,1
    5bd4:	08000f2b 	j	3cac <Radio::Messages::consoleHandler(char*)+0x54>
    5bd8:	26100001 	addiu	s0,s0,1
    5bdc:	08000f2b 	j	3cac <Radio::Messages::consoleHandler(char*)+0x54>
    5be0:	26100001 	addiu	s0,s0,1
    5be4:	08000f2b 	j	3cac <Radio::Messages::consoleHandler(char*)+0x54>
    5be8:	26100001 	addiu	s0,s0,1
    5bec:	08000f2b 	j	3cac <Radio::Messages::consoleHandler(char*)+0x54>
    5bf0:	26100001 	addiu	s0,s0,1
    5bf4:	08000f2b 	j	3cac <Radio::Messages::consoleHandler(char*)+0x54>
    5bf8:	26100001 	addiu	s0,s0,1
    5bfc:	08000f2b 	j	3cac <Radio::Messages::consoleHandler(char*)+0x54>
    5c00:	26100001 	addiu	s0,s0,1
    5c04:	08000f2b 	j	3cac <Radio::Messages::consoleHandler(char*)+0x54>
    5c08:	26100001 	addiu	s0,s0,1
    5c0c:	08000f2b 	j	3cac <Radio::Messages::consoleHandler(char*)+0x54>
    5c10:	26100001 	addiu	s0,s0,1
    5c14:	08000f2b 	j	3cac <Radio::Messages::consoleHandler(char*)+0x54>
    5c18:	26100001 	addiu	s0,s0,1
    5c1c:	08000f2b 	j	3cac <Radio::Messages::consoleHandler(char*)+0x54>
    5c20:	26100001 	addiu	s0,s0,1
    5c24:	08000f2b 	j	3cac <Radio::Messages::consoleHandler(char*)+0x54>
    5c28:	26100001 	addiu	s0,s0,1
    5c2c:	08000f2b 	j	3cac <Radio::Messages::consoleHandler(char*)+0x54>
    5c30:	26100001 	addiu	s0,s0,1
    5c34:	08000f2b 	j	3cac <Radio::Messages::consoleHandler(char*)+0x54>
    5c38:	26100001 	addiu	s0,s0,1
    5c3c:	08000f2b 	j	3cac <Radio::Messages::consoleHandler(char*)+0x54>
    5c40:	26100001 	addiu	s0,s0,1
    5c44:	08000f2b 	j	3cac <Radio::Messages::consoleHandler(char*)+0x54>
    5c48:	26100001 	addiu	s0,s0,1
    5c4c:	08000f2b 	j	3cac <Radio::Messages::consoleHandler(char*)+0x54>
    5c50:	26100001 	addiu	s0,s0,1
    5c54:	08000f2b 	j	3cac <Radio::Messages::consoleHandler(char*)+0x54>
    5c58:	26100001 	addiu	s0,s0,1
    5c5c:	08000f2b 	j	3cac <Radio::Messages::consoleHandler(char*)+0x54>
    5c60:	26100001 	addiu	s0,s0,1
    5c64:	08000f2b 	j	3cac <Radio::Messages::consoleHandler(char*)+0x54>
    5c68:	26100001 	addiu	s0,s0,1
    5c6c:	08000f2b 	j	3cac <Radio::Messages::consoleHandler(char*)+0x54>
    5c70:	26100001 	addiu	s0,s0,1
    5c74:	08000f2b 	j	3cac <Radio::Messages::consoleHandler(char*)+0x54>
    5c78:	26100001 	addiu	s0,s0,1
    5c7c:	08000f2b 	j	3cac <Radio::Messages::consoleHandler(char*)+0x54>
    5c80:	26100001 	addiu	s0,s0,1
    5c84:	08000f2b 	j	3cac <Radio::Messages::consoleHandler(char*)+0x54>
    5c88:	26100001 	addiu	s0,s0,1
    5c8c:	08000f2b 	j	3cac <Radio::Messages::consoleHandler(char*)+0x54>
    5c90:	26100001 	addiu	s0,s0,1
    5c94:	08000f2b 	j	3cac <Radio::Messages::consoleHandler(char*)+0x54>
    5c98:	26100001 	addiu	s0,s0,1
    5c9c:	08000f2b 	j	3cac <Radio::Messages::consoleHandler(char*)+0x54>
    5ca0:	26100001 	addiu	s0,s0,1
    5ca4:	08000f2b 	j	3cac <Radio::Messages::consoleHandler(char*)+0x54>
    5ca8:	26100001 	addiu	s0,s0,1
    5cac:	08000f2b 	j	3cac <Radio::Messages::consoleHandler(char*)+0x54>
    5cb0:	26100001 	addiu	s0,s0,1
    5cb4:	08000f2b 	j	3cac <Radio::Messages::consoleHandler(char*)+0x54>
    5cb8:	26100001 	addiu	s0,s0,1
    5cbc:	08000f2b 	j	3cac <Radio::Messages::consoleHandler(char*)+0x54>
    5cc0:	26100001 	addiu	s0,s0,1
    5cc4:	08000f2b 	j	3cac <Radio::Messages::consoleHandler(char*)+0x54>
    5cc8:	26100001 	addiu	s0,s0,1
    5ccc:	08000f2b 	j	3cac <Radio::Messages::consoleHandler(char*)+0x54>
    5cd0:	26100001 	addiu	s0,s0,1
    5cd4:	08000f2b 	j	3cac <Radio::Messages::consoleHandler(char*)+0x54>
    5cd8:	26100001 	addiu	s0,s0,1
    5cdc:	08000f2b 	j	3cac <Radio::Messages::consoleHandler(char*)+0x54>
    5ce0:	26100001 	addiu	s0,s0,1
    5ce4:	08000f2b 	j	3cac <Radio::Messages::consoleHandler(char*)+0x54>
    5ce8:	26100001 	addiu	s0,s0,1
    5cec:	08000f2b 	j	3cac <Radio::Messages::consoleHandler(char*)+0x54>
    5cf0:	26100001 	addiu	s0,s0,1
    5cf4:	08000f2b 	j	3cac <Radio::Messages::consoleHandler(char*)+0x54>
    5cf8:	26100001 	addiu	s0,s0,1
    5cfc:	08000f2b 	j	3cac <Radio::Messages::consoleHandler(char*)+0x54>
    5d00:	26100001 	addiu	s0,s0,1
    5d04:	08000f2b 	j	3cac <Radio::Messages::consoleHandler(char*)+0x54>
    5d08:	26100001 	addiu	s0,s0,1
    5d0c:	08000f2b 	j	3cac <Radio::Messages::consoleHandler(char*)+0x54>
    5d10:	26100001 	addiu	s0,s0,1
    5d14:	08000f2b 	j	3cac <Radio::Messages::consoleHandler(char*)+0x54>
    5d18:	26100001 	addiu	s0,s0,1
    5d1c:	08000f2b 	j	3cac <Radio::Messages::consoleHandler(char*)+0x54>
    5d20:	26100001 	addiu	s0,s0,1
    5d24:	08000f2b 	j	3cac <Radio::Messages::consoleHandler(char*)+0x54>
    5d28:	26100001 	addiu	s0,s0,1
    5d2c:	08000f2b 	j	3cac <Radio::Messages::consoleHandler(char*)+0x54>
    5d30:	26100001 	addiu	s0,s0,1
    5d34:	08000f2b 	j	3cac <Radio::Messages::consoleHandler(char*)+0x54>
    5d38:	26100001 	addiu	s0,s0,1
    5d3c:	08000f2b 	j	3cac <Radio::Messages::consoleHandler(char*)+0x54>
    5d40:	26100001 	addiu	s0,s0,1
    5d44:	08000f2b 	j	3cac <Radio::Messages::consoleHandler(char*)+0x54>
    5d48:	26100001 	addiu	s0,s0,1
    5d4c:	08000f2b 	j	3cac <Radio::Messages::consoleHandler(char*)+0x54>
    5d50:	26100001 	addiu	s0,s0,1
    5d54:	08000f2b 	j	3cac <Radio::Messages::consoleHandler(char*)+0x54>
    5d58:	26100001 	addiu	s0,s0,1
    5d5c:	08000f2b 	j	3cac <Radio::Messages::consoleHandler(char*)+0x54>
    5d60:	26100001 	addiu	s0,s0,1
    5d64:	08000f2b 	j	3cac <Radio::Messages::consoleHandler(char*)+0x54>
    5d68:	26100001 	addiu	s0,s0,1
    5d6c:	08000f2b 	j	3cac <Radio::Messages::consoleHandler(char*)+0x54>
    5d70:	26100001 	addiu	s0,s0,1
    5d74:	08000f2b 	j	3cac <Radio::Messages::consoleHandler(char*)+0x54>
    5d78:	26100001 	addiu	s0,s0,1
    5d7c:	08000f2b 	j	3cac <Radio::Messages::consoleHandler(char*)+0x54>
    5d80:	26100001 	addiu	s0,s0,1
    5d84:	08000f2b 	j	3cac <Radio::Messages::consoleHandler(char*)+0x54>
    5d88:	26100001 	addiu	s0,s0,1
    5d8c:	08000f2b 	j	3cac <Radio::Messages::consoleHandler(char*)+0x54>
    5d90:	26100001 	addiu	s0,s0,1
    5d94:	08000f2b 	j	3cac <Radio::Messages::consoleHandler(char*)+0x54>
    5d98:	26100001 	addiu	s0,s0,1
    5d9c:	08000f2b 	j	3cac <Radio::Messages::consoleHandler(char*)+0x54>
    5da0:	26100001 	addiu	s0,s0,1
    5da4:	08000f2b 	j	3cac <Radio::Messages::consoleHandler(char*)+0x54>
    5da8:	26100001 	addiu	s0,s0,1
    5dac:	08000f2b 	j	3cac <Radio::Messages::consoleHandler(char*)+0x54>
    5db0:	26100001 	addiu	s0,s0,1
    5db4:	08000f2b 	j	3cac <Radio::Messages::consoleHandler(char*)+0x54>
    5db8:	26100001 	addiu	s0,s0,1
    5dbc:	08000f2b 	j	3cac <Radio::Messages::consoleHandler(char*)+0x54>
    5dc0:	26100001 	addiu	s0,s0,1
    5dc4:	08000f2b 	j	3cac <Radio::Messages::consoleHandler(char*)+0x54>
    5dc8:	26100001 	addiu	s0,s0,1
    5dcc:	08000f2b 	j	3cac <Radio::Messages::consoleHandler(char*)+0x54>
    5dd0:	26100001 	addiu	s0,s0,1
    5dd4:	08000f2b 	j	3cac <Radio::Messages::consoleHandler(char*)+0x54>
    5dd8:	26100001 	addiu	s0,s0,1
    5ddc:	08000f2b 	j	3cac <Radio::Messages::consoleHandler(char*)+0x54>
    5de0:	26100001 	addiu	s0,s0,1
    5de4:	26100001 	addiu	s0,s0,1
    5de8:	08000f2c 	j	3cb0 <Radio::Messages::consoleHandler(char*)+0x58>
    5dec:	2443ffff 	addiu	v1,v0,-1
    5df0:	3c048000 	lui	a0,0x8000
    5df4:	24840158 	addiu	a0,a0,344
    5df8:	8fbf0044 	lw	ra,68(sp)
    5dfc:	8fb60040 	lw	s6,64(sp)
    5e00:	8fb5003c 	lw	s5,60(sp)
    5e04:	8fb40038 	lw	s4,56(sp)
    5e08:	8fb30034 	lw	s3,52(sp)
    5e0c:	8fb20030 	lw	s2,48(sp)
    5e10:	8fb1002c 	lw	s1,44(sp)
    5e14:	8fb00028 	lw	s0,40(sp)
    5e18:	080008d3 	j	234c <_ZN6System3Bus4UART13write_waitingEPKcj.constprop.37>
    5e1c:	27bd0048 	addiu	sp,sp,72
    5e20:	8fbf0044 	lw	ra,68(sp)
    5e24:	8fb60040 	lw	s6,64(sp)
    5e28:	8fb5003c 	lw	s5,60(sp)
    5e2c:	8fb40038 	lw	s4,56(sp)
    5e30:	8fb30034 	lw	s3,52(sp)
    5e34:	8fb20030 	lw	s2,48(sp)
    5e38:	8fb1002c 	lw	s1,44(sp)
    5e3c:	8fb00028 	lw	s0,40(sp)
    5e40:	03e00008 	jr	ra
    5e44:	27bd0048 	addiu	sp,sp,72

00005e48 <__ashldi3>:

#ifdef L_ashldi3
DWtype
__ashldi3 (DWtype u, shift_count_type b)
{
  if (b == 0)
    5e48:	10c0000a 	beqz	a2,5e74 <__ashldi3+0x2c>
    5e4c:	00801021 	move	v0,a0
    return u;

  const DWunion uu = {.ll = u};
  const shift_count_type bm = W_TYPE_SIZE - b;
    5e50:	24030020 	li	v1,32
    5e54:	00661823 	subu	v1,v1,a2
  DWunion w;

  if (bm <= 0)
    5e58:	18600008 	blez	v1,5e7c <__ashldi3+0x34>
    5e5c:	00000000 	nop
      w.s.low = 0;
      w.s.high = (UWtype) uu.s.low << -bm;
    }
  else
    {
      const UWtype carries = (UWtype) uu.s.low >> bm;
    5e60:	00651806 	srlv	v1,a1,v1

      w.s.low = (UWtype) uu.s.low << b;
      w.s.high = ((UWtype) uu.s.high << b) | carries;
    5e64:	00c41004 	sllv	v0,a0,a2
    }
  else
    {
      const UWtype carries = (UWtype) uu.s.low >> bm;

      w.s.low = (UWtype) uu.s.low << b;
    5e68:	00c53004 	sllv	a2,a1,a2
      w.s.high = ((UWtype) uu.s.high << b) | carries;
    5e6c:	00621025 	or	v0,v1,v0
    }

  return w.ll;
    5e70:	00c02821 	move	a1,a2
}
    5e74:	03e00008 	jr	ra
    5e78:	00a01821 	move	v1,a1
  DWunion w;

  if (bm <= 0)
    {
      w.s.low = 0;
      w.s.high = (UWtype) uu.s.low << -bm;
    5e7c:	00031023 	negu	v0,v1
  const shift_count_type bm = W_TYPE_SIZE - b;
  DWunion w;

  if (bm <= 0)
    {
      w.s.low = 0;
    5e80:	00003021 	move	a2,zero
      w.s.high = (UWtype) uu.s.low << -bm;
    5e84:	00451004 	sllv	v0,a1,v0

      w.s.low = (UWtype) uu.s.low << b;
      w.s.high = ((UWtype) uu.s.high << b) | carries;
    }

  return w.ll;
    5e88:	0800179d 	j	5e74 <__ashldi3+0x2c>
    5e8c:	00c02821 	move	a1,a2

00005e90 <_GLOBAL__sub_I__ZN6System7Tasking4Pool16xbeeReadIdleTaskE.3979.1318>:
    5e90:	27bdffe8 	addiu	sp,sp,-24
    5e94:	3c038000 	lui	v1,0x8000
    5e98:	3c048000 	lui	a0,0x8000
    5e9c:	24620590 	addiu	v0,v1,1424
    5ea0:	24840498 	addiu	a0,a0,1176
    5ea4:	afb00010 	sw	s0,16(sp)
    5ea8:	3c108000 	lui	s0,0x8000
    5eac:	afbf0014 	sw	ra,20(sp)
    5eb0:	ac640590 	sw	a0,1424(v1)
    5eb4:	ac400004 	sw	zero,4(v0)
    5eb8:	260405d4 	addiu	a0,s0,1492
    5ebc:	ac400008 	sw	zero,8(v0)
    5ec0:	ac40000c 	sw	zero,12(v0)
    5ec4:	ac400038 	sw	zero,56(v0)
    5ec8:	a040003c 	sb	zero,60(v0)
    5ecc:	0c000813 	jal	204c <_ZN6System7Tasking14ContinuousTaskC2Ev.local.5>
    5ed0:	ac400040 	sw	zero,64(v0)
    5ed4:	3c028000 	lui	v0,0x8000
    5ed8:	24420478 	addiu	v0,v0,1144
    5edc:	ae0205d4 	sw	v0,1492(s0)
    5ee0:	3c108000 	lui	s0,0x8000
    5ee4:	0c000813 	jal	204c <_ZN6System7Tasking14ContinuousTaskC2Ev.local.5>
    5ee8:	260405e8 	addiu	a0,s0,1512
    5eec:	3c028000 	lui	v0,0x8000
    5ef0:	24420468 	addiu	v0,v0,1128
    5ef4:	0c00081a 	jal	2068 <_ZN6System8Registry8instanceEv.local.10>
    5ef8:	ae0205e8 	sw	v0,1512(s0)
    5efc:	261005e8 	addiu	s0,s0,1512
    5f00:	2442007c 	addiu	v0,v0,124
    5f04:	0c00081a 	jal	2068 <_ZN6System8Registry8instanceEv.local.10>
    5f08:	ae020014 	sw	v0,20(s0)
    5f0c:	24420080 	addiu	v0,v0,128
    5f10:	0c00081a 	jal	2068 <_ZN6System8Registry8instanceEv.local.10>
    5f14:	ae020018 	sw	v0,24(s0)
    5f18:	24420084 	addiu	v0,v0,132
    5f1c:	0c00081a 	jal	2068 <_ZN6System8Registry8instanceEv.local.10>
    5f20:	ae02001c 	sw	v0,28(s0)
    5f24:	24420088 	addiu	v0,v0,136
    5f28:	0c00081a 	jal	2068 <_ZN6System8Registry8instanceEv.local.10>
    5f2c:	ae020020 	sw	v0,32(s0)
    5f30:	24420068 	addiu	v0,v0,104
    5f34:	0c00081a 	jal	2068 <_ZN6System8Registry8instanceEv.local.10>
    5f38:	ae020024 	sw	v0,36(s0)
    5f3c:	24420078 	addiu	v0,v0,120
    5f40:	0c00081a 	jal	2068 <_ZN6System8Registry8instanceEv.local.10>
    5f44:	ae020028 	sw	v0,40(s0)
    5f48:	2442007c 	addiu	v0,v0,124
    5f4c:	0c00081a 	jal	2068 <_ZN6System8Registry8instanceEv.local.10>
    5f50:	ae02003c 	sw	v0,60(s0)
    5f54:	24420080 	addiu	v0,v0,128
    5f58:	0c00081a 	jal	2068 <_ZN6System8Registry8instanceEv.local.10>
    5f5c:	ae020040 	sw	v0,64(s0)
    5f60:	24420084 	addiu	v0,v0,132
    5f64:	0c00081a 	jal	2068 <_ZN6System8Registry8instanceEv.local.10>
    5f68:	ae020044 	sw	v0,68(s0)
    5f6c:	24420088 	addiu	v0,v0,136
    5f70:	0c00081a 	jal	2068 <_ZN6System8Registry8instanceEv.local.10>
    5f74:	ae020048 	sw	v0,72(s0)
    5f78:	24420064 	addiu	v0,v0,100
    5f7c:	0c00081a 	jal	2068 <_ZN6System8Registry8instanceEv.local.10>
    5f80:	ae02004c 	sw	v0,76(s0)
    5f84:	24420070 	addiu	v0,v0,112
    5f88:	0c00081a 	jal	2068 <_ZN6System8Registry8instanceEv.local.10>
    5f8c:	ae020050 	sw	v0,80(s0)
    5f90:	2442008c 	addiu	v0,v0,140
    5f94:	0c00081a 	jal	2068 <_ZN6System8Registry8instanceEv.local.10>
    5f98:	ae020064 	sw	v0,100(s0)
    5f9c:	24420090 	addiu	v0,v0,144
    5fa0:	0c00081a 	jal	2068 <_ZN6System8Registry8instanceEv.local.10>
    5fa4:	ae020068 	sw	v0,104(s0)
    5fa8:	24420094 	addiu	v0,v0,148
    5fac:	0c00081a 	jal	2068 <_ZN6System8Registry8instanceEv.local.10>
    5fb0:	ae02006c 	sw	v0,108(s0)
    5fb4:	24420098 	addiu	v0,v0,152
    5fb8:	0c00081a 	jal	2068 <_ZN6System8Registry8instanceEv.local.10>
    5fbc:	ae020070 	sw	v0,112(s0)
    5fc0:	2442006c 	addiu	v0,v0,108
    5fc4:	0c00081a 	jal	2068 <_ZN6System8Registry8instanceEv.local.10>
    5fc8:	ae020074 	sw	v0,116(s0)
    5fcc:	24420074 	addiu	v0,v0,116
    5fd0:	0c00081a 	jal	2068 <_ZN6System8Registry8instanceEv.local.10>
    5fd4:	ae020078 	sw	v0,120(s0)
    5fd8:	2442009c 	addiu	v0,v0,156
    5fdc:	0c00081a 	jal	2068 <_ZN6System8Registry8instanceEv.local.10>
    5fe0:	ae02008c 	sw	v0,140(s0)
    5fe4:	244200a0 	addiu	v0,v0,160
    5fe8:	0c00081a 	jal	2068 <_ZN6System8Registry8instanceEv.local.10>
    5fec:	ae020090 	sw	v0,144(s0)
    5ff0:	244200a4 	addiu	v0,v0,164
    5ff4:	0c00081a 	jal	2068 <_ZN6System8Registry8instanceEv.local.10>
    5ff8:	ae020094 	sw	v0,148(s0)
    5ffc:	244200a8 	addiu	v0,v0,168
    6000:	0c00081a 	jal	2068 <_ZN6System8Registry8instanceEv.local.10>
    6004:	ae020098 	sw	v0,152(s0)
    6008:	24420058 	addiu	v0,v0,88
    600c:	0c00081a 	jal	2068 <_ZN6System8Registry8instanceEv.local.10>
    6010:	ae02009c 	sw	v0,156(s0)
    6014:	2442005c 	addiu	v0,v0,92
    6018:	ae0200a0 	sw	v0,160(s0)
    601c:	3c108000 	lui	s0,0x8000
    6020:	0c000813 	jal	204c <_ZN6System7Tasking14ContinuousTaskC2Ev.local.5>
    6024:	2604069c 	addiu	a0,s0,1692
    6028:	3c028000 	lui	v0,0x8000
    602c:	24420458 	addiu	v0,v0,1112
    6030:	ae02069c 	sw	v0,1692(s0)
    6034:	3c023a83 	lui	v0,0x3a83
    6038:	2610069c 	addiu	s0,s0,1692
    603c:	2442126f 	addiu	v0,v0,4719
    6040:	ae020018 	sw	v0,24(s0)
    6044:	3c023f80 	lui	v0,0x3f80
    6048:	ae020040 	sw	v0,64(s0)
    604c:	ae020050 	sw	v0,80(s0)
    6050:	3c108000 	lui	s0,0x8000
    6054:	0c000813 	jal	204c <_ZN6System7Tasking14ContinuousTaskC2Ev.local.5>
    6058:	26040700 	addiu	a0,s0,1792
    605c:	3c028000 	lui	v0,0x8000
    6060:	24420448 	addiu	v0,v0,1096
    6064:	26030700 	addiu	v1,s0,1792
    6068:	ae020700 	sw	v0,1792(s0)
    606c:	3c028000 	lui	v0,0x8000
    6070:	ac600014 	sw	zero,20(v1)
    6074:	ac600098 	sw	zero,152(v1)
    6078:	ac60009c 	sw	zero,156(v1)
    607c:	24420718 	addiu	v0,v0,1816
    6080:	24630098 	addiu	v1,v1,152
    6084:	ac400000 	sw	zero,0(v0)
    6088:	24420004 	addiu	v0,v0,4
    608c:	1443fffd 	bne	v0,v1,6084 <_GLOBAL__sub_I__ZN6System7Tasking4Pool16xbeeReadIdleTaskE.3979.1318+0x1f4>
    6090:	3c108000 	lui	s0,0x8000
    6094:	0c000813 	jal	204c <_ZN6System7Tasking14ContinuousTaskC2Ev.local.5>
    6098:	260407a0 	addiu	a0,s0,1952
    609c:	8fbf0014 	lw	ra,20(sp)
    60a0:	3c028000 	lui	v0,0x8000
    60a4:	24420438 	addiu	v0,v0,1080
    60a8:	ae0207a0 	sw	v0,1952(s0)
    60ac:	8fb00010 	lw	s0,16(sp)
    60b0:	03e00008 	jr	ra
    60b4:	27bd0018 	addiu	sp,sp,24

000060b8 <main>:
    60b8:	27bdffa0 	addiu	sp,sp,-96
    60bc:	afbf005c 	sw	ra,92(sp)
    60c0:	afb50058 	sw	s5,88(sp)
    60c4:	afb40054 	sw	s4,84(sp)
    60c8:	afb30050 	sw	s3,80(sp)
    60cc:	afb2004c 	sw	s2,76(sp)
    60d0:	afb10048 	sw	s1,72(sp)
    60d4:	0c00099d 	jal	2674 <System::Bus::I2C::start()>
    60d8:	afb00044 	sw	s0,68(sp)
    60dc:	0c00097f 	jal	25fc <System::Bus::I2C::write(unsigned char)>
    60e0:	240400ee 	li	a0,238
    60e4:	0c00097f 	jal	25fc <System::Bus::I2C::write(unsigned char)>
    60e8:	2404001e 	li	a0,30
    60ec:	0c000994 	jal	2650 <System::Bus::I2C::stop()>
    60f0:	00000000 	nop
    60f4:	3402927c 	li	v0,0x927c
    60f8:	2442ffff 	addiu	v0,v0,-1
    60fc:	1440fffe 	bnez	v0,60f8 <main+0x40>
    6100:	3c118000 	lui	s1,0x8000
    6104:	241000a2 	li	s0,162
    6108:	26310578 	addiu	s1,s1,1400
    610c:	241200ae 	li	s2,174
    6110:	0c00099d 	jal	2674 <System::Bus::I2C::start()>
    6114:	00000000 	nop
    6118:	0c00097f 	jal	25fc <System::Bus::I2C::write(unsigned char)>
    611c:	240400ee 	li	a0,238
    6120:	0c00097f 	jal	25fc <System::Bus::I2C::write(unsigned char)>
    6124:	02002021 	move	a0,s0
    6128:	0c000994 	jal	2650 <System::Bus::I2C::stop()>
    612c:	00000000 	nop
    6130:	0c00099d 	jal	2674 <System::Bus::I2C::start()>
    6134:	00000000 	nop
    6138:	0c00097f 	jal	25fc <System::Bus::I2C::write(unsigned char)>
    613c:	240400ef 	li	a0,239
    6140:	0c00098a 	jal	2628 <System::Bus::I2C::read()>
    6144:	00000000 	nop
    6148:	00409821 	move	s3,v0
    614c:	0c00098a 	jal	2628 <System::Bus::I2C::read()>
    6150:	00139a00 	sll	s3,s3,0x8
    6154:	00101840 	sll	v1,s0,0x1
    6158:	02231821 	addu	v1,s1,v1
    615c:	02621025 	or	v0,s3,v0
    6160:	ac62febc 	sw	v0,-324(v1)
    6164:	0c000994 	jal	2650 <System::Bus::I2C::stop()>
    6168:	26100002 	addiu	s0,s0,2
    616c:	1612ffe8 	bne	s0,s2,6110 <main+0x58>
    6170:	2404006b 	li	a0,107
    6174:	0c000a81 	jal	2a04 <_ZN7Sensors3IMU7MPU6050L13mpu6050_setupEcc.3289>
    6178:	2405ff80 	li	a1,-128
    617c:	3402f424 	li	v0,0xf424
    6180:	2442ffff 	addiu	v0,v0,-1
    6184:	1440fffe 	bnez	v0,6180 <main+0xc8>
    6188:	2404006b 	li	a0,107
    618c:	0c000a81 	jal	2a04 <_ZN7Sensors3IMU7MPU6050L13mpu6050_setupEcc.3289>
    6190:	00002821 	move	a1,zero
    6194:	2404001a 	li	a0,26
    6198:	0c000a81 	jal	2a04 <_ZN7Sensors3IMU7MPU6050L13mpu6050_setupEcc.3289>
    619c:	24050003 	li	a1,3
    61a0:	2404001b 	li	a0,27
    61a4:	0c000a81 	jal	2a04 <_ZN7Sensors3IMU7MPU6050L13mpu6050_setupEcc.3289>
    61a8:	24050018 	li	a1,24
    61ac:	2404001c 	li	a0,28
    61b0:	0c000a81 	jal	2a04 <_ZN7Sensors3IMU7MPU6050L13mpu6050_setupEcc.3289>
    61b4:	24050018 	li	a1,24
    61b8:	240230d4 	li	v0,12500
    61bc:	2442ffff 	addiu	v0,v0,-1
    61c0:	1440fffe 	bnez	v0,61bc <main+0x104>
    61c4:	2404006a 	li	a0,106
    61c8:	0c000a81 	jal	2a04 <_ZN7Sensors3IMU7MPU6050L13mpu6050_setupEcc.3289>
    61cc:	24050002 	li	a1,2
    61d0:	24040037 	li	a0,55
    61d4:	0c000a81 	jal	2a04 <_ZN7Sensors3IMU7MPU6050L13mpu6050_setupEcc.3289>
    61d8:	24050002 	li	a1,2
    61dc:	240230d4 	li	v0,12500
    61e0:	2442ffff 	addiu	v0,v0,-1
    61e4:	1440fffe 	bnez	v0,61e0 <main+0x128>
    61e8:	00000000 	nop
    61ec:	0c00099d 	jal	2674 <System::Bus::I2C::start()>
    61f0:	00000000 	nop
    61f4:	0c00097f 	jal	25fc <System::Bus::I2C::write(unsigned char)>
    61f8:	2404003c 	li	a0,60
    61fc:	0c00097f 	jal	25fc <System::Bus::I2C::write(unsigned char)>
    6200:	00002021 	move	a0,zero
    6204:	0c00097f 	jal	25fc <System::Bus::I2C::write(unsigned char)>
    6208:	24040078 	li	a0,120
    620c:	0c000994 	jal	2650 <System::Bus::I2C::stop()>
    6210:	00000000 	nop
    6214:	0c00099d 	jal	2674 <System::Bus::I2C::start()>
    6218:	00000000 	nop
    621c:	0c00097f 	jal	25fc <System::Bus::I2C::write(unsigned char)>
    6220:	2404003c 	li	a0,60
    6224:	0c00097f 	jal	25fc <System::Bus::I2C::write(unsigned char)>
    6228:	24040002 	li	a0,2
    622c:	0c00097f 	jal	25fc <System::Bus::I2C::write(unsigned char)>
    6230:	00002021 	move	a0,zero
    6234:	0c000994 	jal	2650 <System::Bus::I2C::stop()>
    6238:	00000000 	nop
    623c:	3c020001 	lui	v0,0x1
    6240:	3442e848 	ori	v0,v0,0xe848
    6244:	2442ffff 	addiu	v0,v0,-1
    6248:	1440fffe 	bnez	v0,6244 <main+0x18c>
    624c:	3c060001 	lui	a2,0x1
    6250:	24050001 	li	a1,1
    6254:	34c6e848 	ori	a2,a2,0xe848
    6258:	24040008 	li	a0,8
    625c:	00451804 	sllv	v1,a1,v0
    6260:	306300ff 	andi	v1,v1,0xff
    6264:	ac030004 	sw	v1,4(zero)
    6268:	00c01821 	move	v1,a2
    626c:	2463ffff 	addiu	v1,v1,-1
    6270:	1460fffe 	bnez	v1,626c <main+0x1b4>
    6274:	00000000 	nop
    6278:	24420001 	addiu	v0,v0,1
    627c:	1444fff8 	bne	v0,a0,6260 <main+0x1a8>
    6280:	00451804 	sllv	v1,a1,v0
    6284:	3c060001 	lui	a2,0x1
    6288:	00001021 	move	v0,zero
    628c:	24050080 	li	a1,128
    6290:	34c6e848 	ori	a2,a2,0xe848
    6294:	24040009 	li	a0,9
    6298:	00451807 	srav	v1,a1,v0
    629c:	ac030004 	sw	v1,4(zero)
    62a0:	00c01821 	move	v1,a2
    62a4:	2463ffff 	addiu	v1,v1,-1
    62a8:	1460fffe 	bnez	v1,62a4 <main+0x1ec>
    62ac:	00000000 	nop
    62b0:	24420001 	addiu	v0,v0,1
    62b4:	1444fff9 	bne	v0,a0,629c <main+0x1e4>
    62b8:	00451807 	srav	v1,a1,v0
    62bc:	3c028000 	lui	v0,0x8000
    62c0:	24420590 	addiu	v0,v0,1424
    62c4:	afa00024 	sw	zero,36(sp)
    62c8:	afa00028 	sw	zero,40(sp)
    62cc:	afa0002c 	sw	zero,44(sp)
    62d0:	ac400008 	sw	zero,8(v0)
    62d4:	8c030010 	lw	v1,16(zero)
    62d8:	27b00010 	addiu	s0,sp,16
    62dc:	3c11000f 	lui	s1,0xf
    62e0:	3c058000 	lui	a1,0x8000
    62e4:	ac430004 	sw	v1,4(v0)
    62e8:	02002021 	move	a0,s0
    62ec:	ac500010 	sw	s0,16(v0)
    62f0:	24a5069c 	addiu	a1,a1,1692
    62f4:	26264240 	addiu	a2,s1,16960
    62f8:	afa00014 	sw	zero,20(sp)
    62fc:	afa00018 	sw	zero,24(sp)
    6300:	afa0001c 	sw	zero,28(sp)
    6304:	afa00020 	sw	zero,32(sp)
    6308:	0c00096e 	jal	25b8 <System::Tasking::TaskScheduler::addTask(System::Tasking::ContinuousTask*, int)>
    630c:	afa20010 	sw	v0,16(sp)
    6310:	3c058000 	lui	a1,0x8000
    6314:	02002021 	move	a0,s0
    6318:	24a505d4 	addiu	a1,a1,1492
    631c:	0c00096e 	jal	25b8 <System::Tasking::TaskScheduler::addTask(System::Tasking::ContinuousTask*, int)>
    6320:	36264240 	ori	a2,s1,0x4240
    6324:	3c058000 	lui	a1,0x8000
    6328:	3c06000a 	lui	a2,0xa
    632c:	02002021 	move	a0,s0
    6330:	24a507a0 	addiu	a1,a1,1952
    6334:	0c00096e 	jal	25b8 <System::Tasking::TaskScheduler::addTask(System::Tasking::ContinuousTask*, int)>
    6338:	34c6e62d 	ori	a2,a2,0xe62d
    633c:	3c058000 	lui	a1,0x8000
    6340:	3c060007 	lui	a2,0x7
    6344:	02002021 	move	a0,s0
    6348:	24a50700 	addiu	a1,a1,1792
    634c:	0c00096e 	jal	25b8 <System::Tasking::TaskScheduler::addTask(System::Tasking::ContinuousTask*, int)>
    6350:	34c6a120 	ori	a2,a2,0xa120
    6354:	27a20014 	addiu	v0,sp,20
    6358:	8c100010 	lw	s0,16(zero)
    635c:	afa20030 	sw	v0,48(sp)
    6360:	27a20018 	addiu	v0,sp,24
    6364:	afa20034 	sw	v0,52(sp)
    6368:	00001821 	move	v1,zero
    636c:	24040008 	li	a0,8
    6370:	27a50030 	addiu	a1,sp,48
    6374:	00a31021 	addu	v0,a1,v1
    6378:	8c420000 	lw	v0,0(v0)
    637c:	00000000 	nop
    6380:	8c420000 	lw	v0,0(v0)
    6384:	00000000 	nop
    6388:	14400006 	bnez	v0,63a4 <main+0x2ec>
    638c:	00000000 	nop
    6390:	24630004 	addiu	v1,v1,4
    6394:	1464fff7 	bne	v1,a0,6374 <main+0x2bc>
    6398:	27a50030 	addiu	a1,sp,48
    639c:	080018f0 	j	63c0 <main+0x308>
    63a0:	27b10010 	addiu	s1,sp,16
    63a4:	8c450008 	lw	a1,8(v0)
    63a8:	00000000 	nop
    63ac:	00b02821 	addu	a1,a1,s0
    63b0:	ac450004 	sw	a1,4(v0)
    63b4:	8c42000c 	lw	v0,12(v0)
    63b8:	080018e2 	j	6388 <main+0x2d0>
    63bc:	00000000 	nop
    63c0:	02202021 	move	a0,s1
    63c4:	0c000945 	jal	2514 <System::Tasking::TaskScheduler::selectNextTask(unsigned int)>
    63c8:	02002821 	move	a1,s0
    63cc:	24120001 	li	s2,1
    63d0:	afb0002c 	sw	s0,44(sp)
    63d4:	27b30014 	addiu	s3,sp,20
    63d8:	27b40018 	addiu	s4,sp,24
    63dc:	8fa40020 	lw	a0,32(sp)
    63e0:	8c100010 	lw	s0,16(zero)
    63e4:	1080003c 	beqz	a0,64d8 <main+0x420>
    63e8:	00000000 	nop
    63ec:	8fa2002c 	lw	v0,44(sp)
    63f0:	8fa30028 	lw	v1,40(sp)
    63f4:	02021023 	subu	v0,s0,v0
    63f8:	0043102b 	sltu	v0,v0,v1
    63fc:	14400036 	bnez	v0,64d8 <main+0x420>
    6400:	00000000 	nop
    6404:	8c820000 	lw	v0,0(a0)
    6408:	8c950004 	lw	s5,4(a0)
    640c:	8c420000 	lw	v0,0(v0)
    6410:	00000000 	nop
    6414:	0040f809 	jalr	v0
    6418:	00000000 	nop
    641c:	8fa30024 	lw	v1,36(sp)
    6420:	8fa20020 	lw	v0,32(sp)
    6424:	14720023 	bne	v1,s2,64b4 <main+0x3fc>
    6428:	00003021 	move	a2,zero
    642c:	afb10030 	sw	s1,48(sp)
    6430:	afb30034 	sw	s3,52(sp)
    6434:	afb40038 	sw	s4,56(sp)
    6438:	2405000c 	li	a1,12
    643c:	27a40030 	addiu	a0,sp,48
    6440:	00861821 	addu	v1,a0,a2
    6444:	8c640000 	lw	a0,0(v1)
    6448:	00000000 	nop
    644c:	8c830000 	lw	v1,0(a0)
    6450:	00000000 	nop
    6454:	10600012 	beqz	v1,64a0 <main+0x3e8>
    6458:	00000000 	nop
    645c:	14620005 	bne	v1,v0,6474 <main+0x3bc>
    6460:	00000000 	nop
    6464:	8c43000c 	lw	v1,12(v0)
    6468:	0800192b 	j	64ac <main+0x3f4>
    646c:	ac830000 	sw	v1,0(a0)
    6470:	00801821 	move	v1,a0
    6474:	8c64000c 	lw	a0,12(v1)
    6478:	00000000 	nop
    647c:	10800006 	beqz	a0,6498 <main+0x3e0>
    6480:	00000000 	nop
    6484:	1444fffa 	bne	v0,a0,6470 <main+0x3b8>
    6488:	00000000 	nop
    648c:	8c44000c 	lw	a0,12(v0)
    6490:	0800192b 	j	64ac <main+0x3f4>
    6494:	ac64000c 	sw	a0,12(v1)
    6498:	1040fffc 	beqz	v0,648c <main+0x3d4>
    649c:	00000000 	nop
    64a0:	24c60004 	addiu	a2,a2,4
    64a4:	14c5ffe6 	bne	a2,a1,6440 <main+0x388>
    64a8:	27a40030 	addiu	a0,sp,48
    64ac:	08001931 	j	64c4 <main+0x40c>
    64b0:	ac400010 	sw	zero,16(v0)
    64b4:	8c430008 	lw	v1,8(v0)
    64b8:	00000000 	nop
    64bc:	00701821 	addu	v1,v1,s0
    64c0:	ac430004 	sw	v1,4(v0)
    64c4:	02202021 	move	a0,s1
    64c8:	0c000945 	jal	2514 <System::Tasking::TaskScheduler::selectNextTask(unsigned int)>
    64cc:	02a02821 	move	a1,s5
    64d0:	080018f7 	j	63dc <main+0x324>
    64d4:	afb0002c 	sw	s0,44(sp)
    64d8:	8fa20010 	lw	v0,16(sp)
    64dc:	00000000 	nop
    64e0:	1040ffbe 	beqz	v0,63dc <main+0x324>
    64e4:	00000000 	nop
    64e8:	8fa3001c 	lw	v1,28(sp)
    64ec:	00000000 	nop
    64f0:	10600006 	beqz	v1,650c <main+0x454>
    64f4:	00000000 	nop
    64f8:	8c63000c 	lw	v1,12(v1)
    64fc:	00000000 	nop
    6500:	afa3001c 	sw	v1,28(sp)
    6504:	8fa3001c 	lw	v1,28(sp)
    6508:	00000000 	nop
    650c:	14600002 	bnez	v1,6518 <main+0x460>
    6510:	00000000 	nop
    6514:	afa2001c 	sw	v0,28(sp)
    6518:	8fa4001c 	lw	a0,28(sp)
    651c:	00000000 	nop
    6520:	1080ffae 	beqz	a0,63dc <main+0x324>
    6524:	00000000 	nop
    6528:	8c820000 	lw	v0,0(a0)
    652c:	00000000 	nop
    6530:	8c420000 	lw	v0,0(v0)
    6534:	00000000 	nop
    6538:	0040f809 	jalr	v0
    653c:	00000000 	nop
    6540:	080018f7 	j	63dc <main+0x324>
    6544:	00000000 	nop

00006548 <CODE_ENDS>:
    6548:	00000000 	nop
    654c:	00000000 	nop
    6550:	00000000 	nop
    6554:	00000000 	nop
    6558:	00000000 	nop
    655c:	00000000 	nop
    6560:	00000000 	nop
    6564:	00000000 	nop
    6568:	00000000 	nop
    656c:	00000000 	nop
    6570:	00000000 	nop
    6574:	00000000 	nop
    6578:	00000000 	nop
    657c:	00000000 	nop
    6580:	00000000 	nop
    6584:	00000000 	nop
    6588:	00000000 	nop
    658c:	00000000 	nop
    6590:	00000000 	nop
    6594:	00000000 	nop
    6598:	00000000 	nop
    659c:	00000000 	nop
    65a0:	00000000 	nop
    65a4:	00000000 	nop
    65a8:	00000000 	nop
    65ac:	00000000 	nop
    65b0:	00000000 	nop
    65b4:	00000000 	nop
    65b8:	00000000 	nop
    65bc:	00000000 	nop
    65c0:	00000000 	nop
    65c4:	00000000 	nop
    65c8:	00000000 	nop
    65cc:	00000000 	nop
    65d0:	00000000 	nop
    65d4:	00000000 	nop
    65d8:	00000000 	nop
    65dc:	00000000 	nop
    65e0:	00000000 	nop
    65e4:	00000000 	nop
    65e8:	00000000 	nop
    65ec:	00000000 	nop
    65f0:	00000000 	nop
    65f4:	00000000 	nop
    65f8:	00000000 	nop
    65fc:	00000000 	nop
    6600:	00000000 	nop
    6604:	00000000 	nop
    6608:	00000000 	nop
    660c:	00000000 	nop
    6610:	00000000 	nop
    6614:	00000000 	nop
    6618:	00000000 	nop
    661c:	00000000 	nop
    6620:	00000000 	nop
    6624:	00000000 	nop
    6628:	00000000 	nop
    662c:	00000000 	nop
    6630:	00000000 	nop
    6634:	00000000 	nop
    6638:	00000000 	nop
    663c:	00000000 	nop
    6640:	00000000 	nop
    6644:	00000000 	nop
    6648:	00000000 	nop
    664c:	00000000 	nop
    6650:	00000000 	nop
    6654:	00000000 	nop
    6658:	00000000 	nop
    665c:	00000000 	nop
    6660:	00000000 	nop
    6664:	00000000 	nop
    6668:	00000000 	nop
    666c:	00000000 	nop
    6670:	00000000 	nop
    6674:	00000000 	nop
    6678:	00000000 	nop
    667c:	00000000 	nop
    6680:	00000000 	nop
    6684:	00000000 	nop
    6688:	00000000 	nop
    668c:	00000000 	nop
    6690:	00000000 	nop
    6694:	00000000 	nop
    6698:	00000000 	nop
    669c:	00000000 	nop
    66a0:	00000000 	nop
    66a4:	00000000 	nop
    66a8:	00000000 	nop
    66ac:	00000000 	nop
    66b0:	00000000 	nop
    66b4:	00000000 	nop
    66b8:	00000000 	nop
    66bc:	00000000 	nop
    66c0:	00000000 	nop
    66c4:	00000000 	nop
    66c8:	00000000 	nop
    66cc:	00000000 	nop
    66d0:	00000000 	nop
    66d4:	00000000 	nop
    66d8:	00000000 	nop
    66dc:	00000000 	nop
    66e0:	00000000 	nop
    66e4:	00000000 	nop
    66e8:	00000000 	nop
    66ec:	00000000 	nop
    66f0:	00000000 	nop
    66f4:	00000000 	nop
    66f8:	00000000 	nop
    66fc:	00000000 	nop
    6700:	00000000 	nop
    6704:	00000000 	nop
    6708:	00000000 	nop
    670c:	00000000 	nop
    6710:	00000000 	nop
    6714:	00000000 	nop
    6718:	00000000 	nop
    671c:	00000000 	nop
    6720:	00000000 	nop
    6724:	00000000 	nop
    6728:	00000000 	nop
    672c:	00000000 	nop
    6730:	00000000 	nop
    6734:	00000000 	nop
    6738:	00000000 	nop
    673c:	00000000 	nop
    6740:	00000000 	nop
    6744:	00000000 	nop
    6748:	00000000 	nop
    674c:	00000000 	nop
    6750:	00000000 	nop
    6754:	00000000 	nop
    6758:	00000000 	nop
    675c:	00000000 	nop
    6760:	00000000 	nop
    6764:	00000000 	nop
    6768:	00000000 	nop
    676c:	00000000 	nop
    6770:	00000000 	nop
    6774:	00000000 	nop
    6778:	00000000 	nop
    677c:	00000000 	nop
    6780:	00000000 	nop
    6784:	00000000 	nop
    6788:	00000000 	nop
    678c:	00000000 	nop
    6790:	00000000 	nop
    6794:	00000000 	nop
    6798:	00000000 	nop
    679c:	00000000 	nop
    67a0:	00000000 	nop
    67a4:	00000000 	nop
    67a8:	00000000 	nop
    67ac:	00000000 	nop
    67b0:	00000000 	nop
    67b4:	00000000 	nop
    67b8:	00000000 	nop
    67bc:	00000000 	nop
    67c0:	00000000 	nop
    67c4:	00000000 	nop
    67c8:	00000000 	nop
    67cc:	00000000 	nop
    67d0:	00000000 	nop
    67d4:	00000000 	nop
    67d8:	00000000 	nop
    67dc:	00000000 	nop
    67e0:	00000000 	nop
    67e4:	00000000 	nop
    67e8:	00000000 	nop
    67ec:	00000000 	nop
    67f0:	00000000 	nop
    67f4:	00000000 	nop
    67f8:	00000000 	nop
    67fc:	00000000 	nop
    6800:	00000000 	nop
    6804:	00000000 	nop
    6808:	00000000 	nop
    680c:	00000000 	nop
    6810:	00000000 	nop
    6814:	00000000 	nop
    6818:	00000000 	nop
    681c:	00000000 	nop
    6820:	00000000 	nop
    6824:	00000000 	nop
    6828:	00000000 	nop
    682c:	00000000 	nop
    6830:	00000000 	nop
    6834:	00000000 	nop
    6838:	00000000 	nop
    683c:	00000000 	nop
    6840:	00000000 	nop
    6844:	00000000 	nop
    6848:	00000000 	nop
    684c:	00000000 	nop
    6850:	00000000 	nop
    6854:	00000000 	nop
    6858:	00000000 	nop
    685c:	00000000 	nop
    6860:	00000000 	nop
    6864:	00000000 	nop
    6868:	00000000 	nop
    686c:	00000000 	nop
    6870:	00000000 	nop
    6874:	00000000 	nop
    6878:	00000000 	nop
    687c:	00000000 	nop
    6880:	00000000 	nop
    6884:	00000000 	nop
    6888:	00000000 	nop
    688c:	00000000 	nop
    6890:	00000000 	nop
    6894:	00000000 	nop
    6898:	00000000 	nop
    689c:	00000000 	nop
    68a0:	00000000 	nop
    68a4:	00000000 	nop
    68a8:	00000000 	nop
    68ac:	00000000 	nop
    68b0:	00000000 	nop
    68b4:	00000000 	nop
    68b8:	00000000 	nop
    68bc:	00000000 	nop
    68c0:	00000000 	nop
    68c4:	00000000 	nop
    68c8:	00000000 	nop
    68cc:	00000000 	nop
    68d0:	00000000 	nop
    68d4:	00000000 	nop
    68d8:	00000000 	nop
    68dc:	00000000 	nop
    68e0:	00000000 	nop
    68e4:	00000000 	nop
    68e8:	00000000 	nop
    68ec:	00000000 	nop
    68f0:	00000000 	nop
    68f4:	00000000 	nop
    68f8:	00000000 	nop
    68fc:	00000000 	nop
    6900:	00000000 	nop
    6904:	00000000 	nop
    6908:	00000000 	nop
    690c:	00000000 	nop
    6910:	00000000 	nop
    6914:	00000000 	nop
    6918:	00000000 	nop
    691c:	00000000 	nop
    6920:	00000000 	nop
    6924:	00000000 	nop
    6928:	00000000 	nop
    692c:	00000000 	nop
    6930:	00000000 	nop
    6934:	00000000 	nop
    6938:	00000000 	nop
    693c:	00000000 	nop
    6940:	00000000 	nop
    6944:	00000000 	nop
    6948:	00000000 	nop
    694c:	00000000 	nop
    6950:	00000000 	nop
    6954:	00000000 	nop
    6958:	00000000 	nop
    695c:	00000000 	nop
    6960:	00000000 	nop
    6964:	00000000 	nop
    6968:	00000000 	nop
    696c:	00000000 	nop
    6970:	00000000 	nop
    6974:	00000000 	nop
    6978:	00000000 	nop
    697c:	00000000 	nop
    6980:	00000000 	nop
    6984:	00000000 	nop
    6988:	00000000 	nop
    698c:	00000000 	nop
    6990:	00000000 	nop
    6994:	00000000 	nop
    6998:	00000000 	nop
    699c:	00000000 	nop
    69a0:	00000000 	nop
    69a4:	00000000 	nop
    69a8:	00000000 	nop
    69ac:	00000000 	nop
    69b0:	00000000 	nop
    69b4:	00000000 	nop
    69b8:	00000000 	nop
    69bc:	00000000 	nop
    69c0:	00000000 	nop
    69c4:	00000000 	nop
    69c8:	00000000 	nop
    69cc:	00000000 	nop
    69d0:	00000000 	nop
    69d4:	00000000 	nop
    69d8:	00000000 	nop
    69dc:	00000000 	nop
    69e0:	00000000 	nop
    69e4:	00000000 	nop
    69e8:	00000000 	nop
    69ec:	00000000 	nop
    69f0:	00000000 	nop
    69f4:	00000000 	nop
    69f8:	00000000 	nop
    69fc:	00000000 	nop
    6a00:	00000000 	nop
    6a04:	00000000 	nop
    6a08:	00000000 	nop
    6a0c:	00000000 	nop
    6a10:	00000000 	nop
    6a14:	00000000 	nop
    6a18:	00000000 	nop
    6a1c:	00000000 	nop
    6a20:	00000000 	nop
    6a24:	00000000 	nop
    6a28:	00000000 	nop
    6a2c:	00000000 	nop
    6a30:	00000000 	nop
    6a34:	00000000 	nop
    6a38:	00000000 	nop
    6a3c:	00000000 	nop
    6a40:	00000000 	nop
    6a44:	00000000 	nop
    6a48:	00000000 	nop
    6a4c:	00000000 	nop
    6a50:	00000000 	nop
    6a54:	00000000 	nop
    6a58:	00000000 	nop
    6a5c:	00000000 	nop
    6a60:	00000000 	nop
    6a64:	00000000 	nop
    6a68:	00000000 	nop
    6a6c:	00000000 	nop
    6a70:	00000000 	nop
    6a74:	00000000 	nop
    6a78:	00000000 	nop
    6a7c:	00000000 	nop
    6a80:	00000000 	nop
    6a84:	00000000 	nop
    6a88:	00000000 	nop
    6a8c:	00000000 	nop
    6a90:	00000000 	nop
    6a94:	00000000 	nop
    6a98:	00000000 	nop
    6a9c:	00000000 	nop
    6aa0:	00000000 	nop
    6aa4:	00000000 	nop
    6aa8:	00000000 	nop
    6aac:	00000000 	nop
    6ab0:	00000000 	nop
    6ab4:	00000000 	nop
    6ab8:	00000000 	nop
    6abc:	00000000 	nop
    6ac0:	00000000 	nop
    6ac4:	00000000 	nop
    6ac8:	00000000 	nop
    6acc:	00000000 	nop
    6ad0:	00000000 	nop
    6ad4:	00000000 	nop
    6ad8:	00000000 	nop
    6adc:	00000000 	nop
    6ae0:	00000000 	nop
    6ae4:	00000000 	nop
    6ae8:	00000000 	nop
    6aec:	00000000 	nop
    6af0:	00000000 	nop
    6af4:	00000000 	nop
    6af8:	00000000 	nop
    6afc:	00000000 	nop
    6b00:	00000000 	nop
    6b04:	00000000 	nop
    6b08:	00000000 	nop
    6b0c:	00000000 	nop
    6b10:	00000000 	nop
    6b14:	00000000 	nop
    6b18:	00000000 	nop
    6b1c:	00000000 	nop
    6b20:	00000000 	nop
    6b24:	00000000 	nop
    6b28:	00000000 	nop
    6b2c:	00000000 	nop
    6b30:	00000000 	nop
    6b34:	00000000 	nop
    6b38:	00000000 	nop
    6b3c:	00000000 	nop
    6b40:	00000000 	nop
    6b44:	00000000 	nop
    6b48:	00000000 	nop
    6b4c:	00000000 	nop
    6b50:	00000000 	nop
    6b54:	00000000 	nop
    6b58:	00000000 	nop
    6b5c:	00000000 	nop
    6b60:	00000000 	nop
    6b64:	00000000 	nop
    6b68:	00000000 	nop
    6b6c:	00000000 	nop
    6b70:	00000000 	nop
    6b74:	00000000 	nop
    6b78:	00000000 	nop
    6b7c:	00000000 	nop
    6b80:	00000000 	nop
    6b84:	00000000 	nop
    6b88:	00000000 	nop
    6b8c:	00000000 	nop
    6b90:	00000000 	nop
    6b94:	00000000 	nop
    6b98:	00000000 	nop
    6b9c:	00000000 	nop
    6ba0:	00000000 	nop
    6ba4:	00000000 	nop
    6ba8:	00000000 	nop
    6bac:	00000000 	nop
    6bb0:	00000000 	nop
    6bb4:	00000000 	nop
    6bb8:	00000000 	nop
    6bbc:	00000000 	nop
    6bc0:	00000000 	nop
    6bc4:	00000000 	nop
    6bc8:	00000000 	nop
    6bcc:	00000000 	nop
    6bd0:	00000000 	nop
    6bd4:	00000000 	nop
    6bd8:	00000000 	nop
    6bdc:	00000000 	nop
    6be0:	00000000 	nop
    6be4:	00000000 	nop
    6be8:	00000000 	nop
    6bec:	00000000 	nop
    6bf0:	00000000 	nop
    6bf4:	00000000 	nop
    6bf8:	00000000 	nop
    6bfc:	00000000 	nop
    6c00:	00000000 	nop
    6c04:	00000000 	nop
    6c08:	00000000 	nop
    6c0c:	00000000 	nop
    6c10:	00000000 	nop
    6c14:	00000000 	nop
    6c18:	00000000 	nop
    6c1c:	00000000 	nop
    6c20:	00000000 	nop
    6c24:	00000000 	nop
    6c28:	00000000 	nop
    6c2c:	00000000 	nop
    6c30:	00000000 	nop
    6c34:	00000000 	nop
    6c38:	00000000 	nop
    6c3c:	00000000 	nop
    6c40:	00000000 	nop
    6c44:	00000000 	nop
    6c48:	00000000 	nop
    6c4c:	00000000 	nop
    6c50:	00000000 	nop
    6c54:	00000000 	nop
    6c58:	00000000 	nop
    6c5c:	00000000 	nop
    6c60:	00000000 	nop
    6c64:	00000000 	nop
    6c68:	00000000 	nop
    6c6c:	00000000 	nop
    6c70:	00000000 	nop
    6c74:	00000000 	nop
    6c78:	00000000 	nop
    6c7c:	00000000 	nop
    6c80:	00000000 	nop
    6c84:	00000000 	nop
    6c88:	00000000 	nop
    6c8c:	00000000 	nop
    6c90:	00000000 	nop
    6c94:	00000000 	nop
    6c98:	00000000 	nop
    6c9c:	00000000 	nop
    6ca0:	00000000 	nop
    6ca4:	00000000 	nop
    6ca8:	00000000 	nop
    6cac:	00000000 	nop
    6cb0:	00000000 	nop
    6cb4:	00000000 	nop
    6cb8:	00000000 	nop
    6cbc:	00000000 	nop
    6cc0:	00000000 	nop
    6cc4:	00000000 	nop
    6cc8:	00000000 	nop
    6ccc:	00000000 	nop
    6cd0:	00000000 	nop
    6cd4:	00000000 	nop
    6cd8:	00000000 	nop
    6cdc:	00000000 	nop
    6ce0:	00000000 	nop
    6ce4:	00000000 	nop
    6ce8:	00000000 	nop
    6cec:	00000000 	nop
    6cf0:	00000000 	nop
    6cf4:	00000000 	nop
    6cf8:	00000000 	nop
    6cfc:	00000000 	nop
    6d00:	00000000 	nop
    6d04:	00000000 	nop
    6d08:	00000000 	nop
    6d0c:	00000000 	nop
    6d10:	00000000 	nop
    6d14:	00000000 	nop
    6d18:	00000000 	nop
    6d1c:	00000000 	nop
    6d20:	00000000 	nop
    6d24:	00000000 	nop
    6d28:	00000000 	nop
    6d2c:	00000000 	nop
    6d30:	00000000 	nop
    6d34:	00000000 	nop
    6d38:	00000000 	nop
    6d3c:	00000000 	nop
    6d40:	00000000 	nop
    6d44:	00000000 	nop
    6d48:	00000000 	nop
    6d4c:	00000000 	nop
    6d50:	00000000 	nop
    6d54:	00000000 	nop
    6d58:	00000000 	nop
    6d5c:	00000000 	nop
    6d60:	00000000 	nop
    6d64:	00000000 	nop
    6d68:	00000000 	nop
    6d6c:	00000000 	nop
    6d70:	00000000 	nop
    6d74:	00000000 	nop
    6d78:	00000000 	nop
    6d7c:	00000000 	nop
    6d80:	00000000 	nop
    6d84:	00000000 	nop
    6d88:	00000000 	nop
    6d8c:	00000000 	nop
    6d90:	00000000 	nop
    6d94:	00000000 	nop
    6d98:	00000000 	nop
    6d9c:	00000000 	nop
    6da0:	00000000 	nop
    6da4:	00000000 	nop
    6da8:	00000000 	nop
    6dac:	00000000 	nop
    6db0:	00000000 	nop
    6db4:	00000000 	nop
    6db8:	00000000 	nop
    6dbc:	00000000 	nop
    6dc0:	00000000 	nop
    6dc4:	00000000 	nop
    6dc8:	00000000 	nop
    6dcc:	00000000 	nop
    6dd0:	00000000 	nop
    6dd4:	00000000 	nop
    6dd8:	00000000 	nop
    6ddc:	00000000 	nop
    6de0:	00000000 	nop
    6de4:	00000000 	nop
    6de8:	00000000 	nop
    6dec:	00000000 	nop
    6df0:	00000000 	nop
    6df4:	00000000 	nop
    6df8:	00000000 	nop
    6dfc:	00000000 	nop
    6e00:	00000000 	nop
    6e04:	00000000 	nop
    6e08:	00000000 	nop
    6e0c:	00000000 	nop
    6e10:	00000000 	nop
    6e14:	00000000 	nop
    6e18:	00000000 	nop
    6e1c:	00000000 	nop
    6e20:	00000000 	nop
    6e24:	00000000 	nop
    6e28:	00000000 	nop
    6e2c:	00000000 	nop
    6e30:	00000000 	nop
    6e34:	00000000 	nop
    6e38:	00000000 	nop
    6e3c:	00000000 	nop
    6e40:	00000000 	nop
    6e44:	00000000 	nop
    6e48:	00000000 	nop
    6e4c:	00000000 	nop
    6e50:	00000000 	nop
    6e54:	00000000 	nop
    6e58:	00000000 	nop
    6e5c:	00000000 	nop
    6e60:	00000000 	nop
    6e64:	00000000 	nop
    6e68:	00000000 	nop
    6e6c:	00000000 	nop
    6e70:	00000000 	nop
    6e74:	00000000 	nop
    6e78:	00000000 	nop
    6e7c:	00000000 	nop
    6e80:	00000000 	nop
    6e84:	00000000 	nop
    6e88:	00000000 	nop
    6e8c:	00000000 	nop
    6e90:	00000000 	nop
    6e94:	00000000 	nop
    6e98:	00000000 	nop
    6e9c:	00000000 	nop
    6ea0:	00000000 	nop
    6ea4:	00000000 	nop
    6ea8:	00000000 	nop
    6eac:	00000000 	nop
    6eb0:	00000000 	nop
    6eb4:	00000000 	nop
    6eb8:	00000000 	nop
    6ebc:	00000000 	nop
    6ec0:	00000000 	nop
    6ec4:	00000000 	nop
    6ec8:	00000000 	nop
    6ecc:	00000000 	nop
    6ed0:	00000000 	nop
    6ed4:	00000000 	nop
    6ed8:	00000000 	nop
    6edc:	00000000 	nop
    6ee0:	00000000 	nop
    6ee4:	00000000 	nop
    6ee8:	00000000 	nop
    6eec:	00000000 	nop
    6ef0:	00000000 	nop
    6ef4:	00000000 	nop
    6ef8:	00000000 	nop
    6efc:	00000000 	nop
    6f00:	00000000 	nop
    6f04:	00000000 	nop
    6f08:	00000000 	nop
    6f0c:	00000000 	nop
    6f10:	00000000 	nop
    6f14:	00000000 	nop
    6f18:	00000000 	nop
    6f1c:	00000000 	nop
    6f20:	00000000 	nop
    6f24:	00000000 	nop
    6f28:	00000000 	nop
    6f2c:	00000000 	nop
    6f30:	00000000 	nop
    6f34:	00000000 	nop
    6f38:	00000000 	nop
    6f3c:	00000000 	nop
    6f40:	00000000 	nop
    6f44:	00000000 	nop
    6f48:	00000000 	nop
    6f4c:	00000000 	nop
    6f50:	00000000 	nop
    6f54:	00000000 	nop
    6f58:	00000000 	nop
    6f5c:	00000000 	nop
    6f60:	00000000 	nop
    6f64:	00000000 	nop
    6f68:	00000000 	nop
    6f6c:	00000000 	nop
    6f70:	00000000 	nop
    6f74:	00000000 	nop
    6f78:	00000000 	nop
    6f7c:	00000000 	nop
    6f80:	00000000 	nop
    6f84:	00000000 	nop
    6f88:	00000000 	nop
    6f8c:	00000000 	nop
    6f90:	00000000 	nop
    6f94:	00000000 	nop
    6f98:	00000000 	nop
    6f9c:	00000000 	nop
    6fa0:	00000000 	nop
    6fa4:	00000000 	nop
    6fa8:	00000000 	nop
    6fac:	00000000 	nop
    6fb0:	00000000 	nop
    6fb4:	00000000 	nop
    6fb8:	00000000 	nop
    6fbc:	00000000 	nop
    6fc0:	00000000 	nop
    6fc4:	00000000 	nop
    6fc8:	00000000 	nop
    6fcc:	00000000 	nop
    6fd0:	00000000 	nop
    6fd4:	00000000 	nop
    6fd8:	00000000 	nop
    6fdc:	00000000 	nop
    6fe0:	00000000 	nop
    6fe4:	00000000 	nop
    6fe8:	00000000 	nop
    6fec:	00000000 	nop
    6ff0:	00000000 	nop
    6ff4:	00000000 	nop
    6ff8:	00000000 	nop
    6ffc:	00000000 	nop
    7000:	00000000 	nop
    7004:	00000000 	nop
    7008:	00000000 	nop
    700c:	00000000 	nop
    7010:	00000000 	nop
    7014:	00000000 	nop
    7018:	00000000 	nop
    701c:	00000000 	nop
    7020:	00000000 	nop
    7024:	00000000 	nop
    7028:	00000000 	nop
    702c:	00000000 	nop
    7030:	00000000 	nop
    7034:	00000000 	nop
    7038:	00000000 	nop
    703c:	00000000 	nop
    7040:	00000000 	nop
    7044:	00000000 	nop
    7048:	00000000 	nop
    704c:	00000000 	nop
    7050:	00000000 	nop
    7054:	00000000 	nop
    7058:	00000000 	nop
    705c:	00000000 	nop
    7060:	00000000 	nop
    7064:	00000000 	nop
    7068:	00000000 	nop
    706c:	00000000 	nop
    7070:	00000000 	nop
    7074:	00000000 	nop
    7078:	00000000 	nop
    707c:	00000000 	nop
    7080:	00000000 	nop
    7084:	00000000 	nop
    7088:	00000000 	nop
    708c:	00000000 	nop
    7090:	00000000 	nop
    7094:	00000000 	nop
    7098:	00000000 	nop
    709c:	00000000 	nop
    70a0:	00000000 	nop
    70a4:	00000000 	nop
    70a8:	00000000 	nop
    70ac:	00000000 	nop
    70b0:	00000000 	nop
    70b4:	00000000 	nop
    70b8:	00000000 	nop
    70bc:	00000000 	nop
    70c0:	00000000 	nop
    70c4:	00000000 	nop
    70c8:	00000000 	nop
    70cc:	00000000 	nop
    70d0:	00000000 	nop
    70d4:	00000000 	nop
    70d8:	00000000 	nop
    70dc:	00000000 	nop
    70e0:	00000000 	nop
    70e4:	00000000 	nop
    70e8:	00000000 	nop
    70ec:	00000000 	nop
    70f0:	00000000 	nop
    70f4:	00000000 	nop
    70f8:	00000000 	nop
    70fc:	00000000 	nop
    7100:	00000000 	nop
    7104:	00000000 	nop
    7108:	00000000 	nop
    710c:	00000000 	nop
    7110:	00000000 	nop
    7114:	00000000 	nop
    7118:	00000000 	nop
    711c:	00000000 	nop
    7120:	00000000 	nop
    7124:	00000000 	nop
    7128:	00000000 	nop
    712c:	00000000 	nop
    7130:	00000000 	nop
    7134:	00000000 	nop
    7138:	00000000 	nop
    713c:	00000000 	nop
    7140:	00000000 	nop
    7144:	00000000 	nop
    7148:	00000000 	nop
    714c:	00000000 	nop
    7150:	00000000 	nop
    7154:	00000000 	nop
    7158:	00000000 	nop
    715c:	00000000 	nop
    7160:	00000000 	nop
    7164:	00000000 	nop
    7168:	00000000 	nop
    716c:	00000000 	nop
    7170:	00000000 	nop
    7174:	00000000 	nop
    7178:	00000000 	nop
    717c:	00000000 	nop
    7180:	00000000 	nop
    7184:	00000000 	nop
    7188:	00000000 	nop
    718c:	00000000 	nop
    7190:	00000000 	nop
    7194:	00000000 	nop
    7198:	00000000 	nop
    719c:	00000000 	nop
    71a0:	00000000 	nop
    71a4:	00000000 	nop
    71a8:	00000000 	nop
    71ac:	00000000 	nop
    71b0:	00000000 	nop
    71b4:	00000000 	nop
    71b8:	00000000 	nop
    71bc:	00000000 	nop
    71c0:	00000000 	nop
    71c4:	00000000 	nop
    71c8:	00000000 	nop
    71cc:	00000000 	nop
    71d0:	00000000 	nop
    71d4:	00000000 	nop
    71d8:	00000000 	nop
    71dc:	00000000 	nop
    71e0:	00000000 	nop
    71e4:	00000000 	nop
    71e8:	00000000 	nop
    71ec:	00000000 	nop
    71f0:	00000000 	nop
    71f4:	00000000 	nop
    71f8:	00000000 	nop
    71fc:	00000000 	nop
    7200:	00000000 	nop
    7204:	00000000 	nop
    7208:	00000000 	nop
    720c:	00000000 	nop
    7210:	00000000 	nop
    7214:	00000000 	nop
    7218:	00000000 	nop
    721c:	00000000 	nop
    7220:	00000000 	nop
    7224:	00000000 	nop
    7228:	00000000 	nop
    722c:	00000000 	nop
    7230:	00000000 	nop
    7234:	00000000 	nop
    7238:	00000000 	nop
    723c:	00000000 	nop
    7240:	00000000 	nop
    7244:	00000000 	nop
    7248:	00000000 	nop
    724c:	00000000 	nop
    7250:	00000000 	nop
    7254:	00000000 	nop
    7258:	00000000 	nop
    725c:	00000000 	nop
    7260:	00000000 	nop
    7264:	00000000 	nop
    7268:	00000000 	nop
    726c:	00000000 	nop
    7270:	00000000 	nop
    7274:	00000000 	nop
    7278:	00000000 	nop
    727c:	00000000 	nop
    7280:	00000000 	nop
    7284:	00000000 	nop
    7288:	00000000 	nop
    728c:	00000000 	nop
    7290:	00000000 	nop
    7294:	00000000 	nop
    7298:	00000000 	nop
    729c:	00000000 	nop
    72a0:	00000000 	nop
    72a4:	00000000 	nop
    72a8:	00000000 	nop
    72ac:	00000000 	nop
    72b0:	00000000 	nop
    72b4:	00000000 	nop
    72b8:	00000000 	nop
    72bc:	00000000 	nop
    72c0:	00000000 	nop
    72c4:	00000000 	nop
    72c8:	00000000 	nop
    72cc:	00000000 	nop
    72d0:	00000000 	nop
    72d4:	00000000 	nop
    72d8:	00000000 	nop
    72dc:	00000000 	nop
    72e0:	00000000 	nop
    72e4:	00000000 	nop
    72e8:	00000000 	nop
    72ec:	00000000 	nop
    72f0:	00000000 	nop
    72f4:	00000000 	nop
    72f8:	00000000 	nop
    72fc:	00000000 	nop
    7300:	00000000 	nop
    7304:	00000000 	nop
    7308:	00000000 	nop
    730c:	00000000 	nop
    7310:	00000000 	nop
    7314:	00000000 	nop
    7318:	00000000 	nop
    731c:	00000000 	nop
    7320:	00000000 	nop
    7324:	00000000 	nop
    7328:	00000000 	nop
    732c:	00000000 	nop
    7330:	00000000 	nop
    7334:	00000000 	nop
    7338:	00000000 	nop
    733c:	00000000 	nop
    7340:	00000000 	nop
    7344:	00000000 	nop
    7348:	00000000 	nop
    734c:	00000000 	nop
    7350:	00000000 	nop
    7354:	00000000 	nop
    7358:	00000000 	nop
    735c:	00000000 	nop
    7360:	00000000 	nop
    7364:	00000000 	nop
    7368:	00000000 	nop
    736c:	00000000 	nop
    7370:	00000000 	nop
    7374:	00000000 	nop
    7378:	00000000 	nop
    737c:	00000000 	nop
    7380:	00000000 	nop
    7384:	00000000 	nop
    7388:	00000000 	nop
    738c:	00000000 	nop
    7390:	00000000 	nop
    7394:	00000000 	nop
    7398:	00000000 	nop
    739c:	00000000 	nop
    73a0:	00000000 	nop
    73a4:	00000000 	nop
    73a8:	00000000 	nop
    73ac:	00000000 	nop
    73b0:	00000000 	nop
    73b4:	00000000 	nop
    73b8:	00000000 	nop
    73bc:	00000000 	nop
    73c0:	00000000 	nop
    73c4:	00000000 	nop
    73c8:	00000000 	nop
    73cc:	00000000 	nop
    73d0:	00000000 	nop
    73d4:	00000000 	nop
    73d8:	00000000 	nop
    73dc:	00000000 	nop
    73e0:	00000000 	nop
    73e4:	00000000 	nop
    73e8:	00000000 	nop
    73ec:	00000000 	nop
    73f0:	00000000 	nop
    73f4:	00000000 	nop
    73f8:	00000000 	nop
    73fc:	00000000 	nop
    7400:	00000000 	nop
    7404:	00000000 	nop
    7408:	00000000 	nop
    740c:	00000000 	nop
    7410:	00000000 	nop
    7414:	00000000 	nop
    7418:	00000000 	nop
    741c:	00000000 	nop
    7420:	00000000 	nop
    7424:	00000000 	nop
    7428:	00000000 	nop
    742c:	00000000 	nop
    7430:	00000000 	nop
    7434:	00000000 	nop
    7438:	00000000 	nop
    743c:	00000000 	nop
    7440:	00000000 	nop
    7444:	00000000 	nop
    7448:	00000000 	nop
    744c:	00000000 	nop
    7450:	00000000 	nop
    7454:	00000000 	nop
    7458:	00000000 	nop
    745c:	00000000 	nop
    7460:	00000000 	nop
    7464:	00000000 	nop
    7468:	00000000 	nop
    746c:	00000000 	nop
    7470:	00000000 	nop
    7474:	00000000 	nop
    7478:	00000000 	nop
    747c:	00000000 	nop
    7480:	00000000 	nop
    7484:	00000000 	nop
    7488:	00000000 	nop
    748c:	00000000 	nop
    7490:	00000000 	nop
    7494:	00000000 	nop
    7498:	00000000 	nop
    749c:	00000000 	nop
    74a0:	00000000 	nop
    74a4:	00000000 	nop
    74a8:	00000000 	nop
    74ac:	00000000 	nop
    74b0:	00000000 	nop
    74b4:	00000000 	nop
    74b8:	00000000 	nop
    74bc:	00000000 	nop
    74c0:	00000000 	nop
    74c4:	00000000 	nop
    74c8:	00000000 	nop
    74cc:	00000000 	nop
    74d0:	00000000 	nop
    74d4:	00000000 	nop
    74d8:	00000000 	nop
    74dc:	00000000 	nop
    74e0:	00000000 	nop
    74e4:	00000000 	nop
    74e8:	00000000 	nop
    74ec:	00000000 	nop
    74f0:	00000000 	nop
    74f4:	00000000 	nop
    74f8:	00000000 	nop
    74fc:	00000000 	nop
    7500:	00000000 	nop
    7504:	00000000 	nop
    7508:	00000000 	nop
    750c:	00000000 	nop
    7510:	00000000 	nop
    7514:	00000000 	nop
    7518:	00000000 	nop
    751c:	00000000 	nop
    7520:	00000000 	nop
    7524:	00000000 	nop
    7528:	00000000 	nop
    752c:	00000000 	nop
    7530:	00000000 	nop
    7534:	00000000 	nop
    7538:	00000000 	nop
    753c:	00000000 	nop
    7540:	00000000 	nop
    7544:	00000000 	nop
    7548:	00000000 	nop
    754c:	00000000 	nop
    7550:	00000000 	nop
    7554:	00000000 	nop
    7558:	00000000 	nop
    755c:	00000000 	nop
    7560:	00000000 	nop
    7564:	00000000 	nop
    7568:	00000000 	nop
    756c:	00000000 	nop
    7570:	00000000 	nop
    7574:	00000000 	nop
    7578:	00000000 	nop
    757c:	00000000 	nop
    7580:	00000000 	nop
    7584:	00000000 	nop
    7588:	00000000 	nop
    758c:	00000000 	nop
    7590:	00000000 	nop
    7594:	00000000 	nop
    7598:	00000000 	nop
    759c:	00000000 	nop
    75a0:	00000000 	nop
    75a4:	00000000 	nop
    75a8:	00000000 	nop
    75ac:	00000000 	nop
    75b0:	00000000 	nop
    75b4:	00000000 	nop
    75b8:	00000000 	nop
    75bc:	00000000 	nop
    75c0:	00000000 	nop
    75c4:	00000000 	nop
    75c8:	00000000 	nop
    75cc:	00000000 	nop
    75d0:	00000000 	nop
    75d4:	00000000 	nop
    75d8:	00000000 	nop
    75dc:	00000000 	nop
    75e0:	00000000 	nop
    75e4:	00000000 	nop
    75e8:	00000000 	nop
    75ec:	00000000 	nop
    75f0:	00000000 	nop
    75f4:	00000000 	nop
    75f8:	00000000 	nop
    75fc:	00000000 	nop
    7600:	00000000 	nop
    7604:	00000000 	nop
    7608:	00000000 	nop
    760c:	00000000 	nop
    7610:	00000000 	nop
    7614:	00000000 	nop
    7618:	00000000 	nop
    761c:	00000000 	nop
    7620:	00000000 	nop
    7624:	00000000 	nop
    7628:	00000000 	nop
    762c:	00000000 	nop
    7630:	00000000 	nop
    7634:	00000000 	nop
    7638:	00000000 	nop
    763c:	00000000 	nop
    7640:	00000000 	nop
    7644:	00000000 	nop
    7648:	00000000 	nop
    764c:	00000000 	nop
    7650:	00000000 	nop
    7654:	00000000 	nop
    7658:	00000000 	nop
    765c:	00000000 	nop
    7660:	00000000 	nop
    7664:	00000000 	nop
    7668:	00000000 	nop
    766c:	00000000 	nop
    7670:	00000000 	nop
    7674:	00000000 	nop
    7678:	00000000 	nop
    767c:	00000000 	nop
    7680:	00000000 	nop
    7684:	00000000 	nop
    7688:	00000000 	nop
    768c:	00000000 	nop
    7690:	00000000 	nop
    7694:	00000000 	nop
    7698:	00000000 	nop
    769c:	00000000 	nop
    76a0:	00000000 	nop
    76a4:	00000000 	nop
    76a8:	00000000 	nop
    76ac:	00000000 	nop
    76b0:	00000000 	nop
    76b4:	00000000 	nop
    76b8:	00000000 	nop
    76bc:	00000000 	nop
    76c0:	00000000 	nop
    76c4:	00000000 	nop
    76c8:	00000000 	nop
    76cc:	00000000 	nop
    76d0:	00000000 	nop
    76d4:	00000000 	nop
    76d8:	00000000 	nop
    76dc:	00000000 	nop
    76e0:	00000000 	nop
    76e4:	00000000 	nop
    76e8:	00000000 	nop
    76ec:	00000000 	nop
    76f0:	00000000 	nop
    76f4:	00000000 	nop
    76f8:	00000000 	nop
    76fc:	00000000 	nop
    7700:	00000000 	nop
    7704:	00000000 	nop
    7708:	00000000 	nop
    770c:	00000000 	nop
    7710:	00000000 	nop
    7714:	00000000 	nop
    7718:	00000000 	nop
    771c:	00000000 	nop
    7720:	00000000 	nop
    7724:	00000000 	nop
    7728:	00000000 	nop
    772c:	00000000 	nop
    7730:	00000000 	nop
    7734:	00000000 	nop
    7738:	00000000 	nop
    773c:	00000000 	nop
    7740:	00000000 	nop
    7744:	00000000 	nop
    7748:	00000000 	nop
    774c:	00000000 	nop
    7750:	00000000 	nop
    7754:	00000000 	nop
    7758:	00000000 	nop
    775c:	00000000 	nop
    7760:	00000000 	nop
    7764:	00000000 	nop
    7768:	00000000 	nop
    776c:	00000000 	nop
    7770:	00000000 	nop
    7774:	00000000 	nop
    7778:	00000000 	nop
    777c:	00000000 	nop
    7780:	00000000 	nop
    7784:	00000000 	nop
    7788:	00000000 	nop
    778c:	00000000 	nop
    7790:	00000000 	nop
    7794:	00000000 	nop
    7798:	00000000 	nop
    779c:	00000000 	nop
    77a0:	00000000 	nop
    77a4:	00000000 	nop
    77a8:	00000000 	nop
    77ac:	00000000 	nop
    77b0:	00000000 	nop
    77b4:	00000000 	nop
    77b8:	00000000 	nop
    77bc:	00000000 	nop
    77c0:	00000000 	nop
    77c4:	00000000 	nop
    77c8:	00000000 	nop
    77cc:	00000000 	nop
    77d0:	00000000 	nop
    77d4:	00000000 	nop
    77d8:	00000000 	nop
    77dc:	00000000 	nop
    77e0:	00000000 	nop
    77e4:	00000000 	nop
    77e8:	00000000 	nop
    77ec:	00000000 	nop
    77f0:	00000000 	nop
    77f4:	00000000 	nop
    77f8:	00000000 	nop
    77fc:	00000000 	nop
    7800:	00000000 	nop
    7804:	00000000 	nop
    7808:	00000000 	nop
    780c:	00000000 	nop
    7810:	00000000 	nop
    7814:	00000000 	nop
    7818:	00000000 	nop
    781c:	00000000 	nop
    7820:	00000000 	nop
    7824:	00000000 	nop
    7828:	00000000 	nop
    782c:	00000000 	nop
    7830:	00000000 	nop
    7834:	00000000 	nop
    7838:	00000000 	nop
    783c:	00000000 	nop
    7840:	00000000 	nop
    7844:	00000000 	nop
    7848:	00000000 	nop
    784c:	00000000 	nop
    7850:	00000000 	nop
    7854:	00000000 	nop
    7858:	00000000 	nop
    785c:	00000000 	nop
    7860:	00000000 	nop
    7864:	00000000 	nop
    7868:	00000000 	nop
    786c:	00000000 	nop
    7870:	00000000 	nop
    7874:	00000000 	nop
    7878:	00000000 	nop
    787c:	00000000 	nop
    7880:	00000000 	nop
    7884:	00000000 	nop
    7888:	00000000 	nop
    788c:	00000000 	nop
    7890:	00000000 	nop
    7894:	00000000 	nop
    7898:	00000000 	nop
    789c:	00000000 	nop
    78a0:	00000000 	nop
    78a4:	00000000 	nop
    78a8:	00000000 	nop
    78ac:	00000000 	nop
    78b0:	00000000 	nop
    78b4:	00000000 	nop
    78b8:	00000000 	nop
    78bc:	00000000 	nop
    78c0:	00000000 	nop
    78c4:	00000000 	nop
    78c8:	00000000 	nop
    78cc:	00000000 	nop
    78d0:	00000000 	nop
    78d4:	00000000 	nop
    78d8:	00000000 	nop
    78dc:	00000000 	nop
    78e0:	00000000 	nop
    78e4:	00000000 	nop
    78e8:	00000000 	nop
    78ec:	00000000 	nop
    78f0:	00000000 	nop
    78f4:	00000000 	nop
    78f8:	00000000 	nop
    78fc:	00000000 	nop
    7900:	00000000 	nop
    7904:	00000000 	nop
    7908:	00000000 	nop
    790c:	00000000 	nop
    7910:	00000000 	nop
    7914:	00000000 	nop
    7918:	00000000 	nop
    791c:	00000000 	nop
    7920:	00000000 	nop
    7924:	00000000 	nop
    7928:	00000000 	nop
    792c:	00000000 	nop
    7930:	00000000 	nop
    7934:	00000000 	nop
    7938:	00000000 	nop
    793c:	00000000 	nop
    7940:	00000000 	nop
    7944:	00000000 	nop
    7948:	00000000 	nop
    794c:	00000000 	nop
    7950:	00000000 	nop
    7954:	00000000 	nop
    7958:	00000000 	nop
    795c:	00000000 	nop
    7960:	00000000 	nop
    7964:	00000000 	nop
    7968:	00000000 	nop
    796c:	00000000 	nop
    7970:	00000000 	nop
    7974:	00000000 	nop
    7978:	00000000 	nop
    797c:	00000000 	nop
    7980:	00000000 	nop
    7984:	00000000 	nop
    7988:	00000000 	nop
    798c:	00000000 	nop
    7990:	00000000 	nop
    7994:	00000000 	nop
    7998:	00000000 	nop
    799c:	00000000 	nop
    79a0:	00000000 	nop
    79a4:	00000000 	nop
    79a8:	00000000 	nop
    79ac:	00000000 	nop
    79b0:	00000000 	nop
    79b4:	00000000 	nop
    79b8:	00000000 	nop
    79bc:	00000000 	nop
    79c0:	00000000 	nop
    79c4:	00000000 	nop
    79c8:	00000000 	nop
    79cc:	00000000 	nop
    79d0:	00000000 	nop
    79d4:	00000000 	nop
    79d8:	00000000 	nop
    79dc:	00000000 	nop
    79e0:	00000000 	nop
    79e4:	00000000 	nop
    79e8:	00000000 	nop
    79ec:	00000000 	nop
    79f0:	00000000 	nop
    79f4:	00000000 	nop
    79f8:	00000000 	nop
    79fc:	00000000 	nop
    7a00:	00000000 	nop
    7a04:	00000000 	nop
    7a08:	00000000 	nop
    7a0c:	00000000 	nop
    7a10:	00000000 	nop
    7a14:	00000000 	nop
    7a18:	00000000 	nop
    7a1c:	00000000 	nop
    7a20:	00000000 	nop
    7a24:	00000000 	nop
    7a28:	00000000 	nop
    7a2c:	00000000 	nop
    7a30:	00000000 	nop
    7a34:	00000000 	nop
    7a38:	00000000 	nop
    7a3c:	00000000 	nop
    7a40:	00000000 	nop
    7a44:	00000000 	nop
    7a48:	00000000 	nop
    7a4c:	00000000 	nop
    7a50:	00000000 	nop
    7a54:	00000000 	nop
    7a58:	00000000 	nop
    7a5c:	00000000 	nop
    7a60:	00000000 	nop
    7a64:	00000000 	nop
    7a68:	00000000 	nop
    7a6c:	00000000 	nop
    7a70:	00000000 	nop
    7a74:	00000000 	nop
    7a78:	00000000 	nop
    7a7c:	00000000 	nop
    7a80:	00000000 	nop
    7a84:	00000000 	nop
    7a88:	00000000 	nop
    7a8c:	00000000 	nop
    7a90:	00000000 	nop
    7a94:	00000000 	nop
    7a98:	00000000 	nop
    7a9c:	00000000 	nop
    7aa0:	00000000 	nop
    7aa4:	00000000 	nop
    7aa8:	00000000 	nop
    7aac:	00000000 	nop
    7ab0:	00000000 	nop
    7ab4:	00000000 	nop
    7ab8:	00000000 	nop
    7abc:	00000000 	nop
    7ac0:	00000000 	nop
    7ac4:	00000000 	nop
    7ac8:	00000000 	nop
    7acc:	00000000 	nop
    7ad0:	00000000 	nop
    7ad4:	00000000 	nop
    7ad8:	00000000 	nop
    7adc:	00000000 	nop
    7ae0:	00000000 	nop
    7ae4:	00000000 	nop
    7ae8:	00000000 	nop
    7aec:	00000000 	nop
    7af0:	00000000 	nop
    7af4:	00000000 	nop
    7af8:	00000000 	nop
    7afc:	00000000 	nop
    7b00:	00000000 	nop
    7b04:	00000000 	nop
    7b08:	00000000 	nop
    7b0c:	00000000 	nop
    7b10:	00000000 	nop
    7b14:	00000000 	nop
    7b18:	00000000 	nop
    7b1c:	00000000 	nop
    7b20:	00000000 	nop
    7b24:	00000000 	nop
    7b28:	00000000 	nop
    7b2c:	00000000 	nop
    7b30:	00000000 	nop
    7b34:	00000000 	nop
    7b38:	00000000 	nop
    7b3c:	00000000 	nop
    7b40:	00000000 	nop
    7b44:	00000000 	nop
    7b48:	00000000 	nop
    7b4c:	00000000 	nop
    7b50:	00000000 	nop
    7b54:	00000000 	nop
    7b58:	00000000 	nop
    7b5c:	00000000 	nop
    7b60:	00000000 	nop
    7b64:	00000000 	nop
    7b68:	00000000 	nop
    7b6c:	00000000 	nop
    7b70:	00000000 	nop
    7b74:	00000000 	nop
    7b78:	00000000 	nop
    7b7c:	00000000 	nop
    7b80:	00000000 	nop
    7b84:	00000000 	nop
    7b88:	00000000 	nop
    7b8c:	00000000 	nop
    7b90:	00000000 	nop
    7b94:	00000000 	nop
    7b98:	00000000 	nop
    7b9c:	00000000 	nop
    7ba0:	00000000 	nop
    7ba4:	00000000 	nop
    7ba8:	00000000 	nop
    7bac:	00000000 	nop
    7bb0:	00000000 	nop
    7bb4:	00000000 	nop
    7bb8:	00000000 	nop
    7bbc:	00000000 	nop
    7bc0:	00000000 	nop
    7bc4:	00000000 	nop
    7bc8:	00000000 	nop
    7bcc:	00000000 	nop
    7bd0:	00000000 	nop
    7bd4:	00000000 	nop
    7bd8:	00000000 	nop
    7bdc:	00000000 	nop
    7be0:	00000000 	nop
    7be4:	00000000 	nop
    7be8:	00000000 	nop
    7bec:	00000000 	nop
    7bf0:	00000000 	nop
    7bf4:	00000000 	nop
    7bf8:	00000000 	nop
    7bfc:	00000000 	nop
    7c00:	00000000 	nop
    7c04:	00000000 	nop
    7c08:	00000000 	nop
    7c0c:	00000000 	nop
    7c10:	00000000 	nop
    7c14:	00000000 	nop
    7c18:	00000000 	nop
    7c1c:	00000000 	nop
    7c20:	00000000 	nop
    7c24:	00000000 	nop
    7c28:	00000000 	nop
    7c2c:	00000000 	nop
    7c30:	00000000 	nop
    7c34:	00000000 	nop
    7c38:	00000000 	nop
    7c3c:	00000000 	nop
    7c40:	00000000 	nop
    7c44:	00000000 	nop
    7c48:	00000000 	nop
    7c4c:	00000000 	nop
    7c50:	00000000 	nop
    7c54:	00000000 	nop
    7c58:	00000000 	nop
    7c5c:	00000000 	nop
    7c60:	00000000 	nop
    7c64:	00000000 	nop
    7c68:	00000000 	nop
    7c6c:	00000000 	nop
    7c70:	00000000 	nop
    7c74:	00000000 	nop
    7c78:	00000000 	nop
    7c7c:	00000000 	nop
    7c80:	00000000 	nop
    7c84:	00000000 	nop
    7c88:	00000000 	nop
    7c8c:	00000000 	nop
    7c90:	00000000 	nop
    7c94:	00000000 	nop
    7c98:	00000000 	nop
    7c9c:	00000000 	nop
    7ca0:	00000000 	nop
    7ca4:	00000000 	nop
    7ca8:	00000000 	nop
    7cac:	00000000 	nop
    7cb0:	00000000 	nop
    7cb4:	00000000 	nop
    7cb8:	00000000 	nop
    7cbc:	00000000 	nop
    7cc0:	00000000 	nop
    7cc4:	00000000 	nop
    7cc8:	00000000 	nop
    7ccc:	00000000 	nop
    7cd0:	00000000 	nop
    7cd4:	00000000 	nop
    7cd8:	00000000 	nop
    7cdc:	00000000 	nop
    7ce0:	00000000 	nop
    7ce4:	00000000 	nop
    7ce8:	00000000 	nop
    7cec:	00000000 	nop
    7cf0:	00000000 	nop
    7cf4:	00000000 	nop
    7cf8:	00000000 	nop
    7cfc:	00000000 	nop
    7d00:	00000000 	nop
    7d04:	00000000 	nop
    7d08:	00000000 	nop
    7d0c:	00000000 	nop
    7d10:	00000000 	nop
    7d14:	00000000 	nop
    7d18:	00000000 	nop
    7d1c:	00000000 	nop
    7d20:	00000000 	nop
    7d24:	00000000 	nop
    7d28:	00000000 	nop
    7d2c:	00000000 	nop
    7d30:	00000000 	nop
    7d34:	00000000 	nop
    7d38:	00000000 	nop
    7d3c:	00000000 	nop
    7d40:	00000000 	nop
    7d44:	00000000 	nop
    7d48:	00000000 	nop
    7d4c:	00000000 	nop
    7d50:	00000000 	nop
    7d54:	00000000 	nop
    7d58:	00000000 	nop
    7d5c:	00000000 	nop
    7d60:	00000000 	nop
    7d64:	00000000 	nop
    7d68:	00000000 	nop
    7d6c:	00000000 	nop
    7d70:	00000000 	nop
    7d74:	00000000 	nop
    7d78:	00000000 	nop
    7d7c:	00000000 	nop
    7d80:	00000000 	nop
    7d84:	00000000 	nop
    7d88:	00000000 	nop
    7d8c:	00000000 	nop
    7d90:	00000000 	nop
    7d94:	00000000 	nop
    7d98:	00000000 	nop
    7d9c:	00000000 	nop
    7da0:	00000000 	nop
    7da4:	00000000 	nop
    7da8:	00000000 	nop
    7dac:	00000000 	nop
    7db0:	00000000 	nop
    7db4:	00000000 	nop
    7db8:	00000000 	nop
    7dbc:	00000000 	nop
    7dc0:	00000000 	nop
    7dc4:	00000000 	nop
    7dc8:	00000000 	nop
    7dcc:	00000000 	nop
    7dd0:	00000000 	nop
    7dd4:	00000000 	nop
    7dd8:	00000000 	nop
    7ddc:	00000000 	nop
    7de0:	00000000 	nop
    7de4:	00000000 	nop
    7de8:	00000000 	nop
    7dec:	00000000 	nop
    7df0:	00000000 	nop
    7df4:	00000000 	nop
    7df8:	00000000 	nop
    7dfc:	00000000 	nop
    7e00:	00000000 	nop
    7e04:	00000000 	nop
    7e08:	00000000 	nop
    7e0c:	00000000 	nop
    7e10:	00000000 	nop
    7e14:	00000000 	nop
    7e18:	00000000 	nop
    7e1c:	00000000 	nop
    7e20:	00000000 	nop
    7e24:	00000000 	nop
    7e28:	00000000 	nop
    7e2c:	00000000 	nop
    7e30:	00000000 	nop
    7e34:	00000000 	nop
    7e38:	00000000 	nop
    7e3c:	00000000 	nop
    7e40:	00000000 	nop
    7e44:	00000000 	nop
    7e48:	00000000 	nop
    7e4c:	00000000 	nop
    7e50:	00000000 	nop
    7e54:	00000000 	nop
    7e58:	00000000 	nop
    7e5c:	00000000 	nop
    7e60:	00000000 	nop
    7e64:	00000000 	nop
    7e68:	00000000 	nop
    7e6c:	00000000 	nop
    7e70:	00000000 	nop
    7e74:	00000000 	nop
    7e78:	00000000 	nop
    7e7c:	00000000 	nop
    7e80:	00000000 	nop
    7e84:	00000000 	nop
    7e88:	00000000 	nop
    7e8c:	00000000 	nop
    7e90:	00000000 	nop
    7e94:	00000000 	nop
    7e98:	00000000 	nop
    7e9c:	00000000 	nop
    7ea0:	00000000 	nop
    7ea4:	00000000 	nop
    7ea8:	00000000 	nop
    7eac:	00000000 	nop
    7eb0:	00000000 	nop
    7eb4:	00000000 	nop
    7eb8:	00000000 	nop
    7ebc:	00000000 	nop
    7ec0:	00000000 	nop
    7ec4:	00000000 	nop
    7ec8:	00000000 	nop
    7ecc:	00000000 	nop
    7ed0:	00000000 	nop
    7ed4:	00000000 	nop
    7ed8:	00000000 	nop
    7edc:	00000000 	nop
    7ee0:	00000000 	nop
    7ee4:	00000000 	nop
    7ee8:	00000000 	nop
    7eec:	00000000 	nop
    7ef0:	00000000 	nop
    7ef4:	00000000 	nop
    7ef8:	00000000 	nop
    7efc:	00000000 	nop
    7f00:	00000000 	nop
    7f04:	00000000 	nop
    7f08:	00000000 	nop
    7f0c:	00000000 	nop
    7f10:	00000000 	nop
    7f14:	00000000 	nop
    7f18:	00000000 	nop
    7f1c:	00000000 	nop
    7f20:	00000000 	nop
    7f24:	00000000 	nop
    7f28:	00000000 	nop
    7f2c:	00000000 	nop
    7f30:	00000000 	nop
    7f34:	00000000 	nop
    7f38:	00000000 	nop
    7f3c:	00000000 	nop
    7f40:	00000000 	nop
    7f44:	00000000 	nop
    7f48:	00000000 	nop
    7f4c:	00000000 	nop
    7f50:	00000000 	nop
    7f54:	00000000 	nop
    7f58:	00000000 	nop
    7f5c:	00000000 	nop
    7f60:	00000000 	nop
    7f64:	00000000 	nop
    7f68:	00000000 	nop
    7f6c:	00000000 	nop
    7f70:	00000000 	nop
    7f74:	00000000 	nop
    7f78:	00000000 	nop
    7f7c:	00000000 	nop
    7f80:	00000000 	nop
    7f84:	00000000 	nop
    7f88:	00000000 	nop
    7f8c:	00000000 	nop
    7f90:	00000000 	nop
    7f94:	00000000 	nop
    7f98:	00000000 	nop
    7f9c:	00000000 	nop
    7fa0:	00000000 	nop
    7fa4:	00000000 	nop
    7fa8:	00000000 	nop
    7fac:	00000000 	nop
    7fb0:	00000000 	nop
    7fb4:	00000000 	nop
    7fb8:	00000000 	nop
    7fbc:	00000000 	nop
    7fc0:	00000000 	nop
    7fc4:	00000000 	nop
    7fc8:	00000000 	nop
    7fcc:	00000000 	nop
    7fd0:	00000000 	nop
    7fd4:	00000000 	nop
    7fd8:	00000000 	nop
    7fdc:	00000000 	nop
    7fe0:	00000000 	nop
    7fe4:	00000000 	nop
    7fe8:	00000000 	nop
    7fec:	00000000 	nop
    7ff0:	00000000 	nop
    7ff4:	00000000 	nop
    7ff8:	00000000 	nop
    7ffc:	00000000 	nop
