
main:     file format elf32-bigmips


Disassembly of section .text:

00000000 <_start>:
       0:	241dffff 	li	sp,-1
       4:	3c028000 	lui	v0,0x8000
       8:	8c420378 	lw	v0,888(v0)
       c:	00000000 	nop
      10:	0040f809 	jalr	v0
      14:	00000000 	nop
      18:	0c000a1c 	jal	2870 <main>
      1c:	00000000 	nop

00000020 <Control::MARG::start()>:
      20:	27bdfe08 	addiu	sp,sp,-504
      24:	afbf01f4 	sw	ra,500(sp)
      28:	afbe01f0 	sw	s8,496(sp)
      2c:	afb701ec 	sw	s7,492(sp)
      30:	afb601e8 	sw	s6,488(sp)
      34:	afb501e4 	sw	s5,484(sp)
      38:	afb401e0 	sw	s4,480(sp)
      3c:	afb301dc 	sw	s3,476(sp)
      40:	0080a021 	move	s4,a0
      44:	afb201d8 	sw	s2,472(sp)
      48:	afb101d4 	sw	s1,468(sp)
      4c:	0c000853 	jal	214c <Sensors::IMU::MPU6050::updateAccelerometerAndGyro()>
      50:	afb001d0 	sw	s0,464(sp)
      54:	3c023d7a 	lui	v0,0x3d7a
      58:	afa20188 	sw	v0,392(sp)
      5c:	3c023a00 	lui	v0,0x3a00
      60:	afa20184 	sw	v0,388(sp)
      64:	3c023a70 	lui	v0,0x3a70
      68:	24427faf 	addiu	v0,v0,32687
      6c:	0c00083d 	jal	20f4 <_ZN6System8Registry8instanceEv.local.0>
      70:	afa20180 	sw	v0,384(sp)
      74:	27b00010 	addiu	s0,sp,16
      78:	8c450028 	lw	a1,40(v0)
      7c:	0c000809 	jal	2024 <float32::float32(int)>
      80:	02002021 	move	a0,s0
      84:	27a60188 	addiu	a2,sp,392
      88:	27a4017c 	addiu	a0,sp,380
      8c:	0c00079c 	jal	1e70 <float32::operator*(float32 const&) const>
      90:	02002821 	move	a1,s0
      94:	0c00083d 	jal	20f4 <_ZN6System8Registry8instanceEv.local.0>
      98:	26950038 	addiu	s5,s4,56
      9c:	8c45002c 	lw	a1,44(v0)
      a0:	0c000809 	jal	2024 <float32::float32(int)>
      a4:	02002021 	move	a0,s0
      a8:	27a60188 	addiu	a2,sp,392
      ac:	27a40178 	addiu	a0,sp,376
      b0:	0c00079c 	jal	1e70 <float32::operator*(float32 const&) const>
      b4:	02002821 	move	a1,s0
      b8:	0c00083d 	jal	20f4 <_ZN6System8Registry8instanceEv.local.0>
      bc:	2693003c 	addiu	s3,s4,60
      c0:	8c450030 	lw	a1,48(v0)
      c4:	0c000809 	jal	2024 <float32::float32(int)>
      c8:	02002021 	move	a0,s0
      cc:	27a60188 	addiu	a2,sp,392
      d0:	27a40174 	addiu	a0,sp,372
      d4:	0c00079c 	jal	1e70 <float32::operator*(float32 const&) const>
      d8:	02002821 	move	a1,s0
      dc:	0c00083d 	jal	20f4 <_ZN6System8Registry8instanceEv.local.0>
      e0:	26920040 	addiu	s2,s4,64
      e4:	8c450010 	lw	a1,16(v0)
      e8:	0c000809 	jal	2024 <float32::float32(int)>
      ec:	02002021 	move	a0,s0
      f0:	27a60184 	addiu	a2,sp,388
      f4:	27a40170 	addiu	a0,sp,368
      f8:	0c00079c 	jal	1e70 <float32::operator*(float32 const&) const>
      fc:	02002821 	move	a1,s0
     100:	0c00083d 	jal	20f4 <_ZN6System8Registry8instanceEv.local.0>
     104:	26910044 	addiu	s1,s4,68
     108:	8c450014 	lw	a1,20(v0)
     10c:	0c000809 	jal	2024 <float32::float32(int)>
     110:	02002021 	move	a0,s0
     114:	27a60184 	addiu	a2,sp,388
     118:	27a4016c 	addiu	a0,sp,364
     11c:	0c00079c 	jal	1e70 <float32::operator*(float32 const&) const>
     120:	02002821 	move	a1,s0
     124:	0c00083d 	jal	20f4 <_ZN6System8Registry8instanceEv.local.0>
     128:	27b60158 	addiu	s6,sp,344
     12c:	8c450018 	lw	a1,24(v0)
     130:	0c000809 	jal	2024 <float32::float32(int)>
     134:	02002021 	move	a0,s0
     138:	27a60184 	addiu	a2,sp,388
     13c:	27a40168 	addiu	a0,sp,360
     140:	0c00079c 	jal	1e70 <float32::operator*(float32 const&) const>
     144:	02002821 	move	a1,s0
     148:	0c00083d 	jal	20f4 <_ZN6System8Registry8instanceEv.local.0>
     14c:	27b700e4 	addiu	s7,sp,228
     150:	8c450034 	lw	a1,52(v0)
     154:	0c000809 	jal	2024 <float32::float32(int)>
     158:	02002021 	move	a0,s0
     15c:	27a60180 	addiu	a2,sp,384
     160:	27a40164 	addiu	a0,sp,356
     164:	0c00079c 	jal	1e70 <float32::operator*(float32 const&) const>
     168:	02002821 	move	a1,s0
     16c:	0c00083d 	jal	20f4 <_ZN6System8Registry8instanceEv.local.0>
     170:	27be00e0 	addiu	s8,sp,224
     174:	8c450038 	lw	a1,56(v0)
     178:	0c000809 	jal	2024 <float32::float32(int)>
     17c:	02002021 	move	a0,s0
     180:	27a60180 	addiu	a2,sp,384
     184:	27a40160 	addiu	a0,sp,352
     188:	0c00079c 	jal	1e70 <float32::operator*(float32 const&) const>
     18c:	02002821 	move	a1,s0
     190:	0c00083d 	jal	20f4 <_ZN6System8Registry8instanceEv.local.0>
     194:	00000000 	nop
     198:	8c45003c 	lw	a1,60(v0)
     19c:	0c000809 	jal	2024 <float32::float32(int)>
     1a0:	02002021 	move	a0,s0
     1a4:	27a4015c 	addiu	a0,sp,348
     1a8:	02002821 	move	a1,s0
     1ac:	0c00079c 	jal	1e70 <float32::operator*(float32 const&) const>
     1b0:	27a60180 	addiu	a2,sp,384
     1b4:	8fa2017c 	lw	v0,380(sp)
     1b8:	27a700b4 	addiu	a3,sp,180
     1bc:	afa201ac 	sw	v0,428(sp)
     1c0:	8fa20178 	lw	v0,376(sp)
     1c4:	00000000 	nop
     1c8:	afa201a8 	sw	v0,424(sp)
     1cc:	8fa20174 	lw	v0,372(sp)
     1d0:	00e02021 	move	a0,a3
     1d4:	afa201a4 	sw	v0,420(sp)
     1d8:	8fa20170 	lw	v0,368(sp)
     1dc:	27a500bc 	addiu	a1,sp,188
     1e0:	afa201a0 	sw	v0,416(sp)
     1e4:	8fa2016c 	lw	v0,364(sp)
     1e8:	02a03021 	move	a2,s5
     1ec:	afa2019c 	sw	v0,412(sp)
     1f0:	8fa20168 	lw	v0,360(sp)
     1f4:	afa701c8 	sw	a3,456(sp)
     1f8:	afa20198 	sw	v0,408(sp)
     1fc:	8fa20164 	lw	v0,356(sp)
     200:	00000000 	nop
     204:	afa20194 	sw	v0,404(sp)
     208:	8fa20160 	lw	v0,352(sp)
     20c:	afa00154 	sw	zero,340(sp)
     210:	afa20190 	sw	v0,400(sp)
     214:	8fa2015c 	lw	v0,348(sp)
     218:	00000000 	nop
     21c:	afa2018c 	sw	v0,396(sp)
     220:	3c023f00 	lui	v0,0x3f00
     224:	afa200bc 	sw	v0,188(sp)
     228:	3c024000 	lui	v0,0x4000
     22c:	0c00079c 	jal	1e70 <float32::operator*(float32 const&) const>
     230:	afa200b8 	sw	v0,184(sp)
     234:	27a300b0 	addiu	v1,sp,176
     238:	00602021 	move	a0,v1
     23c:	27a500bc 	addiu	a1,sp,188
     240:	02603021 	move	a2,s3
     244:	0c00079c 	jal	1e70 <float32::operator*(float32 const&) const>
     248:	afa301cc 	sw	v1,460(sp)
     24c:	27aa00ac 	addiu	t2,sp,172
     250:	01402021 	move	a0,t2
     254:	27a500bc 	addiu	a1,sp,188
     258:	02403021 	move	a2,s2
     25c:	0c00079c 	jal	1e70 <float32::operator*(float32 const&) const>
     260:	afaa01c0 	sw	t2,448(sp)
     264:	27a800a8 	addiu	t0,sp,168
     268:	01002021 	move	a0,t0
     26c:	27a500bc 	addiu	a1,sp,188
     270:	02203021 	move	a2,s1
     274:	0c00079c 	jal	1e70 <float32::operator*(float32 const&) const>
     278:	afa801c4 	sw	t0,452(sp)
     27c:	27a400a4 	addiu	a0,sp,164
     280:	27a500b8 	addiu	a1,sp,184
     284:	0c00079c 	jal	1e70 <float32::operator*(float32 const&) const>
     288:	02a03021 	move	a2,s5
     28c:	27a400a0 	addiu	a0,sp,160
     290:	27a500b8 	addiu	a1,sp,184
     294:	0c00079c 	jal	1e70 <float32::operator*(float32 const&) const>
     298:	02603021 	move	a2,s3
     29c:	27a4009c 	addiu	a0,sp,156
     2a0:	27a500b8 	addiu	a1,sp,184
     2a4:	0c00079c 	jal	1e70 <float32::operator*(float32 const&) const>
     2a8:	02403021 	move	a2,s2
     2ac:	27a40098 	addiu	a0,sp,152
     2b0:	27a500b8 	addiu	a1,sp,184
     2b4:	0c00079c 	jal	1e70 <float32::operator*(float32 const&) const>
     2b8:	02203021 	move	a2,s1
     2bc:	27a40094 	addiu	a0,sp,148
     2c0:	27a500b8 	addiu	a1,sp,184
     2c4:	0c00079c 	jal	1e70 <float32::operator*(float32 const&) const>
     2c8:	26860048 	addiu	a2,s4,72
     2cc:	27a40090 	addiu	a0,sp,144
     2d0:	27a500b8 	addiu	a1,sp,184
     2d4:	0c00079c 	jal	1e70 <float32::operator*(float32 const&) const>
     2d8:	2686004c 	addiu	a2,s4,76
     2dc:	27a4008c 	addiu	a0,sp,140
     2e0:	27a50094 	addiu	a1,sp,148
     2e4:	0c00079c 	jal	1e70 <float32::operator*(float32 const&) const>
     2e8:	02a03021 	move	a2,s5
     2ec:	27a40088 	addiu	a0,sp,136
     2f0:	27a50094 	addiu	a1,sp,148
     2f4:	0c00079c 	jal	1e70 <float32::operator*(float32 const&) const>
     2f8:	02603021 	move	a2,s3
     2fc:	27a40084 	addiu	a0,sp,132
     300:	27a50094 	addiu	a1,sp,148
     304:	0c00079c 	jal	1e70 <float32::operator*(float32 const&) const>
     308:	02403021 	move	a2,s2
     30c:	27a40080 	addiu	a0,sp,128
     310:	27a50094 	addiu	a1,sp,148
     314:	0c00079c 	jal	1e70 <float32::operator*(float32 const&) const>
     318:	02203021 	move	a2,s1
     31c:	27a4007c 	addiu	a0,sp,124
     320:	27a50090 	addiu	a1,sp,144
     324:	0c00079c 	jal	1e70 <float32::operator*(float32 const&) const>
     328:	02a03021 	move	a2,s5
     32c:	27a40078 	addiu	a0,sp,120
     330:	27a50090 	addiu	a1,sp,144
     334:	0c00079c 	jal	1e70 <float32::operator*(float32 const&) const>
     338:	02603021 	move	a2,s3
     33c:	27a40074 	addiu	a0,sp,116
     340:	27a50090 	addiu	a1,sp,144
     344:	0c00079c 	jal	1e70 <float32::operator*(float32 const&) const>
     348:	02403021 	move	a2,s2
     34c:	27a40070 	addiu	a0,sp,112
     350:	27a50090 	addiu	a1,sp,144
     354:	0c00079c 	jal	1e70 <float32::operator*(float32 const&) const>
     358:	02203021 	move	a2,s1
     35c:	27a40068 	addiu	a0,sp,104
     360:	02a02821 	move	a1,s5
     364:	0c00079c 	jal	1e70 <float32::operator*(float32 const&) const>
     368:	02403021 	move	a2,s2
     36c:	27a4005c 	addiu	a0,sp,92
     370:	02602821 	move	a1,s3
     374:	0c00079c 	jal	1e70 <float32::operator*(float32 const&) const>
     378:	02203021 	move	a2,s1
     37c:	27a40054 	addiu	a0,sp,84
     380:	27a500b8 	addiu	a1,sp,184
     384:	0c00079c 	jal	1e70 <float32::operator*(float32 const&) const>
     388:	27a60194 	addiu	a2,sp,404
     38c:	27a40050 	addiu	a0,sp,80
     390:	27a500b8 	addiu	a1,sp,184
     394:	0c00079c 	jal	1e70 <float32::operator*(float32 const&) const>
     398:	27a60190 	addiu	a2,sp,400
     39c:	27a4004c 	addiu	a0,sp,76
     3a0:	27a500b8 	addiu	a1,sp,184
     3a4:	0c00079c 	jal	1e70 <float32::operator*(float32 const&) const>
     3a8:	27a6018c 	addiu	a2,sp,396
     3ac:	27a501a0 	addiu	a1,sp,416
     3b0:	27a4001c 	addiu	a0,sp,28
     3b4:	0c00079c 	jal	1e70 <float32::operator*(float32 const&) const>
     3b8:	00a03021 	move	a2,a1
     3bc:	27a5019c 	addiu	a1,sp,412
     3c0:	27a40020 	addiu	a0,sp,32
     3c4:	0c00079c 	jal	1e70 <float32::operator*(float32 const&) const>
     3c8:	00a03021 	move	a2,a1
     3cc:	27a40018 	addiu	a0,sp,24
     3d0:	27a5001c 	addiu	a1,sp,28
     3d4:	0c00096d 	jal	25b4 <float32::operator+(float32 const&) const>
     3d8:	27a60020 	addiu	a2,sp,32
     3dc:	27a50198 	addiu	a1,sp,408
     3e0:	27a40024 	addiu	a0,sp,36
     3e4:	0c00079c 	jal	1e70 <float32::operator*(float32 const&) const>
     3e8:	00a03021 	move	a2,a1
     3ec:	27a60024 	addiu	a2,sp,36
     3f0:	27a40014 	addiu	a0,sp,20
     3f4:	0c00096d 	jal	25b4 <float32::operator+(float32 const&) const>
     3f8:	27a50018 	addiu	a1,sp,24
     3fc:	02002021 	move	a0,s0
     400:	0c0009a7 	jal	269c <rsqrt(float32 const&)>
     404:	27a50014 	addiu	a1,sp,20
     408:	8fa20010 	lw	v0,16(sp)
     40c:	27a401a0 	addiu	a0,sp,416
     410:	02c02821 	move	a1,s6
     414:	0c0007fa 	jal	1fe8 <float32::operator*=(float32 const&)>
     418:	afa20158 	sw	v0,344(sp)
     41c:	27a4019c 	addiu	a0,sp,412
     420:	0c0007fa 	jal	1fe8 <float32::operator*=(float32 const&)>
     424:	02c02821 	move	a1,s6
     428:	27a40198 	addiu	a0,sp,408
     42c:	0c0007fa 	jal	1fe8 <float32::operator*=(float32 const&)>
     430:	02c02821 	move	a1,s6
     434:	27a50194 	addiu	a1,sp,404
     438:	27a4001c 	addiu	a0,sp,28
     43c:	0c00079c 	jal	1e70 <float32::operator*(float32 const&) const>
     440:	00a03021 	move	a2,a1
     444:	27a50190 	addiu	a1,sp,400
     448:	27a40020 	addiu	a0,sp,32
     44c:	0c00079c 	jal	1e70 <float32::operator*(float32 const&) const>
     450:	00a03021 	move	a2,a1
     454:	27a40018 	addiu	a0,sp,24
     458:	27a5001c 	addiu	a1,sp,28
     45c:	0c00096d 	jal	25b4 <float32::operator+(float32 const&) const>
     460:	27a60020 	addiu	a2,sp,32
     464:	27a5018c 	addiu	a1,sp,396
     468:	27a40024 	addiu	a0,sp,36
     46c:	0c00079c 	jal	1e70 <float32::operator*(float32 const&) const>
     470:	00a03021 	move	a2,a1
     474:	27a60024 	addiu	a2,sp,36
     478:	27a40014 	addiu	a0,sp,20
     47c:	0c00096d 	jal	25b4 <float32::operator+(float32 const&) const>
     480:	27a50018 	addiu	a1,sp,24
     484:	02002021 	move	a0,s0
     488:	0c0009a7 	jal	269c <rsqrt(float32 const&)>
     48c:	27a50014 	addiu	a1,sp,20
     490:	8fa20010 	lw	v0,16(sp)
     494:	27a40194 	addiu	a0,sp,404
     498:	02c02821 	move	a1,s6
     49c:	0c0007fa 	jal	1fe8 <float32::operator*=(float32 const&)>
     4a0:	afa20158 	sw	v0,344(sp)
     4a4:	27a40190 	addiu	a0,sp,400
     4a8:	0c0007fa 	jal	1fe8 <float32::operator*=(float32 const&)>
     4ac:	02c02821 	move	a1,s6
     4b0:	27a4018c 	addiu	a0,sp,396
     4b4:	0c0007fa 	jal	1fe8 <float32::operator*=(float32 const&)>
     4b8:	02c02821 	move	a1,s6
     4bc:	27a40048 	addiu	a0,sp,72
     4c0:	02402821 	move	a1,s2
     4c4:	0c00079c 	jal	1e70 <float32::operator*(float32 const&) const>
     4c8:	02403021 	move	a2,s2
     4cc:	02002021 	move	a0,s0
     4d0:	27a500a0 	addiu	a1,sp,160
     4d4:	0c00079c 	jal	1e70 <float32::operator*(float32 const&) const>
     4d8:	02203021 	move	a2,s1
     4dc:	8fa20010 	lw	v0,16(sp)
     4e0:	02403021 	move	a2,s2
     4e4:	02002021 	move	a0,s0
     4e8:	27a500a4 	addiu	a1,sp,164
     4ec:	0c00079c 	jal	1e70 <float32::operator*(float32 const&) const>
     4f0:	afa20144 	sw	v0,324(sp)
     4f4:	27a40144 	addiu	a0,sp,324
     4f8:	0c0009d2 	jal	2748 <float32::operator-=(float32 const&)>
     4fc:	02002821 	move	a1,s0
     500:	27a40144 	addiu	a0,sp,324
     504:	0c0009d2 	jal	2748 <float32::operator-=(float32 const&)>
     508:	27a501a0 	addiu	a1,sp,416
     50c:	02002021 	move	a0,s0
     510:	27a500a4 	addiu	a1,sp,164
     514:	0c00079c 	jal	1e70 <float32::operator*(float32 const&) const>
     518:	02603021 	move	a2,s3
     51c:	8fa20010 	lw	v0,16(sp)
     520:	02203021 	move	a2,s1
     524:	02002021 	move	a0,s0
     528:	27a5009c 	addiu	a1,sp,156
     52c:	0c00079c 	jal	1e70 <float32::operator*(float32 const&) const>
     530:	afa20140 	sw	v0,320(sp)
     534:	27a40140 	addiu	a0,sp,320
     538:	0c000983 	jal	260c <float32::operator+=(float32 const&)>
     53c:	02002821 	move	a1,s0
     540:	27a40140 	addiu	a0,sp,320
     544:	0c0009d2 	jal	2748 <float32::operator-=(float32 const&)>
     548:	27a5019c 	addiu	a1,sp,412
     54c:	02603021 	move	a2,s3
     550:	3c023f80 	lui	v0,0x3f80
     554:	02002021 	move	a0,s0
     558:	27a500a0 	addiu	a1,sp,160
     55c:	0c00079c 	jal	1e70 <float32::operator*(float32 const&) const>
     560:	afa2013c 	sw	v0,316(sp)
     564:	27a4013c 	addiu	a0,sp,316
     568:	0c0009d2 	jal	2748 <float32::operator-=(float32 const&)>
     56c:	02002821 	move	a1,s0
     570:	02403021 	move	a2,s2
     574:	02002021 	move	a0,s0
     578:	0c00079c 	jal	1e70 <float32::operator*(float32 const&) const>
     57c:	27a5009c 	addiu	a1,sp,156
     580:	27a4013c 	addiu	a0,sp,316
     584:	0c0009d2 	jal	2748 <float32::operator-=(float32 const&)>
     588:	02002821 	move	a1,s0
     58c:	27a4013c 	addiu	a0,sp,316
     590:	0c0009d2 	jal	2748 <float32::operator-=(float32 const&)>
     594:	27a50198 	addiu	a1,sp,408
     598:	27a40018 	addiu	a0,sp,24
     59c:	27a500bc 	addiu	a1,sp,188
     5a0:	0c000992 	jal	2648 <float32::operator-(float32 const&) const>
     5a4:	27a60048 	addiu	a2,sp,72
     5a8:	27a4001c 	addiu	a0,sp,28
     5ac:	02202821 	move	a1,s1
     5b0:	0c00079c 	jal	1e70 <float32::operator*(float32 const&) const>
     5b4:	02203021 	move	a2,s1
     5b8:	27a40014 	addiu	a0,sp,20
     5bc:	27a50018 	addiu	a1,sp,24
     5c0:	0c000992 	jal	2648 <float32::operator-(float32 const&) const>
     5c4:	27a6001c 	addiu	a2,sp,28
     5c8:	02002021 	move	a0,s0
     5cc:	27a50094 	addiu	a1,sp,148
     5d0:	0c00079c 	jal	1e70 <float32::operator*(float32 const&) const>
     5d4:	27a60014 	addiu	a2,sp,20
     5d8:	8fa20010 	lw	v0,16(sp)
     5dc:	27a40014 	addiu	a0,sp,20
     5e0:	27a5005c 	addiu	a1,sp,92
     5e4:	27a60068 	addiu	a2,sp,104
     5e8:	0c000992 	jal	2648 <float32::operator-(float32 const&) const>
     5ec:	afa20138 	sw	v0,312(sp)
     5f0:	27a60014 	addiu	a2,sp,20
     5f4:	02002021 	move	a0,s0
     5f8:	0c00079c 	jal	1e70 <float32::operator*(float32 const&) const>
     5fc:	27a50090 	addiu	a1,sp,144
     600:	27a40138 	addiu	a0,sp,312
     604:	0c000983 	jal	260c <float32::operator+=(float32 const&)>
     608:	02002821 	move	a1,s0
     60c:	27a40138 	addiu	a0,sp,312
     610:	0c0009d2 	jal	2748 <float32::operator-=(float32 const&)>
     614:	27a50194 	addiu	a1,sp,404
     618:	27a40018 	addiu	a0,sp,24
     61c:	02602821 	move	a1,s3
     620:	0c00079c 	jal	1e70 <float32::operator*(float32 const&) const>
     624:	02403021 	move	a2,s2
     628:	27a4001c 	addiu	a0,sp,28
     62c:	02a02821 	move	a1,s5
     630:	0c00079c 	jal	1e70 <float32::operator*(float32 const&) const>
     634:	02203021 	move	a2,s1
     638:	27a40014 	addiu	a0,sp,20
     63c:	27a50018 	addiu	a1,sp,24
     640:	0c000992 	jal	2648 <float32::operator-(float32 const&) const>
     644:	27a6001c 	addiu	a2,sp,28
     648:	02002021 	move	a0,s0
     64c:	27a50094 	addiu	a1,sp,148
     650:	0c00079c 	jal	1e70 <float32::operator*(float32 const&) const>
     654:	27a60014 	addiu	a2,sp,20
     658:	8fa20010 	lw	v0,16(sp)
     65c:	27a40018 	addiu	a0,sp,24
     660:	02a02821 	move	a1,s5
     664:	02603021 	move	a2,s3
     668:	0c00079c 	jal	1e70 <float32::operator*(float32 const&) const>
     66c:	afa20134 	sw	v0,308(sp)
     670:	27a4001c 	addiu	a0,sp,28
     674:	02402821 	move	a1,s2
     678:	0c00079c 	jal	1e70 <float32::operator*(float32 const&) const>
     67c:	02203021 	move	a2,s1
     680:	27a40014 	addiu	a0,sp,20
     684:	27a50018 	addiu	a1,sp,24
     688:	0c00096d 	jal	25b4 <float32::operator+(float32 const&) const>
     68c:	27a6001c 	addiu	a2,sp,28
     690:	27a60014 	addiu	a2,sp,20
     694:	02002021 	move	a0,s0
     698:	0c00079c 	jal	1e70 <float32::operator*(float32 const&) const>
     69c:	27a50090 	addiu	a1,sp,144
     6a0:	27a40134 	addiu	a0,sp,308
     6a4:	0c000983 	jal	260c <float32::operator+=(float32 const&)>
     6a8:	02002821 	move	a1,s0
     6ac:	27a40134 	addiu	a0,sp,308
     6b0:	0c0009d2 	jal	2748 <float32::operator-=(float32 const&)>
     6b4:	27a50190 	addiu	a1,sp,400
     6b8:	27a40014 	addiu	a0,sp,20
     6bc:	27a50068 	addiu	a1,sp,104
     6c0:	0c00096d 	jal	25b4 <float32::operator+(float32 const&) const>
     6c4:	27a6005c 	addiu	a2,sp,92
     6c8:	02002021 	move	a0,s0
     6cc:	27a50094 	addiu	a1,sp,148
     6d0:	0c00079c 	jal	1e70 <float32::operator*(float32 const&) const>
     6d4:	27a60014 	addiu	a2,sp,20
     6d8:	8fa20010 	lw	v0,16(sp)
     6dc:	27a4001c 	addiu	a0,sp,28
     6e0:	02602821 	move	a1,s3
     6e4:	02603021 	move	a2,s3
     6e8:	0c00079c 	jal	1e70 <float32::operator*(float32 const&) const>
     6ec:	afa20130 	sw	v0,304(sp)
     6f0:	27a40018 	addiu	a0,sp,24
     6f4:	27a500bc 	addiu	a1,sp,188
     6f8:	0c000992 	jal	2648 <float32::operator-(float32 const&) const>
     6fc:	27a6001c 	addiu	a2,sp,28
     700:	27a40014 	addiu	a0,sp,20
     704:	27a50018 	addiu	a1,sp,24
     708:	0c000992 	jal	2648 <float32::operator-(float32 const&) const>
     70c:	27a60048 	addiu	a2,sp,72
     710:	27a60014 	addiu	a2,sp,20
     714:	02002021 	move	a0,s0
     718:	0c00079c 	jal	1e70 <float32::operator*(float32 const&) const>
     71c:	27a50090 	addiu	a1,sp,144
     720:	27a40130 	addiu	a0,sp,304
     724:	0c000983 	jal	260c <float32::operator+=(float32 const&)>
     728:	02002821 	move	a1,s0
     72c:	27a40130 	addiu	a0,sp,304
     730:	0c0009d2 	jal	2748 <float32::operator-=(float32 const&)>
     734:	27a5018c 	addiu	a1,sp,396
     738:	8fa2009c 	lw	v0,156(sp)
     73c:	02002021 	move	a0,s0
     740:	27a500b8 	addiu	a1,sp,184
     744:	02203021 	move	a2,s1
     748:	0c00079c 	jal	1e70 <float32::operator*(float32 const&) const>
     74c:	afa2012c 	sw	v0,300(sp)
     750:	8fa20010 	lw	v0,16(sp)
     754:	02002021 	move	a0,s0
     758:	afa20128 	sw	v0,296(sp)
     75c:	8fa200a4 	lw	v0,164(sp)
     760:	27a500b8 	addiu	a1,sp,184
     764:	afa20124 	sw	v0,292(sp)
     768:	8fa200a0 	lw	v0,160(sp)
     76c:	27a60120 	addiu	a2,sp,288
     770:	0c00079c 	jal	1e70 <float32::operator*(float32 const&) const>
     774:	afa20120 	sw	v0,288(sp)
     778:	8fa20010 	lw	v0,16(sp)
     77c:	02002021 	move	a0,s0
     780:	27a500b8 	addiu	a1,sp,184
     784:	27a6012c 	addiu	a2,sp,300
     788:	0c00079c 	jal	1e70 <float32::operator*(float32 const&) const>
     78c:	afa2011c 	sw	v0,284(sp)
     790:	8fa20010 	lw	v0,16(sp)
     794:	27a60084 	addiu	a2,sp,132
     798:	afa20118 	sw	v0,280(sp)
     79c:	8fa20074 	lw	v0,116(sp)
     7a0:	02002021 	move	a0,s0
     7a4:	afa20114 	sw	v0,276(sp)
     7a8:	8fa20070 	lw	v0,112(sp)
     7ac:	27a500b8 	addiu	a1,sp,184
     7b0:	0c00079c 	jal	1e70 <float32::operator*(float32 const&) const>
     7b4:	afa20110 	sw	v0,272(sp)
     7b8:	8fa20010 	lw	v0,16(sp)
     7bc:	27a4010c 	addiu	a0,sp,268
     7c0:	27a5007c 	addiu	a1,sp,124
     7c4:	0c000983 	jal	260c <float32::operator+=(float32 const&)>
     7c8:	afa2010c 	sw	v0,268(sp)
     7cc:	27a60080 	addiu	a2,sp,128
     7d0:	02002021 	move	a0,s0
     7d4:	0c00079c 	jal	1e70 <float32::operator*(float32 const&) const>
     7d8:	27a500b8 	addiu	a1,sp,184
     7dc:	8fa20010 	lw	v0,16(sp)
     7e0:	27a40108 	addiu	a0,sp,264
     7e4:	27a50078 	addiu	a1,sp,120
     7e8:	0c0009d2 	jal	2748 <float32::operator-=(float32 const&)>
     7ec:	afa20108 	sw	v0,264(sp)
     7f0:	02002021 	move	a0,s0
     7f4:	27a50080 	addiu	a1,sp,128
     7f8:	0c000992 	jal	2648 <float32::operator-(float32 const&) const>
     7fc:	27a60078 	addiu	a2,sp,120
     800:	8fa20010 	lw	v0,16(sp)
     804:	02002021 	move	a0,s0
     808:	27a50084 	addiu	a1,sp,132
     80c:	27a6007c 	addiu	a2,sp,124
     810:	0c00096d 	jal	25b4 <float32::operator+(float32 const&) const>
     814:	afa20104 	sw	v0,260(sp)
     818:	8fa20010 	lw	v0,16(sp)
     81c:	02002021 	move	a0,s0
     820:	27a50088 	addiu	a1,sp,136
     824:	27a60070 	addiu	a2,sp,112
     828:	0c00096d 	jal	25b4 <float32::operator+(float32 const&) const>
     82c:	afa20100 	sw	v0,256(sp)
     830:	8fa20010 	lw	v0,16(sp)
     834:	02002021 	move	a0,s0
     838:	27a5008c 	addiu	a1,sp,140
     83c:	27a60074 	addiu	a2,sp,116
     840:	0c000992 	jal	2648 <float32::operator-(float32 const&) const>
     844:	afa200fc 	sw	v0,252(sp)
     848:	8fa20010 	lw	v0,16(sp)
     84c:	27a60078 	addiu	a2,sp,120
     850:	afa200f8 	sw	v0,248(sp)
     854:	8fa20084 	lw	v0,132(sp)
     858:	02002021 	move	a0,s0
     85c:	afa200f4 	sw	v0,244(sp)
     860:	8fa20080 	lw	v0,128(sp)
     864:	27a500b8 	addiu	a1,sp,184
     868:	0c00079c 	jal	1e70 <float32::operator*(float32 const&) const>
     86c:	afa200f0 	sw	v0,240(sp)
     870:	27a400f0 	addiu	a0,sp,240
     874:	0c0009d2 	jal	2748 <float32::operator-=(float32 const&)>
     878:	02002821 	move	a1,s0
     87c:	8fa2008c 	lw	v0,140(sp)
     880:	27a60074 	addiu	a2,sp,116
     884:	02002021 	move	a0,s0
     888:	27a500b8 	addiu	a1,sp,184
     88c:	0c00079c 	jal	1e70 <float32::operator*(float32 const&) const>
     890:	afa200ec 	sw	v0,236(sp)
     894:	27a400ec 	addiu	a0,sp,236
     898:	0c0009d2 	jal	2748 <float32::operator-=(float32 const&)>
     89c:	02002821 	move	a1,s0
     8a0:	8fa20088 	lw	v0,136(sp)
     8a4:	02002021 	move	a0,s0
     8a8:	27a50120 	addiu	a1,sp,288
     8ac:	27a60140 	addiu	a2,sp,320
     8b0:	0c00079c 	jal	1e70 <float32::operator*(float32 const&) const>
     8b4:	afa200e8 	sw	v0,232(sp)
     8b8:	8fa20010 	lw	v0,16(sp)
     8bc:	27a60144 	addiu	a2,sp,324
     8c0:	02002021 	move	a0,s0
     8c4:	27a5012c 	addiu	a1,sp,300
     8c8:	0c00079c 	jal	1e70 <float32::operator*(float32 const&) const>
     8cc:	afa200e4 	sw	v0,228(sp)
     8d0:	02e02021 	move	a0,s7
     8d4:	0c0009d2 	jal	2748 <float32::operator-=(float32 const&)>
     8d8:	02002821 	move	a1,s0
     8dc:	27a60138 	addiu	a2,sp,312
     8e0:	02002021 	move	a0,s0
     8e4:	0c00079c 	jal	1e70 <float32::operator*(float32 const&) const>
     8e8:	27a50114 	addiu	a1,sp,276
     8ec:	02e02021 	move	a0,s7
     8f0:	0c0009d2 	jal	2748 <float32::operator-=(float32 const&)>
     8f4:	02002821 	move	a1,s0
     8f8:	27a60134 	addiu	a2,sp,308
     8fc:	02002021 	move	a0,s0
     900:	0c00079c 	jal	1e70 <float32::operator*(float32 const&) const>
     904:	27a50104 	addiu	a1,sp,260
     908:	02e02021 	move	a0,s7
     90c:	0c0009d2 	jal	2748 <float32::operator-=(float32 const&)>
     910:	02002821 	move	a1,s0
     914:	27a60130 	addiu	a2,sp,304
     918:	02002021 	move	a0,s0
     91c:	0c00079c 	jal	1e70 <float32::operator*(float32 const&) const>
     920:	27a500f4 	addiu	a1,sp,244
     924:	02e02021 	move	a0,s7
     928:	0c000983 	jal	260c <float32::operator+=(float32 const&)>
     92c:	02002821 	move	a1,s0
     930:	02002021 	move	a0,s0
     934:	27a50128 	addiu	a1,sp,296
     938:	0c00079c 	jal	1e70 <float32::operator*(float32 const&) const>
     93c:	27a60144 	addiu	a2,sp,324
     940:	8fa20010 	lw	v0,16(sp)
     944:	27a60140 	addiu	a2,sp,320
     948:	02002021 	move	a0,s0
     94c:	27a50124 	addiu	a1,sp,292
     950:	0c00079c 	jal	1e70 <float32::operator*(float32 const&) const>
     954:	afa200e0 	sw	v0,224(sp)
     958:	03c02021 	move	a0,s8
     95c:	0c000983 	jal	260c <float32::operator+=(float32 const&)>
     960:	02002821 	move	a1,s0
     964:	27a6013c 	addiu	a2,sp,316
     968:	02002021 	move	a0,s0
     96c:	0c00079c 	jal	1e70 <float32::operator*(float32 const&) const>
     970:	27a5011c 	addiu	a1,sp,284
     974:	03c02021 	move	a0,s8
     978:	0c0009d2 	jal	2748 <float32::operator-=(float32 const&)>
     97c:	02002821 	move	a1,s0
     980:	27a60138 	addiu	a2,sp,312
     984:	02002021 	move	a0,s0
     988:	0c00079c 	jal	1e70 <float32::operator*(float32 const&) const>
     98c:	27a50110 	addiu	a1,sp,272
     990:	03c02021 	move	a0,s8
     994:	0c000983 	jal	260c <float32::operator+=(float32 const&)>
     998:	02002821 	move	a1,s0
     99c:	27a60134 	addiu	a2,sp,308
     9a0:	02002021 	move	a0,s0
     9a4:	0c00079c 	jal	1e70 <float32::operator*(float32 const&) const>
     9a8:	27a50100 	addiu	a1,sp,256
     9ac:	03c02021 	move	a0,s8
     9b0:	0c000983 	jal	260c <float32::operator+=(float32 const&)>
     9b4:	02002821 	move	a1,s0
     9b8:	27a60130 	addiu	a2,sp,304
     9bc:	02002021 	move	a0,s0
     9c0:	0c00079c 	jal	1e70 <float32::operator*(float32 const&) const>
     9c4:	27a500f0 	addiu	a1,sp,240
     9c8:	03c02021 	move	a0,s8
     9cc:	0c000983 	jal	260c <float32::operator+=(float32 const&)>
     9d0:	02002821 	move	a1,s0
     9d4:	02002021 	move	a0,s0
     9d8:	27a50128 	addiu	a1,sp,296
     9dc:	0c00079c 	jal	1e70 <float32::operator*(float32 const&) const>
     9e0:	27a60140 	addiu	a2,sp,320
     9e4:	8fa20010 	lw	v0,16(sp)
     9e8:	27a6013c 	addiu	a2,sp,316
     9ec:	02002021 	move	a0,s0
     9f0:	27a50118 	addiu	a1,sp,280
     9f4:	0c00079c 	jal	1e70 <float32::operator*(float32 const&) const>
     9f8:	afa200dc 	sw	v0,220(sp)
     9fc:	27a200dc 	addiu	v0,sp,220
     a00:	02002821 	move	a1,s0
     a04:	00402021 	move	a0,v0
     a08:	0c0009d2 	jal	2748 <float32::operator-=(float32 const&)>
     a0c:	afa201b0 	sw	v0,432(sp)
     a10:	27a60144 	addiu	a2,sp,324
     a14:	02002021 	move	a0,s0
     a18:	0c00079c 	jal	1e70 <float32::operator*(float32 const&) const>
     a1c:	27a50124 	addiu	a1,sp,292
     a20:	27a400dc 	addiu	a0,sp,220
     a24:	0c0009d2 	jal	2748 <float32::operator-=(float32 const&)>
     a28:	02002821 	move	a1,s0
     a2c:	27a60138 	addiu	a2,sp,312
     a30:	02002021 	move	a0,s0
     a34:	0c00079c 	jal	1e70 <float32::operator*(float32 const&) const>
     a38:	27a5010c 	addiu	a1,sp,268
     a3c:	27a400dc 	addiu	a0,sp,220
     a40:	0c0009d2 	jal	2748 <float32::operator-=(float32 const&)>
     a44:	02002821 	move	a1,s0
     a48:	27a60134 	addiu	a2,sp,308
     a4c:	02002021 	move	a0,s0
     a50:	0c00079c 	jal	1e70 <float32::operator*(float32 const&) const>
     a54:	27a500fc 	addiu	a1,sp,252
     a58:	27a400dc 	addiu	a0,sp,220
     a5c:	0c000983 	jal	260c <float32::operator+=(float32 const&)>
     a60:	02002821 	move	a1,s0
     a64:	27a60130 	addiu	a2,sp,304
     a68:	02002021 	move	a0,s0
     a6c:	0c00079c 	jal	1e70 <float32::operator*(float32 const&) const>
     a70:	27a500ec 	addiu	a1,sp,236
     a74:	27a400dc 	addiu	a0,sp,220
     a78:	0c000983 	jal	260c <float32::operator+=(float32 const&)>
     a7c:	02002821 	move	a1,s0
     a80:	02002021 	move	a0,s0
     a84:	27a50120 	addiu	a1,sp,288
     a88:	0c00079c 	jal	1e70 <float32::operator*(float32 const&) const>
     a8c:	27a60144 	addiu	a2,sp,324
     a90:	8fa20010 	lw	v0,16(sp)
     a94:	27a60140 	addiu	a2,sp,320
     a98:	02002021 	move	a0,s0
     a9c:	27a5012c 	addiu	a1,sp,300
     aa0:	0c00079c 	jal	1e70 <float32::operator*(float32 const&) const>
     aa4:	afa200d8 	sw	v0,216(sp)
     aa8:	27a400d8 	addiu	a0,sp,216
     aac:	0c000983 	jal	260c <float32::operator+=(float32 const&)>
     ab0:	02002821 	move	a1,s0
     ab4:	27a60138 	addiu	a2,sp,312
     ab8:	02002021 	move	a0,s0
     abc:	0c00079c 	jal	1e70 <float32::operator*(float32 const&) const>
     ac0:	27a50108 	addiu	a1,sp,264
     ac4:	27a400d8 	addiu	a0,sp,216
     ac8:	0c0009d2 	jal	2748 <float32::operator-=(float32 const&)>
     acc:	02002821 	move	a1,s0
     ad0:	27a60134 	addiu	a2,sp,308
     ad4:	02002021 	move	a0,s0
     ad8:	0c00079c 	jal	1e70 <float32::operator*(float32 const&) const>
     adc:	27a500f8 	addiu	a1,sp,248
     ae0:	27a400d8 	addiu	a0,sp,216
     ae4:	0c0009d2 	jal	2748 <float32::operator-=(float32 const&)>
     ae8:	02002821 	move	a1,s0
     aec:	27a60130 	addiu	a2,sp,304
     af0:	02002021 	move	a0,s0
     af4:	0c00079c 	jal	1e70 <float32::operator*(float32 const&) const>
     af8:	27a500e8 	addiu	a1,sp,232
     afc:	27a400d8 	addiu	a0,sp,216
     b00:	0c000983 	jal	260c <float32::operator+=(float32 const&)>
     b04:	02002821 	move	a1,s0
     b08:	27a4003c 	addiu	a0,sp,60
     b0c:	02e02821 	move	a1,s7
     b10:	0c00079c 	jal	1e70 <float32::operator*(float32 const&) const>
     b14:	02e03021 	move	a2,s7
     b18:	27a500e0 	addiu	a1,sp,224
     b1c:	00a03021 	move	a2,a1
     b20:	0c00079c 	jal	1e70 <float32::operator*(float32 const&) const>
     b24:	02002021 	move	a0,s0
     b28:	27a4003c 	addiu	a0,sp,60
     b2c:	0c000983 	jal	260c <float32::operator+=(float32 const&)>
     b30:	02002821 	move	a1,s0
     b34:	27a500dc 	addiu	a1,sp,220
     b38:	00a03021 	move	a2,a1
     b3c:	0c00079c 	jal	1e70 <float32::operator*(float32 const&) const>
     b40:	02002021 	move	a0,s0
     b44:	27a4003c 	addiu	a0,sp,60
     b48:	0c000983 	jal	260c <float32::operator+=(float32 const&)>
     b4c:	02002821 	move	a1,s0
     b50:	27a500d8 	addiu	a1,sp,216
     b54:	00a03021 	move	a2,a1
     b58:	0c00079c 	jal	1e70 <float32::operator*(float32 const&) const>
     b5c:	02002021 	move	a0,s0
     b60:	27a4003c 	addiu	a0,sp,60
     b64:	0c000983 	jal	260c <float32::operator+=(float32 const&)>
     b68:	02002821 	move	a1,s0
     b6c:	02002021 	move	a0,s0
     b70:	0c0009a7 	jal	269c <rsqrt(float32 const&)>
     b74:	27a5003c 	addiu	a1,sp,60
     b78:	8fa20010 	lw	v0,16(sp)
     b7c:	02002021 	move	a0,s0
     b80:	02e02821 	move	a1,s7
     b84:	02c03021 	move	a2,s6
     b88:	0c00079c 	jal	1e70 <float32::operator*(float32 const&) const>
     b8c:	afa20158 	sw	v0,344(sp)
     b90:	8fa20010 	lw	v0,16(sp)
     b94:	02002021 	move	a0,s0
     b98:	27a500e0 	addiu	a1,sp,224
     b9c:	02c03021 	move	a2,s6
     ba0:	0c00079c 	jal	1e70 <float32::operator*(float32 const&) const>
     ba4:	afa200e4 	sw	v0,228(sp)
     ba8:	8fa20010 	lw	v0,16(sp)
     bac:	02002021 	move	a0,s0
     bb0:	27a500dc 	addiu	a1,sp,220
     bb4:	02c03021 	move	a2,s6
     bb8:	0c00079c 	jal	1e70 <float32::operator*(float32 const&) const>
     bbc:	afa200e0 	sw	v0,224(sp)
     bc0:	8fa20010 	lw	v0,16(sp)
     bc4:	02002021 	move	a0,s0
     bc8:	27a500d8 	addiu	a1,sp,216
     bcc:	02c03021 	move	a2,s6
     bd0:	0c00079c 	jal	1e70 <float32::operator*(float32 const&) const>
     bd4:	afa200dc 	sw	v0,220(sp)
     bd8:	8fa20010 	lw	v0,16(sp)
     bdc:	02002021 	move	a0,s0
     be0:	27a500a4 	addiu	a1,sp,164
     be4:	27a600e0 	addiu	a2,sp,224
     be8:	0c00079c 	jal	1e70 <float32::operator*(float32 const&) const>
     bec:	afa200d8 	sw	v0,216(sp)
     bf0:	8fa20010 	lw	v0,16(sp)
     bf4:	02e03021 	move	a2,s7
     bf8:	02002021 	move	a0,s0
     bfc:	27a500a0 	addiu	a1,sp,160
     c00:	0c00079c 	jal	1e70 <float32::operator*(float32 const&) const>
     c04:	afa200d4 	sw	v0,212(sp)
     c08:	27a400d4 	addiu	a0,sp,212
     c0c:	0c0009d2 	jal	2748 <float32::operator-=(float32 const&)>
     c10:	02002821 	move	a1,s0
     c14:	27a600d8 	addiu	a2,sp,216
     c18:	02002021 	move	a0,s0
     c1c:	0c00079c 	jal	1e70 <float32::operator*(float32 const&) const>
     c20:	27a5009c 	addiu	a1,sp,156
     c24:	27a400d4 	addiu	a0,sp,212
     c28:	0c0009d2 	jal	2748 <float32::operator-=(float32 const&)>
     c2c:	02002821 	move	a1,s0
     c30:	27a600dc 	addiu	a2,sp,220
     c34:	02002021 	move	a0,s0
     c38:	0c00079c 	jal	1e70 <float32::operator*(float32 const&) const>
     c3c:	27a50098 	addiu	a1,sp,152
     c40:	27a400d4 	addiu	a0,sp,212
     c44:	0c000983 	jal	260c <float32::operator+=(float32 const&)>
     c48:	02002821 	move	a1,s0
     c4c:	02002021 	move	a0,s0
     c50:	27a500a4 	addiu	a1,sp,164
     c54:	0c00079c 	jal	1e70 <float32::operator*(float32 const&) const>
     c58:	27a600dc 	addiu	a2,sp,220
     c5c:	8fa20010 	lw	v0,16(sp)
     c60:	27a600d8 	addiu	a2,sp,216
     c64:	02002021 	move	a0,s0
     c68:	27a500a0 	addiu	a1,sp,160
     c6c:	0c00079c 	jal	1e70 <float32::operator*(float32 const&) const>
     c70:	afa200d0 	sw	v0,208(sp)
     c74:	27a400d0 	addiu	a0,sp,208
     c78:	0c000983 	jal	260c <float32::operator+=(float32 const&)>
     c7c:	02002821 	move	a1,s0
     c80:	02e03021 	move	a2,s7
     c84:	02002021 	move	a0,s0
     c88:	0c00079c 	jal	1e70 <float32::operator*(float32 const&) const>
     c8c:	27a5009c 	addiu	a1,sp,156
     c90:	27a400d0 	addiu	a0,sp,208
     c94:	0c0009d2 	jal	2748 <float32::operator-=(float32 const&)>
     c98:	02002821 	move	a1,s0
     c9c:	27a600e0 	addiu	a2,sp,224
     ca0:	02002021 	move	a0,s0
     ca4:	0c00079c 	jal	1e70 <float32::operator*(float32 const&) const>
     ca8:	27a50098 	addiu	a1,sp,152
     cac:	27a400d0 	addiu	a0,sp,208
     cb0:	0c0009d2 	jal	2748 <float32::operator-=(float32 const&)>
     cb4:	02002821 	move	a1,s0
     cb8:	02002021 	move	a0,s0
     cbc:	27a500a4 	addiu	a1,sp,164
     cc0:	0c00079c 	jal	1e70 <float32::operator*(float32 const&) const>
     cc4:	27a600d8 	addiu	a2,sp,216
     cc8:	8fa20010 	lw	v0,16(sp)
     ccc:	27a600dc 	addiu	a2,sp,220
     cd0:	02002021 	move	a0,s0
     cd4:	27a500a0 	addiu	a1,sp,160
     cd8:	0c00079c 	jal	1e70 <float32::operator*(float32 const&) const>
     cdc:	afa200cc 	sw	v0,204(sp)
     ce0:	27a400cc 	addiu	a0,sp,204
     ce4:	0c0009d2 	jal	2748 <float32::operator-=(float32 const&)>
     ce8:	02002821 	move	a1,s0
     cec:	27a600e0 	addiu	a2,sp,224
     cf0:	02002021 	move	a0,s0
     cf4:	0c00079c 	jal	1e70 <float32::operator*(float32 const&) const>
     cf8:	27a5009c 	addiu	a1,sp,156
     cfc:	27a400cc 	addiu	a0,sp,204
     d00:	0c000983 	jal	260c <float32::operator+=(float32 const&)>
     d04:	02002821 	move	a1,s0
     d08:	02e03021 	move	a2,s7
     d0c:	02002021 	move	a0,s0
     d10:	0c00079c 	jal	1e70 <float32::operator*(float32 const&) const>
     d14:	27a50098 	addiu	a1,sp,152
     d18:	3c1e8000 	lui	s8,0x8000
     d1c:	27a400cc 	addiu	a0,sp,204
     d20:	0c0009d2 	jal	2748 <float32::operator-=(float32 const&)>
     d24:	02002821 	move	a1,s0
     d28:	26820050 	addiu	v0,s4,80
     d2c:	27c602a0 	addiu	a2,s8,672
     d30:	02002021 	move	a0,s0
     d34:	27a500d4 	addiu	a1,sp,212
     d38:	0c00079c 	jal	1e70 <float32::operator*(float32 const&) const>
     d3c:	afa201b4 	sw	v0,436(sp)
     d40:	8fa401b4 	lw	a0,436(sp)
     d44:	0c000983 	jal	260c <float32::operator+=(float32 const&)>
     d48:	02002821 	move	a1,s0
     d4c:	26820054 	addiu	v0,s4,84
     d50:	27c602a0 	addiu	a2,s8,672
     d54:	02002021 	move	a0,s0
     d58:	27a500d0 	addiu	a1,sp,208
     d5c:	0c00079c 	jal	1e70 <float32::operator*(float32 const&) const>
     d60:	afa201b8 	sw	v0,440(sp)
     d64:	8fa401b8 	lw	a0,440(sp)
     d68:	0c000983 	jal	260c <float32::operator+=(float32 const&)>
     d6c:	02002821 	move	a1,s0
     d70:	27c602a0 	addiu	a2,s8,672
     d74:	26820058 	addiu	v0,s4,88
     d78:	02002021 	move	a0,s0
     d7c:	27a500cc 	addiu	a1,sp,204
     d80:	0c00079c 	jal	1e70 <float32::operator*(float32 const&) const>
     d84:	afa201bc 	sw	v0,444(sp)
     d88:	8fa401bc 	lw	a0,444(sp)
     d8c:	0c000983 	jal	260c <float32::operator+=(float32 const&)>
     d90:	02002821 	move	a1,s0
     d94:	8fa501b4 	lw	a1,436(sp)
     d98:	0c0009d2 	jal	2748 <float32::operator-=(float32 const&)>
     d9c:	27a401ac 	addiu	a0,sp,428
     da0:	8fa501b8 	lw	a1,440(sp)
     da4:	0c0009d2 	jal	2748 <float32::operator-=(float32 const&)>
     da8:	27a401a8 	addiu	a0,sp,424
     dac:	8fa501bc 	lw	a1,444(sp)
     db0:	0c0009d2 	jal	2748 <float32::operator-=(float32 const&)>
     db4:	27a401a4 	addiu	a0,sp,420
     db8:	8fa301cc 	lw	v1,460(sp)
     dbc:	27a601ac 	addiu	a2,sp,428
     dc0:	00602821 	move	a1,v1
     dc4:	0c00079c 	jal	1e70 <float32::operator*(float32 const&) const>
     dc8:	02002021 	move	a0,s0
     dcc:	27a40154 	addiu	a0,sp,340
     dd0:	0c0009d2 	jal	2748 <float32::operator-=(float32 const&)>
     dd4:	02002821 	move	a1,s0
     dd8:	8faa01c0 	lw	t2,448(sp)
     ddc:	27a601a8 	addiu	a2,sp,424
     de0:	01402821 	move	a1,t2
     de4:	02002021 	move	a0,s0
     de8:	0c00079c 	jal	1e70 <float32::operator*(float32 const&) const>
     dec:	0140f021 	move	s8,t2
     df0:	27a40154 	addiu	a0,sp,340
     df4:	0c0009d2 	jal	2748 <float32::operator-=(float32 const&)>
     df8:	02002821 	move	a1,s0
     dfc:	8fa801c4 	lw	t0,452(sp)
     e00:	27a601a4 	addiu	a2,sp,420
     e04:	01002821 	move	a1,t0
     e08:	0c00079c 	jal	1e70 <float32::operator*(float32 const&) const>
     e0c:	02002021 	move	a0,s0
     e10:	27a40154 	addiu	a0,sp,340
     e14:	0c0009d2 	jal	2748 <float32::operator-=(float32 const&)>
     e18:	02002821 	move	a1,s0
     e1c:	8fa701c8 	lw	a3,456(sp)
     e20:	02002021 	move	a0,s0
     e24:	00e02821 	move	a1,a3
     e28:	0c00079c 	jal	1e70 <float32::operator*(float32 const&) const>
     e2c:	27a601ac 	addiu	a2,sp,428
     e30:	8fa20010 	lw	v0,16(sp)
     e34:	27a601a4 	addiu	a2,sp,420
     e38:	02002021 	move	a0,s0
     e3c:	03c02821 	move	a1,s8
     e40:	0c00079c 	jal	1e70 <float32::operator*(float32 const&) const>
     e44:	afa20150 	sw	v0,336(sp)
     e48:	27a40150 	addiu	a0,sp,336
     e4c:	0c000983 	jal	260c <float32::operator+=(float32 const&)>
     e50:	02002821 	move	a1,s0
     e54:	8fa801c4 	lw	t0,452(sp)
     e58:	27a601a8 	addiu	a2,sp,424
     e5c:	01002821 	move	a1,t0
     e60:	0c00079c 	jal	1e70 <float32::operator*(float32 const&) const>
     e64:	02002021 	move	a0,s0
     e68:	27a40150 	addiu	a0,sp,336
     e6c:	0c0009d2 	jal	2748 <float32::operator-=(float32 const&)>
     e70:	02002821 	move	a1,s0
     e74:	8fa701c8 	lw	a3,456(sp)
     e78:	02002021 	move	a0,s0
     e7c:	00e02821 	move	a1,a3
     e80:	0c00079c 	jal	1e70 <float32::operator*(float32 const&) const>
     e84:	27a601a8 	addiu	a2,sp,424
     e88:	8fa301cc 	lw	v1,460(sp)
     e8c:	8fa20010 	lw	v0,16(sp)
     e90:	00602821 	move	a1,v1
     e94:	27a601a4 	addiu	a2,sp,420
     e98:	02002021 	move	a0,s0
     e9c:	0c00079c 	jal	1e70 <float32::operator*(float32 const&) const>
     ea0:	afa2014c 	sw	v0,332(sp)
     ea4:	27a4014c 	addiu	a0,sp,332
     ea8:	0c0009d2 	jal	2748 <float32::operator-=(float32 const&)>
     eac:	02002821 	move	a1,s0
     eb0:	8fa801c4 	lw	t0,452(sp)
     eb4:	27a601ac 	addiu	a2,sp,428
     eb8:	01002821 	move	a1,t0
     ebc:	0c00079c 	jal	1e70 <float32::operator*(float32 const&) const>
     ec0:	02002021 	move	a0,s0
     ec4:	27a4014c 	addiu	a0,sp,332
     ec8:	0c000983 	jal	260c <float32::operator+=(float32 const&)>
     ecc:	02002821 	move	a1,s0
     ed0:	8fa701c8 	lw	a3,456(sp)
     ed4:	02002021 	move	a0,s0
     ed8:	00e02821 	move	a1,a3
     edc:	0c00079c 	jal	1e70 <float32::operator*(float32 const&) const>
     ee0:	27a601a4 	addiu	a2,sp,420
     ee4:	8fa301cc 	lw	v1,460(sp)
     ee8:	8fa20010 	lw	v0,16(sp)
     eec:	00602821 	move	a1,v1
     ef0:	27a601a8 	addiu	a2,sp,424
     ef4:	02002021 	move	a0,s0
     ef8:	0c00079c 	jal	1e70 <float32::operator*(float32 const&) const>
     efc:	afa20148 	sw	v0,328(sp)
     f00:	27a40148 	addiu	a0,sp,328
     f04:	0c000983 	jal	260c <float32::operator+=(float32 const&)>
     f08:	02002821 	move	a1,s0
     f0c:	27a601ac 	addiu	a2,sp,428
     f10:	02002021 	move	a0,s0
     f14:	0c00079c 	jal	1e70 <float32::operator*(float32 const&) const>
     f18:	03c02821 	move	a1,s8
     f1c:	3c1e8000 	lui	s8,0x8000
     f20:	27a40148 	addiu	a0,sp,328
     f24:	0c0009d2 	jal	2748 <float32::operator-=(float32 const&)>
     f28:	02002821 	move	a1,s0
     f2c:	27a40018 	addiu	a0,sp,24
     f30:	27c502a4 	addiu	a1,s8,676
     f34:	0c00079c 	jal	1e70 <float32::operator*(float32 const&) const>
     f38:	02e03021 	move	a2,s7
     f3c:	3c178000 	lui	s7,0x8000
     f40:	27a40014 	addiu	a0,sp,20
     f44:	27a50154 	addiu	a1,sp,340
     f48:	0c000992 	jal	2648 <float32::operator-(float32 const&) const>
     f4c:	27a60018 	addiu	a2,sp,24
     f50:	26e602a8 	addiu	a2,s7,680
     f54:	02002021 	move	a0,s0
     f58:	0c00079c 	jal	1e70 <float32::operator*(float32 const&) const>
     f5c:	27a50014 	addiu	a1,sp,20
     f60:	02a02021 	move	a0,s5
     f64:	0c000983 	jal	260c <float32::operator+=(float32 const&)>
     f68:	02002821 	move	a1,s0
     f6c:	27a40018 	addiu	a0,sp,24
     f70:	27c502a4 	addiu	a1,s8,676
     f74:	0c00079c 	jal	1e70 <float32::operator*(float32 const&) const>
     f78:	27a600e0 	addiu	a2,sp,224
     f7c:	27a40014 	addiu	a0,sp,20
     f80:	27a50150 	addiu	a1,sp,336
     f84:	0c000992 	jal	2648 <float32::operator-(float32 const&) const>
     f88:	27a60018 	addiu	a2,sp,24
     f8c:	26e602a8 	addiu	a2,s7,680
     f90:	02002021 	move	a0,s0
     f94:	0c00079c 	jal	1e70 <float32::operator*(float32 const&) const>
     f98:	27a50014 	addiu	a1,sp,20
     f9c:	02602021 	move	a0,s3
     fa0:	0c000983 	jal	260c <float32::operator+=(float32 const&)>
     fa4:	02002821 	move	a1,s0
     fa8:	27a40018 	addiu	a0,sp,24
     fac:	27c502a4 	addiu	a1,s8,676
     fb0:	0c00079c 	jal	1e70 <float32::operator*(float32 const&) const>
     fb4:	27a600dc 	addiu	a2,sp,220
     fb8:	27a40014 	addiu	a0,sp,20
     fbc:	27a5014c 	addiu	a1,sp,332
     fc0:	0c000992 	jal	2648 <float32::operator-(float32 const&) const>
     fc4:	27a60018 	addiu	a2,sp,24
     fc8:	26e602a8 	addiu	a2,s7,680
     fcc:	02002021 	move	a0,s0
     fd0:	0c00079c 	jal	1e70 <float32::operator*(float32 const&) const>
     fd4:	27a50014 	addiu	a1,sp,20
     fd8:	02402021 	move	a0,s2
     fdc:	0c000983 	jal	260c <float32::operator+=(float32 const&)>
     fe0:	02002821 	move	a1,s0
     fe4:	27a40018 	addiu	a0,sp,24
     fe8:	27c502a4 	addiu	a1,s8,676
     fec:	0c00079c 	jal	1e70 <float32::operator*(float32 const&) const>
     ff0:	27a600d8 	addiu	a2,sp,216
     ff4:	27a40014 	addiu	a0,sp,20
     ff8:	27a50148 	addiu	a1,sp,328
     ffc:	0c000992 	jal	2648 <float32::operator-(float32 const&) const>
    1000:	27a60018 	addiu	a2,sp,24
    1004:	26e602a8 	addiu	a2,s7,680
    1008:	02002021 	move	a0,s0
    100c:	0c00079c 	jal	1e70 <float32::operator*(float32 const&) const>
    1010:	27a50014 	addiu	a1,sp,20
    1014:	02202021 	move	a0,s1
    1018:	0c000983 	jal	260c <float32::operator+=(float32 const&)>
    101c:	02002821 	move	a1,s0
    1020:	27a40038 	addiu	a0,sp,56
    1024:	02a02821 	move	a1,s5
    1028:	0c00079c 	jal	1e70 <float32::operator*(float32 const&) const>
    102c:	02a03021 	move	a2,s5
    1030:	02603021 	move	a2,s3
    1034:	02002021 	move	a0,s0
    1038:	0c00079c 	jal	1e70 <float32::operator*(float32 const&) const>
    103c:	02602821 	move	a1,s3
    1040:	27a40038 	addiu	a0,sp,56
    1044:	0c000983 	jal	260c <float32::operator+=(float32 const&)>
    1048:	02002821 	move	a1,s0
    104c:	02403021 	move	a2,s2
    1050:	02002021 	move	a0,s0
    1054:	0c00079c 	jal	1e70 <float32::operator*(float32 const&) const>
    1058:	02402821 	move	a1,s2
    105c:	27a40038 	addiu	a0,sp,56
    1060:	0c000983 	jal	260c <float32::operator+=(float32 const&)>
    1064:	02002821 	move	a1,s0
    1068:	02203021 	move	a2,s1
    106c:	02002021 	move	a0,s0
    1070:	0c00079c 	jal	1e70 <float32::operator*(float32 const&) const>
    1074:	02202821 	move	a1,s1
    1078:	27a40038 	addiu	a0,sp,56
    107c:	0c000983 	jal	260c <float32::operator+=(float32 const&)>
    1080:	02002821 	move	a1,s0
    1084:	02002021 	move	a0,s0
    1088:	0c0009a7 	jal	269c <rsqrt(float32 const&)>
    108c:	27a50038 	addiu	a1,sp,56
    1090:	8fa20010 	lw	v0,16(sp)
    1094:	02a02021 	move	a0,s5
    1098:	02c02821 	move	a1,s6
    109c:	0c0007fa 	jal	1fe8 <float32::operator*=(float32 const&)>
    10a0:	afa20158 	sw	v0,344(sp)
    10a4:	02602021 	move	a0,s3
    10a8:	0c0007fa 	jal	1fe8 <float32::operator*=(float32 const&)>
    10ac:	02c02821 	move	a1,s6
    10b0:	02402021 	move	a0,s2
    10b4:	0c0007fa 	jal	1fe8 <float32::operator*=(float32 const&)>
    10b8:	02c02821 	move	a1,s6
    10bc:	02202021 	move	a0,s1
    10c0:	0c0007fa 	jal	1fe8 <float32::operator*=(float32 const&)>
    10c4:	02c02821 	move	a1,s6
    10c8:	0c00083d 	jal	20f4 <_ZN6System8Registry8instanceEv.local.0>
    10cc:	00000000 	nop
    10d0:	8e830038 	lw	v1,56(s4)
    10d4:	0c00083d 	jal	20f4 <_ZN6System8Registry8instanceEv.local.0>
    10d8:	ac430000 	sw	v1,0(v0)
    10dc:	8e83003c 	lw	v1,60(s4)
    10e0:	0c00083d 	jal	20f4 <_ZN6System8Registry8instanceEv.local.0>
    10e4:	ac430004 	sw	v1,4(v0)
    10e8:	8e830040 	lw	v1,64(s4)
    10ec:	0c00083d 	jal	20f4 <_ZN6System8Registry8instanceEv.local.0>
    10f0:	ac430008 	sw	v1,8(v0)
    10f4:	8e830044 	lw	v1,68(s4)
    10f8:	02002021 	move	a0,s0
    10fc:	ac43000c 	sw	v1,12(v0)
    1100:	02a02821 	move	a1,s5
    1104:	0c00079c 	jal	1e70 <float32::operator*(float32 const&) const>
    1108:	02603021 	move	a2,s3
    110c:	8fa20010 	lw	v0,16(sp)
    1110:	02002021 	move	a0,s0
    1114:	02a02821 	move	a1,s5
    1118:	02403021 	move	a2,s2
    111c:	0c00079c 	jal	1e70 <float32::operator*(float32 const&) const>
    1120:	afa2006c 	sw	v0,108(sp)
    1124:	8fa20010 	lw	v0,16(sp)
    1128:	02002021 	move	a0,s0
    112c:	02a02821 	move	a1,s5
    1130:	02203021 	move	a2,s1
    1134:	0c00079c 	jal	1e70 <float32::operator*(float32 const&) const>
    1138:	afa20068 	sw	v0,104(sp)
    113c:	8fa20010 	lw	v0,16(sp)
    1140:	02002021 	move	a0,s0
    1144:	02402821 	move	a1,s2
    1148:	02203021 	move	a2,s1
    114c:	0c00079c 	jal	1e70 <float32::operator*(float32 const&) const>
    1150:	afa20064 	sw	v0,100(sp)
    1154:	8fa20010 	lw	v0,16(sp)
    1158:	02002021 	move	a0,s0
    115c:	02602821 	move	a1,s3
    1160:	02403021 	move	a2,s2
    1164:	0c00079c 	jal	1e70 <float32::operator*(float32 const&) const>
    1168:	afa20058 	sw	v0,88(sp)
    116c:	8fa20010 	lw	v0,16(sp)
    1170:	02002021 	move	a0,s0
    1174:	02602821 	move	a1,s3
    1178:	02203021 	move	a2,s1
    117c:	0c00079c 	jal	1e70 <float32::operator*(float32 const&) const>
    1180:	afa20060 	sw	v0,96(sp)
    1184:	8fa20010 	lw	v0,16(sp)
    1188:	02002021 	move	a0,s0
    118c:	02602821 	move	a1,s3
    1190:	02603021 	move	a2,s3
    1194:	0c00079c 	jal	1e70 <float32::operator*(float32 const&) const>
    1198:	afa2005c 	sw	v0,92(sp)
    119c:	8fa20010 	lw	v0,16(sp)
    11a0:	02002021 	move	a0,s0
    11a4:	02402821 	move	a1,s2
    11a8:	02403021 	move	a2,s2
    11ac:	0c00079c 	jal	1e70 <float32::operator*(float32 const&) const>
    11b0:	afa20044 	sw	v0,68(sp)
    11b4:	8fa20010 	lw	v0,16(sp)
    11b8:	02002021 	move	a0,s0
    11bc:	02202821 	move	a1,s1
    11c0:	02203021 	move	a2,s1
    11c4:	0c00079c 	jal	1e70 <float32::operator*(float32 const&) const>
    11c8:	afa20048 	sw	v0,72(sp)
    11cc:	8fa20010 	lw	v0,16(sp)
    11d0:	27a40018 	addiu	a0,sp,24
    11d4:	27a500bc 	addiu	a1,sp,188
    11d8:	27a60048 	addiu	a2,sp,72
    11dc:	0c000992 	jal	2648 <float32::operator-(float32 const&) const>
    11e0:	afa20040 	sw	v0,64(sp)
    11e4:	27a40014 	addiu	a0,sp,20
    11e8:	27a50018 	addiu	a1,sp,24
    11ec:	0c000992 	jal	2648 <float32::operator-(float32 const&) const>
    11f0:	27a60040 	addiu	a2,sp,64
    11f4:	02002021 	move	a0,s0
    11f8:	27a50054 	addiu	a1,sp,84
    11fc:	0c00079c 	jal	1e70 <float32::operator*(float32 const&) const>
    1200:	27a60014 	addiu	a2,sp,20
    1204:	8fa20010 	lw	v0,16(sp)
    1208:	27a40014 	addiu	a0,sp,20
    120c:	27a50060 	addiu	a1,sp,96
    1210:	27a60064 	addiu	a2,sp,100
    1214:	0c000992 	jal	2648 <float32::operator-(float32 const&) const>
    1218:	afa200c8 	sw	v0,200(sp)
    121c:	27a60014 	addiu	a2,sp,20
    1220:	02002021 	move	a0,s0
    1224:	0c00079c 	jal	1e70 <float32::operator*(float32 const&) const>
    1228:	27a50050 	addiu	a1,sp,80
    122c:	27a400c8 	addiu	a0,sp,200
    1230:	0c000983 	jal	260c <float32::operator+=(float32 const&)>
    1234:	02002821 	move	a1,s0
    1238:	27a40014 	addiu	a0,sp,20
    123c:	27a5005c 	addiu	a1,sp,92
    1240:	0c00096d 	jal	25b4 <float32::operator+(float32 const&) const>
    1244:	27a60068 	addiu	a2,sp,104
    1248:	27a60014 	addiu	a2,sp,20
    124c:	02002021 	move	a0,s0
    1250:	0c00079c 	jal	1e70 <float32::operator*(float32 const&) const>
    1254:	27a5004c 	addiu	a1,sp,76
    1258:	27a400c8 	addiu	a0,sp,200
    125c:	0c000983 	jal	260c <float32::operator+=(float32 const&)>
    1260:	02002821 	move	a1,s0
    1264:	27a40014 	addiu	a0,sp,20
    1268:	27a50060 	addiu	a1,sp,96
    126c:	0c00096d 	jal	25b4 <float32::operator+(float32 const&) const>
    1270:	27a60064 	addiu	a2,sp,100
    1274:	02002021 	move	a0,s0
    1278:	27a50054 	addiu	a1,sp,84
    127c:	0c00079c 	jal	1e70 <float32::operator*(float32 const&) const>
    1280:	27a60014 	addiu	a2,sp,20
    1284:	8fa20010 	lw	v0,16(sp)
    1288:	27a40018 	addiu	a0,sp,24
    128c:	27a500bc 	addiu	a1,sp,188
    1290:	27a60044 	addiu	a2,sp,68
    1294:	0c000992 	jal	2648 <float32::operator-(float32 const&) const>
    1298:	afa200c4 	sw	v0,196(sp)
    129c:	27a40014 	addiu	a0,sp,20
    12a0:	27a50018 	addiu	a1,sp,24
    12a4:	0c000992 	jal	2648 <float32::operator-(float32 const&) const>
    12a8:	27a60040 	addiu	a2,sp,64
    12ac:	27a60014 	addiu	a2,sp,20
    12b0:	02002021 	move	a0,s0
    12b4:	0c00079c 	jal	1e70 <float32::operator*(float32 const&) const>
    12b8:	27a50050 	addiu	a1,sp,80
    12bc:	27a400c4 	addiu	a0,sp,196
    12c0:	0c000983 	jal	260c <float32::operator+=(float32 const&)>
    12c4:	02002821 	move	a1,s0
    12c8:	27a40014 	addiu	a0,sp,20
    12cc:	27a50058 	addiu	a1,sp,88
    12d0:	0c000992 	jal	2648 <float32::operator-(float32 const&) const>
    12d4:	27a6006c 	addiu	a2,sp,108
    12d8:	27a60014 	addiu	a2,sp,20
    12dc:	02002021 	move	a0,s0
    12e0:	0c00079c 	jal	1e70 <float32::operator*(float32 const&) const>
    12e4:	27a5004c 	addiu	a1,sp,76
    12e8:	27a400c4 	addiu	a0,sp,196
    12ec:	0c000983 	jal	260c <float32::operator+=(float32 const&)>
    12f0:	02002821 	move	a1,s0
    12f4:	27a40014 	addiu	a0,sp,20
    12f8:	27a5005c 	addiu	a1,sp,92
    12fc:	0c000992 	jal	2648 <float32::operator-(float32 const&) const>
    1300:	27a60068 	addiu	a2,sp,104
    1304:	02002021 	move	a0,s0
    1308:	27a50054 	addiu	a1,sp,84
    130c:	0c00079c 	jal	1e70 <float32::operator*(float32 const&) const>
    1310:	27a60014 	addiu	a2,sp,20
    1314:	8fa20010 	lw	v0,16(sp)
    1318:	27a40014 	addiu	a0,sp,20
    131c:	27a50058 	addiu	a1,sp,88
    1320:	27a6006c 	addiu	a2,sp,108
    1324:	0c00096d 	jal	25b4 <float32::operator+(float32 const&) const>
    1328:	afa200c0 	sw	v0,192(sp)
    132c:	27a60014 	addiu	a2,sp,20
    1330:	02002021 	move	a0,s0
    1334:	0c00079c 	jal	1e70 <float32::operator*(float32 const&) const>
    1338:	27a50050 	addiu	a1,sp,80
    133c:	27a400c0 	addiu	a0,sp,192
    1340:	0c000983 	jal	260c <float32::operator+=(float32 const&)>
    1344:	02002821 	move	a1,s0
    1348:	27a40018 	addiu	a0,sp,24
    134c:	27a500bc 	addiu	a1,sp,188
    1350:	0c000992 	jal	2648 <float32::operator-(float32 const&) const>
    1354:	27a60044 	addiu	a2,sp,68
    1358:	27a40014 	addiu	a0,sp,20
    135c:	27a50018 	addiu	a1,sp,24
    1360:	0c000992 	jal	2648 <float32::operator-(float32 const&) const>
    1364:	27a60048 	addiu	a2,sp,72
    1368:	27a60014 	addiu	a2,sp,20
    136c:	02002021 	move	a0,s0
    1370:	0c00079c 	jal	1e70 <float32::operator*(float32 const&) const>
    1374:	27a5004c 	addiu	a1,sp,76
    1378:	27a400c0 	addiu	a0,sp,192
    137c:	0c000983 	jal	260c <float32::operator+=(float32 const&)>
    1380:	02002821 	move	a1,s0
    1384:	27a500c8 	addiu	a1,sp,200
    1388:	27a40030 	addiu	a0,sp,48
    138c:	0c00079c 	jal	1e70 <float32::operator*(float32 const&) const>
    1390:	00a03021 	move	a2,a1
    1394:	27a500c4 	addiu	a1,sp,196
    1398:	27a40034 	addiu	a0,sp,52
    139c:	0c00079c 	jal	1e70 <float32::operator*(float32 const&) const>
    13a0:	00a03021 	move	a2,a1
    13a4:	27a4002c 	addiu	a0,sp,44
    13a8:	27a50030 	addiu	a1,sp,48
    13ac:	0c00096d 	jal	25b4 <float32::operator+(float32 const&) const>
    13b0:	27a60034 	addiu	a2,sp,52
    13b4:	8fa2002c 	lw	v0,44(sp)
    13b8:	27a40028 	addiu	a0,sp,40
    13bc:	afa20014 	sw	v0,20(sp)
    13c0:	02002821 	move	a1,s0
    13c4:	3c023f00 	lui	v0,0x3f00
    13c8:	27a60014 	addiu	a2,sp,20
    13cc:	0c00079c 	jal	1e70 <float32::operator*(float32 const&) const>
    13d0:	afa20010 	sw	v0,16(sp)
    13d4:	8fb1002c 	lw	s1,44(sp)
    13d8:	3c025f37 	lui	v0,0x5f37
    13dc:	244259df 	addiu	v0,v0,23007
    13e0:	afb10018 	sw	s1,24(sp)
    13e4:	00118843 	sra	s1,s1,0x1
    13e8:	00518823 	subu	s1,v0,s1
    13ec:	27a40014 	addiu	a0,sp,20
    13f0:	27a50018 	addiu	a1,sp,24
    13f4:	02003021 	move	a2,s0
    13f8:	0c00079c 	jal	1e70 <float32::operator*(float32 const&) const>
    13fc:	afb10010 	sw	s1,16(sp)
    1400:	27a40024 	addiu	a0,sp,36
    1404:	27a50028 	addiu	a1,sp,40
    1408:	02003021 	move	a2,s0
    140c:	0c00079c 	jal	1e70 <float32::operator*(float32 const&) const>
    1410:	afb10010 	sw	s1,16(sp)
    1414:	27a40020 	addiu	a0,sp,32
    1418:	27a50024 	addiu	a1,sp,36
    141c:	02003021 	move	a2,s0
    1420:	0c00079c 	jal	1e70 <float32::operator*(float32 const&) const>
    1424:	afb10010 	sw	s1,16(sp)
    1428:	3c023fc0 	lui	v0,0x3fc0
    142c:	27a4001c 	addiu	a0,sp,28
    1430:	02002821 	move	a1,s0
    1434:	27a60020 	addiu	a2,sp,32
    1438:	0c000992 	jal	2648 <float32::operator-(float32 const&) const>
    143c:	afa20010 	sw	v0,16(sp)
    1440:	02002021 	move	a0,s0
    1444:	27a50014 	addiu	a1,sp,20
    1448:	0c00079c 	jal	1e70 <float32::operator*(float32 const&) const>
    144c:	27a6001c 	addiu	a2,sp,28
    1450:	8fa20010 	lw	v0,16(sp)
    1454:	8fbf01f4 	lw	ra,500(sp)
    1458:	ae820048 	sw	v0,72(s4)
    145c:	8fa200c0 	lw	v0,192(sp)
    1460:	8fbe01f0 	lw	s8,496(sp)
    1464:	8fb701ec 	lw	s7,492(sp)
    1468:	8fb601e8 	lw	s6,488(sp)
    146c:	8fb501e4 	lw	s5,484(sp)
    1470:	8fb301dc 	lw	s3,476(sp)
    1474:	8fb201d8 	lw	s2,472(sp)
    1478:	8fb101d4 	lw	s1,468(sp)
    147c:	8fb001d0 	lw	s0,464(sp)
    1480:	ae82004c 	sw	v0,76(s4)
    1484:	8fb401e0 	lw	s4,480(sp)
    1488:	03e00008 	jr	ra
    148c:	27bd01f8 	addiu	sp,sp,504

00001490 <_ZN4MathL11sign_extendEi.2504.1500>:
    1490:	3083ffff 	andi	v1,a0,0xffff
    1494:	00031bc3 	sra	v1,v1,0xf
    1498:	10600003 	beqz	v1,14a8 <_ZN4MathL11sign_extendEi.2504.1500+0x18>
    149c:	00801021 	move	v0,a0
    14a0:	3c03ffff 	lui	v1,0xffff
    14a4:	00831025 	or	v0,a0,v1
    14a8:	03e00008 	jr	ra
    14ac:	00000000 	nop

000014b0 <System::Tasking::Task::start()>:
    14b0:	03e00008 	jr	ra
    14b4:	00000000 	nop

000014b8 <_ZN7float3219shift32RightJammingEjiPj.1542>:
    14b8:	10a00009 	beqz	a1,14e0 <_ZN7float3219shift32RightJammingEjiPj.1542+0x28>
    14bc:	00801021 	move	v0,a0
    14c0:	28a30020 	slti	v1,a1,32
    14c4:	10600006 	beqz	v1,14e0 <_ZN7float3219shift32RightJammingEjiPj.1542+0x28>
    14c8:	0004102b 	sltu	v0,zero,a0
    14cc:	00051023 	negu	v0,a1
    14d0:	00441004 	sllv	v0,a0,v0
    14d4:	0002102b 	sltu	v0,zero,v0
    14d8:	00a42806 	srlv	a1,a0,a1
    14dc:	00451025 	or	v0,v0,a1
    14e0:	03e00008 	jr	ra
    14e4:	acc20000 	sw	v0,0(a2)

000014e8 <_ZN7float3212roundAndPackEbij.1537>:
    14e8:	30a3ffff 	andi	v1,a1,0xffff
    14ec:	27bdffe8 	addiu	sp,sp,-24
    14f0:	2c6300fd 	sltiu	v1,v1,253
    14f4:	30c2007f 	andi	v0,a2,0x7f
    14f8:	afb00010 	sw	s0,16(sp)
    14fc:	afbf0014 	sw	ra,20(sp)
    1500:	afa60020 	sw	a2,32(sp)
    1504:	14600015 	bnez	v1,155c <_ZN7float3212roundAndPackEbij.1537+0x74>
    1508:	00808021 	move	s0,a0
    150c:	28a300fe 	slti	v1,a1,254
    1510:	10600006 	beqz	v1,152c <_ZN7float3212roundAndPackEbij.1537+0x44>
    1514:	240300fd 	li	v1,253
    1518:	14a30008 	bne	a1,v1,153c <_ZN7float3212roundAndPackEbij.1537+0x54>
    151c:	00000000 	nop
    1520:	24c60040 	addiu	a2,a2,64
    1524:	04c1000d 	bgez	a2,155c <_ZN7float3212roundAndPackEbij.1537+0x74>
    1528:	00000000 	nop
    152c:	001087c0 	sll	s0,s0,0x1f
    1530:	3c027f80 	lui	v0,0x7f80
    1534:	08000565 	j	1594 <_ZN7float3212roundAndPackEbij.1537+0xac>
    1538:	02021021 	addu	v0,s0,v0
    153c:	04a10007 	bgez	a1,155c <_ZN7float3212roundAndPackEbij.1537+0x74>
    1540:	00c02021 	move	a0,a2
    1544:	00052823 	negu	a1,a1
    1548:	0c00052e 	jal	14b8 <_ZN7float3219shift32RightJammingEjiPj.1542>
    154c:	27a60020 	addiu	a2,sp,32
    1550:	8fa20020 	lw	v0,32(sp)
    1554:	00002821 	move	a1,zero
    1558:	3042007f 	andi	v0,v0,0x7f
    155c:	8fa30020 	lw	v1,32(sp)
    1560:	38420040 	xori	v0,v0,0x40
    1564:	2c420001 	sltiu	v0,v0,1
    1568:	24630040 	addiu	v1,v1,64
    156c:	000319c2 	srl	v1,v1,0x7
    1570:	00021027 	nor	v0,zero,v0
    1574:	00431024 	and	v0,v0,v1
    1578:	0002182b 	sltu	v1,zero,v0
    157c:	00031823 	negu	v1,v1
    1580:	00a32824 	and	a1,a1,v1
    1584:	001087c0 	sll	s0,s0,0x1f
    1588:	00501021 	addu	v0,v0,s0
    158c:	00052dc0 	sll	a1,a1,0x17
    1590:	00451021 	addu	v0,v0,a1
    1594:	8fbf0014 	lw	ra,20(sp)
    1598:	8fb00010 	lw	s0,16(sp)
    159c:	03e00008 	jr	ra
    15a0:	27bd0018 	addiu	sp,sp,24

000015a4 <_ZN7float327addSigsEjjb.1532>:
    15a4:	27bdffd8 	addiu	sp,sp,-40
    15a8:	00801021 	move	v0,a0
    15ac:	afb00018 	sw	s0,24(sp)
    15b0:	000485c2 	srl	s0,a0,0x17
    15b4:	3c04007f 	lui	a0,0x7f
    15b8:	3484ffff 	ori	a0,a0,0xffff
    15bc:	afb1001c 	sw	s1,28(sp)
    15c0:	00058dc2 	srl	s1,a1,0x17
    15c4:	321000ff 	andi	s0,s0,0xff
    15c8:	323100ff 	andi	s1,s1,0xff
    15cc:	00443824 	and	a3,v0,a0
    15d0:	00a42824 	and	a1,a1,a0
    15d4:	00073980 	sll	a3,a3,0x6
    15d8:	00052980 	sll	a1,a1,0x6
    15dc:	02111823 	subu	v1,s0,s1
    15e0:	afb20020 	sw	s2,32(sp)
    15e4:	afbf0024 	sw	ra,36(sp)
    15e8:	00c09021 	move	s2,a2
    15ec:	afa70014 	sw	a3,20(sp)
    15f0:	18600010 	blez	v1,1634 <_ZN7float327addSigsEjjb.1532+0x90>
    15f4:	afa50010 	sw	a1,16(sp)
    15f8:	240400ff 	li	a0,255
    15fc:	1204003d 	beq	s0,a0,16f4 <_ZN7float327addSigsEjjb.1532+0x150>
    1600:	00000000 	nop
    1604:	16200003 	bnez	s1,1614 <_ZN7float327addSigsEjjb.1532+0x70>
    1608:	3c022000 	lui	v0,0x2000
    160c:	08000587 	j	161c <_ZN7float327addSigsEjjb.1532+0x78>
    1610:	2463ffff 	addiu	v1,v1,-1
    1614:	00a22825 	or	a1,a1,v0
    1618:	afa50010 	sw	a1,16(sp)
    161c:	8fa40010 	lw	a0,16(sp)
    1620:	00602821 	move	a1,v1
    1624:	0c00052e 	jal	14b8 <_ZN7float3219shift32RightJammingEjiPj.1542>
    1628:	27a60010 	addiu	a2,sp,16
    162c:	080005b0 	j	16c0 <_ZN7float327addSigsEjjb.1532+0x11c>
    1630:	02002821 	move	a1,s0
    1634:	10600014 	beqz	v1,1688 <_ZN7float327addSigsEjjb.1532+0xe4>
    1638:	00000000 	nop
    163c:	240200ff 	li	v0,255
    1640:	16220004 	bne	s1,v0,1654 <_ZN7float327addSigsEjjb.1532+0xb0>
    1644:	000617c0 	sll	v0,a2,0x1f
    1648:	3c037f80 	lui	v1,0x7f80
    164c:	080005bd 	j	16f4 <_ZN7float327addSigsEjjb.1532+0x150>
    1650:	00431021 	addu	v0,v0,v1
    1654:	16000003 	bnez	s0,1664 <_ZN7float327addSigsEjjb.1532+0xc0>
    1658:	00000000 	nop
    165c:	0800059c 	j	1670 <_ZN7float327addSigsEjjb.1532+0xcc>
    1660:	24630001 	addiu	v1,v1,1
    1664:	3c052000 	lui	a1,0x2000
    1668:	00e53825 	or	a3,a3,a1
    166c:	afa70014 	sw	a3,20(sp)
    1670:	8fa40014 	lw	a0,20(sp)
    1674:	00032823 	negu	a1,v1
    1678:	0c00052e 	jal	14b8 <_ZN7float3219shift32RightJammingEjiPj.1542>
    167c:	27a60014 	addiu	a2,sp,20
    1680:	080005b0 	j	16c0 <_ZN7float327addSigsEjjb.1532+0x11c>
    1684:	02202821 	move	a1,s1
    1688:	240300ff 	li	v1,255
    168c:	12030019 	beq	s0,v1,16f4 <_ZN7float327addSigsEjjb.1532+0x150>
    1690:	00000000 	nop
    1694:	16000006 	bnez	s0,16b0 <_ZN7float327addSigsEjjb.1532+0x10c>
    1698:	3c034000 	lui	v1,0x4000
    169c:	00a71021 	addu	v0,a1,a3
    16a0:	00021182 	srl	v0,v0,0x6
    16a4:	000697c0 	sll	s2,a2,0x1f
    16a8:	080005bd 	j	16f4 <_ZN7float327addSigsEjjb.1532+0x150>
    16ac:	00521021 	addu	v0,v0,s2
    16b0:	00e31821 	addu	v1,a3,v1
    16b4:	00653021 	addu	a2,v1,a1
    16b8:	080005bb 	j	16ec <_ZN7float327addSigsEjjb.1532+0x148>
    16bc:	02002821 	move	a1,s0
    16c0:	8fa20014 	lw	v0,20(sp)
    16c4:	3c032000 	lui	v1,0x2000
    16c8:	00621825 	or	v1,v1,v0
    16cc:	8fa20010 	lw	v0,16(sp)
    16d0:	00000000 	nop
    16d4:	00623021 	addu	a2,v1,v0
    16d8:	00061040 	sll	v0,a2,0x1
    16dc:	04400003 	bltz	v0,16ec <_ZN7float327addSigsEjjb.1532+0x148>
    16e0:	afa30014 	sw	v1,20(sp)
    16e4:	24a5ffff 	addiu	a1,a1,-1
    16e8:	00403021 	move	a2,v0
    16ec:	0c00053a 	jal	14e8 <_ZN7float3212roundAndPackEbij.1537>
    16f0:	02402021 	move	a0,s2
    16f4:	8fbf0024 	lw	ra,36(sp)
    16f8:	8fb20020 	lw	s2,32(sp)
    16fc:	8fb1001c 	lw	s1,28(sp)
    1700:	8fb00018 	lw	s0,24(sp)
    1704:	03e00008 	jr	ra
    1708:	27bd0028 	addiu	sp,sp,40

0000170c <_ZN7float3219countLeadingZeros32Ej.1547>:
    170c:	3c030001 	lui	v1,0x1
    1710:	0083182b 	sltu	v1,a0,v1
    1714:	10600003 	beqz	v1,1724 <_ZN7float3219countLeadingZeros32Ej.1547+0x18>
    1718:	00001021 	move	v0,zero
    171c:	00042400 	sll	a0,a0,0x10
    1720:	24020010 	li	v0,16
    1724:	3c030100 	lui	v1,0x100
    1728:	0083182b 	sltu	v1,a0,v1
    172c:	10600005 	beqz	v1,1744 <_ZN7float3219countLeadingZeros32Ej.1547+0x38>
    1730:	3c038000 	lui	v1,0x8000
    1734:	24420008 	addiu	v0,v0,8
    1738:	00021600 	sll	v0,v0,0x18
    173c:	00021603 	sra	v0,v0,0x18
    1740:	00042200 	sll	a0,a0,0x8
    1744:	246300b4 	addiu	v1,v1,180
    1748:	00042602 	srl	a0,a0,0x18
    174c:	00832021 	addu	a0,a0,v1
    1750:	90830000 	lbu	v1,0(a0)
    1754:	00000000 	nop
    1758:	00621021 	addu	v0,v1,v0
    175c:	00021600 	sll	v0,v0,0x18
    1760:	03e00008 	jr	ra
    1764:	00021603 	sra	v0,v0,0x18

00001768 <_ZN7float327subSigsEjjb.1527>:
    1768:	27bdffd0 	addiu	sp,sp,-48
    176c:	3c03007f 	lui	v1,0x7f
    1770:	00a03821 	move	a3,a1
    1774:	3463ffff 	ori	v1,v1,0xffff
    1778:	afb10020 	sw	s1,32(sp)
    177c:	afb0001c 	sw	s0,28(sp)
    1780:	00058dc2 	srl	s1,a1,0x17
    1784:	000485c2 	srl	s0,a0,0x17
    1788:	00801021 	move	v0,a0
    178c:	321000ff 	andi	s0,s0,0xff
    1790:	00832024 	and	a0,a0,v1
    1794:	323100ff 	andi	s1,s1,0xff
    1798:	00e31824 	and	v1,a3,v1
    179c:	000421c0 	sll	a0,a0,0x7
    17a0:	000319c0 	sll	v1,v1,0x7
    17a4:	02112823 	subu	a1,s0,s1
    17a8:	afb20024 	sw	s2,36(sp)
    17ac:	afbf002c 	sw	ra,44(sp)
    17b0:	afb30028 	sw	s3,40(sp)
    17b4:	00c09021 	move	s2,a2
    17b8:	afa40014 	sw	a0,20(sp)
    17bc:	1ca0002b 	bgtz	a1,186c <_ZN7float327subSigsEjjb.1527+0x104>
    17c0:	afa30010 	sw	v1,16(sp)
    17c4:	14a0000e 	bnez	a1,1800 <_ZN7float327subSigsEjjb.1527+0x98>
    17c8:	00000000 	nop
    17cc:	240500ff 	li	a1,255
    17d0:	12050044 	beq	s0,a1,18e4 <_ZN7float327subSigsEjjb.1527+0x17c>
    17d4:	2402ffff 	li	v0,-1
    17d8:	16000003 	bnez	s0,17e8 <_ZN7float327subSigsEjjb.1527+0x80>
    17dc:	0064102b 	sltu	v0,v1,a0
    17e0:	24110001 	li	s1,1
    17e4:	24100001 	li	s0,1
    17e8:	14400030 	bnez	v0,18ac <_ZN7float327subSigsEjjb.1527+0x144>
    17ec:	0083182b 	sltu	v1,a0,v1
    17f0:	1060003c 	beqz	v1,18e4 <_ZN7float327subSigsEjjb.1527+0x17c>
    17f4:	00001021 	move	v0,zero
    17f8:	08000615 	j	1854 <_ZN7float327subSigsEjjb.1527+0xec>
    17fc:	00000000 	nop
    1800:	240200ff 	li	v0,255
    1804:	16220005 	bne	s1,v0,181c <_ZN7float327subSigsEjjb.1527+0xb4>
    1808:	38c20001 	xori	v0,a2,0x1
    180c:	000217c0 	sll	v0,v0,0x1f
    1810:	3c037f80 	lui	v1,0x7f80
    1814:	08000639 	j	18e4 <_ZN7float327subSigsEjjb.1527+0x17c>
    1818:	00431021 	addu	v0,v0,v1
    181c:	16000003 	bnez	s0,182c <_ZN7float327subSigsEjjb.1527+0xc4>
    1820:	3c034000 	lui	v1,0x4000
    1824:	0800060d 	j	1834 <_ZN7float327subSigsEjjb.1527+0xcc>
    1828:	24a50001 	addiu	a1,a1,1
    182c:	00832025 	or	a0,a0,v1
    1830:	afa40014 	sw	a0,20(sp)
    1834:	8fa40014 	lw	a0,20(sp)
    1838:	00052823 	negu	a1,a1
    183c:	0c00052e 	jal	14b8 <_ZN7float3219shift32RightJammingEjiPj.1542>
    1840:	27a60014 	addiu	a2,sp,20
    1844:	8fa30010 	lw	v1,16(sp)
    1848:	3c024000 	lui	v0,0x4000
    184c:	00621025 	or	v0,v1,v0
    1850:	afa20010 	sw	v0,16(sp)
    1854:	8fa20014 	lw	v0,20(sp)
    1858:	8fb30010 	lw	s3,16(sp)
    185c:	3a520001 	xori	s2,s2,0x1
    1860:	02629823 	subu	s3,s3,v0
    1864:	0800062f 	j	18bc <_ZN7float327subSigsEjjb.1527+0x154>
    1868:	02208021 	move	s0,s1
    186c:	240400ff 	li	a0,255
    1870:	1204001c 	beq	s0,a0,18e4 <_ZN7float327subSigsEjjb.1527+0x17c>
    1874:	00000000 	nop
    1878:	16200003 	bnez	s1,1888 <_ZN7float327subSigsEjjb.1527+0x120>
    187c:	3c024000 	lui	v0,0x4000
    1880:	08000624 	j	1890 <_ZN7float327subSigsEjjb.1527+0x128>
    1884:	24a5ffff 	addiu	a1,a1,-1
    1888:	00621825 	or	v1,v1,v0
    188c:	afa30010 	sw	v1,16(sp)
    1890:	8fa40010 	lw	a0,16(sp)
    1894:	0c00052e 	jal	14b8 <_ZN7float3219shift32RightJammingEjiPj.1542>
    1898:	27a60010 	addiu	a2,sp,16
    189c:	8fa30014 	lw	v1,20(sp)
    18a0:	3c024000 	lui	v0,0x4000
    18a4:	00621025 	or	v0,v1,v0
    18a8:	afa20014 	sw	v0,20(sp)
    18ac:	8fa20010 	lw	v0,16(sp)
    18b0:	8fb30014 	lw	s3,20(sp)
    18b4:	00000000 	nop
    18b8:	02629823 	subu	s3,s3,v0
    18bc:	0c0005c3 	jal	170c <_ZN7float3219countLeadingZeros32Ej.1547>
    18c0:	02602021 	move	a0,s3
    18c4:	2442ffff 	addiu	v0,v0,-1
    18c8:	00023600 	sll	a2,v0,0x18
    18cc:	00063603 	sra	a2,a2,0x18
    18d0:	2605ffff 	addiu	a1,s0,-1
    18d4:	00a62823 	subu	a1,a1,a2
    18d8:	02402021 	move	a0,s2
    18dc:	0c00053a 	jal	14e8 <_ZN7float3212roundAndPackEbij.1537>
    18e0:	00d33004 	sllv	a2,s3,a2
    18e4:	8fbf002c 	lw	ra,44(sp)
    18e8:	8fb30028 	lw	s3,40(sp)
    18ec:	8fb20024 	lw	s2,36(sp)
    18f0:	8fb10020 	lw	s1,32(sp)
    18f4:	8fb0001c 	lw	s0,28(sp)
    18f8:	03e00008 	jr	ra
    18fc:	27bd0030 	addiu	sp,sp,48

00001900 <_Z12sendUARTTextPKc.1597>:
    1900:	80820000 	lb	v0,0(a0)
    1904:	00000000 	nop
    1908:	1440fffd 	bnez	v0,1900 <_Z12sendUARTTextPKc.1597>
    190c:	24840001 	addiu	a0,a0,1
    1910:	03e00008 	jr	ra
    1914:	00000000 	nop

00001918 <_Z19parseConsoleMessagePKc.1578>:
    1918:	27bdffd8 	addiu	sp,sp,-40
    191c:	00801021 	move	v0,a0
    1920:	afbf0024 	sw	ra,36(sp)
    1924:	afb40020 	sw	s4,32(sp)
    1928:	afb3001c 	sw	s3,28(sp)
    192c:	afb20018 	sw	s2,24(sp)
    1930:	afb10014 	sw	s1,20(sp)
    1934:	afb00010 	sw	s0,16(sp)
    1938:	80430000 	lb	v1,0(v0)
    193c:	00448823 	subu	s1,v0,a0
    1940:	1460fffd 	bnez	v1,1938 <_Z19parseConsoleMessagePKc.1578+0x20>
    1944:	24420001 	addiu	v0,v0,1
    1948:	00918821 	addu	s1,a0,s1
    194c:	109100f3 	beq	a0,s1,1d1c <_Z19parseConsoleMessagePKc.1578+0x404>
    1950:	3c128000 	lui	s2,0x8000
    1954:	3c138000 	lui	s3,0x8000
    1958:	00808021 	move	s0,a0
    195c:	24020001 	li	v0,1
    1960:	26520048 	addiu	s2,s2,72
    1964:	2673009c 	addiu	s3,s3,156
    1968:	3c148000 	lui	s4,0x8000
    196c:	2442ffff 	addiu	v0,v0,-1
    1970:	2c430015 	sltiu	v1,v0,21
    1974:	106000e9 	beqz	v1,1d1c <_Z19parseConsoleMessagePKc.1578+0x404>
    1978:	00000000 	nop
    197c:	00021080 	sll	v0,v0,0x2
    1980:	02421021 	addu	v0,s2,v0
    1984:	8c420000 	lw	v0,0(v0)
    1988:	00000000 	nop
    198c:	00400008 	jr	v0
    1990:	00000000 	nop
    1994:	82020000 	lb	v0,0(s0)
    1998:	24030067 	li	v1,103
    199c:	104300be 	beq	v0,v1,1c98 <_Z19parseConsoleMessagePKc.1578+0x380>
    19a0:	24030068 	li	v1,104
    19a4:	144300dd 	bne	v0,v1,1d1c <_Z19parseConsoleMessagePKc.1578+0x404>
    19a8:	00000000 	nop
    19ac:	08000728 	j	1ca0 <_Z19parseConsoleMessagePKc.1578+0x388>
    19b0:	24020014 	li	v0,20
    19b4:	82030000 	lb	v1,0(s0)
    19b8:	24020065 	li	v0,101
    19bc:	146200d7 	bne	v1,v0,1d1c <_Z19parseConsoleMessagePKc.1578+0x404>
    19c0:	00000000 	nop
    19c4:	0800072a 	j	1ca8 <_Z19parseConsoleMessagePKc.1578+0x390>
    19c8:	24020003 	li	v0,3
    19cc:	82030000 	lb	v1,0(s0)
    19d0:	24020074 	li	v0,116
    19d4:	146200d1 	bne	v1,v0,1d1c <_Z19parseConsoleMessagePKc.1578+0x404>
    19d8:	00000000 	nop
    19dc:	0800072c 	j	1cb0 <_Z19parseConsoleMessagePKc.1578+0x398>
    19e0:	24020004 	li	v0,4
    19e4:	82030000 	lb	v1,0(s0)
    19e8:	2402005f 	li	v0,95
    19ec:	146200cb 	bne	v1,v0,1d1c <_Z19parseConsoleMessagePKc.1578+0x404>
    19f0:	00000000 	nop
    19f4:	0800072e 	j	1cb8 <_Z19parseConsoleMessagePKc.1578+0x3a0>
    19f8:	24020005 	li	v0,5
    19fc:	82020000 	lb	v0,0(s0)
    1a00:	2403006d 	li	v1,109
    1a04:	10430074 	beq	v0,v1,1bd8 <_Z19parseConsoleMessagePKc.1578+0x2c0>
    1a08:	2843006e 	slti	v1,v0,110
    1a0c:	10600008 	beqz	v1,1a30 <_Z19parseConsoleMessagePKc.1578+0x118>
    1a10:	24030070 	li	v1,112
    1a14:	24030061 	li	v1,97
    1a18:	1043000b 	beq	v0,v1,1a48 <_Z19parseConsoleMessagePKc.1578+0x130>
    1a1c:	24030067 	li	v1,103
    1a20:	144300be 	bne	v0,v1,1d1c <_Z19parseConsoleMessagePKc.1578+0x404>
    1a24:	00000000 	nop
    1a28:	08000730 	j	1cc0 <_Z19parseConsoleMessagePKc.1578+0x3a8>
    1a2c:	24020009 	li	v0,9
    1a30:	1043006b 	beq	v0,v1,1be0 <_Z19parseConsoleMessagePKc.1578+0x2c8>
    1a34:	24030071 	li	v1,113
    1a38:	144300b8 	bne	v0,v1,1d1c <_Z19parseConsoleMessagePKc.1578+0x404>
    1a3c:	00000000 	nop
    1a40:	080006fa 	j	1be8 <_Z19parseConsoleMessagePKc.1578+0x2d0>
    1a44:	24020011 	li	v0,17
    1a48:	08000744 	j	1d10 <_Z19parseConsoleMessagePKc.1578+0x3f8>
    1a4c:	24020006 	li	v0,6
    1a50:	82030000 	lb	v1,0(s0)
    1a54:	24020063 	li	v0,99
    1a58:	146200b0 	bne	v1,v0,1d1c <_Z19parseConsoleMessagePKc.1578+0x404>
    1a5c:	00000000 	nop
    1a60:	08000732 	j	1cc8 <_Z19parseConsoleMessagePKc.1578+0x3b0>
    1a64:	24020007 	li	v0,7
    1a68:	82030000 	lb	v1,0(s0)
    1a6c:	24020063 	li	v0,99
    1a70:	146200aa 	bne	v1,v0,1d1c <_Z19parseConsoleMessagePKc.1578+0x404>
    1a74:	00000000 	nop
    1a78:	080006fc 	j	1bf0 <_Z19parseConsoleMessagePKc.1578+0x2d8>
    1a7c:	3c028000 	lui	v0,0x8000
    1a80:	82020000 	lb	v0,0(s0)
    1a84:	2403000a 	li	v1,10
    1a88:	10430091 	beq	v0,v1,1cd0 <_Z19parseConsoleMessagePKc.1578+0x3b8>
    1a8c:	2403000d 	li	v1,13
    1a90:	144300a2 	bne	v0,v1,1d1c <_Z19parseConsoleMessagePKc.1578+0x404>
    1a94:	00000000 	nop
    1a98:	08000744 	j	1d10 <_Z19parseConsoleMessagePKc.1578+0x3f8>
    1a9c:	24020016 	li	v0,22
    1aa0:	82030000 	lb	v1,0(s0)
    1aa4:	24020079 	li	v0,121
    1aa8:	1462009c 	bne	v1,v0,1d1c <_Z19parseConsoleMessagePKc.1578+0x404>
    1aac:	00000000 	nop
    1ab0:	08000736 	j	1cd8 <_Z19parseConsoleMessagePKc.1578+0x3c0>
    1ab4:	2402000a 	li	v0,10
    1ab8:	82030000 	lb	v1,0(s0)
    1abc:	24020072 	li	v0,114
    1ac0:	14620096 	bne	v1,v0,1d1c <_Z19parseConsoleMessagePKc.1578+0x404>
    1ac4:	00000000 	nop
    1ac8:	08000738 	j	1ce0 <_Z19parseConsoleMessagePKc.1578+0x3c8>
    1acc:	2402000b 	li	v0,11
    1ad0:	82030000 	lb	v1,0(s0)
    1ad4:	2402006f 	li	v0,111
    1ad8:	14620090 	bne	v1,v0,1d1c <_Z19parseConsoleMessagePKc.1578+0x404>
    1adc:	00000000 	nop
    1ae0:	080006fe 	j	1bf8 <_Z19parseConsoleMessagePKc.1578+0x2e0>
    1ae4:	3c028000 	lui	v0,0x8000
    1ae8:	82030000 	lb	v1,0(s0)
    1aec:	24020061 	li	v0,97
    1af0:	1462008a 	bne	v1,v0,1d1c <_Z19parseConsoleMessagePKc.1578+0x404>
    1af4:	00000000 	nop
    1af8:	0800073a 	j	1ce8 <_Z19parseConsoleMessagePKc.1578+0x3d0>
    1afc:	2402000d 	li	v0,13
    1b00:	82030000 	lb	v1,0(s0)
    1b04:	24020067 	li	v0,103
    1b08:	14620084 	bne	v1,v0,1d1c <_Z19parseConsoleMessagePKc.1578+0x404>
    1b0c:	00000000 	nop
    1b10:	0800073c 	j	1cf0 <_Z19parseConsoleMessagePKc.1578+0x3d8>
    1b14:	2402000e 	li	v0,14
    1b18:	82030000 	lb	v1,0(s0)
    1b1c:	2402006e 	li	v0,110
    1b20:	1462007e 	bne	v1,v0,1d1c <_Z19parseConsoleMessagePKc.1578+0x404>
    1b24:	00000000 	nop
    1b28:	08000700 	j	1c00 <_Z19parseConsoleMessagePKc.1578+0x2e8>
    1b2c:	3c028000 	lui	v0,0x8000
    1b30:	82030000 	lb	v1,0(s0)
    1b34:	24020069 	li	v0,105
    1b38:	14620078 	bne	v1,v0,1d1c <_Z19parseConsoleMessagePKc.1578+0x404>
    1b3c:	00000000 	nop
    1b40:	0800073e 	j	1cf8 <_Z19parseConsoleMessagePKc.1578+0x3e0>
    1b44:	24020010 	li	v0,16
    1b48:	82030000 	lb	v1,0(s0)
    1b4c:	24020064 	li	v0,100
    1b50:	14620072 	bne	v1,v0,1d1c <_Z19parseConsoleMessagePKc.1578+0x404>
    1b54:	00000000 	nop
    1b58:	08000702 	j	1c08 <_Z19parseConsoleMessagePKc.1578+0x2f0>
    1b5c:	3c028000 	lui	v0,0x8000
    1b60:	82030000 	lb	v1,0(s0)
    1b64:	24020075 	li	v0,117
    1b68:	1462006c 	bne	v1,v0,1d1c <_Z19parseConsoleMessagePKc.1578+0x404>
    1b6c:	00000000 	nop
    1b70:	08000740 	j	1d00 <_Z19parseConsoleMessagePKc.1578+0x3e8>
    1b74:	24020012 	li	v0,18
    1b78:	82030000 	lb	v1,0(s0)
    1b7c:	24020061 	li	v0,97
    1b80:	14620066 	bne	v1,v0,1d1c <_Z19parseConsoleMessagePKc.1578+0x404>
    1b84:	00000000 	nop
    1b88:	08000742 	j	1d08 <_Z19parseConsoleMessagePKc.1578+0x3f0>
    1b8c:	24020013 	li	v0,19
    1b90:	82030000 	lb	v1,0(s0)
    1b94:	24020074 	li	v0,116
    1b98:	14620060 	bne	v1,v0,1d1c <_Z19parseConsoleMessagePKc.1578+0x404>
    1b9c:	00000000 	nop
    1ba0:	08000704 	j	1c10 <_Z19parseConsoleMessagePKc.1578+0x2f8>
    1ba4:	3c028000 	lui	v0,0x8000
    1ba8:	82030000 	lb	v1,0(s0)
    1bac:	24020065 	li	v0,101
    1bb0:	1462005a 	bne	v1,v0,1d1c <_Z19parseConsoleMessagePKc.1578+0x404>
    1bb4:	00000000 	nop
    1bb8:	08000744 	j	1d10 <_Z19parseConsoleMessagePKc.1578+0x3f8>
    1bbc:	24020015 	li	v0,21
    1bc0:	82030000 	lb	v1,0(s0)
    1bc4:	24020079 	li	v0,121
    1bc8:	14620054 	bne	v1,v0,1d1c <_Z19parseConsoleMessagePKc.1578+0x404>
    1bcc:	00000000 	nop
    1bd0:	08000706 	j	1c18 <_Z19parseConsoleMessagePKc.1578+0x300>
    1bd4:	3c028000 	lui	v0,0x8000
    1bd8:	08000744 	j	1d10 <_Z19parseConsoleMessagePKc.1578+0x3f8>
    1bdc:	2402000c 	li	v0,12
    1be0:	08000744 	j	1d10 <_Z19parseConsoleMessagePKc.1578+0x3f8>
    1be4:	2402000f 	li	v0,15
    1be8:	08000745 	j	1d14 <_Z19parseConsoleMessagePKc.1578+0x3fc>
    1bec:	26100001 	addiu	s0,s0,1
    1bf0:	08000707 	j	1c1c <_Z19parseConsoleMessagePKc.1578+0x304>
    1bf4:	244201e1 	addiu	v0,v0,481
    1bf8:	08000707 	j	1c1c <_Z19parseConsoleMessagePKc.1578+0x304>
    1bfc:	244201e3 	addiu	v0,v0,483
    1c00:	08000707 	j	1c1c <_Z19parseConsoleMessagePKc.1578+0x304>
    1c04:	244201e5 	addiu	v0,v0,485
    1c08:	08000707 	j	1c1c <_Z19parseConsoleMessagePKc.1578+0x304>
    1c0c:	244201e7 	addiu	v0,v0,487
    1c10:	08000707 	j	1c1c <_Z19parseConsoleMessagePKc.1578+0x304>
    1c14:	244201df 	addiu	v0,v0,479
    1c18:	244201dd 	addiu	v0,v0,477
    1c1c:	90430001 	lbu	v1,1(v0)
    1c20:	00000000 	nop
    1c24:	2c640006 	sltiu	a0,v1,6
    1c28:	10800039 	beqz	a0,1d10 <_Z19parseConsoleMessagePKc.1578+0x3f8>
    1c2c:	24020008 	li	v0,8
    1c30:	00031880 	sll	v1,v1,0x2
    1c34:	02631821 	addu	v1,s3,v1
    1c38:	8c620000 	lw	v0,0(v1)
    1c3c:	00000000 	nop
    1c40:	00400008 	jr	v0
    1c44:	00000000 	nop
    1c48:	3c048000 	lui	a0,0x8000
    1c4c:	08000717 	j	1c5c <_Z19parseConsoleMessagePKc.1578+0x344>
    1c50:	24840000 	addiu	a0,a0,0
    1c54:	3c048000 	lui	a0,0x8000
    1c58:	2484000c 	addiu	a0,a0,12
    1c5c:	0c000640 	jal	1900 <_Z12sendUARTTextPKc.1597>
    1c60:	26100001 	addiu	s0,s0,1
    1c64:	08000745 	j	1d14 <_Z19parseConsoleMessagePKc.1578+0x3fc>
    1c68:	24020008 	li	v0,8
    1c6c:	3c048000 	lui	a0,0x8000
    1c70:	08000717 	j	1c5c <_Z19parseConsoleMessagePKc.1578+0x344>
    1c74:	24840018 	addiu	a0,a0,24
    1c78:	3c048000 	lui	a0,0x8000
    1c7c:	08000717 	j	1c5c <_Z19parseConsoleMessagePKc.1578+0x344>
    1c80:	24840024 	addiu	a0,a0,36
    1c84:	3c048000 	lui	a0,0x8000
    1c88:	08000717 	j	1c5c <_Z19parseConsoleMessagePKc.1578+0x344>
    1c8c:	24840030 	addiu	a0,a0,48
    1c90:	08000717 	j	1c5c <_Z19parseConsoleMessagePKc.1578+0x344>
    1c94:	2684003c 	addiu	a0,s4,60
    1c98:	08000744 	j	1d10 <_Z19parseConsoleMessagePKc.1578+0x3f8>
    1c9c:	24020002 	li	v0,2
    1ca0:	08000745 	j	1d14 <_Z19parseConsoleMessagePKc.1578+0x3fc>
    1ca4:	26100001 	addiu	s0,s0,1
    1ca8:	08000745 	j	1d14 <_Z19parseConsoleMessagePKc.1578+0x3fc>
    1cac:	26100001 	addiu	s0,s0,1
    1cb0:	08000745 	j	1d14 <_Z19parseConsoleMessagePKc.1578+0x3fc>
    1cb4:	26100001 	addiu	s0,s0,1
    1cb8:	08000745 	j	1d14 <_Z19parseConsoleMessagePKc.1578+0x3fc>
    1cbc:	26100001 	addiu	s0,s0,1
    1cc0:	08000745 	j	1d14 <_Z19parseConsoleMessagePKc.1578+0x3fc>
    1cc4:	26100001 	addiu	s0,s0,1
    1cc8:	08000745 	j	1d14 <_Z19parseConsoleMessagePKc.1578+0x3fc>
    1ccc:	26100001 	addiu	s0,s0,1
    1cd0:	08000744 	j	1d10 <_Z19parseConsoleMessagePKc.1578+0x3f8>
    1cd4:	24020016 	li	v0,22
    1cd8:	08000745 	j	1d14 <_Z19parseConsoleMessagePKc.1578+0x3fc>
    1cdc:	26100001 	addiu	s0,s0,1
    1ce0:	08000745 	j	1d14 <_Z19parseConsoleMessagePKc.1578+0x3fc>
    1ce4:	26100001 	addiu	s0,s0,1
    1ce8:	08000745 	j	1d14 <_Z19parseConsoleMessagePKc.1578+0x3fc>
    1cec:	26100001 	addiu	s0,s0,1
    1cf0:	08000745 	j	1d14 <_Z19parseConsoleMessagePKc.1578+0x3fc>
    1cf4:	26100001 	addiu	s0,s0,1
    1cf8:	08000745 	j	1d14 <_Z19parseConsoleMessagePKc.1578+0x3fc>
    1cfc:	26100001 	addiu	s0,s0,1
    1d00:	08000745 	j	1d14 <_Z19parseConsoleMessagePKc.1578+0x3fc>
    1d04:	26100001 	addiu	s0,s0,1
    1d08:	08000745 	j	1d14 <_Z19parseConsoleMessagePKc.1578+0x3fc>
    1d0c:	26100001 	addiu	s0,s0,1
    1d10:	26100001 	addiu	s0,s0,1
    1d14:	1611ff15 	bne	s0,s1,196c <_Z19parseConsoleMessagePKc.1578+0x54>
    1d18:	00000000 	nop
    1d1c:	8fbf0024 	lw	ra,36(sp)
    1d20:	8fb40020 	lw	s4,32(sp)
    1d24:	8fb3001c 	lw	s3,28(sp)
    1d28:	8fb20018 	lw	s2,24(sp)
    1d2c:	8fb10014 	lw	s1,20(sp)
    1d30:	8fb00010 	lw	s0,16(sp)
    1d34:	03e00008 	jr	ra
    1d38:	27bd0028 	addiu	sp,sp,40

00001d3c <Radio::Digital::XBeeReadIdleTask::start()>:
    1d3c:	27bdffe0 	addiu	sp,sp,-32
    1d40:	afb10018 	sw	s1,24(sp)
    1d44:	24910014 	addiu	s1,a0,20
    1d48:	afb00014 	sw	s0,20(sp)
    1d4c:	00808021 	move	s0,a0
    1d50:	afbf001c 	sw	ra,28(sp)
    1d54:	0c000646 	jal	1918 <_Z19parseConsoleMessagePKc.1578>
    1d58:	02202021 	move	a0,s1
    1d5c:	8e020034 	lw	v0,52(s0)
    1d60:	00000000 	nop
    1d64:	14400008 	bnez	v0,1d88 <Radio::Digital::XBeeReadIdleTask::start()+0x4c>
    1d68:	02021821 	addu	v1,s0,v0
    1d6c:	3c038000 	lui	v1,0x8000
    1d70:	246301b4 	addiu	v1,v1,436
    1d74:	90640000 	lbu	a0,0(v1)
    1d78:	8c630004 	lw	v1,4(v1)
    1d7c:	a2040038 	sb	a0,56(s0)
    1d80:	ae03003c 	sw	v1,60(s0)
    1d84:	02021821 	addu	v1,s0,v0
    1d88:	a0600014 	sb	zero,20(v1)
    1d8c:	92030038 	lbu	v1,56(s0)
    1d90:	24420001 	addiu	v0,v0,1
    1d94:	14430008 	bne	v0,v1,1db8 <Radio::Digital::XBeeReadIdleTask::start()+0x7c>
    1d98:	ae020034 	sw	v0,52(s0)
    1d9c:	8e02003c 	lw	v0,60(s0)
    1da0:	00000000 	nop
    1da4:	0040f809 	jalr	v0
    1da8:	02202021 	move	a0,s1
    1dac:	ae000034 	sw	zero,52(s0)
    1db0:	a2000038 	sb	zero,56(s0)
    1db4:	ae00003c 	sw	zero,60(s0)
    1db8:	8fbf001c 	lw	ra,28(sp)
    1dbc:	8fb10018 	lw	s1,24(sp)
    1dc0:	8fb00014 	lw	s0,20(sp)
    1dc4:	03e00008 	jr	ra
    1dc8:	27bd0020 	addiu	sp,sp,32

00001dcc <_ZN6System3Bus3I2C4stopEv.1605>:
    1dcc:	3c020001 	lui	v0,0x1
    1dd0:	244200ff 	addiu	v0,v0,255
    1dd4:	ac02000c 	sw	v0,12(zero)
    1dd8:	8c02000c 	lw	v0,12(zero)
    1ddc:	00000000 	nop
    1de0:	0440fffd 	bltz	v0,1dd8 <_ZN6System3Bus3I2C4stopEv.1605+0xc>
    1de4:	00000000 	nop
    1de8:	03e00008 	jr	ra
    1dec:	00000000 	nop

00001df0 <_ZN6System3Bus3I2C5startEv.1607>:
    1df0:	3c020004 	lui	v0,0x4
    1df4:	244200ff 	addiu	v0,v0,255
    1df8:	ac02000c 	sw	v0,12(zero)
    1dfc:	8c02000c 	lw	v0,12(zero)
    1e00:	00000000 	nop
    1e04:	0440fffd 	bltz	v0,1dfc <_ZN6System3Bus3I2C5startEv.1607+0xc>
    1e08:	00000000 	nop
    1e0c:	03e00008 	jr	ra
    1e10:	00000000 	nop

00001e14 <_ZN6System3Bus3I2CL2ioEcNS1_6IoTypeE.isra.0.1953.1609>:
    1e14:	3c020002 	lui	v0,0x2
    1e18:	00822025 	or	a0,a0,v0
    1e1c:	ac04000c 	sw	a0,12(zero)
    1e20:	8c02000c 	lw	v0,12(zero)
    1e24:	00000000 	nop
    1e28:	0440fffd 	bltz	v0,1e20 <_ZN6System3Bus3I2CL2ioEcNS1_6IoTypeE.isra.0.1953.1609+0xc>
    1e2c:	00000000 	nop
    1e30:	8c02000c 	lw	v0,12(zero)
    1e34:	03e00008 	jr	ra
    1e38:	00000000 	nop

00001e3c <_ZN6System3Bus3I2C4readEv.1603>:
    1e3c:	27bdffe8 	addiu	sp,sp,-24
    1e40:	afbf0014 	sw	ra,20(sp)
    1e44:	0c000785 	jal	1e14 <_ZN6System3Bus3I2CL2ioEcNS1_6IoTypeE.isra.0.1953.1609>
    1e48:	2404ffff 	li	a0,-1
    1e4c:	8fbf0014 	lw	ra,20(sp)
    1e50:	00021600 	sll	v0,v0,0x18
    1e54:	00021603 	sra	v0,v0,0x18
    1e58:	03e00008 	jr	ra
    1e5c:	27bd0018 	addiu	sp,sp,24

00001e60 <_ZN5Radio8Messages14consoleHandlerEPc.1612>:
    1e60:	03e00008 	jr	ra
    1e64:	00000000 	nop

00001e68 <_ZN5Radio8Messages14defaultHandlerEPc.1618>:
    1e68:	03e00008 	jr	ra
    1e6c:	00000000 	nop

00001e70 <float32::operator*(float32 const&) const>:
    1e70:	27bdffd0 	addiu	sp,sp,-48
    1e74:	8ca20000 	lw	v0,0(a1)
    1e78:	afb3001c 	sw	s3,28(sp)
    1e7c:	afb20018 	sw	s2,24(sp)
    1e80:	3c13007f 	lui	s3,0x7f
    1e84:	8cd20000 	lw	s2,0(a2)
    1e88:	afb40020 	sw	s4,32(sp)
    1e8c:	3673ffff 	ori	s3,s3,0xffff
    1e90:	0002a5c2 	srl	s4,v0,0x17
    1e94:	afb50024 	sw	s5,36(sp)
    1e98:	afb10014 	sw	s1,20(sp)
    1e9c:	0012adc2 	srl	s5,s2,0x17
    1ea0:	02538824 	and	s1,s2,s3
    1ea4:	329400ff 	andi	s4,s4,0xff
    1ea8:	00529026 	xor	s2,v0,s2
    1eac:	240300ff 	li	v1,255
    1eb0:	afb00010 	sw	s0,16(sp)
    1eb4:	afbf002c 	sw	ra,44(sp)
    1eb8:	afb60028 	sw	s6,40(sp)
    1ebc:	00808021 	move	s0,a0
    1ec0:	32b500ff 	andi	s5,s5,0xff
    1ec4:	16830006 	bne	s4,v1,1ee0 <float32::operator*(float32 const&) const+0x70>
    1ec8:	001297c2 	srl	s2,s2,0x1f
    1ecc:	02b18825 	or	s1,s5,s1
    1ed0:	12200039 	beqz	s1,1fb8 <float32::operator*(float32 const&) const+0x148>
    1ed4:	2402ffff 	li	v0,-1
    1ed8:	080007bb 	j	1eec <float32::operator*(float32 const&) const+0x7c>
    1edc:	001297c0 	sll	s2,s2,0x1f
    1ee0:	16a30005 	bne	s5,v1,1ef8 <float32::operator*(float32 const&) const+0x88>
    1ee4:	02a0b021 	move	s6,s5
    1ee8:	001297c0 	sll	s2,s2,0x1f
    1eec:	3c027f80 	lui	v0,0x7f80
    1ef0:	080007d1 	j	1f44 <float32::operator*(float32 const&) const+0xd4>
    1ef4:	02429021 	addu	s2,s2,v0
    1ef8:	1680000d 	bnez	s4,1f30 <float32::operator*(float32 const&) const+0xc0>
    1efc:	00539824 	and	s3,v0,s3
    1f00:	16600003 	bnez	s3,1f10 <float32::operator*(float32 const&) const+0xa0>
    1f04:	00000000 	nop
    1f08:	080007d1 	j	1f44 <float32::operator*(float32 const&) const+0xd4>
    1f0c:	001297c0 	sll	s2,s2,0x1f
    1f10:	0c0005c3 	jal	170c <_ZN7float3219countLeadingZeros32Ej.1547>
    1f14:	02602021 	move	a0,s3
    1f18:	2442fff8 	addiu	v0,v0,-8
    1f1c:	0002a600 	sll	s4,v0,0x18
    1f20:	0014a603 	sra	s4,s4,0x18
    1f24:	24020001 	li	v0,1
    1f28:	02939804 	sllv	s3,s3,s4
    1f2c:	0054a023 	subu	s4,v0,s4
    1f30:	16a0000f 	bnez	s5,1f70 <float32::operator*(float32 const&) const+0x100>
    1f34:	3c020080 	lui	v0,0x80
    1f38:	16200004 	bnez	s1,1f4c <float32::operator*(float32 const&) const+0xdc>
    1f3c:	00000000 	nop
    1f40:	001297c0 	sll	s2,s2,0x1f
    1f44:	080007ef 	j	1fbc <float32::operator*(float32 const&) const+0x14c>
    1f48:	ae120000 	sw	s2,0(s0)
    1f4c:	0c0005c3 	jal	170c <_ZN7float3219countLeadingZeros32Ej.1547>
    1f50:	02202021 	move	a0,s1
    1f54:	2442fff8 	addiu	v0,v0,-8
    1f58:	0002b600 	sll	s6,v0,0x18
    1f5c:	0016b603 	sra	s6,s6,0x18
    1f60:	24020001 	li	v0,1
    1f64:	02d18804 	sllv	s1,s1,s6
    1f68:	0056b023 	subu	s6,v0,s6
    1f6c:	3c020080 	lui	v0,0x80
    1f70:	02629825 	or	s3,s3,v0
    1f74:	02223025 	or	a2,s1,v0
    1f78:	00063200 	sll	a2,a2,0x8
    1f7c:	001399c0 	sll	s3,s3,0x7
    1f80:	00d30019 	multu	a2,s3
    1f84:	00003812 	mflo	a3
    1f88:	0007102b 	sltu	v0,zero,a3
    1f8c:	00003010 	mfhi	a2
    1f90:	00463025 	or	a2,v0,a2
    1f94:	00061040 	sll	v0,a2,0x1
    1f98:	04410003 	bgez	v0,1fa8 <float32::operator*(float32 const&) const+0x138>
    1f9c:	02962821 	addu	a1,s4,s6
    1fa0:	080007ec 	j	1fb0 <float32::operator*(float32 const&) const+0x140>
    1fa4:	24a5ff81 	addiu	a1,a1,-127
    1fa8:	24a5ff80 	addiu	a1,a1,-128
    1fac:	00403021 	move	a2,v0
    1fb0:	0c00053a 	jal	14e8 <_ZN7float3212roundAndPackEbij.1537>
    1fb4:	02402021 	move	a0,s2
    1fb8:	ae020000 	sw	v0,0(s0)
    1fbc:	8fbf002c 	lw	ra,44(sp)
    1fc0:	02001021 	move	v0,s0
    1fc4:	8fb60028 	lw	s6,40(sp)
    1fc8:	8fb50024 	lw	s5,36(sp)
    1fcc:	8fb40020 	lw	s4,32(sp)
    1fd0:	8fb3001c 	lw	s3,28(sp)
    1fd4:	8fb20018 	lw	s2,24(sp)
    1fd8:	8fb10014 	lw	s1,20(sp)
    1fdc:	8fb00010 	lw	s0,16(sp)
    1fe0:	03e00008 	jr	ra
    1fe4:	27bd0030 	addiu	sp,sp,48

00001fe8 <float32::operator*=(float32 const&)>:
    1fe8:	27bdffe0 	addiu	sp,sp,-32
    1fec:	afb00018 	sw	s0,24(sp)
    1ff0:	00808021 	move	s0,a0
    1ff4:	00a03021 	move	a2,a1
    1ff8:	27a40010 	addiu	a0,sp,16
    1ffc:	afbf001c 	sw	ra,28(sp)
    2000:	0c00079c 	jal	1e70 <float32::operator*(float32 const&) const>
    2004:	02002821 	move	a1,s0
    2008:	8fa20010 	lw	v0,16(sp)
    200c:	8fbf001c 	lw	ra,28(sp)
    2010:	ae020000 	sw	v0,0(s0)
    2014:	02001021 	move	v0,s0
    2018:	8fb00018 	lw	s0,24(sp)
    201c:	03e00008 	jr	ra
    2020:	27bd0020 	addiu	sp,sp,32

00002024 <float32::float32(int)>:
    2024:	27bdffe0 	addiu	sp,sp,-32
    2028:	afb10014 	sw	s1,20(sp)
    202c:	afbf001c 	sw	ra,28(sp)
    2030:	afb20018 	sw	s2,24(sp)
    2034:	afb00010 	sw	s0,16(sp)
    2038:	14a00003 	bnez	a1,2048 <float32::float32(int)+0x24>
    203c:	00808821 	move	s1,a0
    2040:	08000825 	j	2094 <float32::float32(int)+0x70>
    2044:	ac800000 	sw	zero,0(a0)
    2048:	3c028000 	lui	v0,0x8000
    204c:	14a20003 	bne	a1,v0,205c <float32::float32(int)+0x38>
    2050:	000597c2 	srl	s2,a1,0x1f
    2054:	08000824 	j	2090 <float32::float32(int)+0x6c>
    2058:	3c02cf00 	lui	v0,0xcf00
    205c:	12400002 	beqz	s2,2068 <float32::float32(int)+0x44>
    2060:	00a08021 	move	s0,a1
    2064:	00058023 	negu	s0,a1
    2068:	0c0005c3 	jal	170c <_ZN7float3219countLeadingZeros32Ej.1547>
    206c:	02002021 	move	a0,s0
    2070:	2442ffff 	addiu	v0,v0,-1
    2074:	00023600 	sll	a2,v0,0x18
    2078:	00063603 	sra	a2,a2,0x18
    207c:	2405009c 	li	a1,156
    2080:	00a62823 	subu	a1,a1,a2
    2084:	02402021 	move	a0,s2
    2088:	0c00053a 	jal	14e8 <_ZN7float3212roundAndPackEbij.1537>
    208c:	00d03004 	sllv	a2,s0,a2
    2090:	ae220000 	sw	v0,0(s1)
    2094:	8fbf001c 	lw	ra,28(sp)
    2098:	8fb20018 	lw	s2,24(sp)
    209c:	8fb10014 	lw	s1,20(sp)
    20a0:	8fb00010 	lw	s0,16(sp)
    20a4:	03e00008 	jr	ra
    20a8:	27bd0020 	addiu	sp,sp,32

000020ac <_ZN7Sensors3IMU7MPU6050L13mpu6050_setupEcc.2508>:
    20ac:	27bdffe0 	addiu	sp,sp,-32
    20b0:	afbf001c 	sw	ra,28(sp)
    20b4:	afb10018 	sw	s1,24(sp)
    20b8:	afb00014 	sw	s0,20(sp)
    20bc:	00a08821 	move	s1,a1
    20c0:	0c00077c 	jal	1df0 <_ZN6System3Bus3I2C5startEv.1607>
    20c4:	00808021 	move	s0,a0
    20c8:	0c000785 	jal	1e14 <_ZN6System3Bus3I2CL2ioEcNS1_6IoTypeE.isra.0.1953.1609>
    20cc:	2404ffd0 	li	a0,-48
    20d0:	0c000785 	jal	1e14 <_ZN6System3Bus3I2CL2ioEcNS1_6IoTypeE.isra.0.1953.1609>
    20d4:	02002021 	move	a0,s0
    20d8:	0c000785 	jal	1e14 <_ZN6System3Bus3I2CL2ioEcNS1_6IoTypeE.isra.0.1953.1609>
    20dc:	02202021 	move	a0,s1
    20e0:	8fbf001c 	lw	ra,28(sp)
    20e4:	8fb10018 	lw	s1,24(sp)
    20e8:	8fb00014 	lw	s0,20(sp)
    20ec:	08000773 	j	1dcc <_ZN6System3Bus3I2C4stopEv.1605>
    20f0:	27bd0020 	addiu	sp,sp,32

000020f4 <_ZN6System8Registry8instanceEv.local.0>:
    20f4:	3c028000 	lui	v0,0x8000
    20f8:	80430230 	lb	v1,560(v0)
    20fc:	00402021 	move	a0,v0
    2100:	14600010 	bnez	v1,2144 <_ZN6System8Registry8instanceEv.local.0+0x50>
    2104:	3c028000 	lui	v0,0x8000
    2108:	3c038000 	lui	v1,0x8000
    210c:	24450238 	addiu	a1,v0,568
    2110:	24630248 	addiu	v1,v1,584
    2114:	24a50064 	addiu	a1,a1,100
    2118:	ac600000 	sw	zero,0(v1)
    211c:	24630004 	addiu	v1,v1,4
    2120:	1465fffd 	bne	v1,a1,2118 <_ZN6System8Registry8instanceEv.local.0+0x24>
    2124:	00000000 	nop
    2128:	24430238 	addiu	v1,v0,568
    212c:	ac600004 	sw	zero,4(v1)
    2130:	ac600008 	sw	zero,8(v1)
    2134:	ac60000c 	sw	zero,12(v1)
    2138:	24030001 	li	v1,1
    213c:	ac400238 	sw	zero,568(v0)
    2140:	a0830230 	sb	v1,560(a0)
    2144:	03e00008 	jr	ra
    2148:	24420238 	addiu	v0,v0,568

0000214c <Sensors::IMU::MPU6050::updateAccelerometerAndGyro()>:
    214c:	27bdffb8 	addiu	sp,sp,-72
    2150:	afbf0044 	sw	ra,68(sp)
    2154:	afbe0040 	sw	s8,64(sp)
    2158:	afb7003c 	sw	s7,60(sp)
    215c:	afb60038 	sw	s6,56(sp)
    2160:	afb50034 	sw	s5,52(sp)
    2164:	afb40030 	sw	s4,48(sp)
    2168:	afb3002c 	sw	s3,44(sp)
    216c:	afb20028 	sw	s2,40(sp)
    2170:	afb10024 	sw	s1,36(sp)
    2174:	0c00077c 	jal	1df0 <_ZN6System3Bus3I2C5startEv.1607>
    2178:	afb00020 	sw	s0,32(sp)
    217c:	0c000785 	jal	1e14 <_ZN6System3Bus3I2CL2ioEcNS1_6IoTypeE.isra.0.1953.1609>
    2180:	2404ffd0 	li	a0,-48
    2184:	0c000785 	jal	1e14 <_ZN6System3Bus3I2CL2ioEcNS1_6IoTypeE.isra.0.1953.1609>
    2188:	2404003b 	li	a0,59
    218c:	0c000773 	jal	1dcc <_ZN6System3Bus3I2C4stopEv.1605>
    2190:	00000000 	nop
    2194:	0c00077c 	jal	1df0 <_ZN6System3Bus3I2C5startEv.1607>
    2198:	00000000 	nop
    219c:	0c000785 	jal	1e14 <_ZN6System3Bus3I2CL2ioEcNS1_6IoTypeE.isra.0.1953.1609>
    21a0:	2404ffd1 	li	a0,-47
    21a4:	0c00078f 	jal	1e3c <_ZN6System3Bus3I2C4readEv.1603>
    21a8:	00000000 	nop
    21ac:	0c00078f 	jal	1e3c <_ZN6System3Bus3I2C4readEv.1603>
    21b0:	afa20018 	sw	v0,24(sp)
    21b4:	0c00078f 	jal	1e3c <_ZN6System3Bus3I2C4readEv.1603>
    21b8:	0040a021 	move	s4,v0
    21bc:	0c00078f 	jal	1e3c <_ZN6System3Bus3I2C4readEv.1603>
    21c0:	afa20014 	sw	v0,20(sp)
    21c4:	0c00078f 	jal	1e3c <_ZN6System3Bus3I2C4readEv.1603>
    21c8:	00409821 	move	s3,v0
    21cc:	0c00078f 	jal	1e3c <_ZN6System3Bus3I2C4readEv.1603>
    21d0:	afa20010 	sw	v0,16(sp)
    21d4:	0c00078f 	jal	1e3c <_ZN6System3Bus3I2C4readEv.1603>
    21d8:	00409021 	move	s2,v0
    21dc:	0c00078f 	jal	1e3c <_ZN6System3Bus3I2C4readEv.1603>
    21e0:	00000000 	nop
    21e4:	0c00078f 	jal	1e3c <_ZN6System3Bus3I2C4readEv.1603>
    21e8:	00000000 	nop
    21ec:	0c00078f 	jal	1e3c <_ZN6System3Bus3I2C4readEv.1603>
    21f0:	0040f021 	move	s8,v0
    21f4:	0c00078f 	jal	1e3c <_ZN6System3Bus3I2C4readEv.1603>
    21f8:	00408821 	move	s1,v0
    21fc:	0c00078f 	jal	1e3c <_ZN6System3Bus3I2C4readEv.1603>
    2200:	0040b821 	move	s7,v0
    2204:	0c00078f 	jal	1e3c <_ZN6System3Bus3I2C4readEv.1603>
    2208:	00408021 	move	s0,v0
    220c:	0c00078f 	jal	1e3c <_ZN6System3Bus3I2C4readEv.1603>
    2210:	0040b021 	move	s6,v0
    2214:	0c000773 	jal	1dcc <_ZN6System3Bus3I2C4stopEv.1605>
    2218:	0040a821 	move	s5,v0
    221c:	8fa40018 	lw	a0,24(sp)
    2220:	00000000 	nop
    2224:	00042200 	sll	a0,a0,0x8
    2228:	0c000524 	jal	1490 <_ZN4MathL11sign_extendEi.2504.1500>
    222c:	00942025 	or	a0,a0,s4
    2230:	8fa50014 	lw	a1,20(sp)
    2234:	0040a021 	move	s4,v0
    2238:	00052200 	sll	a0,a1,0x8
    223c:	0c000524 	jal	1490 <_ZN4MathL11sign_extendEi.2504.1500>
    2240:	00932025 	or	a0,a0,s3
    2244:	8fa30010 	lw	v1,16(sp)
    2248:	00409821 	move	s3,v0
    224c:	00032200 	sll	a0,v1,0x8
    2250:	0c000524 	jal	1490 <_ZN4MathL11sign_extendEi.2504.1500>
    2254:	00922025 	or	a0,a0,s2
    2258:	001e2200 	sll	a0,s8,0x8
    225c:	00912025 	or	a0,a0,s1
    2260:	0c000524 	jal	1490 <_ZN4MathL11sign_extendEi.2504.1500>
    2264:	00409021 	move	s2,v0
    2268:	00172200 	sll	a0,s7,0x8
    226c:	00902025 	or	a0,a0,s0
    2270:	0c000524 	jal	1490 <_ZN4MathL11sign_extendEi.2504.1500>
    2274:	00408821 	move	s1,v0
    2278:	00162200 	sll	a0,s6,0x8
    227c:	00952025 	or	a0,a0,s5
    2280:	0c000524 	jal	1490 <_ZN4MathL11sign_extendEi.2504.1500>
    2284:	00408021 	move	s0,v0
    2288:	0c00083d 	jal	20f4 <_ZN6System8Registry8instanceEv.local.0>
    228c:	0040a821 	move	s5,v0
    2290:	0c00083d 	jal	20f4 <_ZN6System8Registry8instanceEv.local.0>
    2294:	ac540010 	sw	s4,16(v0)
    2298:	0c00083d 	jal	20f4 <_ZN6System8Registry8instanceEv.local.0>
    229c:	ac530014 	sw	s3,20(v0)
    22a0:	0c00083d 	jal	20f4 <_ZN6System8Registry8instanceEv.local.0>
    22a4:	ac520018 	sw	s2,24(v0)
    22a8:	0c00083d 	jal	20f4 <_ZN6System8Registry8instanceEv.local.0>
    22ac:	ac510028 	sw	s1,40(v0)
    22b0:	0c00083d 	jal	20f4 <_ZN6System8Registry8instanceEv.local.0>
    22b4:	ac50002c 	sw	s0,44(v0)
    22b8:	8fbf0044 	lw	ra,68(sp)
    22bc:	ac550030 	sw	s5,48(v0)
    22c0:	8fbe0040 	lw	s8,64(sp)
    22c4:	8fb7003c 	lw	s7,60(sp)
    22c8:	8fb60038 	lw	s6,56(sp)
    22cc:	8fb50034 	lw	s5,52(sp)
    22d0:	8fb40030 	lw	s4,48(sp)
    22d4:	8fb3002c 	lw	s3,44(sp)
    22d8:	8fb20028 	lw	s2,40(sp)
    22dc:	8fb10024 	lw	s1,36(sp)
    22e0:	8fb00020 	lw	s0,32(sp)
    22e4:	03e00008 	jr	ra
    22e8:	27bd0048 	addiu	sp,sp,72

000022ec <Control::StabilizationAndEngineUpdateTask::start()>:
    22ec:	27bdffc8 	addiu	sp,sp,-56
    22f0:	afbf0034 	sw	ra,52(sp)
    22f4:	afb60030 	sw	s6,48(sp)
    22f8:	afb5002c 	sw	s5,44(sp)
    22fc:	afb40028 	sw	s4,40(sp)
    2300:	afb30024 	sw	s3,36(sp)
    2304:	afb20020 	sw	s2,32(sp)
    2308:	afb1001c 	sw	s1,28(sp)
    230c:	afb00018 	sw	s0,24(sp)
    2310:	0c000853 	jal	214c <Sensors::IMU::MPU6050::updateAccelerometerAndGyro()>
    2314:	00808021 	move	s0,a0
    2318:	0c00083d 	jal	20f4 <_ZN6System8Registry8instanceEv.local.0>
    231c:	00000000 	nop
    2320:	8c510010 	lw	s1,16(v0)
    2324:	0c00083d 	jal	20f4 <_ZN6System8Registry8instanceEv.local.0>
    2328:	00000000 	nop
    232c:	8c420014 	lw	v0,20(v0)
    2330:	00000000 	nop
    2334:	02229023 	subu	s2,s1,v0
    2338:	0c00083d 	jal	20f4 <_ZN6System8Registry8instanceEv.local.0>
    233c:	02228821 	addu	s1,s1,v0
    2340:	8c56005c 	lw	s6,92(v0)
    2344:	0c00083d 	jal	20f4 <_ZN6System8Registry8instanceEv.local.0>
    2348:	0256b023 	subu	s6,s2,s6
    234c:	8c540060 	lw	s4,96(v0)
    2350:	0c00083d 	jal	20f4 <_ZN6System8Registry8instanceEv.local.0>
    2354:	0234a023 	subu	s4,s1,s4
    2358:	8c530028 	lw	s3,40(v0)
    235c:	0c00083d 	jal	20f4 <_ZN6System8Registry8instanceEv.local.0>
    2360:	00000000 	nop
    2364:	8c42002c 	lw	v0,44(v0)
    2368:	00000000 	nop
    236c:	02621821 	addu	v1,s3,v0
    2370:	0262a823 	subu	s5,s3,v0
    2374:	8e02001c 	lw	v0,28(s0)
    2378:	00000000 	nop
    237c:	02421026 	xor	v0,s2,v0
    2380:	04410003 	bgez	v0,2390 <Control::StabilizationAndEngineUpdateTask::start()+0xa4>
    2384:	00031823 	negu	v1,v1
    2388:	080008ea 	j	23a8 <Control::StabilizationAndEngineUpdateTask::start()+0xbc>
    238c:	ae000014 	sw	zero,20(s0)
    2390:	8e020014 	lw	v0,20(s0)
    2394:	00000000 	nop
    2398:	2c4407d0 	sltiu	a0,v0,2000
    239c:	10800002 	beqz	a0,23a8 <Control::StabilizationAndEngineUpdateTask::start()+0xbc>
    23a0:	00521021 	addu	v0,v0,s2
    23a4:	ae020014 	sw	v0,20(s0)
    23a8:	8e020020 	lw	v0,32(s0)
    23ac:	00000000 	nop
    23b0:	02221026 	xor	v0,s1,v0
    23b4:	04410003 	bgez	v0,23c4 <Control::StabilizationAndEngineUpdateTask::start()+0xd8>
    23b8:	00000000 	nop
    23bc:	080008f7 	j	23dc <Control::StabilizationAndEngineUpdateTask::start()+0xf0>
    23c0:	ae000018 	sw	zero,24(s0)
    23c4:	8e020018 	lw	v0,24(s0)
    23c8:	00000000 	nop
    23cc:	2c4407d0 	sltiu	a0,v0,2000
    23d0:	10800002 	beqz	a0,23dc <Control::StabilizationAndEngineUpdateTask::start()+0xf0>
    23d4:	00511021 	addu	v0,v0,s1
    23d8:	ae020018 	sw	v0,24(s0)
    23dc:	241300a0 	li	s3,160
    23e0:	02d30018 	mult	s6,s3
    23e4:	ae12001c 	sw	s2,28(s0)
    23e8:	24120003 	li	s2,3
    23ec:	ae110020 	sw	s1,32(s0)
    23f0:	2411012c 	li	s1,300
    23f4:	00001012 	mflo	v0
    23f8:	0002b283 	sra	s6,v0,0xa
    23fc:	8e020014 	lw	v0,20(s0)
    2400:	00000000 	nop
    2404:	02420018 	mult	s2,v0
    2408:	00002012 	mflo	a0
    240c:	00041283 	sra	v0,a0,0xa
    2410:	02c2b021 	addu	s6,s6,v0
    2414:	00710018 	mult	v1,s1
    2418:	00001012 	mflo	v0
    241c:	afa20010 	sw	v0,16(sp)
    2420:	00021283 	sra	v0,v0,0xa
    2424:	0c00083d 	jal	20f4 <_ZN6System8Registry8instanceEv.local.0>
    2428:	02c2b021 	addu	s6,s6,v0
    242c:	02930018 	mult	s4,s3
    2430:	ac56004c 	sw	s6,76(v0)
    2434:	00001012 	mflo	v0
    2438:	00021a83 	sra	v1,v0,0xa
    243c:	8e020018 	lw	v0,24(s0)
    2440:	00000000 	nop
    2444:	02420018 	mult	s2,v0
    2448:	00002012 	mflo	a0
    244c:	00041283 	sra	v0,a0,0xa
    2450:	00628021 	addu	s0,v1,v0
    2454:	02b10018 	mult	s5,s1
    2458:	00001012 	mflo	v0
    245c:	afa20010 	sw	v0,16(sp)
    2460:	00021283 	sra	v0,v0,0xa
    2464:	0c00083d 	jal	20f4 <_ZN6System8Registry8instanceEv.local.0>
    2468:	02028021 	addu	s0,s0,v0
    246c:	0c00083d 	jal	20f4 <_ZN6System8Registry8instanceEv.local.0>
    2470:	ac500050 	sw	s0,80(v0)
    2474:	8c500048 	lw	s0,72(v0)
    2478:	00000000 	nop
    247c:	2e0200c9 	sltiu	v0,s0,201
    2480:	1440000f 	bnez	v0,24c0 <Control::StabilizationAndEngineUpdateTask::start()+0x1d4>
    2484:	00000000 	nop
    2488:	0c00083d 	jal	20f4 <_ZN6System8Registry8instanceEv.local.0>
    248c:	00000000 	nop
    2490:	8c53004c 	lw	s3,76(v0)
    2494:	0c00083d 	jal	20f4 <_ZN6System8Registry8instanceEv.local.0>
    2498:	02139821 	addu	s3,s0,s3
    249c:	8c510050 	lw	s1,80(v0)
    24a0:	0c00083d 	jal	20f4 <_ZN6System8Registry8instanceEv.local.0>
    24a4:	02118823 	subu	s1,s0,s1
    24a8:	8c52004c 	lw	s2,76(v0)
    24ac:	0c00083d 	jal	20f4 <_ZN6System8Registry8instanceEv.local.0>
    24b0:	02129023 	subu	s2,s0,s2
    24b4:	8c420050 	lw	v0,80(v0)
    24b8:	08000933 	j	24cc <Control::StabilizationAndEngineUpdateTask::start()+0x1e0>
    24bc:	02028021 	addu	s0,s0,v0
    24c0:	02009021 	move	s2,s0
    24c4:	02008821 	move	s1,s0
    24c8:	02009821 	move	s3,s0
    24cc:	00139c00 	sll	s3,s3,0x10
    24d0:	00118c00 	sll	s1,s1,0x10
    24d4:	8fbf0034 	lw	ra,52(sp)
    24d8:	02729025 	or	s2,s3,s2
    24dc:	02308025 	or	s0,s1,s0
    24e0:	ac120040 	sw	s2,64(zero)
    24e4:	8fb60030 	lw	s6,48(sp)
    24e8:	ac100044 	sw	s0,68(zero)
    24ec:	8fb5002c 	lw	s5,44(sp)
    24f0:	8fb40028 	lw	s4,40(sp)
    24f4:	8fb30024 	lw	s3,36(sp)
    24f8:	8fb20020 	lw	s2,32(sp)
    24fc:	8fb1001c 	lw	s1,28(sp)
    2500:	8fb00018 	lw	s0,24(sp)
    2504:	03e00008 	jr	ra
    2508:	27bd0038 	addiu	sp,sp,56

0000250c <System::Tasking::TaskScheduler::selectNextTask(unsigned int)>:
    250c:	27bdfff8 	addiu	sp,sp,-8
    2510:	24820004 	addiu	v0,a0,4
    2514:	afa20000 	sw	v0,0(sp)
    2518:	24820008 	addiu	v0,a0,8
    251c:	afa20004 	sw	v0,4(sp)
    2520:	00001821 	move	v1,zero
    2524:	00004021 	move	t0,zero
    2528:	2409ffff 	li	t1,-1
    252c:	00003021 	move	a2,zero
    2530:	240b0008 	li	t3,8
    2534:	03a31021 	addu	v0,sp,v1
    2538:	8c420000 	lw	v0,0(v0)
    253c:	00000000 	nop
    2540:	8c470000 	lw	a3,0(v0)
    2544:	00000000 	nop
    2548:	10e0000e 	beqz	a3,2584 <System::Tasking::TaskScheduler::selectNextTask(unsigned int)+0x78>
    254c:	00e01021 	move	v0,a3
    2550:	8c4a0004 	lw	t2,4(v0)
    2554:	00000000 	nop
    2558:	01455023 	subu	t2,t2,a1
    255c:	0149602b 	sltu	t4,t2,t1
    2560:	11800004 	beqz	t4,2574 <System::Tasking::TaskScheduler::selectNextTask(unsigned int)+0x68>
    2564:	00000000 	nop
    2568:	00e04021 	move	t0,a3
    256c:	01404821 	move	t1,t2
    2570:	00403021 	move	a2,v0
    2574:	8c42000c 	lw	v0,12(v0)
    2578:	00000000 	nop
    257c:	1440fff4 	bnez	v0,2550 <System::Tasking::TaskScheduler::selectNextTask(unsigned int)+0x44>
    2580:	00000000 	nop
    2584:	24630004 	addiu	v1,v1,4
    2588:	146bffeb 	bne	v1,t3,2538 <System::Tasking::TaskScheduler::selectNextTask(unsigned int)+0x2c>
    258c:	03a31021 	addu	v0,sp,v1
    2590:	8cc20004 	lw	v0,4(a2)
    2594:	ac860010 	sw	a2,16(a0)
    2598:	ac820014 	sw	v0,20(a0)
    259c:	8c820004 	lw	v0,4(a0)
    25a0:	27bd0008 	addiu	sp,sp,8
    25a4:	01024026 	xor	t0,t0,v0
    25a8:	0008402b 	sltu	t0,zero,t0
    25ac:	03e00008 	jr	ra
    25b0:	ac880018 	sw	t0,24(a0)

000025b4 <float32::operator+(float32 const&) const>:
    25b4:	27bdffe8 	addiu	sp,sp,-24
    25b8:	afb00010 	sw	s0,16(sp)
    25bc:	00808021 	move	s0,a0
    25c0:	8ca40000 	lw	a0,0(a1)
    25c4:	8cc50000 	lw	a1,0(a2)
    25c8:	000417c2 	srl	v0,a0,0x1f
    25cc:	00051fc2 	srl	v1,a1,0x1f
    25d0:	afbf0014 	sw	ra,20(sp)
    25d4:	14430005 	bne	v0,v1,25ec <float32::operator+(float32 const&) const+0x38>
    25d8:	00403021 	move	a2,v0
    25dc:	0c000569 	jal	15a4 <_ZN7float327addSigsEjjb.1532>
    25e0:	00000000 	nop
    25e4:	0800097d 	j	25f4 <float32::operator+(float32 const&) const+0x40>
    25e8:	00000000 	nop
    25ec:	0c0005da 	jal	1768 <_ZN7float327subSigsEjjb.1527>
    25f0:	00000000 	nop
    25f4:	8fbf0014 	lw	ra,20(sp)
    25f8:	ae020000 	sw	v0,0(s0)
    25fc:	02001021 	move	v0,s0
    2600:	8fb00010 	lw	s0,16(sp)
    2604:	03e00008 	jr	ra
    2608:	27bd0018 	addiu	sp,sp,24

0000260c <float32::operator+=(float32 const&)>:
    260c:	27bdffe0 	addiu	sp,sp,-32
    2610:	afb00018 	sw	s0,24(sp)
    2614:	00808021 	move	s0,a0
    2618:	00a03021 	move	a2,a1
    261c:	27a40010 	addiu	a0,sp,16
    2620:	afbf001c 	sw	ra,28(sp)
    2624:	0c00096d 	jal	25b4 <float32::operator+(float32 const&) const>
    2628:	02002821 	move	a1,s0
    262c:	8fa20010 	lw	v0,16(sp)
    2630:	8fbf001c 	lw	ra,28(sp)
    2634:	ae020000 	sw	v0,0(s0)
    2638:	02001021 	move	v0,s0
    263c:	8fb00018 	lw	s0,24(sp)
    2640:	03e00008 	jr	ra
    2644:	27bd0020 	addiu	sp,sp,32

00002648 <float32::operator-(float32 const&) const>:
    2648:	27bdffe8 	addiu	sp,sp,-24
    264c:	afb00010 	sw	s0,16(sp)
    2650:	00808021 	move	s0,a0
    2654:	8ca40000 	lw	a0,0(a1)
    2658:	8cc50000 	lw	a1,0(a2)
    265c:	000437c2 	srl	a2,a0,0x1f
    2660:	000517c2 	srl	v0,a1,0x1f
    2664:	14c20005 	bne	a2,v0,267c <float32::operator-(float32 const&) const+0x34>
    2668:	afbf0014 	sw	ra,20(sp)
    266c:	0c0005da 	jal	1768 <_ZN7float327subSigsEjjb.1527>
    2670:	00000000 	nop
    2674:	080009a1 	j	2684 <float32::operator-(float32 const&) const+0x3c>
    2678:	00000000 	nop
    267c:	0c000569 	jal	15a4 <_ZN7float327addSigsEjjb.1532>
    2680:	00000000 	nop
    2684:	8fbf0014 	lw	ra,20(sp)
    2688:	ae020000 	sw	v0,0(s0)
    268c:	02001021 	move	v0,s0
    2690:	8fb00010 	lw	s0,16(sp)
    2694:	03e00008 	jr	ra
    2698:	27bd0018 	addiu	sp,sp,24

0000269c <rsqrt(float32 const&)>:
    269c:	8ca20000 	lw	v0,0(a1)
    26a0:	27bdffc8 	addiu	sp,sp,-56
    26a4:	afbf0034 	sw	ra,52(sp)
    26a8:	afb00030 	sw	s0,48(sp)
    26ac:	00808021 	move	s0,a0
    26b0:	ac820000 	sw	v0,0(a0)
    26b4:	3c023fc0 	lui	v0,0x3fc0
    26b8:	afa20018 	sw	v0,24(sp)
    26bc:	27a40010 	addiu	a0,sp,16
    26c0:	3c023f00 	lui	v0,0x3f00
    26c4:	27a50014 	addiu	a1,sp,20
    26c8:	02003021 	move	a2,s0
    26cc:	0c00079c 	jal	1e70 <float32::operator*(float32 const&) const>
    26d0:	afa20014 	sw	v0,20(sp)
    26d4:	8e030000 	lw	v1,0(s0)
    26d8:	3c025f37 	lui	v0,0x5f37
    26dc:	00031843 	sra	v1,v1,0x1
    26e0:	24425a86 	addiu	v0,v0,23174
    26e4:	00431023 	subu	v0,v0,v1
    26e8:	ae020000 	sw	v0,0(s0)
    26ec:	27a4001c 	addiu	a0,sp,28
    26f0:	27a50010 	addiu	a1,sp,16
    26f4:	0c00079c 	jal	1e70 <float32::operator*(float32 const&) const>
    26f8:	02003021 	move	a2,s0
    26fc:	27a40020 	addiu	a0,sp,32
    2700:	27a5001c 	addiu	a1,sp,28
    2704:	0c00079c 	jal	1e70 <float32::operator*(float32 const&) const>
    2708:	02003021 	move	a2,s0
    270c:	27a40024 	addiu	a0,sp,36
    2710:	27a50018 	addiu	a1,sp,24
    2714:	0c000992 	jal	2648 <float32::operator-(float32 const&) const>
    2718:	27a60020 	addiu	a2,sp,32
    271c:	27a40028 	addiu	a0,sp,40
    2720:	02002821 	move	a1,s0
    2724:	0c00079c 	jal	1e70 <float32::operator*(float32 const&) const>
    2728:	27a60024 	addiu	a2,sp,36
    272c:	8fa20028 	lw	v0,40(sp)
    2730:	8fbf0034 	lw	ra,52(sp)
    2734:	ae020000 	sw	v0,0(s0)
    2738:	02001021 	move	v0,s0
    273c:	8fb00030 	lw	s0,48(sp)
    2740:	03e00008 	jr	ra
    2744:	27bd0038 	addiu	sp,sp,56

00002748 <float32::operator-=(float32 const&)>:
    2748:	27bdffe0 	addiu	sp,sp,-32
    274c:	afb00018 	sw	s0,24(sp)
    2750:	00808021 	move	s0,a0
    2754:	00a03021 	move	a2,a1
    2758:	27a40010 	addiu	a0,sp,16
    275c:	afbf001c 	sw	ra,28(sp)
    2760:	0c000992 	jal	2648 <float32::operator-(float32 const&) const>
    2764:	02002821 	move	a1,s0
    2768:	8fa20010 	lw	v0,16(sp)
    276c:	8fbf001c 	lw	ra,28(sp)
    2770:	ae020000 	sw	v0,0(s0)
    2774:	02001021 	move	v0,s0
    2778:	8fb00018 	lw	s0,24(sp)
    277c:	03e00008 	jr	ra
    2780:	27bd0020 	addiu	sp,sp,32

00002784 <global constructors keyed to 65535_0__ZN6System7Tasking4Pool16xbeeReadIdleTaskE.2558.1318>:
    2784:	3c048000 	lui	a0,0x8000
    2788:	3c038000 	lui	v1,0x8000
    278c:	24840228 	addiu	a0,a0,552
    2790:	ac6402ac 	sw	a0,684(v1)
    2794:	3c048000 	lui	a0,0x8000
    2798:	246202ac 	addiu	v0,v1,684
    279c:	24840208 	addiu	a0,a0,520
    27a0:	3c038000 	lui	v1,0x8000
    27a4:	ac6402ec 	sw	a0,748(v1)
    27a8:	3c048000 	lui	a0,0x8000
    27ac:	ac400004 	sw	zero,4(v0)
    27b0:	ac400008 	sw	zero,8(v0)
    27b4:	ac40000c 	sw	zero,12(v0)
    27b8:	a0400038 	sb	zero,56(v0)
    27bc:	ac400034 	sw	zero,52(v0)
    27c0:	ac40003c 	sw	zero,60(v0)
    27c4:	248401f8 	addiu	a0,a0,504
    27c8:	246202ec 	addiu	v0,v1,748
    27cc:	3c038000 	lui	v1,0x8000
    27d0:	ac400004 	sw	zero,4(v0)
    27d4:	ac400008 	sw	zero,8(v0)
    27d8:	ac40000c 	sw	zero,12(v0)
    27dc:	ac400014 	sw	zero,20(v0)
    27e0:	ac400018 	sw	zero,24(v0)
    27e4:	ac40001c 	sw	zero,28(v0)
    27e8:	ac400020 	sw	zero,32(v0)
    27ec:	ac640310 	sw	a0,784(v1)
    27f0:	24620310 	addiu	v0,v1,784
    27f4:	3c033f80 	lui	v1,0x3f80
    27f8:	ac430038 	sw	v1,56(v0)
    27fc:	ac430048 	sw	v1,72(v0)
    2800:	3c033a83 	lui	v1,0x3a83
    2804:	2463126f 	addiu	v1,v1,4719
    2808:	ac400004 	sw	zero,4(v0)
    280c:	ac400008 	sw	zero,8(v0)
    2810:	ac40000c 	sw	zero,12(v0)
    2814:	3c028000 	lui	v0,0x8000
    2818:	ac4302a8 	sw	v1,680(v0)
    281c:	3c033db2 	lui	v1,0x3db2
    2820:	3463b8c2 	ori	v1,v1,0xb8c2
    2824:	3c028000 	lui	v0,0x8000
    2828:	ac43036c 	sw	v1,876(v0)
    282c:	3c033b64 	lui	v1,0x3b64
    2830:	3463c388 	ori	v1,v1,0xc388
    2834:	3c028000 	lui	v0,0x8000
    2838:	ac430370 	sw	v1,880(v0)
    283c:	3c033d9a 	lui	v1,0x3d9a
    2840:	3463c70d 	ori	v1,v1,0xc70d
    2844:	3c028000 	lui	v0,0x8000
    2848:	ac4302a4 	sw	v1,676(v0)
    284c:	3c033b46 	lui	v1,0x3b46
    2850:	24631d82 	addiu	v1,v1,7554
    2854:	3c028000 	lui	v0,0x8000
    2858:	ac430374 	sw	v1,884(v0)
    285c:	3c03364a 	lui	v1,0x364a
    2860:	3463deba 	ori	v1,v1,0xdeba
    2864:	3c028000 	lui	v0,0x8000
    2868:	03e00008 	jr	ra
    286c:	ac4302a0 	sw	v1,672(v0)

00002870 <main>:
    2870:	27bdffb0 	addiu	sp,sp,-80
    2874:	2404001a 	li	a0,26
    2878:	24050003 	li	a1,3
    287c:	afbf004c 	sw	ra,76(sp)
    2880:	afb40048 	sw	s4,72(sp)
    2884:	afb30044 	sw	s3,68(sp)
    2888:	afb20040 	sw	s2,64(sp)
    288c:	afb1003c 	sw	s1,60(sp)
    2890:	0c00082b 	jal	20ac <_ZN7Sensors3IMU7MPU6050L13mpu6050_setupEcc.2508>
    2894:	afb00038 	sw	s0,56(sp)
    2898:	2404001b 	li	a0,27
    289c:	0c00082b 	jal	20ac <_ZN7Sensors3IMU7MPU6050L13mpu6050_setupEcc.2508>
    28a0:	24050018 	li	a1,24
    28a4:	2404001c 	li	a0,28
    28a8:	0c00082b 	jal	20ac <_ZN7Sensors3IMU7MPU6050L13mpu6050_setupEcc.2508>
    28ac:	24050018 	li	a1,24
    28b0:	2404006b 	li	a0,107
    28b4:	0c00082b 	jal	20ac <_ZN7Sensors3IMU7MPU6050L13mpu6050_setupEcc.2508>
    28b8:	00002821 	move	a1,zero
    28bc:	3402c350 	li	v0,0xc350
    28c0:	2442ffff 	addiu	v0,v0,-1
    28c4:	1440fffe 	bnez	v0,28c0 <main+0x50>
    28c8:	3c06004c 	lui	a2,0x4c
    28cc:	24050001 	li	a1,1
    28d0:	24040008 	li	a0,8
    28d4:	00451804 	sllv	v1,a1,v0
    28d8:	306300ff 	andi	v1,v1,0xff
    28dc:	ac030004 	sw	v1,4(zero)
    28e0:	24c34b40 	addiu	v1,a2,19264
    28e4:	2463ffff 	addiu	v1,v1,-1
    28e8:	1460fffe 	bnez	v1,28e4 <main+0x74>
    28ec:	00000000 	nop
    28f0:	24420001 	addiu	v0,v0,1
    28f4:	1444fff8 	bne	v0,a0,28d8 <main+0x68>
    28f8:	00451804 	sllv	v1,a1,v0
    28fc:	24020001 	li	v0,1
    2900:	24050080 	li	a1,128
    2904:	3c06004c 	lui	a2,0x4c
    2908:	2404ffff 	li	a0,-1
    290c:	00451807 	srav	v1,a1,v0
    2910:	ac030004 	sw	v1,4(zero)
    2914:	24c34b40 	addiu	v1,a2,19264
    2918:	2463ffff 	addiu	v1,v1,-1
    291c:	1460fffe 	bnez	v1,2918 <main+0xa8>
    2920:	00000000 	nop
    2924:	2442ffff 	addiu	v0,v0,-1
    2928:	1444fff9 	bne	v0,a0,2910 <main+0xa0>
    292c:	00451807 	srav	v1,a1,v0
    2930:	3c028000 	lui	v0,0x8000
    2934:	244202ac 	addiu	v0,v0,684
    2938:	ac400008 	sw	zero,8(v0)
    293c:	afa00024 	sw	zero,36(sp)
    2940:	afa00028 	sw	zero,40(sp)
    2944:	8c030010 	lw	v1,16(zero)
    2948:	27b00010 	addiu	s0,sp,16
    294c:	ac430004 	sw	v1,4(v0)
    2950:	ac500010 	sw	s0,16(v0)
    2954:	afa20010 	sw	v0,16(sp)
    2958:	3c030007 	lui	v1,0x7
    295c:	3c028000 	lui	v0,0x8000
    2960:	24420310 	addiu	v0,v0,784
    2964:	3463a120 	ori	v1,v1,0xa120
    2968:	ac430008 	sw	v1,8(v0)
    296c:	8c040010 	lw	a0,16(zero)
    2970:	ac500010 	sw	s0,16(v0)
    2974:	00831821 	addu	v1,a0,v1
    2978:	ac430004 	sw	v1,4(v0)
    297c:	02002021 	move	a0,s0
    2980:	00002821 	move	a1,zero
    2984:	3c12b2d0 	lui	s2,0xb2d0
    2988:	afa00018 	sw	zero,24(sp)
    298c:	afa0001c 	sw	zero,28(sp)
    2990:	afa00020 	sw	zero,32(sp)
    2994:	afa20014 	sw	v0,20(sp)
    2998:	0c000943 	jal	250c <System::Tasking::TaskScheduler::selectNextTask(unsigned int)>
    299c:	26525e00 	addiu	s2,s2,24064
    29a0:	27b30014 	addiu	s3,sp,20
    29a4:	27b40018 	addiu	s4,sp,24
    29a8:	8c110010 	lw	s1,16(zero)
    29ac:	8fa20024 	lw	v0,36(sp)
    29b0:	00000000 	nop
    29b4:	0222182b 	sltu	v1,s1,v0
    29b8:	1460003c 	bnez	v1,2aac <main+0x23c>
    29bc:	02221023 	subu	v0,s1,v0
    29c0:	0052102b 	sltu	v0,v0,s2
    29c4:	10400039 	beqz	v0,2aac <main+0x23c>
    29c8:	00000000 	nop
    29cc:	8fa40020 	lw	a0,32(sp)
    29d0:	00000000 	nop
    29d4:	8c820000 	lw	v0,0(a0)
    29d8:	00000000 	nop
    29dc:	8c420000 	lw	v0,0(v0)
    29e0:	00000000 	nop
    29e4:	0040f809 	jalr	v0
    29e8:	00000000 	nop
    29ec:	8fa40028 	lw	a0,40(sp)
    29f0:	24030001 	li	v1,1
    29f4:	8fa20020 	lw	v0,32(sp)
    29f8:	14830023 	bne	a0,v1,2a88 <main+0x218>
    29fc:	00002821 	move	a1,zero
    2a00:	afb0002c 	sw	s0,44(sp)
    2a04:	afb30030 	sw	s3,48(sp)
    2a08:	afb40034 	sw	s4,52(sp)
    2a0c:	2406000c 	li	a2,12
    2a10:	27a4002c 	addiu	a0,sp,44
    2a14:	00851821 	addu	v1,a0,a1
    2a18:	8c640000 	lw	a0,0(v1)
    2a1c:	00000000 	nop
    2a20:	8c830000 	lw	v1,0(a0)
    2a24:	00000000 	nop
    2a28:	10600012 	beqz	v1,2a74 <main+0x204>
    2a2c:	00000000 	nop
    2a30:	14620005 	bne	v1,v0,2a48 <main+0x1d8>
    2a34:	00000000 	nop
    2a38:	8c43000c 	lw	v1,12(v0)
    2a3c:	08000aa0 	j	2a80 <main+0x210>
    2a40:	ac830000 	sw	v1,0(a0)
    2a44:	00801821 	move	v1,a0
    2a48:	8c64000c 	lw	a0,12(v1)
    2a4c:	00000000 	nop
    2a50:	10800006 	beqz	a0,2a6c <main+0x1fc>
    2a54:	00000000 	nop
    2a58:	1482fffa 	bne	a0,v0,2a44 <main+0x1d4>
    2a5c:	00000000 	nop
    2a60:	8c44000c 	lw	a0,12(v0)
    2a64:	08000aa0 	j	2a80 <main+0x210>
    2a68:	ac64000c 	sw	a0,12(v1)
    2a6c:	1040fffc 	beqz	v0,2a60 <main+0x1f0>
    2a70:	00000000 	nop
    2a74:	24a50004 	addiu	a1,a1,4
    2a78:	14a6ffe6 	bne	a1,a2,2a14 <main+0x1a4>
    2a7c:	27a4002c 	addiu	a0,sp,44
    2a80:	08000aa6 	j	2a98 <main+0x228>
    2a84:	ac400010 	sw	zero,16(v0)
    2a88:	8c430008 	lw	v1,8(v0)
    2a8c:	00000000 	nop
    2a90:	02231821 	addu	v1,s1,v1
    2a94:	ac430004 	sw	v1,4(v0)
    2a98:	02002021 	move	a0,s0
    2a9c:	0c000943 	jal	250c <System::Tasking::TaskScheduler::selectNextTask(unsigned int)>
    2aa0:	02202821 	move	a1,s1
    2aa4:	08000a6a 	j	29a8 <main+0x138>
    2aa8:	00000000 	nop
    2aac:	8fa2001c 	lw	v0,28(sp)
    2ab0:	00000000 	nop
    2ab4:	10400006 	beqz	v0,2ad0 <main+0x260>
    2ab8:	00000000 	nop
    2abc:	8c42000c 	lw	v0,12(v0)
    2ac0:	00000000 	nop
    2ac4:	afa2001c 	sw	v0,28(sp)
    2ac8:	8fa2001c 	lw	v0,28(sp)
    2acc:	00000000 	nop
    2ad0:	14400004 	bnez	v0,2ae4 <main+0x274>
    2ad4:	00000000 	nop
    2ad8:	8fa20010 	lw	v0,16(sp)
    2adc:	00000000 	nop
    2ae0:	afa2001c 	sw	v0,28(sp)
    2ae4:	8fa4001c 	lw	a0,28(sp)
    2ae8:	00000000 	nop
    2aec:	1080ffae 	beqz	a0,29a8 <main+0x138>
    2af0:	00000000 	nop
    2af4:	8c820000 	lw	v0,0(a0)
    2af8:	00000000 	nop
    2afc:	8c420000 	lw	v0,0(v0)
    2b00:	00000000 	nop
    2b04:	0040f809 	jalr	v0
    2b08:	00000000 	nop
    2b0c:	08000a6a 	j	29a8 <main+0x138>
    2b10:	00000000 	nop

00002b14 <CODE_ENDS>:
    2b14:	00000000 	nop
    2b18:	00000000 	nop
    2b1c:	00000000 	nop
    2b20:	00000000 	nop
    2b24:	00000000 	nop
    2b28:	00000000 	nop
    2b2c:	00000000 	nop
    2b30:	00000000 	nop
    2b34:	00000000 	nop
    2b38:	00000000 	nop
    2b3c:	00000000 	nop
    2b40:	00000000 	nop
    2b44:	00000000 	nop
    2b48:	00000000 	nop
    2b4c:	00000000 	nop
    2b50:	00000000 	nop
    2b54:	00000000 	nop
    2b58:	00000000 	nop
    2b5c:	00000000 	nop
    2b60:	00000000 	nop
    2b64:	00000000 	nop
    2b68:	00000000 	nop
    2b6c:	00000000 	nop
    2b70:	00000000 	nop
    2b74:	00000000 	nop
    2b78:	00000000 	nop
    2b7c:	00000000 	nop
    2b80:	00000000 	nop
    2b84:	00000000 	nop
    2b88:	00000000 	nop
    2b8c:	00000000 	nop
    2b90:	00000000 	nop
    2b94:	00000000 	nop
    2b98:	00000000 	nop
    2b9c:	00000000 	nop
    2ba0:	00000000 	nop
    2ba4:	00000000 	nop
    2ba8:	00000000 	nop
    2bac:	00000000 	nop
    2bb0:	00000000 	nop
    2bb4:	00000000 	nop
    2bb8:	00000000 	nop
    2bbc:	00000000 	nop
    2bc0:	00000000 	nop
    2bc4:	00000000 	nop
    2bc8:	00000000 	nop
    2bcc:	00000000 	nop
    2bd0:	00000000 	nop
    2bd4:	00000000 	nop
    2bd8:	00000000 	nop
    2bdc:	00000000 	nop
    2be0:	00000000 	nop
    2be4:	00000000 	nop
    2be8:	00000000 	nop
    2bec:	00000000 	nop
    2bf0:	00000000 	nop
    2bf4:	00000000 	nop
    2bf8:	00000000 	nop
    2bfc:	00000000 	nop
    2c00:	00000000 	nop
    2c04:	00000000 	nop
    2c08:	00000000 	nop
    2c0c:	00000000 	nop
    2c10:	00000000 	nop
    2c14:	00000000 	nop
    2c18:	00000000 	nop
    2c1c:	00000000 	nop
    2c20:	00000000 	nop
    2c24:	00000000 	nop
    2c28:	00000000 	nop
    2c2c:	00000000 	nop
    2c30:	00000000 	nop
    2c34:	00000000 	nop
    2c38:	00000000 	nop
    2c3c:	00000000 	nop
    2c40:	00000000 	nop
    2c44:	00000000 	nop
    2c48:	00000000 	nop
    2c4c:	00000000 	nop
    2c50:	00000000 	nop
    2c54:	00000000 	nop
    2c58:	00000000 	nop
    2c5c:	00000000 	nop
    2c60:	00000000 	nop
    2c64:	00000000 	nop
    2c68:	00000000 	nop
    2c6c:	00000000 	nop
    2c70:	00000000 	nop
    2c74:	00000000 	nop
    2c78:	00000000 	nop
    2c7c:	00000000 	nop
    2c80:	00000000 	nop
    2c84:	00000000 	nop
    2c88:	00000000 	nop
    2c8c:	00000000 	nop
    2c90:	00000000 	nop
    2c94:	00000000 	nop
    2c98:	00000000 	nop
    2c9c:	00000000 	nop
    2ca0:	00000000 	nop
    2ca4:	00000000 	nop
    2ca8:	00000000 	nop
    2cac:	00000000 	nop
    2cb0:	00000000 	nop
    2cb4:	00000000 	nop
    2cb8:	00000000 	nop
    2cbc:	00000000 	nop
    2cc0:	00000000 	nop
    2cc4:	00000000 	nop
    2cc8:	00000000 	nop
    2ccc:	00000000 	nop
    2cd0:	00000000 	nop
    2cd4:	00000000 	nop
    2cd8:	00000000 	nop
    2cdc:	00000000 	nop
    2ce0:	00000000 	nop
    2ce4:	00000000 	nop
    2ce8:	00000000 	nop
    2cec:	00000000 	nop
    2cf0:	00000000 	nop
    2cf4:	00000000 	nop
    2cf8:	00000000 	nop
    2cfc:	00000000 	nop
    2d00:	00000000 	nop
    2d04:	00000000 	nop
    2d08:	00000000 	nop
    2d0c:	00000000 	nop
    2d10:	00000000 	nop
    2d14:	00000000 	nop
    2d18:	00000000 	nop
    2d1c:	00000000 	nop
    2d20:	00000000 	nop
    2d24:	00000000 	nop
    2d28:	00000000 	nop
    2d2c:	00000000 	nop
    2d30:	00000000 	nop
    2d34:	00000000 	nop
    2d38:	00000000 	nop
    2d3c:	00000000 	nop
    2d40:	00000000 	nop
    2d44:	00000000 	nop
    2d48:	00000000 	nop
    2d4c:	00000000 	nop
    2d50:	00000000 	nop
    2d54:	00000000 	nop
    2d58:	00000000 	nop
    2d5c:	00000000 	nop
    2d60:	00000000 	nop
    2d64:	00000000 	nop
    2d68:	00000000 	nop
    2d6c:	00000000 	nop
    2d70:	00000000 	nop
    2d74:	00000000 	nop
    2d78:	00000000 	nop
    2d7c:	00000000 	nop
    2d80:	00000000 	nop
    2d84:	00000000 	nop
    2d88:	00000000 	nop
    2d8c:	00000000 	nop
    2d90:	00000000 	nop
    2d94:	00000000 	nop
    2d98:	00000000 	nop
    2d9c:	00000000 	nop
    2da0:	00000000 	nop
    2da4:	00000000 	nop
    2da8:	00000000 	nop
    2dac:	00000000 	nop
    2db0:	00000000 	nop
    2db4:	00000000 	nop
    2db8:	00000000 	nop
    2dbc:	00000000 	nop
    2dc0:	00000000 	nop
    2dc4:	00000000 	nop
    2dc8:	00000000 	nop
    2dcc:	00000000 	nop
    2dd0:	00000000 	nop
    2dd4:	00000000 	nop
    2dd8:	00000000 	nop
    2ddc:	00000000 	nop
    2de0:	00000000 	nop
    2de4:	00000000 	nop
    2de8:	00000000 	nop
    2dec:	00000000 	nop
    2df0:	00000000 	nop
    2df4:	00000000 	nop
    2df8:	00000000 	nop
    2dfc:	00000000 	nop
    2e00:	00000000 	nop
    2e04:	00000000 	nop
    2e08:	00000000 	nop
    2e0c:	00000000 	nop
    2e10:	00000000 	nop
    2e14:	00000000 	nop
    2e18:	00000000 	nop
    2e1c:	00000000 	nop
    2e20:	00000000 	nop
    2e24:	00000000 	nop
    2e28:	00000000 	nop
    2e2c:	00000000 	nop
    2e30:	00000000 	nop
    2e34:	00000000 	nop
    2e38:	00000000 	nop
    2e3c:	00000000 	nop
    2e40:	00000000 	nop
    2e44:	00000000 	nop
    2e48:	00000000 	nop
    2e4c:	00000000 	nop
    2e50:	00000000 	nop
    2e54:	00000000 	nop
    2e58:	00000000 	nop
    2e5c:	00000000 	nop
    2e60:	00000000 	nop
    2e64:	00000000 	nop
    2e68:	00000000 	nop
    2e6c:	00000000 	nop
    2e70:	00000000 	nop
    2e74:	00000000 	nop
    2e78:	00000000 	nop
    2e7c:	00000000 	nop
    2e80:	00000000 	nop
    2e84:	00000000 	nop
    2e88:	00000000 	nop
    2e8c:	00000000 	nop
    2e90:	00000000 	nop
    2e94:	00000000 	nop
    2e98:	00000000 	nop
    2e9c:	00000000 	nop
    2ea0:	00000000 	nop
    2ea4:	00000000 	nop
    2ea8:	00000000 	nop
    2eac:	00000000 	nop
    2eb0:	00000000 	nop
    2eb4:	00000000 	nop
    2eb8:	00000000 	nop
    2ebc:	00000000 	nop
    2ec0:	00000000 	nop
    2ec4:	00000000 	nop
    2ec8:	00000000 	nop
    2ecc:	00000000 	nop
    2ed0:	00000000 	nop
    2ed4:	00000000 	nop
    2ed8:	00000000 	nop
    2edc:	00000000 	nop
    2ee0:	00000000 	nop
    2ee4:	00000000 	nop
    2ee8:	00000000 	nop
    2eec:	00000000 	nop
    2ef0:	00000000 	nop
    2ef4:	00000000 	nop
    2ef8:	00000000 	nop
    2efc:	00000000 	nop
    2f00:	00000000 	nop
    2f04:	00000000 	nop
    2f08:	00000000 	nop
    2f0c:	00000000 	nop
    2f10:	00000000 	nop
    2f14:	00000000 	nop
    2f18:	00000000 	nop
    2f1c:	00000000 	nop
    2f20:	00000000 	nop
    2f24:	00000000 	nop
    2f28:	00000000 	nop
    2f2c:	00000000 	nop
    2f30:	00000000 	nop
    2f34:	00000000 	nop
    2f38:	00000000 	nop
    2f3c:	00000000 	nop
    2f40:	00000000 	nop
    2f44:	00000000 	nop
    2f48:	00000000 	nop
    2f4c:	00000000 	nop
    2f50:	00000000 	nop
    2f54:	00000000 	nop
    2f58:	00000000 	nop
    2f5c:	00000000 	nop
    2f60:	00000000 	nop
    2f64:	00000000 	nop
    2f68:	00000000 	nop
    2f6c:	00000000 	nop
    2f70:	00000000 	nop
    2f74:	00000000 	nop
    2f78:	00000000 	nop
    2f7c:	00000000 	nop
    2f80:	00000000 	nop
    2f84:	00000000 	nop
    2f88:	00000000 	nop
    2f8c:	00000000 	nop
    2f90:	00000000 	nop
    2f94:	00000000 	nop
    2f98:	00000000 	nop
    2f9c:	00000000 	nop
    2fa0:	00000000 	nop
    2fa4:	00000000 	nop
    2fa8:	00000000 	nop
    2fac:	00000000 	nop
    2fb0:	00000000 	nop
    2fb4:	00000000 	nop
    2fb8:	00000000 	nop
    2fbc:	00000000 	nop
    2fc0:	00000000 	nop
    2fc4:	00000000 	nop
    2fc8:	00000000 	nop
    2fcc:	00000000 	nop
    2fd0:	00000000 	nop
    2fd4:	00000000 	nop
    2fd8:	00000000 	nop
    2fdc:	00000000 	nop
    2fe0:	00000000 	nop
    2fe4:	00000000 	nop
    2fe8:	00000000 	nop
    2fec:	00000000 	nop
    2ff0:	00000000 	nop
    2ff4:	00000000 	nop
    2ff8:	00000000 	nop
    2ffc:	00000000 	nop
    3000:	00000000 	nop
    3004:	00000000 	nop
    3008:	00000000 	nop
    300c:	00000000 	nop
    3010:	00000000 	nop
    3014:	00000000 	nop
    3018:	00000000 	nop
    301c:	00000000 	nop
    3020:	00000000 	nop
    3024:	00000000 	nop
    3028:	00000000 	nop
    302c:	00000000 	nop
    3030:	00000000 	nop
    3034:	00000000 	nop
    3038:	00000000 	nop
    303c:	00000000 	nop
    3040:	00000000 	nop
    3044:	00000000 	nop
    3048:	00000000 	nop
    304c:	00000000 	nop
    3050:	00000000 	nop
    3054:	00000000 	nop
    3058:	00000000 	nop
    305c:	00000000 	nop
    3060:	00000000 	nop
    3064:	00000000 	nop
    3068:	00000000 	nop
    306c:	00000000 	nop
    3070:	00000000 	nop
    3074:	00000000 	nop
    3078:	00000000 	nop
    307c:	00000000 	nop
    3080:	00000000 	nop
    3084:	00000000 	nop
    3088:	00000000 	nop
    308c:	00000000 	nop
    3090:	00000000 	nop
    3094:	00000000 	nop
    3098:	00000000 	nop
    309c:	00000000 	nop
    30a0:	00000000 	nop
    30a4:	00000000 	nop
    30a8:	00000000 	nop
    30ac:	00000000 	nop
    30b0:	00000000 	nop
    30b4:	00000000 	nop
    30b8:	00000000 	nop
    30bc:	00000000 	nop
    30c0:	00000000 	nop
    30c4:	00000000 	nop
    30c8:	00000000 	nop
    30cc:	00000000 	nop
    30d0:	00000000 	nop
    30d4:	00000000 	nop
    30d8:	00000000 	nop
    30dc:	00000000 	nop
    30e0:	00000000 	nop
    30e4:	00000000 	nop
    30e8:	00000000 	nop
    30ec:	00000000 	nop
    30f0:	00000000 	nop
    30f4:	00000000 	nop
    30f8:	00000000 	nop
    30fc:	00000000 	nop
    3100:	00000000 	nop
    3104:	00000000 	nop
    3108:	00000000 	nop
    310c:	00000000 	nop
    3110:	00000000 	nop
    3114:	00000000 	nop
    3118:	00000000 	nop
    311c:	00000000 	nop
    3120:	00000000 	nop
    3124:	00000000 	nop
    3128:	00000000 	nop
    312c:	00000000 	nop
    3130:	00000000 	nop
    3134:	00000000 	nop
    3138:	00000000 	nop
    313c:	00000000 	nop
    3140:	00000000 	nop
    3144:	00000000 	nop
    3148:	00000000 	nop
    314c:	00000000 	nop
    3150:	00000000 	nop
    3154:	00000000 	nop
    3158:	00000000 	nop
    315c:	00000000 	nop
    3160:	00000000 	nop
    3164:	00000000 	nop
    3168:	00000000 	nop
    316c:	00000000 	nop
    3170:	00000000 	nop
    3174:	00000000 	nop
    3178:	00000000 	nop
    317c:	00000000 	nop
    3180:	00000000 	nop
    3184:	00000000 	nop
    3188:	00000000 	nop
    318c:	00000000 	nop
    3190:	00000000 	nop
    3194:	00000000 	nop
    3198:	00000000 	nop
    319c:	00000000 	nop
    31a0:	00000000 	nop
    31a4:	00000000 	nop
    31a8:	00000000 	nop
    31ac:	00000000 	nop
    31b0:	00000000 	nop
    31b4:	00000000 	nop
    31b8:	00000000 	nop
    31bc:	00000000 	nop
    31c0:	00000000 	nop
    31c4:	00000000 	nop
    31c8:	00000000 	nop
    31cc:	00000000 	nop
    31d0:	00000000 	nop
    31d4:	00000000 	nop
    31d8:	00000000 	nop
    31dc:	00000000 	nop
    31e0:	00000000 	nop
    31e4:	00000000 	nop
    31e8:	00000000 	nop
    31ec:	00000000 	nop
    31f0:	00000000 	nop
    31f4:	00000000 	nop
    31f8:	00000000 	nop
    31fc:	00000000 	nop
    3200:	00000000 	nop
    3204:	00000000 	nop
    3208:	00000000 	nop
    320c:	00000000 	nop
    3210:	00000000 	nop
    3214:	00000000 	nop
    3218:	00000000 	nop
    321c:	00000000 	nop
    3220:	00000000 	nop
    3224:	00000000 	nop
    3228:	00000000 	nop
    322c:	00000000 	nop
    3230:	00000000 	nop
    3234:	00000000 	nop
    3238:	00000000 	nop
    323c:	00000000 	nop
    3240:	00000000 	nop
    3244:	00000000 	nop
    3248:	00000000 	nop
    324c:	00000000 	nop
    3250:	00000000 	nop
    3254:	00000000 	nop
    3258:	00000000 	nop
    325c:	00000000 	nop
    3260:	00000000 	nop
    3264:	00000000 	nop
    3268:	00000000 	nop
    326c:	00000000 	nop
    3270:	00000000 	nop
    3274:	00000000 	nop
    3278:	00000000 	nop
    327c:	00000000 	nop
    3280:	00000000 	nop
    3284:	00000000 	nop
    3288:	00000000 	nop
    328c:	00000000 	nop
    3290:	00000000 	nop
    3294:	00000000 	nop
    3298:	00000000 	nop
    329c:	00000000 	nop
    32a0:	00000000 	nop
    32a4:	00000000 	nop
    32a8:	00000000 	nop
    32ac:	00000000 	nop
    32b0:	00000000 	nop
    32b4:	00000000 	nop
    32b8:	00000000 	nop
    32bc:	00000000 	nop
    32c0:	00000000 	nop
    32c4:	00000000 	nop
    32c8:	00000000 	nop
    32cc:	00000000 	nop
    32d0:	00000000 	nop
    32d4:	00000000 	nop
    32d8:	00000000 	nop
    32dc:	00000000 	nop
    32e0:	00000000 	nop
    32e4:	00000000 	nop
    32e8:	00000000 	nop
    32ec:	00000000 	nop
    32f0:	00000000 	nop
    32f4:	00000000 	nop
    32f8:	00000000 	nop
    32fc:	00000000 	nop
    3300:	00000000 	nop
    3304:	00000000 	nop
    3308:	00000000 	nop
    330c:	00000000 	nop
    3310:	00000000 	nop
    3314:	00000000 	nop
    3318:	00000000 	nop
    331c:	00000000 	nop
    3320:	00000000 	nop
    3324:	00000000 	nop
    3328:	00000000 	nop
    332c:	00000000 	nop
    3330:	00000000 	nop
    3334:	00000000 	nop
    3338:	00000000 	nop
    333c:	00000000 	nop
    3340:	00000000 	nop
    3344:	00000000 	nop
    3348:	00000000 	nop
    334c:	00000000 	nop
    3350:	00000000 	nop
    3354:	00000000 	nop
    3358:	00000000 	nop
    335c:	00000000 	nop
    3360:	00000000 	nop
    3364:	00000000 	nop
    3368:	00000000 	nop
    336c:	00000000 	nop
    3370:	00000000 	nop
    3374:	00000000 	nop
    3378:	00000000 	nop
    337c:	00000000 	nop
    3380:	00000000 	nop
    3384:	00000000 	nop
    3388:	00000000 	nop
    338c:	00000000 	nop
    3390:	00000000 	nop
    3394:	00000000 	nop
    3398:	00000000 	nop
    339c:	00000000 	nop
    33a0:	00000000 	nop
    33a4:	00000000 	nop
    33a8:	00000000 	nop
    33ac:	00000000 	nop
    33b0:	00000000 	nop
    33b4:	00000000 	nop
    33b8:	00000000 	nop
    33bc:	00000000 	nop
    33c0:	00000000 	nop
    33c4:	00000000 	nop
    33c8:	00000000 	nop
    33cc:	00000000 	nop
    33d0:	00000000 	nop
    33d4:	00000000 	nop
    33d8:	00000000 	nop
    33dc:	00000000 	nop
    33e0:	00000000 	nop
    33e4:	00000000 	nop
    33e8:	00000000 	nop
    33ec:	00000000 	nop
    33f0:	00000000 	nop
    33f4:	00000000 	nop
    33f8:	00000000 	nop
    33fc:	00000000 	nop
    3400:	00000000 	nop
    3404:	00000000 	nop
    3408:	00000000 	nop
    340c:	00000000 	nop
    3410:	00000000 	nop
    3414:	00000000 	nop
    3418:	00000000 	nop
    341c:	00000000 	nop
    3420:	00000000 	nop
    3424:	00000000 	nop
    3428:	00000000 	nop
    342c:	00000000 	nop
    3430:	00000000 	nop
    3434:	00000000 	nop
    3438:	00000000 	nop
    343c:	00000000 	nop
    3440:	00000000 	nop
    3444:	00000000 	nop
    3448:	00000000 	nop
    344c:	00000000 	nop
    3450:	00000000 	nop
    3454:	00000000 	nop
    3458:	00000000 	nop
    345c:	00000000 	nop
    3460:	00000000 	nop
    3464:	00000000 	nop
    3468:	00000000 	nop
    346c:	00000000 	nop
    3470:	00000000 	nop
    3474:	00000000 	nop
    3478:	00000000 	nop
    347c:	00000000 	nop
    3480:	00000000 	nop
    3484:	00000000 	nop
    3488:	00000000 	nop
    348c:	00000000 	nop
    3490:	00000000 	nop
    3494:	00000000 	nop
    3498:	00000000 	nop
    349c:	00000000 	nop
    34a0:	00000000 	nop
    34a4:	00000000 	nop
    34a8:	00000000 	nop
    34ac:	00000000 	nop
    34b0:	00000000 	nop
    34b4:	00000000 	nop
    34b8:	00000000 	nop
    34bc:	00000000 	nop
    34c0:	00000000 	nop
    34c4:	00000000 	nop
    34c8:	00000000 	nop
    34cc:	00000000 	nop
    34d0:	00000000 	nop
    34d4:	00000000 	nop
    34d8:	00000000 	nop
    34dc:	00000000 	nop
    34e0:	00000000 	nop
    34e4:	00000000 	nop
    34e8:	00000000 	nop
    34ec:	00000000 	nop
    34f0:	00000000 	nop
    34f4:	00000000 	nop
    34f8:	00000000 	nop
    34fc:	00000000 	nop
    3500:	00000000 	nop
    3504:	00000000 	nop
    3508:	00000000 	nop
    350c:	00000000 	nop
    3510:	00000000 	nop
    3514:	00000000 	nop
    3518:	00000000 	nop
    351c:	00000000 	nop
    3520:	00000000 	nop
    3524:	00000000 	nop
    3528:	00000000 	nop
    352c:	00000000 	nop
    3530:	00000000 	nop
    3534:	00000000 	nop
    3538:	00000000 	nop
    353c:	00000000 	nop
    3540:	00000000 	nop
    3544:	00000000 	nop
    3548:	00000000 	nop
    354c:	00000000 	nop
    3550:	00000000 	nop
    3554:	00000000 	nop
    3558:	00000000 	nop
    355c:	00000000 	nop
    3560:	00000000 	nop
    3564:	00000000 	nop
    3568:	00000000 	nop
    356c:	00000000 	nop
    3570:	00000000 	nop
    3574:	00000000 	nop
    3578:	00000000 	nop
    357c:	00000000 	nop
    3580:	00000000 	nop
    3584:	00000000 	nop
    3588:	00000000 	nop
    358c:	00000000 	nop
    3590:	00000000 	nop
    3594:	00000000 	nop
    3598:	00000000 	nop
    359c:	00000000 	nop
    35a0:	00000000 	nop
    35a4:	00000000 	nop
    35a8:	00000000 	nop
    35ac:	00000000 	nop
    35b0:	00000000 	nop
    35b4:	00000000 	nop
    35b8:	00000000 	nop
    35bc:	00000000 	nop
    35c0:	00000000 	nop
    35c4:	00000000 	nop
    35c8:	00000000 	nop
    35cc:	00000000 	nop
    35d0:	00000000 	nop
    35d4:	00000000 	nop
    35d8:	00000000 	nop
    35dc:	00000000 	nop
    35e0:	00000000 	nop
    35e4:	00000000 	nop
    35e8:	00000000 	nop
    35ec:	00000000 	nop
    35f0:	00000000 	nop
    35f4:	00000000 	nop
    35f8:	00000000 	nop
    35fc:	00000000 	nop
    3600:	00000000 	nop
    3604:	00000000 	nop
    3608:	00000000 	nop
    360c:	00000000 	nop
    3610:	00000000 	nop
    3614:	00000000 	nop
    3618:	00000000 	nop
    361c:	00000000 	nop
    3620:	00000000 	nop
    3624:	00000000 	nop
    3628:	00000000 	nop
    362c:	00000000 	nop
    3630:	00000000 	nop
    3634:	00000000 	nop
    3638:	00000000 	nop
    363c:	00000000 	nop
    3640:	00000000 	nop
    3644:	00000000 	nop
    3648:	00000000 	nop
    364c:	00000000 	nop
    3650:	00000000 	nop
    3654:	00000000 	nop
    3658:	00000000 	nop
    365c:	00000000 	nop
    3660:	00000000 	nop
    3664:	00000000 	nop
    3668:	00000000 	nop
    366c:	00000000 	nop
    3670:	00000000 	nop
    3674:	00000000 	nop
    3678:	00000000 	nop
    367c:	00000000 	nop
    3680:	00000000 	nop
    3684:	00000000 	nop
    3688:	00000000 	nop
    368c:	00000000 	nop
    3690:	00000000 	nop
    3694:	00000000 	nop
    3698:	00000000 	nop
    369c:	00000000 	nop
    36a0:	00000000 	nop
    36a4:	00000000 	nop
    36a8:	00000000 	nop
    36ac:	00000000 	nop
    36b0:	00000000 	nop
    36b4:	00000000 	nop
    36b8:	00000000 	nop
    36bc:	00000000 	nop
    36c0:	00000000 	nop
    36c4:	00000000 	nop
    36c8:	00000000 	nop
    36cc:	00000000 	nop
    36d0:	00000000 	nop
    36d4:	00000000 	nop
    36d8:	00000000 	nop
    36dc:	00000000 	nop
    36e0:	00000000 	nop
    36e4:	00000000 	nop
    36e8:	00000000 	nop
    36ec:	00000000 	nop
    36f0:	00000000 	nop
    36f4:	00000000 	nop
    36f8:	00000000 	nop
    36fc:	00000000 	nop
    3700:	00000000 	nop
    3704:	00000000 	nop
    3708:	00000000 	nop
    370c:	00000000 	nop
    3710:	00000000 	nop
    3714:	00000000 	nop
    3718:	00000000 	nop
    371c:	00000000 	nop
    3720:	00000000 	nop
    3724:	00000000 	nop
    3728:	00000000 	nop
    372c:	00000000 	nop
    3730:	00000000 	nop
    3734:	00000000 	nop
    3738:	00000000 	nop
    373c:	00000000 	nop
    3740:	00000000 	nop
    3744:	00000000 	nop
    3748:	00000000 	nop
    374c:	00000000 	nop
    3750:	00000000 	nop
    3754:	00000000 	nop
    3758:	00000000 	nop
    375c:	00000000 	nop
    3760:	00000000 	nop
    3764:	00000000 	nop
    3768:	00000000 	nop
    376c:	00000000 	nop
    3770:	00000000 	nop
    3774:	00000000 	nop
    3778:	00000000 	nop
    377c:	00000000 	nop
    3780:	00000000 	nop
    3784:	00000000 	nop
    3788:	00000000 	nop
    378c:	00000000 	nop
    3790:	00000000 	nop
    3794:	00000000 	nop
    3798:	00000000 	nop
    379c:	00000000 	nop
    37a0:	00000000 	nop
    37a4:	00000000 	nop
    37a8:	00000000 	nop
    37ac:	00000000 	nop
    37b0:	00000000 	nop
    37b4:	00000000 	nop
    37b8:	00000000 	nop
    37bc:	00000000 	nop
    37c0:	00000000 	nop
    37c4:	00000000 	nop
    37c8:	00000000 	nop
    37cc:	00000000 	nop
    37d0:	00000000 	nop
    37d4:	00000000 	nop
    37d8:	00000000 	nop
    37dc:	00000000 	nop
    37e0:	00000000 	nop
    37e4:	00000000 	nop
    37e8:	00000000 	nop
    37ec:	00000000 	nop
    37f0:	00000000 	nop
    37f4:	00000000 	nop
    37f8:	00000000 	nop
    37fc:	00000000 	nop
    3800:	00000000 	nop
    3804:	00000000 	nop
    3808:	00000000 	nop
    380c:	00000000 	nop
    3810:	00000000 	nop
    3814:	00000000 	nop
    3818:	00000000 	nop
    381c:	00000000 	nop
    3820:	00000000 	nop
    3824:	00000000 	nop
    3828:	00000000 	nop
    382c:	00000000 	nop
    3830:	00000000 	nop
    3834:	00000000 	nop
    3838:	00000000 	nop
    383c:	00000000 	nop
    3840:	00000000 	nop
    3844:	00000000 	nop
    3848:	00000000 	nop
    384c:	00000000 	nop
    3850:	00000000 	nop
    3854:	00000000 	nop
    3858:	00000000 	nop
    385c:	00000000 	nop
    3860:	00000000 	nop
    3864:	00000000 	nop
    3868:	00000000 	nop
    386c:	00000000 	nop
    3870:	00000000 	nop
    3874:	00000000 	nop
    3878:	00000000 	nop
    387c:	00000000 	nop
    3880:	00000000 	nop
    3884:	00000000 	nop
    3888:	00000000 	nop
    388c:	00000000 	nop
    3890:	00000000 	nop
    3894:	00000000 	nop
    3898:	00000000 	nop
    389c:	00000000 	nop
    38a0:	00000000 	nop
    38a4:	00000000 	nop
    38a8:	00000000 	nop
    38ac:	00000000 	nop
    38b0:	00000000 	nop
    38b4:	00000000 	nop
    38b8:	00000000 	nop
    38bc:	00000000 	nop
    38c0:	00000000 	nop
    38c4:	00000000 	nop
    38c8:	00000000 	nop
    38cc:	00000000 	nop
    38d0:	00000000 	nop
    38d4:	00000000 	nop
    38d8:	00000000 	nop
    38dc:	00000000 	nop
    38e0:	00000000 	nop
    38e4:	00000000 	nop
    38e8:	00000000 	nop
    38ec:	00000000 	nop
    38f0:	00000000 	nop
    38f4:	00000000 	nop
    38f8:	00000000 	nop
    38fc:	00000000 	nop
    3900:	00000000 	nop
    3904:	00000000 	nop
    3908:	00000000 	nop
    390c:	00000000 	nop
    3910:	00000000 	nop
    3914:	00000000 	nop
    3918:	00000000 	nop
    391c:	00000000 	nop
    3920:	00000000 	nop
    3924:	00000000 	nop
    3928:	00000000 	nop
    392c:	00000000 	nop
    3930:	00000000 	nop
    3934:	00000000 	nop
    3938:	00000000 	nop
    393c:	00000000 	nop
    3940:	00000000 	nop
    3944:	00000000 	nop
    3948:	00000000 	nop
    394c:	00000000 	nop
    3950:	00000000 	nop
    3954:	00000000 	nop
    3958:	00000000 	nop
    395c:	00000000 	nop
    3960:	00000000 	nop
    3964:	00000000 	nop
    3968:	00000000 	nop
    396c:	00000000 	nop
    3970:	00000000 	nop
    3974:	00000000 	nop
    3978:	00000000 	nop
    397c:	00000000 	nop
    3980:	00000000 	nop
    3984:	00000000 	nop
    3988:	00000000 	nop
    398c:	00000000 	nop
    3990:	00000000 	nop
    3994:	00000000 	nop
    3998:	00000000 	nop
    399c:	00000000 	nop
    39a0:	00000000 	nop
    39a4:	00000000 	nop
    39a8:	00000000 	nop
    39ac:	00000000 	nop
    39b0:	00000000 	nop
    39b4:	00000000 	nop
    39b8:	00000000 	nop
    39bc:	00000000 	nop
    39c0:	00000000 	nop
    39c4:	00000000 	nop
    39c8:	00000000 	nop
    39cc:	00000000 	nop
    39d0:	00000000 	nop
    39d4:	00000000 	nop
    39d8:	00000000 	nop
    39dc:	00000000 	nop
    39e0:	00000000 	nop
    39e4:	00000000 	nop
    39e8:	00000000 	nop
    39ec:	00000000 	nop
    39f0:	00000000 	nop
    39f4:	00000000 	nop
    39f8:	00000000 	nop
    39fc:	00000000 	nop
    3a00:	00000000 	nop
    3a04:	00000000 	nop
    3a08:	00000000 	nop
    3a0c:	00000000 	nop
    3a10:	00000000 	nop
    3a14:	00000000 	nop
    3a18:	00000000 	nop
    3a1c:	00000000 	nop
    3a20:	00000000 	nop
    3a24:	00000000 	nop
    3a28:	00000000 	nop
    3a2c:	00000000 	nop
    3a30:	00000000 	nop
    3a34:	00000000 	nop
    3a38:	00000000 	nop
    3a3c:	00000000 	nop
    3a40:	00000000 	nop
    3a44:	00000000 	nop
    3a48:	00000000 	nop
    3a4c:	00000000 	nop
    3a50:	00000000 	nop
    3a54:	00000000 	nop
    3a58:	00000000 	nop
    3a5c:	00000000 	nop
    3a60:	00000000 	nop
    3a64:	00000000 	nop
    3a68:	00000000 	nop
    3a6c:	00000000 	nop
    3a70:	00000000 	nop
    3a74:	00000000 	nop
    3a78:	00000000 	nop
    3a7c:	00000000 	nop
    3a80:	00000000 	nop
    3a84:	00000000 	nop
    3a88:	00000000 	nop
    3a8c:	00000000 	nop
    3a90:	00000000 	nop
    3a94:	00000000 	nop
    3a98:	00000000 	nop
    3a9c:	00000000 	nop
    3aa0:	00000000 	nop
    3aa4:	00000000 	nop
    3aa8:	00000000 	nop
    3aac:	00000000 	nop
    3ab0:	00000000 	nop
    3ab4:	00000000 	nop
    3ab8:	00000000 	nop
    3abc:	00000000 	nop
    3ac0:	00000000 	nop
    3ac4:	00000000 	nop
    3ac8:	00000000 	nop
    3acc:	00000000 	nop
    3ad0:	00000000 	nop
    3ad4:	00000000 	nop
    3ad8:	00000000 	nop
    3adc:	00000000 	nop
    3ae0:	00000000 	nop
    3ae4:	00000000 	nop
    3ae8:	00000000 	nop
    3aec:	00000000 	nop
    3af0:	00000000 	nop
    3af4:	00000000 	nop
    3af8:	00000000 	nop
    3afc:	00000000 	nop
    3b00:	00000000 	nop
    3b04:	00000000 	nop
    3b08:	00000000 	nop
    3b0c:	00000000 	nop
    3b10:	00000000 	nop
    3b14:	00000000 	nop
    3b18:	00000000 	nop
    3b1c:	00000000 	nop
    3b20:	00000000 	nop
    3b24:	00000000 	nop
    3b28:	00000000 	nop
    3b2c:	00000000 	nop
    3b30:	00000000 	nop
    3b34:	00000000 	nop
    3b38:	00000000 	nop
    3b3c:	00000000 	nop
    3b40:	00000000 	nop
    3b44:	00000000 	nop
    3b48:	00000000 	nop
    3b4c:	00000000 	nop
    3b50:	00000000 	nop
    3b54:	00000000 	nop
    3b58:	00000000 	nop
    3b5c:	00000000 	nop
    3b60:	00000000 	nop
    3b64:	00000000 	nop
    3b68:	00000000 	nop
    3b6c:	00000000 	nop
    3b70:	00000000 	nop
    3b74:	00000000 	nop
    3b78:	00000000 	nop
    3b7c:	00000000 	nop
    3b80:	00000000 	nop
    3b84:	00000000 	nop
    3b88:	00000000 	nop
    3b8c:	00000000 	nop
    3b90:	00000000 	nop
    3b94:	00000000 	nop
    3b98:	00000000 	nop
    3b9c:	00000000 	nop
    3ba0:	00000000 	nop
    3ba4:	00000000 	nop
    3ba8:	00000000 	nop
    3bac:	00000000 	nop
    3bb0:	00000000 	nop
    3bb4:	00000000 	nop
    3bb8:	00000000 	nop
    3bbc:	00000000 	nop
    3bc0:	00000000 	nop
    3bc4:	00000000 	nop
    3bc8:	00000000 	nop
    3bcc:	00000000 	nop
    3bd0:	00000000 	nop
    3bd4:	00000000 	nop
    3bd8:	00000000 	nop
    3bdc:	00000000 	nop
    3be0:	00000000 	nop
    3be4:	00000000 	nop
    3be8:	00000000 	nop
    3bec:	00000000 	nop
    3bf0:	00000000 	nop
    3bf4:	00000000 	nop
    3bf8:	00000000 	nop
    3bfc:	00000000 	nop
    3c00:	00000000 	nop
    3c04:	00000000 	nop
    3c08:	00000000 	nop
    3c0c:	00000000 	nop
    3c10:	00000000 	nop
    3c14:	00000000 	nop
    3c18:	00000000 	nop
    3c1c:	00000000 	nop
    3c20:	00000000 	nop
    3c24:	00000000 	nop
    3c28:	00000000 	nop
    3c2c:	00000000 	nop
    3c30:	00000000 	nop
    3c34:	00000000 	nop
    3c38:	00000000 	nop
    3c3c:	00000000 	nop
    3c40:	00000000 	nop
    3c44:	00000000 	nop
    3c48:	00000000 	nop
    3c4c:	00000000 	nop
    3c50:	00000000 	nop
    3c54:	00000000 	nop
    3c58:	00000000 	nop
    3c5c:	00000000 	nop
    3c60:	00000000 	nop
    3c64:	00000000 	nop
    3c68:	00000000 	nop
    3c6c:	00000000 	nop
    3c70:	00000000 	nop
    3c74:	00000000 	nop
    3c78:	00000000 	nop
    3c7c:	00000000 	nop
    3c80:	00000000 	nop
    3c84:	00000000 	nop
    3c88:	00000000 	nop
    3c8c:	00000000 	nop
    3c90:	00000000 	nop
    3c94:	00000000 	nop
    3c98:	00000000 	nop
    3c9c:	00000000 	nop
    3ca0:	00000000 	nop
    3ca4:	00000000 	nop
    3ca8:	00000000 	nop
    3cac:	00000000 	nop
    3cb0:	00000000 	nop
    3cb4:	00000000 	nop
    3cb8:	00000000 	nop
    3cbc:	00000000 	nop
    3cc0:	00000000 	nop
    3cc4:	00000000 	nop
    3cc8:	00000000 	nop
    3ccc:	00000000 	nop
    3cd0:	00000000 	nop
    3cd4:	00000000 	nop
    3cd8:	00000000 	nop
    3cdc:	00000000 	nop
    3ce0:	00000000 	nop
    3ce4:	00000000 	nop
    3ce8:	00000000 	nop
    3cec:	00000000 	nop
    3cf0:	00000000 	nop
    3cf4:	00000000 	nop
    3cf8:	00000000 	nop
    3cfc:	00000000 	nop
    3d00:	00000000 	nop
    3d04:	00000000 	nop
    3d08:	00000000 	nop
    3d0c:	00000000 	nop
    3d10:	00000000 	nop
    3d14:	00000000 	nop
    3d18:	00000000 	nop
    3d1c:	00000000 	nop
    3d20:	00000000 	nop
    3d24:	00000000 	nop
    3d28:	00000000 	nop
    3d2c:	00000000 	nop
    3d30:	00000000 	nop
    3d34:	00000000 	nop
    3d38:	00000000 	nop
    3d3c:	00000000 	nop
    3d40:	00000000 	nop
    3d44:	00000000 	nop
    3d48:	00000000 	nop
    3d4c:	00000000 	nop
    3d50:	00000000 	nop
    3d54:	00000000 	nop
    3d58:	00000000 	nop
    3d5c:	00000000 	nop
    3d60:	00000000 	nop
    3d64:	00000000 	nop
    3d68:	00000000 	nop
    3d6c:	00000000 	nop
    3d70:	00000000 	nop
    3d74:	00000000 	nop
    3d78:	00000000 	nop
    3d7c:	00000000 	nop
    3d80:	00000000 	nop
    3d84:	00000000 	nop
    3d88:	00000000 	nop
    3d8c:	00000000 	nop
    3d90:	00000000 	nop
    3d94:	00000000 	nop
    3d98:	00000000 	nop
    3d9c:	00000000 	nop
    3da0:	00000000 	nop
    3da4:	00000000 	nop
    3da8:	00000000 	nop
    3dac:	00000000 	nop
    3db0:	00000000 	nop
    3db4:	00000000 	nop
    3db8:	00000000 	nop
    3dbc:	00000000 	nop
    3dc0:	00000000 	nop
    3dc4:	00000000 	nop
    3dc8:	00000000 	nop
    3dcc:	00000000 	nop
    3dd0:	00000000 	nop
    3dd4:	00000000 	nop
    3dd8:	00000000 	nop
    3ddc:	00000000 	nop
    3de0:	00000000 	nop
    3de4:	00000000 	nop
    3de8:	00000000 	nop
    3dec:	00000000 	nop
    3df0:	00000000 	nop
    3df4:	00000000 	nop
    3df8:	00000000 	nop
    3dfc:	00000000 	nop
    3e00:	00000000 	nop
    3e04:	00000000 	nop
    3e08:	00000000 	nop
    3e0c:	00000000 	nop
    3e10:	00000000 	nop
    3e14:	00000000 	nop
    3e18:	00000000 	nop
    3e1c:	00000000 	nop
    3e20:	00000000 	nop
    3e24:	00000000 	nop
    3e28:	00000000 	nop
    3e2c:	00000000 	nop
    3e30:	00000000 	nop
    3e34:	00000000 	nop
    3e38:	00000000 	nop
    3e3c:	00000000 	nop
    3e40:	00000000 	nop
    3e44:	00000000 	nop
    3e48:	00000000 	nop
    3e4c:	00000000 	nop
    3e50:	00000000 	nop
    3e54:	00000000 	nop
    3e58:	00000000 	nop
    3e5c:	00000000 	nop
    3e60:	00000000 	nop
    3e64:	00000000 	nop
    3e68:	00000000 	nop
    3e6c:	00000000 	nop
    3e70:	00000000 	nop
    3e74:	00000000 	nop
    3e78:	00000000 	nop
    3e7c:	00000000 	nop
    3e80:	00000000 	nop
    3e84:	00000000 	nop
    3e88:	00000000 	nop
    3e8c:	00000000 	nop
    3e90:	00000000 	nop
    3e94:	00000000 	nop
    3e98:	00000000 	nop
    3e9c:	00000000 	nop
    3ea0:	00000000 	nop
    3ea4:	00000000 	nop
    3ea8:	00000000 	nop
    3eac:	00000000 	nop
    3eb0:	00000000 	nop
    3eb4:	00000000 	nop
    3eb8:	00000000 	nop
    3ebc:	00000000 	nop
    3ec0:	00000000 	nop
    3ec4:	00000000 	nop
    3ec8:	00000000 	nop
    3ecc:	00000000 	nop
    3ed0:	00000000 	nop
    3ed4:	00000000 	nop
    3ed8:	00000000 	nop
    3edc:	00000000 	nop
    3ee0:	00000000 	nop
    3ee4:	00000000 	nop
    3ee8:	00000000 	nop
    3eec:	00000000 	nop
    3ef0:	00000000 	nop
    3ef4:	00000000 	nop
    3ef8:	00000000 	nop
    3efc:	00000000 	nop
    3f00:	00000000 	nop
    3f04:	00000000 	nop
    3f08:	00000000 	nop
    3f0c:	00000000 	nop
    3f10:	00000000 	nop
    3f14:	00000000 	nop
    3f18:	00000000 	nop
    3f1c:	00000000 	nop
    3f20:	00000000 	nop
    3f24:	00000000 	nop
    3f28:	00000000 	nop
    3f2c:	00000000 	nop
    3f30:	00000000 	nop
    3f34:	00000000 	nop
    3f38:	00000000 	nop
    3f3c:	00000000 	nop
    3f40:	00000000 	nop
    3f44:	00000000 	nop
    3f48:	00000000 	nop
    3f4c:	00000000 	nop
    3f50:	00000000 	nop
    3f54:	00000000 	nop
    3f58:	00000000 	nop
    3f5c:	00000000 	nop
    3f60:	00000000 	nop
    3f64:	00000000 	nop
    3f68:	00000000 	nop
    3f6c:	00000000 	nop
    3f70:	00000000 	nop
    3f74:	00000000 	nop
    3f78:	00000000 	nop
    3f7c:	00000000 	nop
    3f80:	00000000 	nop
    3f84:	00000000 	nop
    3f88:	00000000 	nop
    3f8c:	00000000 	nop
    3f90:	00000000 	nop
    3f94:	00000000 	nop
    3f98:	00000000 	nop
    3f9c:	00000000 	nop
    3fa0:	00000000 	nop
    3fa4:	00000000 	nop
    3fa8:	00000000 	nop
    3fac:	00000000 	nop
    3fb0:	00000000 	nop
    3fb4:	00000000 	nop
    3fb8:	00000000 	nop
    3fbc:	00000000 	nop
    3fc0:	00000000 	nop
    3fc4:	00000000 	nop
    3fc8:	00000000 	nop
    3fcc:	00000000 	nop
    3fd0:	00000000 	nop
    3fd4:	00000000 	nop
    3fd8:	00000000 	nop
    3fdc:	00000000 	nop
    3fe0:	00000000 	nop
    3fe4:	00000000 	nop
    3fe8:	00000000 	nop
    3fec:	00000000 	nop
    3ff0:	00000000 	nop
    3ff4:	00000000 	nop
    3ff8:	00000000 	nop
    3ffc:	00000000 	nop
    4000:	00000000 	nop
    4004:	00000000 	nop
    4008:	00000000 	nop
    400c:	00000000 	nop
    4010:	00000000 	nop
    4014:	00000000 	nop
    4018:	00000000 	nop
    401c:	00000000 	nop
    4020:	00000000 	nop
    4024:	00000000 	nop
    4028:	00000000 	nop
    402c:	00000000 	nop
    4030:	00000000 	nop
    4034:	00000000 	nop
    4038:	00000000 	nop
    403c:	00000000 	nop
    4040:	00000000 	nop
    4044:	00000000 	nop
    4048:	00000000 	nop
    404c:	00000000 	nop
    4050:	00000000 	nop
    4054:	00000000 	nop
    4058:	00000000 	nop
    405c:	00000000 	nop
    4060:	00000000 	nop
    4064:	00000000 	nop
    4068:	00000000 	nop
    406c:	00000000 	nop
    4070:	00000000 	nop
    4074:	00000000 	nop
    4078:	00000000 	nop
    407c:	00000000 	nop
    4080:	00000000 	nop
    4084:	00000000 	nop
    4088:	00000000 	nop
    408c:	00000000 	nop
    4090:	00000000 	nop
    4094:	00000000 	nop
    4098:	00000000 	nop
    409c:	00000000 	nop
    40a0:	00000000 	nop
    40a4:	00000000 	nop
    40a8:	00000000 	nop
    40ac:	00000000 	nop
    40b0:	00000000 	nop
    40b4:	00000000 	nop
    40b8:	00000000 	nop
    40bc:	00000000 	nop
    40c0:	00000000 	nop
    40c4:	00000000 	nop
    40c8:	00000000 	nop
    40cc:	00000000 	nop
    40d0:	00000000 	nop
    40d4:	00000000 	nop
    40d8:	00000000 	nop
    40dc:	00000000 	nop
    40e0:	00000000 	nop
    40e4:	00000000 	nop
    40e8:	00000000 	nop
    40ec:	00000000 	nop
    40f0:	00000000 	nop
    40f4:	00000000 	nop
    40f8:	00000000 	nop
    40fc:	00000000 	nop
    4100:	00000000 	nop
    4104:	00000000 	nop
    4108:	00000000 	nop
    410c:	00000000 	nop
    4110:	00000000 	nop
    4114:	00000000 	nop
    4118:	00000000 	nop
    411c:	00000000 	nop
    4120:	00000000 	nop
    4124:	00000000 	nop
    4128:	00000000 	nop
    412c:	00000000 	nop
    4130:	00000000 	nop
    4134:	00000000 	nop
    4138:	00000000 	nop
    413c:	00000000 	nop
    4140:	00000000 	nop
    4144:	00000000 	nop
    4148:	00000000 	nop
    414c:	00000000 	nop
    4150:	00000000 	nop
    4154:	00000000 	nop
    4158:	00000000 	nop
    415c:	00000000 	nop
    4160:	00000000 	nop
    4164:	00000000 	nop
    4168:	00000000 	nop
    416c:	00000000 	nop
    4170:	00000000 	nop
    4174:	00000000 	nop
    4178:	00000000 	nop
    417c:	00000000 	nop
    4180:	00000000 	nop
    4184:	00000000 	nop
    4188:	00000000 	nop
    418c:	00000000 	nop
    4190:	00000000 	nop
    4194:	00000000 	nop
    4198:	00000000 	nop
    419c:	00000000 	nop
    41a0:	00000000 	nop
    41a4:	00000000 	nop
    41a8:	00000000 	nop
    41ac:	00000000 	nop
    41b0:	00000000 	nop
    41b4:	00000000 	nop
    41b8:	00000000 	nop
    41bc:	00000000 	nop
    41c0:	00000000 	nop
    41c4:	00000000 	nop
    41c8:	00000000 	nop
    41cc:	00000000 	nop
    41d0:	00000000 	nop
    41d4:	00000000 	nop
    41d8:	00000000 	nop
    41dc:	00000000 	nop
    41e0:	00000000 	nop
    41e4:	00000000 	nop
    41e8:	00000000 	nop
    41ec:	00000000 	nop
    41f0:	00000000 	nop
    41f4:	00000000 	nop
    41f8:	00000000 	nop
    41fc:	00000000 	nop
    4200:	00000000 	nop
    4204:	00000000 	nop
    4208:	00000000 	nop
    420c:	00000000 	nop
    4210:	00000000 	nop
    4214:	00000000 	nop
    4218:	00000000 	nop
    421c:	00000000 	nop
    4220:	00000000 	nop
    4224:	00000000 	nop
    4228:	00000000 	nop
    422c:	00000000 	nop
    4230:	00000000 	nop
    4234:	00000000 	nop
    4238:	00000000 	nop
    423c:	00000000 	nop
    4240:	00000000 	nop
    4244:	00000000 	nop
    4248:	00000000 	nop
    424c:	00000000 	nop
    4250:	00000000 	nop
    4254:	00000000 	nop
    4258:	00000000 	nop
    425c:	00000000 	nop
    4260:	00000000 	nop
    4264:	00000000 	nop
    4268:	00000000 	nop
    426c:	00000000 	nop
    4270:	00000000 	nop
    4274:	00000000 	nop
    4278:	00000000 	nop
    427c:	00000000 	nop
    4280:	00000000 	nop
    4284:	00000000 	nop
    4288:	00000000 	nop
    428c:	00000000 	nop
    4290:	00000000 	nop
    4294:	00000000 	nop
    4298:	00000000 	nop
    429c:	00000000 	nop
    42a0:	00000000 	nop
    42a4:	00000000 	nop
    42a8:	00000000 	nop
    42ac:	00000000 	nop
    42b0:	00000000 	nop
    42b4:	00000000 	nop
    42b8:	00000000 	nop
    42bc:	00000000 	nop
    42c0:	00000000 	nop
    42c4:	00000000 	nop
    42c8:	00000000 	nop
    42cc:	00000000 	nop
    42d0:	00000000 	nop
    42d4:	00000000 	nop
    42d8:	00000000 	nop
    42dc:	00000000 	nop
    42e0:	00000000 	nop
    42e4:	00000000 	nop
    42e8:	00000000 	nop
    42ec:	00000000 	nop
    42f0:	00000000 	nop
    42f4:	00000000 	nop
    42f8:	00000000 	nop
    42fc:	00000000 	nop
    4300:	00000000 	nop
    4304:	00000000 	nop
    4308:	00000000 	nop
    430c:	00000000 	nop
    4310:	00000000 	nop
    4314:	00000000 	nop
    4318:	00000000 	nop
    431c:	00000000 	nop
    4320:	00000000 	nop
    4324:	00000000 	nop
    4328:	00000000 	nop
    432c:	00000000 	nop
    4330:	00000000 	nop
    4334:	00000000 	nop
    4338:	00000000 	nop
    433c:	00000000 	nop
    4340:	00000000 	nop
    4344:	00000000 	nop
    4348:	00000000 	nop
    434c:	00000000 	nop
    4350:	00000000 	nop
    4354:	00000000 	nop
    4358:	00000000 	nop
    435c:	00000000 	nop
    4360:	00000000 	nop
    4364:	00000000 	nop
    4368:	00000000 	nop
    436c:	00000000 	nop
    4370:	00000000 	nop
    4374:	00000000 	nop
    4378:	00000000 	nop
    437c:	00000000 	nop
    4380:	00000000 	nop
    4384:	00000000 	nop
    4388:	00000000 	nop
    438c:	00000000 	nop
    4390:	00000000 	nop
    4394:	00000000 	nop
    4398:	00000000 	nop
    439c:	00000000 	nop
    43a0:	00000000 	nop
    43a4:	00000000 	nop
    43a8:	00000000 	nop
    43ac:	00000000 	nop
    43b0:	00000000 	nop
    43b4:	00000000 	nop
    43b8:	00000000 	nop
    43bc:	00000000 	nop
    43c0:	00000000 	nop
    43c4:	00000000 	nop
    43c8:	00000000 	nop
    43cc:	00000000 	nop
    43d0:	00000000 	nop
    43d4:	00000000 	nop
    43d8:	00000000 	nop
    43dc:	00000000 	nop
    43e0:	00000000 	nop
    43e4:	00000000 	nop
    43e8:	00000000 	nop
    43ec:	00000000 	nop
    43f0:	00000000 	nop
    43f4:	00000000 	nop
    43f8:	00000000 	nop
    43fc:	00000000 	nop
    4400:	00000000 	nop
    4404:	00000000 	nop
    4408:	00000000 	nop
    440c:	00000000 	nop
    4410:	00000000 	nop
    4414:	00000000 	nop
    4418:	00000000 	nop
    441c:	00000000 	nop
    4420:	00000000 	nop
    4424:	00000000 	nop
    4428:	00000000 	nop
    442c:	00000000 	nop
    4430:	00000000 	nop
    4434:	00000000 	nop
    4438:	00000000 	nop
    443c:	00000000 	nop
    4440:	00000000 	nop
    4444:	00000000 	nop
    4448:	00000000 	nop
    444c:	00000000 	nop
    4450:	00000000 	nop
    4454:	00000000 	nop
    4458:	00000000 	nop
    445c:	00000000 	nop
    4460:	00000000 	nop
    4464:	00000000 	nop
    4468:	00000000 	nop
    446c:	00000000 	nop
    4470:	00000000 	nop
    4474:	00000000 	nop
    4478:	00000000 	nop
    447c:	00000000 	nop
    4480:	00000000 	nop
    4484:	00000000 	nop
    4488:	00000000 	nop
    448c:	00000000 	nop
    4490:	00000000 	nop
    4494:	00000000 	nop
    4498:	00000000 	nop
    449c:	00000000 	nop
    44a0:	00000000 	nop
    44a4:	00000000 	nop
    44a8:	00000000 	nop
    44ac:	00000000 	nop
    44b0:	00000000 	nop
    44b4:	00000000 	nop
    44b8:	00000000 	nop
    44bc:	00000000 	nop
    44c0:	00000000 	nop
    44c4:	00000000 	nop
    44c8:	00000000 	nop
    44cc:	00000000 	nop
    44d0:	00000000 	nop
    44d4:	00000000 	nop
    44d8:	00000000 	nop
    44dc:	00000000 	nop
    44e0:	00000000 	nop
    44e4:	00000000 	nop
    44e8:	00000000 	nop
    44ec:	00000000 	nop
    44f0:	00000000 	nop
    44f4:	00000000 	nop
    44f8:	00000000 	nop
    44fc:	00000000 	nop
    4500:	00000000 	nop
    4504:	00000000 	nop
    4508:	00000000 	nop
    450c:	00000000 	nop
    4510:	00000000 	nop
    4514:	00000000 	nop
    4518:	00000000 	nop
    451c:	00000000 	nop
    4520:	00000000 	nop
    4524:	00000000 	nop
    4528:	00000000 	nop
    452c:	00000000 	nop
    4530:	00000000 	nop
    4534:	00000000 	nop
    4538:	00000000 	nop
    453c:	00000000 	nop
    4540:	00000000 	nop
    4544:	00000000 	nop
    4548:	00000000 	nop
    454c:	00000000 	nop
    4550:	00000000 	nop
    4554:	00000000 	nop
    4558:	00000000 	nop
    455c:	00000000 	nop
    4560:	00000000 	nop
    4564:	00000000 	nop
    4568:	00000000 	nop
    456c:	00000000 	nop
    4570:	00000000 	nop
    4574:	00000000 	nop
    4578:	00000000 	nop
    457c:	00000000 	nop
    4580:	00000000 	nop
    4584:	00000000 	nop
    4588:	00000000 	nop
    458c:	00000000 	nop
    4590:	00000000 	nop
    4594:	00000000 	nop
    4598:	00000000 	nop
    459c:	00000000 	nop
    45a0:	00000000 	nop
    45a4:	00000000 	nop
    45a8:	00000000 	nop
    45ac:	00000000 	nop
    45b0:	00000000 	nop
    45b4:	00000000 	nop
    45b8:	00000000 	nop
    45bc:	00000000 	nop
    45c0:	00000000 	nop
    45c4:	00000000 	nop
    45c8:	00000000 	nop
    45cc:	00000000 	nop
    45d0:	00000000 	nop
    45d4:	00000000 	nop
    45d8:	00000000 	nop
    45dc:	00000000 	nop
    45e0:	00000000 	nop
    45e4:	00000000 	nop
    45e8:	00000000 	nop
    45ec:	00000000 	nop
    45f0:	00000000 	nop
    45f4:	00000000 	nop
    45f8:	00000000 	nop
    45fc:	00000000 	nop
    4600:	00000000 	nop
    4604:	00000000 	nop
    4608:	00000000 	nop
    460c:	00000000 	nop
    4610:	00000000 	nop
    4614:	00000000 	nop
    4618:	00000000 	nop
    461c:	00000000 	nop
    4620:	00000000 	nop
    4624:	00000000 	nop
    4628:	00000000 	nop
    462c:	00000000 	nop
    4630:	00000000 	nop
    4634:	00000000 	nop
    4638:	00000000 	nop
    463c:	00000000 	nop
    4640:	00000000 	nop
    4644:	00000000 	nop
    4648:	00000000 	nop
    464c:	00000000 	nop
    4650:	00000000 	nop
    4654:	00000000 	nop
    4658:	00000000 	nop
    465c:	00000000 	nop
    4660:	00000000 	nop
    4664:	00000000 	nop
    4668:	00000000 	nop
    466c:	00000000 	nop
    4670:	00000000 	nop
    4674:	00000000 	nop
    4678:	00000000 	nop
    467c:	00000000 	nop
    4680:	00000000 	nop
    4684:	00000000 	nop
    4688:	00000000 	nop
    468c:	00000000 	nop
    4690:	00000000 	nop
    4694:	00000000 	nop
    4698:	00000000 	nop
    469c:	00000000 	nop
    46a0:	00000000 	nop
    46a4:	00000000 	nop
    46a8:	00000000 	nop
    46ac:	00000000 	nop
    46b0:	00000000 	nop
    46b4:	00000000 	nop
    46b8:	00000000 	nop
    46bc:	00000000 	nop
    46c0:	00000000 	nop
    46c4:	00000000 	nop
    46c8:	00000000 	nop
    46cc:	00000000 	nop
    46d0:	00000000 	nop
    46d4:	00000000 	nop
    46d8:	00000000 	nop
    46dc:	00000000 	nop
    46e0:	00000000 	nop
    46e4:	00000000 	nop
    46e8:	00000000 	nop
    46ec:	00000000 	nop
    46f0:	00000000 	nop
    46f4:	00000000 	nop
    46f8:	00000000 	nop
    46fc:	00000000 	nop
    4700:	00000000 	nop
    4704:	00000000 	nop
    4708:	00000000 	nop
    470c:	00000000 	nop
    4710:	00000000 	nop
    4714:	00000000 	nop
    4718:	00000000 	nop
    471c:	00000000 	nop
    4720:	00000000 	nop
    4724:	00000000 	nop
    4728:	00000000 	nop
    472c:	00000000 	nop
    4730:	00000000 	nop
    4734:	00000000 	nop
    4738:	00000000 	nop
    473c:	00000000 	nop
    4740:	00000000 	nop
    4744:	00000000 	nop
    4748:	00000000 	nop
    474c:	00000000 	nop
    4750:	00000000 	nop
    4754:	00000000 	nop
    4758:	00000000 	nop
    475c:	00000000 	nop
    4760:	00000000 	nop
    4764:	00000000 	nop
    4768:	00000000 	nop
    476c:	00000000 	nop
    4770:	00000000 	nop
    4774:	00000000 	nop
    4778:	00000000 	nop
    477c:	00000000 	nop
    4780:	00000000 	nop
    4784:	00000000 	nop
    4788:	00000000 	nop
    478c:	00000000 	nop
    4790:	00000000 	nop
    4794:	00000000 	nop
    4798:	00000000 	nop
    479c:	00000000 	nop
    47a0:	00000000 	nop
    47a4:	00000000 	nop
    47a8:	00000000 	nop
    47ac:	00000000 	nop
    47b0:	00000000 	nop
    47b4:	00000000 	nop
    47b8:	00000000 	nop
    47bc:	00000000 	nop
    47c0:	00000000 	nop
    47c4:	00000000 	nop
    47c8:	00000000 	nop
    47cc:	00000000 	nop
    47d0:	00000000 	nop
    47d4:	00000000 	nop
    47d8:	00000000 	nop
    47dc:	00000000 	nop
    47e0:	00000000 	nop
    47e4:	00000000 	nop
    47e8:	00000000 	nop
    47ec:	00000000 	nop
    47f0:	00000000 	nop
    47f4:	00000000 	nop
    47f8:	00000000 	nop
    47fc:	00000000 	nop
    4800:	00000000 	nop
    4804:	00000000 	nop
    4808:	00000000 	nop
    480c:	00000000 	nop
    4810:	00000000 	nop
    4814:	00000000 	nop
    4818:	00000000 	nop
    481c:	00000000 	nop
    4820:	00000000 	nop
    4824:	00000000 	nop
    4828:	00000000 	nop
    482c:	00000000 	nop
    4830:	00000000 	nop
    4834:	00000000 	nop
    4838:	00000000 	nop
    483c:	00000000 	nop
    4840:	00000000 	nop
    4844:	00000000 	nop
    4848:	00000000 	nop
    484c:	00000000 	nop
    4850:	00000000 	nop
    4854:	00000000 	nop
    4858:	00000000 	nop
    485c:	00000000 	nop
    4860:	00000000 	nop
    4864:	00000000 	nop
    4868:	00000000 	nop
    486c:	00000000 	nop
    4870:	00000000 	nop
    4874:	00000000 	nop
    4878:	00000000 	nop
    487c:	00000000 	nop
    4880:	00000000 	nop
    4884:	00000000 	nop
    4888:	00000000 	nop
    488c:	00000000 	nop
    4890:	00000000 	nop
    4894:	00000000 	nop
    4898:	00000000 	nop
    489c:	00000000 	nop
    48a0:	00000000 	nop
    48a4:	00000000 	nop
    48a8:	00000000 	nop
    48ac:	00000000 	nop
    48b0:	00000000 	nop
    48b4:	00000000 	nop
    48b8:	00000000 	nop
    48bc:	00000000 	nop
    48c0:	00000000 	nop
    48c4:	00000000 	nop
    48c8:	00000000 	nop
    48cc:	00000000 	nop
    48d0:	00000000 	nop
    48d4:	00000000 	nop
    48d8:	00000000 	nop
    48dc:	00000000 	nop
    48e0:	00000000 	nop
    48e4:	00000000 	nop
    48e8:	00000000 	nop
    48ec:	00000000 	nop
    48f0:	00000000 	nop
    48f4:	00000000 	nop
    48f8:	00000000 	nop
    48fc:	00000000 	nop
    4900:	00000000 	nop
    4904:	00000000 	nop
    4908:	00000000 	nop
    490c:	00000000 	nop
    4910:	00000000 	nop
    4914:	00000000 	nop
    4918:	00000000 	nop
    491c:	00000000 	nop
    4920:	00000000 	nop
    4924:	00000000 	nop
    4928:	00000000 	nop
    492c:	00000000 	nop
    4930:	00000000 	nop
    4934:	00000000 	nop
    4938:	00000000 	nop
    493c:	00000000 	nop
    4940:	00000000 	nop
    4944:	00000000 	nop
    4948:	00000000 	nop
    494c:	00000000 	nop
    4950:	00000000 	nop
    4954:	00000000 	nop
    4958:	00000000 	nop
    495c:	00000000 	nop
    4960:	00000000 	nop
    4964:	00000000 	nop
    4968:	00000000 	nop
    496c:	00000000 	nop
    4970:	00000000 	nop
    4974:	00000000 	nop
    4978:	00000000 	nop
    497c:	00000000 	nop
    4980:	00000000 	nop
    4984:	00000000 	nop
    4988:	00000000 	nop
    498c:	00000000 	nop
    4990:	00000000 	nop
    4994:	00000000 	nop
    4998:	00000000 	nop
    499c:	00000000 	nop
    49a0:	00000000 	nop
    49a4:	00000000 	nop
    49a8:	00000000 	nop
    49ac:	00000000 	nop
    49b0:	00000000 	nop
    49b4:	00000000 	nop
    49b8:	00000000 	nop
    49bc:	00000000 	nop
    49c0:	00000000 	nop
    49c4:	00000000 	nop
    49c8:	00000000 	nop
    49cc:	00000000 	nop
    49d0:	00000000 	nop
    49d4:	00000000 	nop
    49d8:	00000000 	nop
    49dc:	00000000 	nop
    49e0:	00000000 	nop
    49e4:	00000000 	nop
    49e8:	00000000 	nop
    49ec:	00000000 	nop
    49f0:	00000000 	nop
    49f4:	00000000 	nop
    49f8:	00000000 	nop
    49fc:	00000000 	nop
    4a00:	00000000 	nop
    4a04:	00000000 	nop
    4a08:	00000000 	nop
    4a0c:	00000000 	nop
    4a10:	00000000 	nop
    4a14:	00000000 	nop
    4a18:	00000000 	nop
    4a1c:	00000000 	nop
    4a20:	00000000 	nop
    4a24:	00000000 	nop
    4a28:	00000000 	nop
    4a2c:	00000000 	nop
    4a30:	00000000 	nop
    4a34:	00000000 	nop
    4a38:	00000000 	nop
    4a3c:	00000000 	nop
    4a40:	00000000 	nop
    4a44:	00000000 	nop
    4a48:	00000000 	nop
    4a4c:	00000000 	nop
    4a50:	00000000 	nop
    4a54:	00000000 	nop
    4a58:	00000000 	nop
    4a5c:	00000000 	nop
    4a60:	00000000 	nop
    4a64:	00000000 	nop
    4a68:	00000000 	nop
    4a6c:	00000000 	nop
    4a70:	00000000 	nop
    4a74:	00000000 	nop
    4a78:	00000000 	nop
    4a7c:	00000000 	nop
    4a80:	00000000 	nop
    4a84:	00000000 	nop
    4a88:	00000000 	nop
    4a8c:	00000000 	nop
    4a90:	00000000 	nop
    4a94:	00000000 	nop
    4a98:	00000000 	nop
    4a9c:	00000000 	nop
    4aa0:	00000000 	nop
    4aa4:	00000000 	nop
    4aa8:	00000000 	nop
    4aac:	00000000 	nop
    4ab0:	00000000 	nop
    4ab4:	00000000 	nop
    4ab8:	00000000 	nop
    4abc:	00000000 	nop
    4ac0:	00000000 	nop
    4ac4:	00000000 	nop
    4ac8:	00000000 	nop
    4acc:	00000000 	nop
    4ad0:	00000000 	nop
    4ad4:	00000000 	nop
    4ad8:	00000000 	nop
    4adc:	00000000 	nop
    4ae0:	00000000 	nop
    4ae4:	00000000 	nop
    4ae8:	00000000 	nop
    4aec:	00000000 	nop
    4af0:	00000000 	nop
    4af4:	00000000 	nop
    4af8:	00000000 	nop
    4afc:	00000000 	nop
    4b00:	00000000 	nop
    4b04:	00000000 	nop
    4b08:	00000000 	nop
    4b0c:	00000000 	nop
    4b10:	00000000 	nop
    4b14:	00000000 	nop
    4b18:	00000000 	nop
    4b1c:	00000000 	nop
    4b20:	00000000 	nop
    4b24:	00000000 	nop
    4b28:	00000000 	nop
    4b2c:	00000000 	nop
    4b30:	00000000 	nop
    4b34:	00000000 	nop
    4b38:	00000000 	nop
    4b3c:	00000000 	nop
    4b40:	00000000 	nop
    4b44:	00000000 	nop
    4b48:	00000000 	nop
    4b4c:	00000000 	nop
    4b50:	00000000 	nop
    4b54:	00000000 	nop
    4b58:	00000000 	nop
    4b5c:	00000000 	nop
    4b60:	00000000 	nop
    4b64:	00000000 	nop
    4b68:	00000000 	nop
    4b6c:	00000000 	nop
    4b70:	00000000 	nop
    4b74:	00000000 	nop
    4b78:	00000000 	nop
    4b7c:	00000000 	nop
    4b80:	00000000 	nop
    4b84:	00000000 	nop
    4b88:	00000000 	nop
    4b8c:	00000000 	nop
    4b90:	00000000 	nop
    4b94:	00000000 	nop
    4b98:	00000000 	nop
    4b9c:	00000000 	nop
    4ba0:	00000000 	nop
    4ba4:	00000000 	nop
    4ba8:	00000000 	nop
    4bac:	00000000 	nop
    4bb0:	00000000 	nop
    4bb4:	00000000 	nop
    4bb8:	00000000 	nop
    4bbc:	00000000 	nop
    4bc0:	00000000 	nop
    4bc4:	00000000 	nop
    4bc8:	00000000 	nop
    4bcc:	00000000 	nop
    4bd0:	00000000 	nop
    4bd4:	00000000 	nop
    4bd8:	00000000 	nop
    4bdc:	00000000 	nop
    4be0:	00000000 	nop
    4be4:	00000000 	nop
    4be8:	00000000 	nop
    4bec:	00000000 	nop
    4bf0:	00000000 	nop
    4bf4:	00000000 	nop
    4bf8:	00000000 	nop
    4bfc:	00000000 	nop
    4c00:	00000000 	nop
    4c04:	00000000 	nop
    4c08:	00000000 	nop
    4c0c:	00000000 	nop
    4c10:	00000000 	nop
    4c14:	00000000 	nop
    4c18:	00000000 	nop
    4c1c:	00000000 	nop
    4c20:	00000000 	nop
    4c24:	00000000 	nop
    4c28:	00000000 	nop
    4c2c:	00000000 	nop
    4c30:	00000000 	nop
    4c34:	00000000 	nop
    4c38:	00000000 	nop
    4c3c:	00000000 	nop
    4c40:	00000000 	nop
    4c44:	00000000 	nop
    4c48:	00000000 	nop
    4c4c:	00000000 	nop
    4c50:	00000000 	nop
    4c54:	00000000 	nop
    4c58:	00000000 	nop
    4c5c:	00000000 	nop
    4c60:	00000000 	nop
    4c64:	00000000 	nop
    4c68:	00000000 	nop
    4c6c:	00000000 	nop
    4c70:	00000000 	nop
    4c74:	00000000 	nop
    4c78:	00000000 	nop
    4c7c:	00000000 	nop
    4c80:	00000000 	nop
    4c84:	00000000 	nop
    4c88:	00000000 	nop
    4c8c:	00000000 	nop
    4c90:	00000000 	nop
    4c94:	00000000 	nop
    4c98:	00000000 	nop
    4c9c:	00000000 	nop
    4ca0:	00000000 	nop
    4ca4:	00000000 	nop
    4ca8:	00000000 	nop
    4cac:	00000000 	nop
    4cb0:	00000000 	nop
    4cb4:	00000000 	nop
    4cb8:	00000000 	nop
    4cbc:	00000000 	nop
    4cc0:	00000000 	nop
    4cc4:	00000000 	nop
    4cc8:	00000000 	nop
    4ccc:	00000000 	nop
    4cd0:	00000000 	nop
    4cd4:	00000000 	nop
    4cd8:	00000000 	nop
    4cdc:	00000000 	nop
    4ce0:	00000000 	nop
    4ce4:	00000000 	nop
    4ce8:	00000000 	nop
    4cec:	00000000 	nop
    4cf0:	00000000 	nop
    4cf4:	00000000 	nop
    4cf8:	00000000 	nop
    4cfc:	00000000 	nop
    4d00:	00000000 	nop
    4d04:	00000000 	nop
    4d08:	00000000 	nop
    4d0c:	00000000 	nop
    4d10:	00000000 	nop
    4d14:	00000000 	nop
    4d18:	00000000 	nop
    4d1c:	00000000 	nop
    4d20:	00000000 	nop
    4d24:	00000000 	nop
    4d28:	00000000 	nop
    4d2c:	00000000 	nop
    4d30:	00000000 	nop
    4d34:	00000000 	nop
    4d38:	00000000 	nop
    4d3c:	00000000 	nop
    4d40:	00000000 	nop
    4d44:	00000000 	nop
    4d48:	00000000 	nop
    4d4c:	00000000 	nop
    4d50:	00000000 	nop
    4d54:	00000000 	nop
    4d58:	00000000 	nop
    4d5c:	00000000 	nop
    4d60:	00000000 	nop
    4d64:	00000000 	nop
    4d68:	00000000 	nop
    4d6c:	00000000 	nop
    4d70:	00000000 	nop
    4d74:	00000000 	nop
    4d78:	00000000 	nop
    4d7c:	00000000 	nop
    4d80:	00000000 	nop
    4d84:	00000000 	nop
    4d88:	00000000 	nop
    4d8c:	00000000 	nop
    4d90:	00000000 	nop
    4d94:	00000000 	nop
    4d98:	00000000 	nop
    4d9c:	00000000 	nop
    4da0:	00000000 	nop
    4da4:	00000000 	nop
    4da8:	00000000 	nop
    4dac:	00000000 	nop
    4db0:	00000000 	nop
    4db4:	00000000 	nop
    4db8:	00000000 	nop
    4dbc:	00000000 	nop
    4dc0:	00000000 	nop
    4dc4:	00000000 	nop
    4dc8:	00000000 	nop
    4dcc:	00000000 	nop
    4dd0:	00000000 	nop
    4dd4:	00000000 	nop
    4dd8:	00000000 	nop
    4ddc:	00000000 	nop
    4de0:	00000000 	nop
    4de4:	00000000 	nop
    4de8:	00000000 	nop
    4dec:	00000000 	nop
    4df0:	00000000 	nop
    4df4:	00000000 	nop
    4df8:	00000000 	nop
    4dfc:	00000000 	nop
    4e00:	00000000 	nop
    4e04:	00000000 	nop
    4e08:	00000000 	nop
    4e0c:	00000000 	nop
    4e10:	00000000 	nop
    4e14:	00000000 	nop
    4e18:	00000000 	nop
    4e1c:	00000000 	nop
    4e20:	00000000 	nop
    4e24:	00000000 	nop
    4e28:	00000000 	nop
    4e2c:	00000000 	nop
    4e30:	00000000 	nop
    4e34:	00000000 	nop
    4e38:	00000000 	nop
    4e3c:	00000000 	nop
    4e40:	00000000 	nop
    4e44:	00000000 	nop
    4e48:	00000000 	nop
    4e4c:	00000000 	nop
    4e50:	00000000 	nop
    4e54:	00000000 	nop
    4e58:	00000000 	nop
    4e5c:	00000000 	nop
    4e60:	00000000 	nop
    4e64:	00000000 	nop
    4e68:	00000000 	nop
    4e6c:	00000000 	nop
    4e70:	00000000 	nop
    4e74:	00000000 	nop
    4e78:	00000000 	nop
    4e7c:	00000000 	nop
    4e80:	00000000 	nop
    4e84:	00000000 	nop
    4e88:	00000000 	nop
    4e8c:	00000000 	nop
    4e90:	00000000 	nop
    4e94:	00000000 	nop
    4e98:	00000000 	nop
    4e9c:	00000000 	nop
    4ea0:	00000000 	nop
    4ea4:	00000000 	nop
    4ea8:	00000000 	nop
    4eac:	00000000 	nop
    4eb0:	00000000 	nop
    4eb4:	00000000 	nop
    4eb8:	00000000 	nop
    4ebc:	00000000 	nop
    4ec0:	00000000 	nop
    4ec4:	00000000 	nop
    4ec8:	00000000 	nop
    4ecc:	00000000 	nop
    4ed0:	00000000 	nop
    4ed4:	00000000 	nop
    4ed8:	00000000 	nop
    4edc:	00000000 	nop
    4ee0:	00000000 	nop
    4ee4:	00000000 	nop
    4ee8:	00000000 	nop
    4eec:	00000000 	nop
    4ef0:	00000000 	nop
    4ef4:	00000000 	nop
    4ef8:	00000000 	nop
    4efc:	00000000 	nop
    4f00:	00000000 	nop
    4f04:	00000000 	nop
    4f08:	00000000 	nop
    4f0c:	00000000 	nop
    4f10:	00000000 	nop
    4f14:	00000000 	nop
    4f18:	00000000 	nop
    4f1c:	00000000 	nop
    4f20:	00000000 	nop
    4f24:	00000000 	nop
    4f28:	00000000 	nop
    4f2c:	00000000 	nop
    4f30:	00000000 	nop
    4f34:	00000000 	nop
    4f38:	00000000 	nop
    4f3c:	00000000 	nop
    4f40:	00000000 	nop
    4f44:	00000000 	nop
    4f48:	00000000 	nop
    4f4c:	00000000 	nop
    4f50:	00000000 	nop
    4f54:	00000000 	nop
    4f58:	00000000 	nop
    4f5c:	00000000 	nop
    4f60:	00000000 	nop
    4f64:	00000000 	nop
    4f68:	00000000 	nop
    4f6c:	00000000 	nop
    4f70:	00000000 	nop
    4f74:	00000000 	nop
    4f78:	00000000 	nop
    4f7c:	00000000 	nop
    4f80:	00000000 	nop
    4f84:	00000000 	nop
    4f88:	00000000 	nop
    4f8c:	00000000 	nop
    4f90:	00000000 	nop
    4f94:	00000000 	nop
    4f98:	00000000 	nop
    4f9c:	00000000 	nop
    4fa0:	00000000 	nop
    4fa4:	00000000 	nop
    4fa8:	00000000 	nop
    4fac:	00000000 	nop
    4fb0:	00000000 	nop
    4fb4:	00000000 	nop
    4fb8:	00000000 	nop
    4fbc:	00000000 	nop
    4fc0:	00000000 	nop
    4fc4:	00000000 	nop
    4fc8:	00000000 	nop
    4fcc:	00000000 	nop
    4fd0:	00000000 	nop
    4fd4:	00000000 	nop
    4fd8:	00000000 	nop
    4fdc:	00000000 	nop
    4fe0:	00000000 	nop
    4fe4:	00000000 	nop
    4fe8:	00000000 	nop
    4fec:	00000000 	nop
    4ff0:	00000000 	nop
    4ff4:	00000000 	nop
    4ff8:	00000000 	nop
    4ffc:	00000000 	nop
    5000:	00000000 	nop
    5004:	00000000 	nop
    5008:	00000000 	nop
    500c:	00000000 	nop
    5010:	00000000 	nop
    5014:	00000000 	nop
    5018:	00000000 	nop
    501c:	00000000 	nop
    5020:	00000000 	nop
    5024:	00000000 	nop
    5028:	00000000 	nop
    502c:	00000000 	nop
    5030:	00000000 	nop
    5034:	00000000 	nop
    5038:	00000000 	nop
    503c:	00000000 	nop
    5040:	00000000 	nop
    5044:	00000000 	nop
    5048:	00000000 	nop
    504c:	00000000 	nop
    5050:	00000000 	nop
    5054:	00000000 	nop
    5058:	00000000 	nop
    505c:	00000000 	nop
    5060:	00000000 	nop
    5064:	00000000 	nop
    5068:	00000000 	nop
    506c:	00000000 	nop
    5070:	00000000 	nop
    5074:	00000000 	nop
    5078:	00000000 	nop
    507c:	00000000 	nop
    5080:	00000000 	nop
    5084:	00000000 	nop
    5088:	00000000 	nop
    508c:	00000000 	nop
    5090:	00000000 	nop
    5094:	00000000 	nop
    5098:	00000000 	nop
    509c:	00000000 	nop
    50a0:	00000000 	nop
    50a4:	00000000 	nop
    50a8:	00000000 	nop
    50ac:	00000000 	nop
    50b0:	00000000 	nop
    50b4:	00000000 	nop
    50b8:	00000000 	nop
    50bc:	00000000 	nop
    50c0:	00000000 	nop
    50c4:	00000000 	nop
    50c8:	00000000 	nop
    50cc:	00000000 	nop
    50d0:	00000000 	nop
    50d4:	00000000 	nop
    50d8:	00000000 	nop
    50dc:	00000000 	nop
    50e0:	00000000 	nop
    50e4:	00000000 	nop
    50e8:	00000000 	nop
    50ec:	00000000 	nop
    50f0:	00000000 	nop
    50f4:	00000000 	nop
    50f8:	00000000 	nop
    50fc:	00000000 	nop
    5100:	00000000 	nop
    5104:	00000000 	nop
    5108:	00000000 	nop
    510c:	00000000 	nop
    5110:	00000000 	nop
    5114:	00000000 	nop
    5118:	00000000 	nop
    511c:	00000000 	nop
    5120:	00000000 	nop
    5124:	00000000 	nop
    5128:	00000000 	nop
    512c:	00000000 	nop
    5130:	00000000 	nop
    5134:	00000000 	nop
    5138:	00000000 	nop
    513c:	00000000 	nop
    5140:	00000000 	nop
    5144:	00000000 	nop
    5148:	00000000 	nop
    514c:	00000000 	nop
    5150:	00000000 	nop
    5154:	00000000 	nop
    5158:	00000000 	nop
    515c:	00000000 	nop
    5160:	00000000 	nop
    5164:	00000000 	nop
    5168:	00000000 	nop
    516c:	00000000 	nop
    5170:	00000000 	nop
    5174:	00000000 	nop
    5178:	00000000 	nop
    517c:	00000000 	nop
    5180:	00000000 	nop
    5184:	00000000 	nop
    5188:	00000000 	nop
    518c:	00000000 	nop
    5190:	00000000 	nop
    5194:	00000000 	nop
    5198:	00000000 	nop
    519c:	00000000 	nop
    51a0:	00000000 	nop
    51a4:	00000000 	nop
    51a8:	00000000 	nop
    51ac:	00000000 	nop
    51b0:	00000000 	nop
    51b4:	00000000 	nop
    51b8:	00000000 	nop
    51bc:	00000000 	nop
    51c0:	00000000 	nop
    51c4:	00000000 	nop
    51c8:	00000000 	nop
    51cc:	00000000 	nop
    51d0:	00000000 	nop
    51d4:	00000000 	nop
    51d8:	00000000 	nop
    51dc:	00000000 	nop
    51e0:	00000000 	nop
    51e4:	00000000 	nop
    51e8:	00000000 	nop
    51ec:	00000000 	nop
    51f0:	00000000 	nop
    51f4:	00000000 	nop
    51f8:	00000000 	nop
    51fc:	00000000 	nop
    5200:	00000000 	nop
    5204:	00000000 	nop
    5208:	00000000 	nop
    520c:	00000000 	nop
    5210:	00000000 	nop
    5214:	00000000 	nop
    5218:	00000000 	nop
    521c:	00000000 	nop
    5220:	00000000 	nop
    5224:	00000000 	nop
    5228:	00000000 	nop
    522c:	00000000 	nop
    5230:	00000000 	nop
    5234:	00000000 	nop
    5238:	00000000 	nop
    523c:	00000000 	nop
    5240:	00000000 	nop
    5244:	00000000 	nop
    5248:	00000000 	nop
    524c:	00000000 	nop
    5250:	00000000 	nop
    5254:	00000000 	nop
    5258:	00000000 	nop
    525c:	00000000 	nop
    5260:	00000000 	nop
    5264:	00000000 	nop
    5268:	00000000 	nop
    526c:	00000000 	nop
    5270:	00000000 	nop
    5274:	00000000 	nop
    5278:	00000000 	nop
    527c:	00000000 	nop
    5280:	00000000 	nop
    5284:	00000000 	nop
    5288:	00000000 	nop
    528c:	00000000 	nop
    5290:	00000000 	nop
    5294:	00000000 	nop
    5298:	00000000 	nop
    529c:	00000000 	nop
    52a0:	00000000 	nop
    52a4:	00000000 	nop
    52a8:	00000000 	nop
    52ac:	00000000 	nop
    52b0:	00000000 	nop
    52b4:	00000000 	nop
    52b8:	00000000 	nop
    52bc:	00000000 	nop
    52c0:	00000000 	nop
    52c4:	00000000 	nop
    52c8:	00000000 	nop
    52cc:	00000000 	nop
    52d0:	00000000 	nop
    52d4:	00000000 	nop
    52d8:	00000000 	nop
    52dc:	00000000 	nop
    52e0:	00000000 	nop
    52e4:	00000000 	nop
    52e8:	00000000 	nop
    52ec:	00000000 	nop
    52f0:	00000000 	nop
    52f4:	00000000 	nop
    52f8:	00000000 	nop
    52fc:	00000000 	nop
    5300:	00000000 	nop
    5304:	00000000 	nop
    5308:	00000000 	nop
    530c:	00000000 	nop
    5310:	00000000 	nop
    5314:	00000000 	nop
    5318:	00000000 	nop
    531c:	00000000 	nop
    5320:	00000000 	nop
    5324:	00000000 	nop
    5328:	00000000 	nop
    532c:	00000000 	nop
    5330:	00000000 	nop
    5334:	00000000 	nop
    5338:	00000000 	nop
    533c:	00000000 	nop
    5340:	00000000 	nop
    5344:	00000000 	nop
    5348:	00000000 	nop
    534c:	00000000 	nop
    5350:	00000000 	nop
    5354:	00000000 	nop
    5358:	00000000 	nop
    535c:	00000000 	nop
    5360:	00000000 	nop
    5364:	00000000 	nop
    5368:	00000000 	nop
    536c:	00000000 	nop
    5370:	00000000 	nop
    5374:	00000000 	nop
    5378:	00000000 	nop
    537c:	00000000 	nop
    5380:	00000000 	nop
    5384:	00000000 	nop
    5388:	00000000 	nop
    538c:	00000000 	nop
    5390:	00000000 	nop
    5394:	00000000 	nop
    5398:	00000000 	nop
    539c:	00000000 	nop
    53a0:	00000000 	nop
    53a4:	00000000 	nop
    53a8:	00000000 	nop
    53ac:	00000000 	nop
    53b0:	00000000 	nop
    53b4:	00000000 	nop
    53b8:	00000000 	nop
    53bc:	00000000 	nop
    53c0:	00000000 	nop
    53c4:	00000000 	nop
    53c8:	00000000 	nop
    53cc:	00000000 	nop
    53d0:	00000000 	nop
    53d4:	00000000 	nop
    53d8:	00000000 	nop
    53dc:	00000000 	nop
    53e0:	00000000 	nop
    53e4:	00000000 	nop
    53e8:	00000000 	nop
    53ec:	00000000 	nop
    53f0:	00000000 	nop
    53f4:	00000000 	nop
    53f8:	00000000 	nop
    53fc:	00000000 	nop
    5400:	00000000 	nop
    5404:	00000000 	nop
    5408:	00000000 	nop
    540c:	00000000 	nop
    5410:	00000000 	nop
    5414:	00000000 	nop
    5418:	00000000 	nop
    541c:	00000000 	nop
    5420:	00000000 	nop
    5424:	00000000 	nop
    5428:	00000000 	nop
    542c:	00000000 	nop
    5430:	00000000 	nop
    5434:	00000000 	nop
    5438:	00000000 	nop
    543c:	00000000 	nop
    5440:	00000000 	nop
    5444:	00000000 	nop
    5448:	00000000 	nop
    544c:	00000000 	nop
    5450:	00000000 	nop
    5454:	00000000 	nop
    5458:	00000000 	nop
    545c:	00000000 	nop
    5460:	00000000 	nop
    5464:	00000000 	nop
    5468:	00000000 	nop
    546c:	00000000 	nop
    5470:	00000000 	nop
    5474:	00000000 	nop
    5478:	00000000 	nop
    547c:	00000000 	nop
    5480:	00000000 	nop
    5484:	00000000 	nop
    5488:	00000000 	nop
    548c:	00000000 	nop
    5490:	00000000 	nop
    5494:	00000000 	nop
    5498:	00000000 	nop
    549c:	00000000 	nop
    54a0:	00000000 	nop
    54a4:	00000000 	nop
    54a8:	00000000 	nop
    54ac:	00000000 	nop
    54b0:	00000000 	nop
    54b4:	00000000 	nop
    54b8:	00000000 	nop
    54bc:	00000000 	nop
    54c0:	00000000 	nop
    54c4:	00000000 	nop
    54c8:	00000000 	nop
    54cc:	00000000 	nop
    54d0:	00000000 	nop
    54d4:	00000000 	nop
    54d8:	00000000 	nop
    54dc:	00000000 	nop
    54e0:	00000000 	nop
    54e4:	00000000 	nop
    54e8:	00000000 	nop
    54ec:	00000000 	nop
    54f0:	00000000 	nop
    54f4:	00000000 	nop
    54f8:	00000000 	nop
    54fc:	00000000 	nop
    5500:	00000000 	nop
    5504:	00000000 	nop
    5508:	00000000 	nop
    550c:	00000000 	nop
    5510:	00000000 	nop
    5514:	00000000 	nop
    5518:	00000000 	nop
    551c:	00000000 	nop
    5520:	00000000 	nop
    5524:	00000000 	nop
    5528:	00000000 	nop
    552c:	00000000 	nop
    5530:	00000000 	nop
    5534:	00000000 	nop
    5538:	00000000 	nop
    553c:	00000000 	nop
    5540:	00000000 	nop
    5544:	00000000 	nop
    5548:	00000000 	nop
    554c:	00000000 	nop
    5550:	00000000 	nop
    5554:	00000000 	nop
    5558:	00000000 	nop
    555c:	00000000 	nop
    5560:	00000000 	nop
    5564:	00000000 	nop
    5568:	00000000 	nop
    556c:	00000000 	nop
    5570:	00000000 	nop
    5574:	00000000 	nop
    5578:	00000000 	nop
    557c:	00000000 	nop
    5580:	00000000 	nop
    5584:	00000000 	nop
    5588:	00000000 	nop
    558c:	00000000 	nop
    5590:	00000000 	nop
    5594:	00000000 	nop
    5598:	00000000 	nop
    559c:	00000000 	nop
    55a0:	00000000 	nop
    55a4:	00000000 	nop
    55a8:	00000000 	nop
    55ac:	00000000 	nop
    55b0:	00000000 	nop
    55b4:	00000000 	nop
    55b8:	00000000 	nop
    55bc:	00000000 	nop
    55c0:	00000000 	nop
    55c4:	00000000 	nop
    55c8:	00000000 	nop
    55cc:	00000000 	nop
    55d0:	00000000 	nop
    55d4:	00000000 	nop
    55d8:	00000000 	nop
    55dc:	00000000 	nop
    55e0:	00000000 	nop
    55e4:	00000000 	nop
    55e8:	00000000 	nop
    55ec:	00000000 	nop
    55f0:	00000000 	nop
    55f4:	00000000 	nop
    55f8:	00000000 	nop
    55fc:	00000000 	nop
    5600:	00000000 	nop
    5604:	00000000 	nop
    5608:	00000000 	nop
    560c:	00000000 	nop
    5610:	00000000 	nop
    5614:	00000000 	nop
    5618:	00000000 	nop
    561c:	00000000 	nop
    5620:	00000000 	nop
    5624:	00000000 	nop
    5628:	00000000 	nop
    562c:	00000000 	nop
    5630:	00000000 	nop
    5634:	00000000 	nop
    5638:	00000000 	nop
    563c:	00000000 	nop
    5640:	00000000 	nop
    5644:	00000000 	nop
    5648:	00000000 	nop
    564c:	00000000 	nop
    5650:	00000000 	nop
    5654:	00000000 	nop
    5658:	00000000 	nop
    565c:	00000000 	nop
    5660:	00000000 	nop
    5664:	00000000 	nop
    5668:	00000000 	nop
    566c:	00000000 	nop
    5670:	00000000 	nop
    5674:	00000000 	nop
    5678:	00000000 	nop
    567c:	00000000 	nop
    5680:	00000000 	nop
    5684:	00000000 	nop
    5688:	00000000 	nop
    568c:	00000000 	nop
    5690:	00000000 	nop
    5694:	00000000 	nop
    5698:	00000000 	nop
    569c:	00000000 	nop
    56a0:	00000000 	nop
    56a4:	00000000 	nop
    56a8:	00000000 	nop
    56ac:	00000000 	nop
    56b0:	00000000 	nop
    56b4:	00000000 	nop
    56b8:	00000000 	nop
    56bc:	00000000 	nop
    56c0:	00000000 	nop
    56c4:	00000000 	nop
    56c8:	00000000 	nop
    56cc:	00000000 	nop
    56d0:	00000000 	nop
    56d4:	00000000 	nop
    56d8:	00000000 	nop
    56dc:	00000000 	nop
    56e0:	00000000 	nop
    56e4:	00000000 	nop
    56e8:	00000000 	nop
    56ec:	00000000 	nop
    56f0:	00000000 	nop
    56f4:	00000000 	nop
    56f8:	00000000 	nop
    56fc:	00000000 	nop
    5700:	00000000 	nop
    5704:	00000000 	nop
    5708:	00000000 	nop
    570c:	00000000 	nop
    5710:	00000000 	nop
    5714:	00000000 	nop
    5718:	00000000 	nop
    571c:	00000000 	nop
    5720:	00000000 	nop
    5724:	00000000 	nop
    5728:	00000000 	nop
    572c:	00000000 	nop
    5730:	00000000 	nop
    5734:	00000000 	nop
    5738:	00000000 	nop
    573c:	00000000 	nop
    5740:	00000000 	nop
    5744:	00000000 	nop
    5748:	00000000 	nop
    574c:	00000000 	nop
    5750:	00000000 	nop
    5754:	00000000 	nop
    5758:	00000000 	nop
    575c:	00000000 	nop
    5760:	00000000 	nop
    5764:	00000000 	nop
    5768:	00000000 	nop
    576c:	00000000 	nop
    5770:	00000000 	nop
    5774:	00000000 	nop
    5778:	00000000 	nop
    577c:	00000000 	nop
    5780:	00000000 	nop
    5784:	00000000 	nop
    5788:	00000000 	nop
    578c:	00000000 	nop
    5790:	00000000 	nop
    5794:	00000000 	nop
    5798:	00000000 	nop
    579c:	00000000 	nop
    57a0:	00000000 	nop
    57a4:	00000000 	nop
    57a8:	00000000 	nop
    57ac:	00000000 	nop
    57b0:	00000000 	nop
    57b4:	00000000 	nop
    57b8:	00000000 	nop
    57bc:	00000000 	nop
    57c0:	00000000 	nop
    57c4:	00000000 	nop
    57c8:	00000000 	nop
    57cc:	00000000 	nop
    57d0:	00000000 	nop
    57d4:	00000000 	nop
    57d8:	00000000 	nop
    57dc:	00000000 	nop
    57e0:	00000000 	nop
    57e4:	00000000 	nop
    57e8:	00000000 	nop
    57ec:	00000000 	nop
    57f0:	00000000 	nop
    57f4:	00000000 	nop
    57f8:	00000000 	nop
    57fc:	00000000 	nop
    5800:	00000000 	nop
    5804:	00000000 	nop
    5808:	00000000 	nop
    580c:	00000000 	nop
    5810:	00000000 	nop
    5814:	00000000 	nop
    5818:	00000000 	nop
    581c:	00000000 	nop
    5820:	00000000 	nop
    5824:	00000000 	nop
    5828:	00000000 	nop
    582c:	00000000 	nop
    5830:	00000000 	nop
    5834:	00000000 	nop
    5838:	00000000 	nop
    583c:	00000000 	nop
    5840:	00000000 	nop
    5844:	00000000 	nop
    5848:	00000000 	nop
    584c:	00000000 	nop
    5850:	00000000 	nop
    5854:	00000000 	nop
    5858:	00000000 	nop
    585c:	00000000 	nop
    5860:	00000000 	nop
    5864:	00000000 	nop
    5868:	00000000 	nop
    586c:	00000000 	nop
    5870:	00000000 	nop
    5874:	00000000 	nop
    5878:	00000000 	nop
    587c:	00000000 	nop
    5880:	00000000 	nop
    5884:	00000000 	nop
    5888:	00000000 	nop
    588c:	00000000 	nop
    5890:	00000000 	nop
    5894:	00000000 	nop
    5898:	00000000 	nop
    589c:	00000000 	nop
    58a0:	00000000 	nop
    58a4:	00000000 	nop
    58a8:	00000000 	nop
    58ac:	00000000 	nop
    58b0:	00000000 	nop
    58b4:	00000000 	nop
    58b8:	00000000 	nop
    58bc:	00000000 	nop
    58c0:	00000000 	nop
    58c4:	00000000 	nop
    58c8:	00000000 	nop
    58cc:	00000000 	nop
    58d0:	00000000 	nop
    58d4:	00000000 	nop
    58d8:	00000000 	nop
    58dc:	00000000 	nop
    58e0:	00000000 	nop
    58e4:	00000000 	nop
    58e8:	00000000 	nop
    58ec:	00000000 	nop
    58f0:	00000000 	nop
    58f4:	00000000 	nop
    58f8:	00000000 	nop
    58fc:	00000000 	nop
    5900:	00000000 	nop
    5904:	00000000 	nop
    5908:	00000000 	nop
    590c:	00000000 	nop
    5910:	00000000 	nop
    5914:	00000000 	nop
    5918:	00000000 	nop
    591c:	00000000 	nop
    5920:	00000000 	nop
    5924:	00000000 	nop
    5928:	00000000 	nop
    592c:	00000000 	nop
    5930:	00000000 	nop
    5934:	00000000 	nop
    5938:	00000000 	nop
    593c:	00000000 	nop
    5940:	00000000 	nop
    5944:	00000000 	nop
    5948:	00000000 	nop
    594c:	00000000 	nop
    5950:	00000000 	nop
    5954:	00000000 	nop
    5958:	00000000 	nop
    595c:	00000000 	nop
    5960:	00000000 	nop
    5964:	00000000 	nop
    5968:	00000000 	nop
    596c:	00000000 	nop
    5970:	00000000 	nop
    5974:	00000000 	nop
    5978:	00000000 	nop
    597c:	00000000 	nop
    5980:	00000000 	nop
    5984:	00000000 	nop
    5988:	00000000 	nop
    598c:	00000000 	nop
    5990:	00000000 	nop
    5994:	00000000 	nop
    5998:	00000000 	nop
    599c:	00000000 	nop
    59a0:	00000000 	nop
    59a4:	00000000 	nop
    59a8:	00000000 	nop
    59ac:	00000000 	nop
    59b0:	00000000 	nop
    59b4:	00000000 	nop
    59b8:	00000000 	nop
    59bc:	00000000 	nop
    59c0:	00000000 	nop
    59c4:	00000000 	nop
    59c8:	00000000 	nop
    59cc:	00000000 	nop
    59d0:	00000000 	nop
    59d4:	00000000 	nop
    59d8:	00000000 	nop
    59dc:	00000000 	nop
    59e0:	00000000 	nop
    59e4:	00000000 	nop
    59e8:	00000000 	nop
    59ec:	00000000 	nop
    59f0:	00000000 	nop
    59f4:	00000000 	nop
    59f8:	00000000 	nop
    59fc:	00000000 	nop
    5a00:	00000000 	nop
    5a04:	00000000 	nop
    5a08:	00000000 	nop
    5a0c:	00000000 	nop
    5a10:	00000000 	nop
    5a14:	00000000 	nop
    5a18:	00000000 	nop
    5a1c:	00000000 	nop
    5a20:	00000000 	nop
    5a24:	00000000 	nop
    5a28:	00000000 	nop
    5a2c:	00000000 	nop
    5a30:	00000000 	nop
    5a34:	00000000 	nop
    5a38:	00000000 	nop
    5a3c:	00000000 	nop
    5a40:	00000000 	nop
    5a44:	00000000 	nop
    5a48:	00000000 	nop
    5a4c:	00000000 	nop
    5a50:	00000000 	nop
    5a54:	00000000 	nop
    5a58:	00000000 	nop
    5a5c:	00000000 	nop
    5a60:	00000000 	nop
    5a64:	00000000 	nop
    5a68:	00000000 	nop
    5a6c:	00000000 	nop
    5a70:	00000000 	nop
    5a74:	00000000 	nop
    5a78:	00000000 	nop
    5a7c:	00000000 	nop
    5a80:	00000000 	nop
    5a84:	00000000 	nop
    5a88:	00000000 	nop
    5a8c:	00000000 	nop
    5a90:	00000000 	nop
    5a94:	00000000 	nop
    5a98:	00000000 	nop
    5a9c:	00000000 	nop
    5aa0:	00000000 	nop
    5aa4:	00000000 	nop
    5aa8:	00000000 	nop
    5aac:	00000000 	nop
    5ab0:	00000000 	nop
    5ab4:	00000000 	nop
    5ab8:	00000000 	nop
    5abc:	00000000 	nop
    5ac0:	00000000 	nop
    5ac4:	00000000 	nop
    5ac8:	00000000 	nop
    5acc:	00000000 	nop
    5ad0:	00000000 	nop
    5ad4:	00000000 	nop
    5ad8:	00000000 	nop
    5adc:	00000000 	nop
    5ae0:	00000000 	nop
    5ae4:	00000000 	nop
    5ae8:	00000000 	nop
    5aec:	00000000 	nop
    5af0:	00000000 	nop
    5af4:	00000000 	nop
    5af8:	00000000 	nop
    5afc:	00000000 	nop
    5b00:	00000000 	nop
    5b04:	00000000 	nop
    5b08:	00000000 	nop
    5b0c:	00000000 	nop
    5b10:	00000000 	nop
    5b14:	00000000 	nop
    5b18:	00000000 	nop
    5b1c:	00000000 	nop
    5b20:	00000000 	nop
    5b24:	00000000 	nop
    5b28:	00000000 	nop
    5b2c:	00000000 	nop
    5b30:	00000000 	nop
    5b34:	00000000 	nop
    5b38:	00000000 	nop
    5b3c:	00000000 	nop
    5b40:	00000000 	nop
    5b44:	00000000 	nop
    5b48:	00000000 	nop
    5b4c:	00000000 	nop
    5b50:	00000000 	nop
    5b54:	00000000 	nop
    5b58:	00000000 	nop
    5b5c:	00000000 	nop
    5b60:	00000000 	nop
    5b64:	00000000 	nop
    5b68:	00000000 	nop
    5b6c:	00000000 	nop
    5b70:	00000000 	nop
    5b74:	00000000 	nop
    5b78:	00000000 	nop
    5b7c:	00000000 	nop
    5b80:	00000000 	nop
    5b84:	00000000 	nop
    5b88:	00000000 	nop
    5b8c:	00000000 	nop
    5b90:	00000000 	nop
    5b94:	00000000 	nop
    5b98:	00000000 	nop
    5b9c:	00000000 	nop
    5ba0:	00000000 	nop
    5ba4:	00000000 	nop
    5ba8:	00000000 	nop
    5bac:	00000000 	nop
    5bb0:	00000000 	nop
    5bb4:	00000000 	nop
    5bb8:	00000000 	nop
    5bbc:	00000000 	nop
    5bc0:	00000000 	nop
    5bc4:	00000000 	nop
    5bc8:	00000000 	nop
    5bcc:	00000000 	nop
    5bd0:	00000000 	nop
    5bd4:	00000000 	nop
    5bd8:	00000000 	nop
    5bdc:	00000000 	nop
    5be0:	00000000 	nop
    5be4:	00000000 	nop
    5be8:	00000000 	nop
    5bec:	00000000 	nop
    5bf0:	00000000 	nop
    5bf4:	00000000 	nop
    5bf8:	00000000 	nop
    5bfc:	00000000 	nop
    5c00:	00000000 	nop
    5c04:	00000000 	nop
    5c08:	00000000 	nop
    5c0c:	00000000 	nop
    5c10:	00000000 	nop
    5c14:	00000000 	nop
    5c18:	00000000 	nop
    5c1c:	00000000 	nop
    5c20:	00000000 	nop
    5c24:	00000000 	nop
    5c28:	00000000 	nop
    5c2c:	00000000 	nop
    5c30:	00000000 	nop
    5c34:	00000000 	nop
    5c38:	00000000 	nop
    5c3c:	00000000 	nop
    5c40:	00000000 	nop
    5c44:	00000000 	nop
    5c48:	00000000 	nop
    5c4c:	00000000 	nop
    5c50:	00000000 	nop
    5c54:	00000000 	nop
    5c58:	00000000 	nop
    5c5c:	00000000 	nop
    5c60:	00000000 	nop
    5c64:	00000000 	nop
    5c68:	00000000 	nop
    5c6c:	00000000 	nop
    5c70:	00000000 	nop
    5c74:	00000000 	nop
    5c78:	00000000 	nop
    5c7c:	00000000 	nop
    5c80:	00000000 	nop
    5c84:	00000000 	nop
    5c88:	00000000 	nop
    5c8c:	00000000 	nop
    5c90:	00000000 	nop
    5c94:	00000000 	nop
    5c98:	00000000 	nop
    5c9c:	00000000 	nop
    5ca0:	00000000 	nop
    5ca4:	00000000 	nop
    5ca8:	00000000 	nop
    5cac:	00000000 	nop
    5cb0:	00000000 	nop
    5cb4:	00000000 	nop
    5cb8:	00000000 	nop
    5cbc:	00000000 	nop
    5cc0:	00000000 	nop
    5cc4:	00000000 	nop
    5cc8:	00000000 	nop
    5ccc:	00000000 	nop
    5cd0:	00000000 	nop
    5cd4:	00000000 	nop
    5cd8:	00000000 	nop
    5cdc:	00000000 	nop
    5ce0:	00000000 	nop
    5ce4:	00000000 	nop
    5ce8:	00000000 	nop
    5cec:	00000000 	nop
    5cf0:	00000000 	nop
    5cf4:	00000000 	nop
    5cf8:	00000000 	nop
    5cfc:	00000000 	nop
    5d00:	00000000 	nop
    5d04:	00000000 	nop
    5d08:	00000000 	nop
    5d0c:	00000000 	nop
    5d10:	00000000 	nop
    5d14:	00000000 	nop
    5d18:	00000000 	nop
    5d1c:	00000000 	nop
    5d20:	00000000 	nop
    5d24:	00000000 	nop
    5d28:	00000000 	nop
    5d2c:	00000000 	nop
    5d30:	00000000 	nop
    5d34:	00000000 	nop
    5d38:	00000000 	nop
    5d3c:	00000000 	nop
    5d40:	00000000 	nop
    5d44:	00000000 	nop
    5d48:	00000000 	nop
    5d4c:	00000000 	nop
    5d50:	00000000 	nop
    5d54:	00000000 	nop
    5d58:	00000000 	nop
    5d5c:	00000000 	nop
    5d60:	00000000 	nop
    5d64:	00000000 	nop
    5d68:	00000000 	nop
    5d6c:	00000000 	nop
    5d70:	00000000 	nop
    5d74:	00000000 	nop
    5d78:	00000000 	nop
    5d7c:	00000000 	nop
    5d80:	00000000 	nop
    5d84:	00000000 	nop
    5d88:	00000000 	nop
    5d8c:	00000000 	nop
    5d90:	00000000 	nop
    5d94:	00000000 	nop
    5d98:	00000000 	nop
    5d9c:	00000000 	nop
    5da0:	00000000 	nop
    5da4:	00000000 	nop
    5da8:	00000000 	nop
    5dac:	00000000 	nop
    5db0:	00000000 	nop
    5db4:	00000000 	nop
    5db8:	00000000 	nop
    5dbc:	00000000 	nop
    5dc0:	00000000 	nop
    5dc4:	00000000 	nop
    5dc8:	00000000 	nop
    5dcc:	00000000 	nop
    5dd0:	00000000 	nop
    5dd4:	00000000 	nop
    5dd8:	00000000 	nop
    5ddc:	00000000 	nop
    5de0:	00000000 	nop
    5de4:	00000000 	nop
    5de8:	00000000 	nop
    5dec:	00000000 	nop
    5df0:	00000000 	nop
    5df4:	00000000 	nop
    5df8:	00000000 	nop
    5dfc:	00000000 	nop
    5e00:	00000000 	nop
    5e04:	00000000 	nop
    5e08:	00000000 	nop
    5e0c:	00000000 	nop
    5e10:	00000000 	nop
    5e14:	00000000 	nop
    5e18:	00000000 	nop
    5e1c:	00000000 	nop
    5e20:	00000000 	nop
    5e24:	00000000 	nop
    5e28:	00000000 	nop
    5e2c:	00000000 	nop
    5e30:	00000000 	nop
    5e34:	00000000 	nop
    5e38:	00000000 	nop
    5e3c:	00000000 	nop
    5e40:	00000000 	nop
    5e44:	00000000 	nop
    5e48:	00000000 	nop
    5e4c:	00000000 	nop
    5e50:	00000000 	nop
    5e54:	00000000 	nop
    5e58:	00000000 	nop
    5e5c:	00000000 	nop
    5e60:	00000000 	nop
    5e64:	00000000 	nop
    5e68:	00000000 	nop
    5e6c:	00000000 	nop
    5e70:	00000000 	nop
    5e74:	00000000 	nop
    5e78:	00000000 	nop
    5e7c:	00000000 	nop
    5e80:	00000000 	nop
    5e84:	00000000 	nop
    5e88:	00000000 	nop
    5e8c:	00000000 	nop
    5e90:	00000000 	nop
    5e94:	00000000 	nop
    5e98:	00000000 	nop
    5e9c:	00000000 	nop
    5ea0:	00000000 	nop
    5ea4:	00000000 	nop
    5ea8:	00000000 	nop
    5eac:	00000000 	nop
    5eb0:	00000000 	nop
    5eb4:	00000000 	nop
    5eb8:	00000000 	nop
    5ebc:	00000000 	nop
    5ec0:	00000000 	nop
    5ec4:	00000000 	nop
    5ec8:	00000000 	nop
    5ecc:	00000000 	nop
    5ed0:	00000000 	nop
    5ed4:	00000000 	nop
    5ed8:	00000000 	nop
    5edc:	00000000 	nop
    5ee0:	00000000 	nop
    5ee4:	00000000 	nop
    5ee8:	00000000 	nop
    5eec:	00000000 	nop
    5ef0:	00000000 	nop
    5ef4:	00000000 	nop
    5ef8:	00000000 	nop
    5efc:	00000000 	nop
    5f00:	00000000 	nop
    5f04:	00000000 	nop
    5f08:	00000000 	nop
    5f0c:	00000000 	nop
    5f10:	00000000 	nop
    5f14:	00000000 	nop
    5f18:	00000000 	nop
    5f1c:	00000000 	nop
    5f20:	00000000 	nop
    5f24:	00000000 	nop
    5f28:	00000000 	nop
    5f2c:	00000000 	nop
    5f30:	00000000 	nop
    5f34:	00000000 	nop
    5f38:	00000000 	nop
    5f3c:	00000000 	nop
    5f40:	00000000 	nop
    5f44:	00000000 	nop
    5f48:	00000000 	nop
    5f4c:	00000000 	nop
    5f50:	00000000 	nop
    5f54:	00000000 	nop
    5f58:	00000000 	nop
    5f5c:	00000000 	nop
    5f60:	00000000 	nop
    5f64:	00000000 	nop
    5f68:	00000000 	nop
    5f6c:	00000000 	nop
    5f70:	00000000 	nop
    5f74:	00000000 	nop
    5f78:	00000000 	nop
    5f7c:	00000000 	nop
    5f80:	00000000 	nop
    5f84:	00000000 	nop
    5f88:	00000000 	nop
    5f8c:	00000000 	nop
    5f90:	00000000 	nop
    5f94:	00000000 	nop
    5f98:	00000000 	nop
    5f9c:	00000000 	nop
    5fa0:	00000000 	nop
    5fa4:	00000000 	nop
    5fa8:	00000000 	nop
    5fac:	00000000 	nop
    5fb0:	00000000 	nop
    5fb4:	00000000 	nop
    5fb8:	00000000 	nop
    5fbc:	00000000 	nop
    5fc0:	00000000 	nop
    5fc4:	00000000 	nop
    5fc8:	00000000 	nop
    5fcc:	00000000 	nop
    5fd0:	00000000 	nop
    5fd4:	00000000 	nop
    5fd8:	00000000 	nop
    5fdc:	00000000 	nop
    5fe0:	00000000 	nop
    5fe4:	00000000 	nop
    5fe8:	00000000 	nop
    5fec:	00000000 	nop
    5ff0:	00000000 	nop
    5ff4:	00000000 	nop
    5ff8:	00000000 	nop
    5ffc:	00000000 	nop
    6000:	00000000 	nop
    6004:	00000000 	nop
    6008:	00000000 	nop
    600c:	00000000 	nop
    6010:	00000000 	nop
    6014:	00000000 	nop
    6018:	00000000 	nop
    601c:	00000000 	nop
    6020:	00000000 	nop
    6024:	00000000 	nop
    6028:	00000000 	nop
    602c:	00000000 	nop
    6030:	00000000 	nop
    6034:	00000000 	nop
    6038:	00000000 	nop
    603c:	00000000 	nop
    6040:	00000000 	nop
    6044:	00000000 	nop
    6048:	00000000 	nop
    604c:	00000000 	nop
    6050:	00000000 	nop
    6054:	00000000 	nop
    6058:	00000000 	nop
    605c:	00000000 	nop
    6060:	00000000 	nop
    6064:	00000000 	nop
    6068:	00000000 	nop
    606c:	00000000 	nop
    6070:	00000000 	nop
    6074:	00000000 	nop
    6078:	00000000 	nop
    607c:	00000000 	nop
    6080:	00000000 	nop
    6084:	00000000 	nop
    6088:	00000000 	nop
    608c:	00000000 	nop
    6090:	00000000 	nop
    6094:	00000000 	nop
    6098:	00000000 	nop
    609c:	00000000 	nop
    60a0:	00000000 	nop
    60a4:	00000000 	nop
    60a8:	00000000 	nop
    60ac:	00000000 	nop
    60b0:	00000000 	nop
    60b4:	00000000 	nop
    60b8:	00000000 	nop
    60bc:	00000000 	nop
    60c0:	00000000 	nop
    60c4:	00000000 	nop
    60c8:	00000000 	nop
    60cc:	00000000 	nop
    60d0:	00000000 	nop
    60d4:	00000000 	nop
    60d8:	00000000 	nop
    60dc:	00000000 	nop
    60e0:	00000000 	nop
    60e4:	00000000 	nop
    60e8:	00000000 	nop
    60ec:	00000000 	nop
    60f0:	00000000 	nop
    60f4:	00000000 	nop
    60f8:	00000000 	nop
    60fc:	00000000 	nop
    6100:	00000000 	nop
    6104:	00000000 	nop
    6108:	00000000 	nop
    610c:	00000000 	nop
    6110:	00000000 	nop
    6114:	00000000 	nop
    6118:	00000000 	nop
    611c:	00000000 	nop
    6120:	00000000 	nop
    6124:	00000000 	nop
    6128:	00000000 	nop
    612c:	00000000 	nop
    6130:	00000000 	nop
    6134:	00000000 	nop
    6138:	00000000 	nop
    613c:	00000000 	nop
    6140:	00000000 	nop
    6144:	00000000 	nop
    6148:	00000000 	nop
    614c:	00000000 	nop
    6150:	00000000 	nop
    6154:	00000000 	nop
    6158:	00000000 	nop
    615c:	00000000 	nop
    6160:	00000000 	nop
    6164:	00000000 	nop
    6168:	00000000 	nop
    616c:	00000000 	nop
    6170:	00000000 	nop
    6174:	00000000 	nop
    6178:	00000000 	nop
    617c:	00000000 	nop
    6180:	00000000 	nop
    6184:	00000000 	nop
    6188:	00000000 	nop
    618c:	00000000 	nop
    6190:	00000000 	nop
    6194:	00000000 	nop
    6198:	00000000 	nop
    619c:	00000000 	nop
    61a0:	00000000 	nop
    61a4:	00000000 	nop
    61a8:	00000000 	nop
    61ac:	00000000 	nop
    61b0:	00000000 	nop
    61b4:	00000000 	nop
    61b8:	00000000 	nop
    61bc:	00000000 	nop
    61c0:	00000000 	nop
    61c4:	00000000 	nop
    61c8:	00000000 	nop
    61cc:	00000000 	nop
    61d0:	00000000 	nop
    61d4:	00000000 	nop
    61d8:	00000000 	nop
    61dc:	00000000 	nop
    61e0:	00000000 	nop
    61e4:	00000000 	nop
    61e8:	00000000 	nop
    61ec:	00000000 	nop
    61f0:	00000000 	nop
    61f4:	00000000 	nop
    61f8:	00000000 	nop
    61fc:	00000000 	nop
    6200:	00000000 	nop
    6204:	00000000 	nop
    6208:	00000000 	nop
    620c:	00000000 	nop
    6210:	00000000 	nop
    6214:	00000000 	nop
    6218:	00000000 	nop
    621c:	00000000 	nop
    6220:	00000000 	nop
    6224:	00000000 	nop
    6228:	00000000 	nop
    622c:	00000000 	nop
    6230:	00000000 	nop
    6234:	00000000 	nop
    6238:	00000000 	nop
    623c:	00000000 	nop
    6240:	00000000 	nop
    6244:	00000000 	nop
    6248:	00000000 	nop
    624c:	00000000 	nop
    6250:	00000000 	nop
    6254:	00000000 	nop
    6258:	00000000 	nop
    625c:	00000000 	nop
    6260:	00000000 	nop
    6264:	00000000 	nop
    6268:	00000000 	nop
    626c:	00000000 	nop
    6270:	00000000 	nop
    6274:	00000000 	nop
    6278:	00000000 	nop
    627c:	00000000 	nop
    6280:	00000000 	nop
    6284:	00000000 	nop
    6288:	00000000 	nop
    628c:	00000000 	nop
    6290:	00000000 	nop
    6294:	00000000 	nop
    6298:	00000000 	nop
    629c:	00000000 	nop
    62a0:	00000000 	nop
    62a4:	00000000 	nop
    62a8:	00000000 	nop
    62ac:	00000000 	nop
    62b0:	00000000 	nop
    62b4:	00000000 	nop
    62b8:	00000000 	nop
    62bc:	00000000 	nop
    62c0:	00000000 	nop
    62c4:	00000000 	nop
    62c8:	00000000 	nop
    62cc:	00000000 	nop
    62d0:	00000000 	nop
    62d4:	00000000 	nop
    62d8:	00000000 	nop
    62dc:	00000000 	nop
    62e0:	00000000 	nop
    62e4:	00000000 	nop
    62e8:	00000000 	nop
    62ec:	00000000 	nop
    62f0:	00000000 	nop
    62f4:	00000000 	nop
    62f8:	00000000 	nop
    62fc:	00000000 	nop
    6300:	00000000 	nop
    6304:	00000000 	nop
    6308:	00000000 	nop
    630c:	00000000 	nop
    6310:	00000000 	nop
    6314:	00000000 	nop
    6318:	00000000 	nop
    631c:	00000000 	nop
    6320:	00000000 	nop
    6324:	00000000 	nop
    6328:	00000000 	nop
    632c:	00000000 	nop
    6330:	00000000 	nop
    6334:	00000000 	nop
    6338:	00000000 	nop
    633c:	00000000 	nop
    6340:	00000000 	nop
    6344:	00000000 	nop
    6348:	00000000 	nop
    634c:	00000000 	nop
    6350:	00000000 	nop
    6354:	00000000 	nop
    6358:	00000000 	nop
    635c:	00000000 	nop
    6360:	00000000 	nop
    6364:	00000000 	nop
    6368:	00000000 	nop
    636c:	00000000 	nop
    6370:	00000000 	nop
    6374:	00000000 	nop
    6378:	00000000 	nop
    637c:	00000000 	nop
    6380:	00000000 	nop
    6384:	00000000 	nop
    6388:	00000000 	nop
    638c:	00000000 	nop
    6390:	00000000 	nop
    6394:	00000000 	nop
    6398:	00000000 	nop
    639c:	00000000 	nop
    63a0:	00000000 	nop
    63a4:	00000000 	nop
    63a8:	00000000 	nop
    63ac:	00000000 	nop
    63b0:	00000000 	nop
    63b4:	00000000 	nop
    63b8:	00000000 	nop
    63bc:	00000000 	nop
    63c0:	00000000 	nop
    63c4:	00000000 	nop
    63c8:	00000000 	nop
    63cc:	00000000 	nop
    63d0:	00000000 	nop
    63d4:	00000000 	nop
    63d8:	00000000 	nop
    63dc:	00000000 	nop
    63e0:	00000000 	nop
    63e4:	00000000 	nop
    63e8:	00000000 	nop
    63ec:	00000000 	nop
    63f0:	00000000 	nop
    63f4:	00000000 	nop
    63f8:	00000000 	nop
    63fc:	00000000 	nop
    6400:	00000000 	nop
    6404:	00000000 	nop
    6408:	00000000 	nop
    640c:	00000000 	nop
    6410:	00000000 	nop
    6414:	00000000 	nop
    6418:	00000000 	nop
    641c:	00000000 	nop
    6420:	00000000 	nop
    6424:	00000000 	nop
    6428:	00000000 	nop
    642c:	00000000 	nop
    6430:	00000000 	nop
    6434:	00000000 	nop
    6438:	00000000 	nop
    643c:	00000000 	nop
    6440:	00000000 	nop
    6444:	00000000 	nop
    6448:	00000000 	nop
    644c:	00000000 	nop
    6450:	00000000 	nop
    6454:	00000000 	nop
    6458:	00000000 	nop
    645c:	00000000 	nop
    6460:	00000000 	nop
    6464:	00000000 	nop
    6468:	00000000 	nop
    646c:	00000000 	nop
    6470:	00000000 	nop
    6474:	00000000 	nop
    6478:	00000000 	nop
    647c:	00000000 	nop
    6480:	00000000 	nop
    6484:	00000000 	nop
    6488:	00000000 	nop
    648c:	00000000 	nop
    6490:	00000000 	nop
    6494:	00000000 	nop
    6498:	00000000 	nop
    649c:	00000000 	nop
    64a0:	00000000 	nop
    64a4:	00000000 	nop
    64a8:	00000000 	nop
    64ac:	00000000 	nop
    64b0:	00000000 	nop
    64b4:	00000000 	nop
    64b8:	00000000 	nop
    64bc:	00000000 	nop
    64c0:	00000000 	nop
    64c4:	00000000 	nop
    64c8:	00000000 	nop
    64cc:	00000000 	nop
    64d0:	00000000 	nop
    64d4:	00000000 	nop
    64d8:	00000000 	nop
    64dc:	00000000 	nop
    64e0:	00000000 	nop
    64e4:	00000000 	nop
    64e8:	00000000 	nop
    64ec:	00000000 	nop
    64f0:	00000000 	nop
    64f4:	00000000 	nop
    64f8:	00000000 	nop
    64fc:	00000000 	nop
    6500:	00000000 	nop
    6504:	00000000 	nop
    6508:	00000000 	nop
    650c:	00000000 	nop
    6510:	00000000 	nop
    6514:	00000000 	nop
    6518:	00000000 	nop
    651c:	00000000 	nop
    6520:	00000000 	nop
    6524:	00000000 	nop
    6528:	00000000 	nop
    652c:	00000000 	nop
    6530:	00000000 	nop
    6534:	00000000 	nop
    6538:	00000000 	nop
    653c:	00000000 	nop
    6540:	00000000 	nop
    6544:	00000000 	nop
    6548:	00000000 	nop
    654c:	00000000 	nop
    6550:	00000000 	nop
    6554:	00000000 	nop
    6558:	00000000 	nop
    655c:	00000000 	nop
    6560:	00000000 	nop
    6564:	00000000 	nop
    6568:	00000000 	nop
    656c:	00000000 	nop
    6570:	00000000 	nop
    6574:	00000000 	nop
    6578:	00000000 	nop
    657c:	00000000 	nop
    6580:	00000000 	nop
    6584:	00000000 	nop
    6588:	00000000 	nop
    658c:	00000000 	nop
    6590:	00000000 	nop
    6594:	00000000 	nop
    6598:	00000000 	nop
    659c:	00000000 	nop
    65a0:	00000000 	nop
    65a4:	00000000 	nop
    65a8:	00000000 	nop
    65ac:	00000000 	nop
    65b0:	00000000 	nop
    65b4:	00000000 	nop
    65b8:	00000000 	nop
    65bc:	00000000 	nop
    65c0:	00000000 	nop
    65c4:	00000000 	nop
    65c8:	00000000 	nop
    65cc:	00000000 	nop
    65d0:	00000000 	nop
    65d4:	00000000 	nop
    65d8:	00000000 	nop
    65dc:	00000000 	nop
    65e0:	00000000 	nop
    65e4:	00000000 	nop
    65e8:	00000000 	nop
    65ec:	00000000 	nop
    65f0:	00000000 	nop
    65f4:	00000000 	nop
    65f8:	00000000 	nop
    65fc:	00000000 	nop
    6600:	00000000 	nop
    6604:	00000000 	nop
    6608:	00000000 	nop
    660c:	00000000 	nop
    6610:	00000000 	nop
    6614:	00000000 	nop
    6618:	00000000 	nop
    661c:	00000000 	nop
    6620:	00000000 	nop
    6624:	00000000 	nop
    6628:	00000000 	nop
    662c:	00000000 	nop
    6630:	00000000 	nop
    6634:	00000000 	nop
    6638:	00000000 	nop
    663c:	00000000 	nop
    6640:	00000000 	nop
    6644:	00000000 	nop
    6648:	00000000 	nop
    664c:	00000000 	nop
    6650:	00000000 	nop
    6654:	00000000 	nop
    6658:	00000000 	nop
    665c:	00000000 	nop
    6660:	00000000 	nop
    6664:	00000000 	nop
    6668:	00000000 	nop
    666c:	00000000 	nop
    6670:	00000000 	nop
    6674:	00000000 	nop
    6678:	00000000 	nop
    667c:	00000000 	nop
    6680:	00000000 	nop
    6684:	00000000 	nop
    6688:	00000000 	nop
    668c:	00000000 	nop
    6690:	00000000 	nop
    6694:	00000000 	nop
    6698:	00000000 	nop
    669c:	00000000 	nop
    66a0:	00000000 	nop
    66a4:	00000000 	nop
    66a8:	00000000 	nop
    66ac:	00000000 	nop
    66b0:	00000000 	nop
    66b4:	00000000 	nop
    66b8:	00000000 	nop
    66bc:	00000000 	nop
    66c0:	00000000 	nop
    66c4:	00000000 	nop
    66c8:	00000000 	nop
    66cc:	00000000 	nop
    66d0:	00000000 	nop
    66d4:	00000000 	nop
    66d8:	00000000 	nop
    66dc:	00000000 	nop
    66e0:	00000000 	nop
    66e4:	00000000 	nop
    66e8:	00000000 	nop
    66ec:	00000000 	nop
    66f0:	00000000 	nop
    66f4:	00000000 	nop
    66f8:	00000000 	nop
    66fc:	00000000 	nop
    6700:	00000000 	nop
    6704:	00000000 	nop
    6708:	00000000 	nop
    670c:	00000000 	nop
    6710:	00000000 	nop
    6714:	00000000 	nop
    6718:	00000000 	nop
    671c:	00000000 	nop
    6720:	00000000 	nop
    6724:	00000000 	nop
    6728:	00000000 	nop
    672c:	00000000 	nop
    6730:	00000000 	nop
    6734:	00000000 	nop
    6738:	00000000 	nop
    673c:	00000000 	nop
    6740:	00000000 	nop
    6744:	00000000 	nop
    6748:	00000000 	nop
    674c:	00000000 	nop
    6750:	00000000 	nop
    6754:	00000000 	nop
    6758:	00000000 	nop
    675c:	00000000 	nop
    6760:	00000000 	nop
    6764:	00000000 	nop
    6768:	00000000 	nop
    676c:	00000000 	nop
    6770:	00000000 	nop
    6774:	00000000 	nop
    6778:	00000000 	nop
    677c:	00000000 	nop
    6780:	00000000 	nop
    6784:	00000000 	nop
    6788:	00000000 	nop
    678c:	00000000 	nop
    6790:	00000000 	nop
    6794:	00000000 	nop
    6798:	00000000 	nop
    679c:	00000000 	nop
    67a0:	00000000 	nop
    67a4:	00000000 	nop
    67a8:	00000000 	nop
    67ac:	00000000 	nop
    67b0:	00000000 	nop
    67b4:	00000000 	nop
    67b8:	00000000 	nop
    67bc:	00000000 	nop
    67c0:	00000000 	nop
    67c4:	00000000 	nop
    67c8:	00000000 	nop
    67cc:	00000000 	nop
    67d0:	00000000 	nop
    67d4:	00000000 	nop
    67d8:	00000000 	nop
    67dc:	00000000 	nop
    67e0:	00000000 	nop
    67e4:	00000000 	nop
    67e8:	00000000 	nop
    67ec:	00000000 	nop
    67f0:	00000000 	nop
    67f4:	00000000 	nop
    67f8:	00000000 	nop
    67fc:	00000000 	nop
    6800:	00000000 	nop
    6804:	00000000 	nop
    6808:	00000000 	nop
    680c:	00000000 	nop
    6810:	00000000 	nop
    6814:	00000000 	nop
    6818:	00000000 	nop
    681c:	00000000 	nop
    6820:	00000000 	nop
    6824:	00000000 	nop
    6828:	00000000 	nop
    682c:	00000000 	nop
    6830:	00000000 	nop
    6834:	00000000 	nop
    6838:	00000000 	nop
    683c:	00000000 	nop
    6840:	00000000 	nop
    6844:	00000000 	nop
    6848:	00000000 	nop
    684c:	00000000 	nop
    6850:	00000000 	nop
    6854:	00000000 	nop
    6858:	00000000 	nop
    685c:	00000000 	nop
    6860:	00000000 	nop
    6864:	00000000 	nop
    6868:	00000000 	nop
    686c:	00000000 	nop
    6870:	00000000 	nop
    6874:	00000000 	nop
    6878:	00000000 	nop
    687c:	00000000 	nop
    6880:	00000000 	nop
    6884:	00000000 	nop
    6888:	00000000 	nop
    688c:	00000000 	nop
    6890:	00000000 	nop
    6894:	00000000 	nop
    6898:	00000000 	nop
    689c:	00000000 	nop
    68a0:	00000000 	nop
    68a4:	00000000 	nop
    68a8:	00000000 	nop
    68ac:	00000000 	nop
    68b0:	00000000 	nop
    68b4:	00000000 	nop
    68b8:	00000000 	nop
    68bc:	00000000 	nop
    68c0:	00000000 	nop
    68c4:	00000000 	nop
    68c8:	00000000 	nop
    68cc:	00000000 	nop
    68d0:	00000000 	nop
    68d4:	00000000 	nop
    68d8:	00000000 	nop
    68dc:	00000000 	nop
    68e0:	00000000 	nop
    68e4:	00000000 	nop
    68e8:	00000000 	nop
    68ec:	00000000 	nop
    68f0:	00000000 	nop
    68f4:	00000000 	nop
    68f8:	00000000 	nop
    68fc:	00000000 	nop
    6900:	00000000 	nop
    6904:	00000000 	nop
    6908:	00000000 	nop
    690c:	00000000 	nop
    6910:	00000000 	nop
    6914:	00000000 	nop
    6918:	00000000 	nop
    691c:	00000000 	nop
    6920:	00000000 	nop
    6924:	00000000 	nop
    6928:	00000000 	nop
    692c:	00000000 	nop
    6930:	00000000 	nop
    6934:	00000000 	nop
    6938:	00000000 	nop
    693c:	00000000 	nop
    6940:	00000000 	nop
    6944:	00000000 	nop
    6948:	00000000 	nop
    694c:	00000000 	nop
    6950:	00000000 	nop
    6954:	00000000 	nop
    6958:	00000000 	nop
    695c:	00000000 	nop
    6960:	00000000 	nop
    6964:	00000000 	nop
    6968:	00000000 	nop
    696c:	00000000 	nop
    6970:	00000000 	nop
    6974:	00000000 	nop
    6978:	00000000 	nop
    697c:	00000000 	nop
    6980:	00000000 	nop
    6984:	00000000 	nop
    6988:	00000000 	nop
    698c:	00000000 	nop
    6990:	00000000 	nop
    6994:	00000000 	nop
    6998:	00000000 	nop
    699c:	00000000 	nop
    69a0:	00000000 	nop
    69a4:	00000000 	nop
    69a8:	00000000 	nop
    69ac:	00000000 	nop
    69b0:	00000000 	nop
    69b4:	00000000 	nop
    69b8:	00000000 	nop
    69bc:	00000000 	nop
    69c0:	00000000 	nop
    69c4:	00000000 	nop
    69c8:	00000000 	nop
    69cc:	00000000 	nop
    69d0:	00000000 	nop
    69d4:	00000000 	nop
    69d8:	00000000 	nop
    69dc:	00000000 	nop
    69e0:	00000000 	nop
    69e4:	00000000 	nop
    69e8:	00000000 	nop
    69ec:	00000000 	nop
    69f0:	00000000 	nop
    69f4:	00000000 	nop
    69f8:	00000000 	nop
    69fc:	00000000 	nop
    6a00:	00000000 	nop
    6a04:	00000000 	nop
    6a08:	00000000 	nop
    6a0c:	00000000 	nop
    6a10:	00000000 	nop
    6a14:	00000000 	nop
    6a18:	00000000 	nop
    6a1c:	00000000 	nop
    6a20:	00000000 	nop
    6a24:	00000000 	nop
    6a28:	00000000 	nop
    6a2c:	00000000 	nop
    6a30:	00000000 	nop
    6a34:	00000000 	nop
    6a38:	00000000 	nop
    6a3c:	00000000 	nop
    6a40:	00000000 	nop
    6a44:	00000000 	nop
    6a48:	00000000 	nop
    6a4c:	00000000 	nop
    6a50:	00000000 	nop
    6a54:	00000000 	nop
    6a58:	00000000 	nop
    6a5c:	00000000 	nop
    6a60:	00000000 	nop
    6a64:	00000000 	nop
    6a68:	00000000 	nop
    6a6c:	00000000 	nop
    6a70:	00000000 	nop
    6a74:	00000000 	nop
    6a78:	00000000 	nop
    6a7c:	00000000 	nop
    6a80:	00000000 	nop
    6a84:	00000000 	nop
    6a88:	00000000 	nop
    6a8c:	00000000 	nop
    6a90:	00000000 	nop
    6a94:	00000000 	nop
    6a98:	00000000 	nop
    6a9c:	00000000 	nop
    6aa0:	00000000 	nop
    6aa4:	00000000 	nop
    6aa8:	00000000 	nop
    6aac:	00000000 	nop
    6ab0:	00000000 	nop
    6ab4:	00000000 	nop
    6ab8:	00000000 	nop
    6abc:	00000000 	nop
    6ac0:	00000000 	nop
    6ac4:	00000000 	nop
    6ac8:	00000000 	nop
    6acc:	00000000 	nop
    6ad0:	00000000 	nop
    6ad4:	00000000 	nop
    6ad8:	00000000 	nop
    6adc:	00000000 	nop
    6ae0:	00000000 	nop
    6ae4:	00000000 	nop
    6ae8:	00000000 	nop
    6aec:	00000000 	nop
    6af0:	00000000 	nop
    6af4:	00000000 	nop
    6af8:	00000000 	nop
    6afc:	00000000 	nop
    6b00:	00000000 	nop
    6b04:	00000000 	nop
    6b08:	00000000 	nop
    6b0c:	00000000 	nop
    6b10:	00000000 	nop
    6b14:	00000000 	nop
    6b18:	00000000 	nop
    6b1c:	00000000 	nop
    6b20:	00000000 	nop
    6b24:	00000000 	nop
    6b28:	00000000 	nop
    6b2c:	00000000 	nop
    6b30:	00000000 	nop
    6b34:	00000000 	nop
    6b38:	00000000 	nop
    6b3c:	00000000 	nop
    6b40:	00000000 	nop
    6b44:	00000000 	nop
    6b48:	00000000 	nop
    6b4c:	00000000 	nop
    6b50:	00000000 	nop
    6b54:	00000000 	nop
    6b58:	00000000 	nop
    6b5c:	00000000 	nop
    6b60:	00000000 	nop
    6b64:	00000000 	nop
    6b68:	00000000 	nop
    6b6c:	00000000 	nop
    6b70:	00000000 	nop
    6b74:	00000000 	nop
    6b78:	00000000 	nop
    6b7c:	00000000 	nop
    6b80:	00000000 	nop
    6b84:	00000000 	nop
    6b88:	00000000 	nop
    6b8c:	00000000 	nop
    6b90:	00000000 	nop
    6b94:	00000000 	nop
    6b98:	00000000 	nop
    6b9c:	00000000 	nop
    6ba0:	00000000 	nop
    6ba4:	00000000 	nop
    6ba8:	00000000 	nop
    6bac:	00000000 	nop
    6bb0:	00000000 	nop
    6bb4:	00000000 	nop
    6bb8:	00000000 	nop
    6bbc:	00000000 	nop
    6bc0:	00000000 	nop
    6bc4:	00000000 	nop
    6bc8:	00000000 	nop
    6bcc:	00000000 	nop
    6bd0:	00000000 	nop
    6bd4:	00000000 	nop
    6bd8:	00000000 	nop
    6bdc:	00000000 	nop
    6be0:	00000000 	nop
    6be4:	00000000 	nop
    6be8:	00000000 	nop
    6bec:	00000000 	nop
    6bf0:	00000000 	nop
    6bf4:	00000000 	nop
    6bf8:	00000000 	nop
    6bfc:	00000000 	nop
    6c00:	00000000 	nop
    6c04:	00000000 	nop
    6c08:	00000000 	nop
    6c0c:	00000000 	nop
    6c10:	00000000 	nop
    6c14:	00000000 	nop
    6c18:	00000000 	nop
    6c1c:	00000000 	nop
    6c20:	00000000 	nop
    6c24:	00000000 	nop
    6c28:	00000000 	nop
    6c2c:	00000000 	nop
    6c30:	00000000 	nop
    6c34:	00000000 	nop
    6c38:	00000000 	nop
    6c3c:	00000000 	nop
    6c40:	00000000 	nop
    6c44:	00000000 	nop
    6c48:	00000000 	nop
    6c4c:	00000000 	nop
    6c50:	00000000 	nop
    6c54:	00000000 	nop
    6c58:	00000000 	nop
    6c5c:	00000000 	nop
    6c60:	00000000 	nop
    6c64:	00000000 	nop
    6c68:	00000000 	nop
    6c6c:	00000000 	nop
    6c70:	00000000 	nop
    6c74:	00000000 	nop
    6c78:	00000000 	nop
    6c7c:	00000000 	nop
    6c80:	00000000 	nop
    6c84:	00000000 	nop
    6c88:	00000000 	nop
    6c8c:	00000000 	nop
    6c90:	00000000 	nop
    6c94:	00000000 	nop
    6c98:	00000000 	nop
    6c9c:	00000000 	nop
    6ca0:	00000000 	nop
    6ca4:	00000000 	nop
    6ca8:	00000000 	nop
    6cac:	00000000 	nop
    6cb0:	00000000 	nop
    6cb4:	00000000 	nop
    6cb8:	00000000 	nop
    6cbc:	00000000 	nop
    6cc0:	00000000 	nop
    6cc4:	00000000 	nop
    6cc8:	00000000 	nop
    6ccc:	00000000 	nop
    6cd0:	00000000 	nop
    6cd4:	00000000 	nop
    6cd8:	00000000 	nop
    6cdc:	00000000 	nop
    6ce0:	00000000 	nop
    6ce4:	00000000 	nop
    6ce8:	00000000 	nop
    6cec:	00000000 	nop
    6cf0:	00000000 	nop
    6cf4:	00000000 	nop
    6cf8:	00000000 	nop
    6cfc:	00000000 	nop
    6d00:	00000000 	nop
    6d04:	00000000 	nop
    6d08:	00000000 	nop
    6d0c:	00000000 	nop
    6d10:	00000000 	nop
    6d14:	00000000 	nop
    6d18:	00000000 	nop
    6d1c:	00000000 	nop
    6d20:	00000000 	nop
    6d24:	00000000 	nop
    6d28:	00000000 	nop
    6d2c:	00000000 	nop
    6d30:	00000000 	nop
    6d34:	00000000 	nop
    6d38:	00000000 	nop
    6d3c:	00000000 	nop
    6d40:	00000000 	nop
    6d44:	00000000 	nop
    6d48:	00000000 	nop
    6d4c:	00000000 	nop
    6d50:	00000000 	nop
    6d54:	00000000 	nop
    6d58:	00000000 	nop
    6d5c:	00000000 	nop
    6d60:	00000000 	nop
    6d64:	00000000 	nop
    6d68:	00000000 	nop
    6d6c:	00000000 	nop
    6d70:	00000000 	nop
    6d74:	00000000 	nop
    6d78:	00000000 	nop
    6d7c:	00000000 	nop
    6d80:	00000000 	nop
    6d84:	00000000 	nop
    6d88:	00000000 	nop
    6d8c:	00000000 	nop
    6d90:	00000000 	nop
    6d94:	00000000 	nop
    6d98:	00000000 	nop
    6d9c:	00000000 	nop
    6da0:	00000000 	nop
    6da4:	00000000 	nop
    6da8:	00000000 	nop
    6dac:	00000000 	nop
    6db0:	00000000 	nop
    6db4:	00000000 	nop
    6db8:	00000000 	nop
    6dbc:	00000000 	nop
    6dc0:	00000000 	nop
    6dc4:	00000000 	nop
    6dc8:	00000000 	nop
    6dcc:	00000000 	nop
    6dd0:	00000000 	nop
    6dd4:	00000000 	nop
    6dd8:	00000000 	nop
    6ddc:	00000000 	nop
    6de0:	00000000 	nop
    6de4:	00000000 	nop
    6de8:	00000000 	nop
    6dec:	00000000 	nop
    6df0:	00000000 	nop
    6df4:	00000000 	nop
    6df8:	00000000 	nop
    6dfc:	00000000 	nop
    6e00:	00000000 	nop
    6e04:	00000000 	nop
    6e08:	00000000 	nop
    6e0c:	00000000 	nop
    6e10:	00000000 	nop
    6e14:	00000000 	nop
    6e18:	00000000 	nop
    6e1c:	00000000 	nop
    6e20:	00000000 	nop
    6e24:	00000000 	nop
    6e28:	00000000 	nop
    6e2c:	00000000 	nop
    6e30:	00000000 	nop
    6e34:	00000000 	nop
    6e38:	00000000 	nop
    6e3c:	00000000 	nop
    6e40:	00000000 	nop
    6e44:	00000000 	nop
    6e48:	00000000 	nop
    6e4c:	00000000 	nop
    6e50:	00000000 	nop
    6e54:	00000000 	nop
    6e58:	00000000 	nop
    6e5c:	00000000 	nop
    6e60:	00000000 	nop
    6e64:	00000000 	nop
    6e68:	00000000 	nop
    6e6c:	00000000 	nop
    6e70:	00000000 	nop
    6e74:	00000000 	nop
    6e78:	00000000 	nop
    6e7c:	00000000 	nop
    6e80:	00000000 	nop
    6e84:	00000000 	nop
    6e88:	00000000 	nop
    6e8c:	00000000 	nop
    6e90:	00000000 	nop
    6e94:	00000000 	nop
    6e98:	00000000 	nop
    6e9c:	00000000 	nop
    6ea0:	00000000 	nop
    6ea4:	00000000 	nop
    6ea8:	00000000 	nop
    6eac:	00000000 	nop
    6eb0:	00000000 	nop
    6eb4:	00000000 	nop
    6eb8:	00000000 	nop
    6ebc:	00000000 	nop
    6ec0:	00000000 	nop
    6ec4:	00000000 	nop
    6ec8:	00000000 	nop
    6ecc:	00000000 	nop
    6ed0:	00000000 	nop
    6ed4:	00000000 	nop
    6ed8:	00000000 	nop
    6edc:	00000000 	nop
    6ee0:	00000000 	nop
    6ee4:	00000000 	nop
    6ee8:	00000000 	nop
    6eec:	00000000 	nop
    6ef0:	00000000 	nop
    6ef4:	00000000 	nop
    6ef8:	00000000 	nop
    6efc:	00000000 	nop
    6f00:	00000000 	nop
    6f04:	00000000 	nop
    6f08:	00000000 	nop
    6f0c:	00000000 	nop
    6f10:	00000000 	nop
    6f14:	00000000 	nop
    6f18:	00000000 	nop
    6f1c:	00000000 	nop
    6f20:	00000000 	nop
    6f24:	00000000 	nop
    6f28:	00000000 	nop
    6f2c:	00000000 	nop
    6f30:	00000000 	nop
    6f34:	00000000 	nop
    6f38:	00000000 	nop
    6f3c:	00000000 	nop
    6f40:	00000000 	nop
    6f44:	00000000 	nop
    6f48:	00000000 	nop
    6f4c:	00000000 	nop
    6f50:	00000000 	nop
    6f54:	00000000 	nop
    6f58:	00000000 	nop
    6f5c:	00000000 	nop
    6f60:	00000000 	nop
    6f64:	00000000 	nop
    6f68:	00000000 	nop
    6f6c:	00000000 	nop
    6f70:	00000000 	nop
    6f74:	00000000 	nop
    6f78:	00000000 	nop
    6f7c:	00000000 	nop
    6f80:	00000000 	nop
    6f84:	00000000 	nop
    6f88:	00000000 	nop
    6f8c:	00000000 	nop
    6f90:	00000000 	nop
    6f94:	00000000 	nop
    6f98:	00000000 	nop
    6f9c:	00000000 	nop
    6fa0:	00000000 	nop
    6fa4:	00000000 	nop
    6fa8:	00000000 	nop
    6fac:	00000000 	nop
    6fb0:	00000000 	nop
    6fb4:	00000000 	nop
    6fb8:	00000000 	nop
    6fbc:	00000000 	nop
    6fc0:	00000000 	nop
    6fc4:	00000000 	nop
    6fc8:	00000000 	nop
    6fcc:	00000000 	nop
    6fd0:	00000000 	nop
    6fd4:	00000000 	nop
    6fd8:	00000000 	nop
    6fdc:	00000000 	nop
    6fe0:	00000000 	nop
    6fe4:	00000000 	nop
    6fe8:	00000000 	nop
    6fec:	00000000 	nop
    6ff0:	00000000 	nop
    6ff4:	00000000 	nop
    6ff8:	00000000 	nop
    6ffc:	00000000 	nop
    7000:	00000000 	nop
    7004:	00000000 	nop
    7008:	00000000 	nop
    700c:	00000000 	nop
    7010:	00000000 	nop
    7014:	00000000 	nop
    7018:	00000000 	nop
    701c:	00000000 	nop
    7020:	00000000 	nop
    7024:	00000000 	nop
    7028:	00000000 	nop
    702c:	00000000 	nop
    7030:	00000000 	nop
    7034:	00000000 	nop
    7038:	00000000 	nop
    703c:	00000000 	nop
    7040:	00000000 	nop
    7044:	00000000 	nop
    7048:	00000000 	nop
    704c:	00000000 	nop
    7050:	00000000 	nop
    7054:	00000000 	nop
    7058:	00000000 	nop
    705c:	00000000 	nop
    7060:	00000000 	nop
    7064:	00000000 	nop
    7068:	00000000 	nop
    706c:	00000000 	nop
    7070:	00000000 	nop
    7074:	00000000 	nop
    7078:	00000000 	nop
    707c:	00000000 	nop
    7080:	00000000 	nop
    7084:	00000000 	nop
    7088:	00000000 	nop
    708c:	00000000 	nop
    7090:	00000000 	nop
    7094:	00000000 	nop
    7098:	00000000 	nop
    709c:	00000000 	nop
    70a0:	00000000 	nop
    70a4:	00000000 	nop
    70a8:	00000000 	nop
    70ac:	00000000 	nop
    70b0:	00000000 	nop
    70b4:	00000000 	nop
    70b8:	00000000 	nop
    70bc:	00000000 	nop
    70c0:	00000000 	nop
    70c4:	00000000 	nop
    70c8:	00000000 	nop
    70cc:	00000000 	nop
    70d0:	00000000 	nop
    70d4:	00000000 	nop
    70d8:	00000000 	nop
    70dc:	00000000 	nop
    70e0:	00000000 	nop
    70e4:	00000000 	nop
    70e8:	00000000 	nop
    70ec:	00000000 	nop
    70f0:	00000000 	nop
    70f4:	00000000 	nop
    70f8:	00000000 	nop
    70fc:	00000000 	nop
    7100:	00000000 	nop
    7104:	00000000 	nop
    7108:	00000000 	nop
    710c:	00000000 	nop
    7110:	00000000 	nop
    7114:	00000000 	nop
    7118:	00000000 	nop
    711c:	00000000 	nop
    7120:	00000000 	nop
    7124:	00000000 	nop
    7128:	00000000 	nop
    712c:	00000000 	nop
    7130:	00000000 	nop
    7134:	00000000 	nop
    7138:	00000000 	nop
    713c:	00000000 	nop
    7140:	00000000 	nop
    7144:	00000000 	nop
    7148:	00000000 	nop
    714c:	00000000 	nop
    7150:	00000000 	nop
    7154:	00000000 	nop
    7158:	00000000 	nop
    715c:	00000000 	nop
    7160:	00000000 	nop
    7164:	00000000 	nop
    7168:	00000000 	nop
    716c:	00000000 	nop
    7170:	00000000 	nop
    7174:	00000000 	nop
    7178:	00000000 	nop
    717c:	00000000 	nop
    7180:	00000000 	nop
    7184:	00000000 	nop
    7188:	00000000 	nop
    718c:	00000000 	nop
    7190:	00000000 	nop
    7194:	00000000 	nop
    7198:	00000000 	nop
    719c:	00000000 	nop
    71a0:	00000000 	nop
    71a4:	00000000 	nop
    71a8:	00000000 	nop
    71ac:	00000000 	nop
    71b0:	00000000 	nop
    71b4:	00000000 	nop
    71b8:	00000000 	nop
    71bc:	00000000 	nop
    71c0:	00000000 	nop
    71c4:	00000000 	nop
    71c8:	00000000 	nop
    71cc:	00000000 	nop
    71d0:	00000000 	nop
    71d4:	00000000 	nop
    71d8:	00000000 	nop
    71dc:	00000000 	nop
    71e0:	00000000 	nop
    71e4:	00000000 	nop
    71e8:	00000000 	nop
    71ec:	00000000 	nop
    71f0:	00000000 	nop
    71f4:	00000000 	nop
    71f8:	00000000 	nop
    71fc:	00000000 	nop
    7200:	00000000 	nop
    7204:	00000000 	nop
    7208:	00000000 	nop
    720c:	00000000 	nop
    7210:	00000000 	nop
    7214:	00000000 	nop
    7218:	00000000 	nop
    721c:	00000000 	nop
    7220:	00000000 	nop
    7224:	00000000 	nop
    7228:	00000000 	nop
    722c:	00000000 	nop
    7230:	00000000 	nop
    7234:	00000000 	nop
    7238:	00000000 	nop
    723c:	00000000 	nop
    7240:	00000000 	nop
    7244:	00000000 	nop
    7248:	00000000 	nop
    724c:	00000000 	nop
    7250:	00000000 	nop
    7254:	00000000 	nop
    7258:	00000000 	nop
    725c:	00000000 	nop
    7260:	00000000 	nop
    7264:	00000000 	nop
    7268:	00000000 	nop
    726c:	00000000 	nop
    7270:	00000000 	nop
    7274:	00000000 	nop
    7278:	00000000 	nop
    727c:	00000000 	nop
    7280:	00000000 	nop
    7284:	00000000 	nop
    7288:	00000000 	nop
    728c:	00000000 	nop
    7290:	00000000 	nop
    7294:	00000000 	nop
    7298:	00000000 	nop
    729c:	00000000 	nop
    72a0:	00000000 	nop
    72a4:	00000000 	nop
    72a8:	00000000 	nop
    72ac:	00000000 	nop
    72b0:	00000000 	nop
    72b4:	00000000 	nop
    72b8:	00000000 	nop
    72bc:	00000000 	nop
    72c0:	00000000 	nop
    72c4:	00000000 	nop
    72c8:	00000000 	nop
    72cc:	00000000 	nop
    72d0:	00000000 	nop
    72d4:	00000000 	nop
    72d8:	00000000 	nop
    72dc:	00000000 	nop
    72e0:	00000000 	nop
    72e4:	00000000 	nop
    72e8:	00000000 	nop
    72ec:	00000000 	nop
    72f0:	00000000 	nop
    72f4:	00000000 	nop
    72f8:	00000000 	nop
    72fc:	00000000 	nop
    7300:	00000000 	nop
    7304:	00000000 	nop
    7308:	00000000 	nop
    730c:	00000000 	nop
    7310:	00000000 	nop
    7314:	00000000 	nop
    7318:	00000000 	nop
    731c:	00000000 	nop
    7320:	00000000 	nop
    7324:	00000000 	nop
    7328:	00000000 	nop
    732c:	00000000 	nop
    7330:	00000000 	nop
    7334:	00000000 	nop
    7338:	00000000 	nop
    733c:	00000000 	nop
    7340:	00000000 	nop
    7344:	00000000 	nop
    7348:	00000000 	nop
    734c:	00000000 	nop
    7350:	00000000 	nop
    7354:	00000000 	nop
    7358:	00000000 	nop
    735c:	00000000 	nop
    7360:	00000000 	nop
    7364:	00000000 	nop
    7368:	00000000 	nop
    736c:	00000000 	nop
    7370:	00000000 	nop
    7374:	00000000 	nop
    7378:	00000000 	nop
    737c:	00000000 	nop
    7380:	00000000 	nop
    7384:	00000000 	nop
    7388:	00000000 	nop
    738c:	00000000 	nop
    7390:	00000000 	nop
    7394:	00000000 	nop
    7398:	00000000 	nop
    739c:	00000000 	nop
    73a0:	00000000 	nop
    73a4:	00000000 	nop
    73a8:	00000000 	nop
    73ac:	00000000 	nop
    73b0:	00000000 	nop
    73b4:	00000000 	nop
    73b8:	00000000 	nop
    73bc:	00000000 	nop
    73c0:	00000000 	nop
    73c4:	00000000 	nop
    73c8:	00000000 	nop
    73cc:	00000000 	nop
    73d0:	00000000 	nop
    73d4:	00000000 	nop
    73d8:	00000000 	nop
    73dc:	00000000 	nop
    73e0:	00000000 	nop
    73e4:	00000000 	nop
    73e8:	00000000 	nop
    73ec:	00000000 	nop
    73f0:	00000000 	nop
    73f4:	00000000 	nop
    73f8:	00000000 	nop
    73fc:	00000000 	nop
    7400:	00000000 	nop
    7404:	00000000 	nop
    7408:	00000000 	nop
    740c:	00000000 	nop
    7410:	00000000 	nop
    7414:	00000000 	nop
    7418:	00000000 	nop
    741c:	00000000 	nop
    7420:	00000000 	nop
    7424:	00000000 	nop
    7428:	00000000 	nop
    742c:	00000000 	nop
    7430:	00000000 	nop
    7434:	00000000 	nop
    7438:	00000000 	nop
    743c:	00000000 	nop
    7440:	00000000 	nop
    7444:	00000000 	nop
    7448:	00000000 	nop
    744c:	00000000 	nop
    7450:	00000000 	nop
    7454:	00000000 	nop
    7458:	00000000 	nop
    745c:	00000000 	nop
    7460:	00000000 	nop
    7464:	00000000 	nop
    7468:	00000000 	nop
    746c:	00000000 	nop
    7470:	00000000 	nop
    7474:	00000000 	nop
    7478:	00000000 	nop
    747c:	00000000 	nop
    7480:	00000000 	nop
    7484:	00000000 	nop
    7488:	00000000 	nop
    748c:	00000000 	nop
    7490:	00000000 	nop
    7494:	00000000 	nop
    7498:	00000000 	nop
    749c:	00000000 	nop
    74a0:	00000000 	nop
    74a4:	00000000 	nop
    74a8:	00000000 	nop
    74ac:	00000000 	nop
    74b0:	00000000 	nop
    74b4:	00000000 	nop
    74b8:	00000000 	nop
    74bc:	00000000 	nop
    74c0:	00000000 	nop
    74c4:	00000000 	nop
    74c8:	00000000 	nop
    74cc:	00000000 	nop
    74d0:	00000000 	nop
    74d4:	00000000 	nop
    74d8:	00000000 	nop
    74dc:	00000000 	nop
    74e0:	00000000 	nop
    74e4:	00000000 	nop
    74e8:	00000000 	nop
    74ec:	00000000 	nop
    74f0:	00000000 	nop
    74f4:	00000000 	nop
    74f8:	00000000 	nop
    74fc:	00000000 	nop
    7500:	00000000 	nop
    7504:	00000000 	nop
    7508:	00000000 	nop
    750c:	00000000 	nop
    7510:	00000000 	nop
    7514:	00000000 	nop
    7518:	00000000 	nop
    751c:	00000000 	nop
    7520:	00000000 	nop
    7524:	00000000 	nop
    7528:	00000000 	nop
    752c:	00000000 	nop
    7530:	00000000 	nop
    7534:	00000000 	nop
    7538:	00000000 	nop
    753c:	00000000 	nop
    7540:	00000000 	nop
    7544:	00000000 	nop
    7548:	00000000 	nop
    754c:	00000000 	nop
    7550:	00000000 	nop
    7554:	00000000 	nop
    7558:	00000000 	nop
    755c:	00000000 	nop
    7560:	00000000 	nop
    7564:	00000000 	nop
    7568:	00000000 	nop
    756c:	00000000 	nop
    7570:	00000000 	nop
    7574:	00000000 	nop
    7578:	00000000 	nop
    757c:	00000000 	nop
    7580:	00000000 	nop
    7584:	00000000 	nop
    7588:	00000000 	nop
    758c:	00000000 	nop
    7590:	00000000 	nop
    7594:	00000000 	nop
    7598:	00000000 	nop
    759c:	00000000 	nop
    75a0:	00000000 	nop
    75a4:	00000000 	nop
    75a8:	00000000 	nop
    75ac:	00000000 	nop
    75b0:	00000000 	nop
    75b4:	00000000 	nop
    75b8:	00000000 	nop
    75bc:	00000000 	nop
    75c0:	00000000 	nop
    75c4:	00000000 	nop
    75c8:	00000000 	nop
    75cc:	00000000 	nop
    75d0:	00000000 	nop
    75d4:	00000000 	nop
    75d8:	00000000 	nop
    75dc:	00000000 	nop
    75e0:	00000000 	nop
    75e4:	00000000 	nop
    75e8:	00000000 	nop
    75ec:	00000000 	nop
    75f0:	00000000 	nop
    75f4:	00000000 	nop
    75f8:	00000000 	nop
    75fc:	00000000 	nop
    7600:	00000000 	nop
    7604:	00000000 	nop
    7608:	00000000 	nop
    760c:	00000000 	nop
    7610:	00000000 	nop
    7614:	00000000 	nop
    7618:	00000000 	nop
    761c:	00000000 	nop
    7620:	00000000 	nop
    7624:	00000000 	nop
    7628:	00000000 	nop
    762c:	00000000 	nop
    7630:	00000000 	nop
    7634:	00000000 	nop
    7638:	00000000 	nop
    763c:	00000000 	nop
    7640:	00000000 	nop
    7644:	00000000 	nop
    7648:	00000000 	nop
    764c:	00000000 	nop
    7650:	00000000 	nop
    7654:	00000000 	nop
    7658:	00000000 	nop
    765c:	00000000 	nop
    7660:	00000000 	nop
    7664:	00000000 	nop
    7668:	00000000 	nop
    766c:	00000000 	nop
    7670:	00000000 	nop
    7674:	00000000 	nop
    7678:	00000000 	nop
    767c:	00000000 	nop
    7680:	00000000 	nop
    7684:	00000000 	nop
    7688:	00000000 	nop
    768c:	00000000 	nop
    7690:	00000000 	nop
    7694:	00000000 	nop
    7698:	00000000 	nop
    769c:	00000000 	nop
    76a0:	00000000 	nop
    76a4:	00000000 	nop
    76a8:	00000000 	nop
    76ac:	00000000 	nop
    76b0:	00000000 	nop
    76b4:	00000000 	nop
    76b8:	00000000 	nop
    76bc:	00000000 	nop
    76c0:	00000000 	nop
    76c4:	00000000 	nop
    76c8:	00000000 	nop
    76cc:	00000000 	nop
    76d0:	00000000 	nop
    76d4:	00000000 	nop
    76d8:	00000000 	nop
    76dc:	00000000 	nop
    76e0:	00000000 	nop
    76e4:	00000000 	nop
    76e8:	00000000 	nop
    76ec:	00000000 	nop
    76f0:	00000000 	nop
    76f4:	00000000 	nop
    76f8:	00000000 	nop
    76fc:	00000000 	nop
    7700:	00000000 	nop
    7704:	00000000 	nop
    7708:	00000000 	nop
    770c:	00000000 	nop
    7710:	00000000 	nop
    7714:	00000000 	nop
    7718:	00000000 	nop
    771c:	00000000 	nop
    7720:	00000000 	nop
    7724:	00000000 	nop
    7728:	00000000 	nop
    772c:	00000000 	nop
    7730:	00000000 	nop
    7734:	00000000 	nop
    7738:	00000000 	nop
    773c:	00000000 	nop
    7740:	00000000 	nop
    7744:	00000000 	nop
    7748:	00000000 	nop
    774c:	00000000 	nop
    7750:	00000000 	nop
    7754:	00000000 	nop
    7758:	00000000 	nop
    775c:	00000000 	nop
    7760:	00000000 	nop
    7764:	00000000 	nop
    7768:	00000000 	nop
    776c:	00000000 	nop
    7770:	00000000 	nop
    7774:	00000000 	nop
    7778:	00000000 	nop
    777c:	00000000 	nop
    7780:	00000000 	nop
    7784:	00000000 	nop
    7788:	00000000 	nop
    778c:	00000000 	nop
    7790:	00000000 	nop
    7794:	00000000 	nop
    7798:	00000000 	nop
    779c:	00000000 	nop
    77a0:	00000000 	nop
    77a4:	00000000 	nop
    77a8:	00000000 	nop
    77ac:	00000000 	nop
    77b0:	00000000 	nop
    77b4:	00000000 	nop
    77b8:	00000000 	nop
    77bc:	00000000 	nop
    77c0:	00000000 	nop
    77c4:	00000000 	nop
    77c8:	00000000 	nop
    77cc:	00000000 	nop
    77d0:	00000000 	nop
    77d4:	00000000 	nop
    77d8:	00000000 	nop
    77dc:	00000000 	nop
    77e0:	00000000 	nop
    77e4:	00000000 	nop
    77e8:	00000000 	nop
    77ec:	00000000 	nop
    77f0:	00000000 	nop
    77f4:	00000000 	nop
    77f8:	00000000 	nop
    77fc:	00000000 	nop
    7800:	00000000 	nop
    7804:	00000000 	nop
    7808:	00000000 	nop
    780c:	00000000 	nop
    7810:	00000000 	nop
    7814:	00000000 	nop
    7818:	00000000 	nop
    781c:	00000000 	nop
    7820:	00000000 	nop
    7824:	00000000 	nop
    7828:	00000000 	nop
    782c:	00000000 	nop
    7830:	00000000 	nop
    7834:	00000000 	nop
    7838:	00000000 	nop
    783c:	00000000 	nop
    7840:	00000000 	nop
    7844:	00000000 	nop
    7848:	00000000 	nop
    784c:	00000000 	nop
    7850:	00000000 	nop
    7854:	00000000 	nop
    7858:	00000000 	nop
    785c:	00000000 	nop
    7860:	00000000 	nop
    7864:	00000000 	nop
    7868:	00000000 	nop
    786c:	00000000 	nop
    7870:	00000000 	nop
    7874:	00000000 	nop
    7878:	00000000 	nop
    787c:	00000000 	nop
    7880:	00000000 	nop
    7884:	00000000 	nop
    7888:	00000000 	nop
    788c:	00000000 	nop
    7890:	00000000 	nop
    7894:	00000000 	nop
    7898:	00000000 	nop
    789c:	00000000 	nop
    78a0:	00000000 	nop
    78a4:	00000000 	nop
    78a8:	00000000 	nop
    78ac:	00000000 	nop
    78b0:	00000000 	nop
    78b4:	00000000 	nop
    78b8:	00000000 	nop
    78bc:	00000000 	nop
    78c0:	00000000 	nop
    78c4:	00000000 	nop
    78c8:	00000000 	nop
    78cc:	00000000 	nop
    78d0:	00000000 	nop
    78d4:	00000000 	nop
    78d8:	00000000 	nop
    78dc:	00000000 	nop
    78e0:	00000000 	nop
    78e4:	00000000 	nop
    78e8:	00000000 	nop
    78ec:	00000000 	nop
    78f0:	00000000 	nop
    78f4:	00000000 	nop
    78f8:	00000000 	nop
    78fc:	00000000 	nop
    7900:	00000000 	nop
    7904:	00000000 	nop
    7908:	00000000 	nop
    790c:	00000000 	nop
    7910:	00000000 	nop
    7914:	00000000 	nop
    7918:	00000000 	nop
    791c:	00000000 	nop
    7920:	00000000 	nop
    7924:	00000000 	nop
    7928:	00000000 	nop
    792c:	00000000 	nop
    7930:	00000000 	nop
    7934:	00000000 	nop
    7938:	00000000 	nop
    793c:	00000000 	nop
    7940:	00000000 	nop
    7944:	00000000 	nop
    7948:	00000000 	nop
    794c:	00000000 	nop
    7950:	00000000 	nop
    7954:	00000000 	nop
    7958:	00000000 	nop
    795c:	00000000 	nop
    7960:	00000000 	nop
    7964:	00000000 	nop
    7968:	00000000 	nop
    796c:	00000000 	nop
    7970:	00000000 	nop
    7974:	00000000 	nop
    7978:	00000000 	nop
    797c:	00000000 	nop
    7980:	00000000 	nop
    7984:	00000000 	nop
    7988:	00000000 	nop
    798c:	00000000 	nop
    7990:	00000000 	nop
    7994:	00000000 	nop
    7998:	00000000 	nop
    799c:	00000000 	nop
    79a0:	00000000 	nop
    79a4:	00000000 	nop
    79a8:	00000000 	nop
    79ac:	00000000 	nop
    79b0:	00000000 	nop
    79b4:	00000000 	nop
    79b8:	00000000 	nop
    79bc:	00000000 	nop
    79c0:	00000000 	nop
    79c4:	00000000 	nop
    79c8:	00000000 	nop
    79cc:	00000000 	nop
    79d0:	00000000 	nop
    79d4:	00000000 	nop
    79d8:	00000000 	nop
    79dc:	00000000 	nop
    79e0:	00000000 	nop
    79e4:	00000000 	nop
    79e8:	00000000 	nop
    79ec:	00000000 	nop
    79f0:	00000000 	nop
    79f4:	00000000 	nop
    79f8:	00000000 	nop
    79fc:	00000000 	nop
    7a00:	00000000 	nop
    7a04:	00000000 	nop
    7a08:	00000000 	nop
    7a0c:	00000000 	nop
    7a10:	00000000 	nop
    7a14:	00000000 	nop
    7a18:	00000000 	nop
    7a1c:	00000000 	nop
    7a20:	00000000 	nop
    7a24:	00000000 	nop
    7a28:	00000000 	nop
    7a2c:	00000000 	nop
    7a30:	00000000 	nop
    7a34:	00000000 	nop
    7a38:	00000000 	nop
    7a3c:	00000000 	nop
    7a40:	00000000 	nop
    7a44:	00000000 	nop
    7a48:	00000000 	nop
    7a4c:	00000000 	nop
    7a50:	00000000 	nop
    7a54:	00000000 	nop
    7a58:	00000000 	nop
    7a5c:	00000000 	nop
    7a60:	00000000 	nop
    7a64:	00000000 	nop
    7a68:	00000000 	nop
    7a6c:	00000000 	nop
    7a70:	00000000 	nop
    7a74:	00000000 	nop
    7a78:	00000000 	nop
    7a7c:	00000000 	nop
    7a80:	00000000 	nop
    7a84:	00000000 	nop
    7a88:	00000000 	nop
    7a8c:	00000000 	nop
    7a90:	00000000 	nop
    7a94:	00000000 	nop
    7a98:	00000000 	nop
    7a9c:	00000000 	nop
    7aa0:	00000000 	nop
    7aa4:	00000000 	nop
    7aa8:	00000000 	nop
    7aac:	00000000 	nop
    7ab0:	00000000 	nop
    7ab4:	00000000 	nop
    7ab8:	00000000 	nop
    7abc:	00000000 	nop
    7ac0:	00000000 	nop
    7ac4:	00000000 	nop
    7ac8:	00000000 	nop
    7acc:	00000000 	nop
    7ad0:	00000000 	nop
    7ad4:	00000000 	nop
    7ad8:	00000000 	nop
    7adc:	00000000 	nop
    7ae0:	00000000 	nop
    7ae4:	00000000 	nop
    7ae8:	00000000 	nop
    7aec:	00000000 	nop
    7af0:	00000000 	nop
    7af4:	00000000 	nop
    7af8:	00000000 	nop
    7afc:	00000000 	nop
    7b00:	00000000 	nop
    7b04:	00000000 	nop
    7b08:	00000000 	nop
    7b0c:	00000000 	nop
    7b10:	00000000 	nop
    7b14:	00000000 	nop
    7b18:	00000000 	nop
    7b1c:	00000000 	nop
    7b20:	00000000 	nop
    7b24:	00000000 	nop
    7b28:	00000000 	nop
    7b2c:	00000000 	nop
    7b30:	00000000 	nop
    7b34:	00000000 	nop
    7b38:	00000000 	nop
    7b3c:	00000000 	nop
    7b40:	00000000 	nop
    7b44:	00000000 	nop
    7b48:	00000000 	nop
    7b4c:	00000000 	nop
    7b50:	00000000 	nop
    7b54:	00000000 	nop
    7b58:	00000000 	nop
    7b5c:	00000000 	nop
    7b60:	00000000 	nop
    7b64:	00000000 	nop
    7b68:	00000000 	nop
    7b6c:	00000000 	nop
    7b70:	00000000 	nop
    7b74:	00000000 	nop
    7b78:	00000000 	nop
    7b7c:	00000000 	nop
    7b80:	00000000 	nop
    7b84:	00000000 	nop
    7b88:	00000000 	nop
    7b8c:	00000000 	nop
    7b90:	00000000 	nop
    7b94:	00000000 	nop
    7b98:	00000000 	nop
    7b9c:	00000000 	nop
    7ba0:	00000000 	nop
    7ba4:	00000000 	nop
    7ba8:	00000000 	nop
    7bac:	00000000 	nop
    7bb0:	00000000 	nop
    7bb4:	00000000 	nop
    7bb8:	00000000 	nop
    7bbc:	00000000 	nop
    7bc0:	00000000 	nop
    7bc4:	00000000 	nop
    7bc8:	00000000 	nop
    7bcc:	00000000 	nop
    7bd0:	00000000 	nop
    7bd4:	00000000 	nop
    7bd8:	00000000 	nop
    7bdc:	00000000 	nop
    7be0:	00000000 	nop
    7be4:	00000000 	nop
    7be8:	00000000 	nop
    7bec:	00000000 	nop
    7bf0:	00000000 	nop
    7bf4:	00000000 	nop
    7bf8:	00000000 	nop
    7bfc:	00000000 	nop
    7c00:	00000000 	nop
    7c04:	00000000 	nop
    7c08:	00000000 	nop
    7c0c:	00000000 	nop
    7c10:	00000000 	nop
    7c14:	00000000 	nop
    7c18:	00000000 	nop
    7c1c:	00000000 	nop
    7c20:	00000000 	nop
    7c24:	00000000 	nop
    7c28:	00000000 	nop
    7c2c:	00000000 	nop
    7c30:	00000000 	nop
    7c34:	00000000 	nop
    7c38:	00000000 	nop
    7c3c:	00000000 	nop
    7c40:	00000000 	nop
    7c44:	00000000 	nop
    7c48:	00000000 	nop
    7c4c:	00000000 	nop
    7c50:	00000000 	nop
    7c54:	00000000 	nop
    7c58:	00000000 	nop
    7c5c:	00000000 	nop
    7c60:	00000000 	nop
    7c64:	00000000 	nop
    7c68:	00000000 	nop
    7c6c:	00000000 	nop
    7c70:	00000000 	nop
    7c74:	00000000 	nop
    7c78:	00000000 	nop
    7c7c:	00000000 	nop
    7c80:	00000000 	nop
    7c84:	00000000 	nop
    7c88:	00000000 	nop
    7c8c:	00000000 	nop
    7c90:	00000000 	nop
    7c94:	00000000 	nop
    7c98:	00000000 	nop
    7c9c:	00000000 	nop
    7ca0:	00000000 	nop
    7ca4:	00000000 	nop
    7ca8:	00000000 	nop
    7cac:	00000000 	nop
    7cb0:	00000000 	nop
    7cb4:	00000000 	nop
    7cb8:	00000000 	nop
    7cbc:	00000000 	nop
    7cc0:	00000000 	nop
    7cc4:	00000000 	nop
    7cc8:	00000000 	nop
    7ccc:	00000000 	nop
    7cd0:	00000000 	nop
    7cd4:	00000000 	nop
    7cd8:	00000000 	nop
    7cdc:	00000000 	nop
    7ce0:	00000000 	nop
    7ce4:	00000000 	nop
    7ce8:	00000000 	nop
    7cec:	00000000 	nop
    7cf0:	00000000 	nop
    7cf4:	00000000 	nop
    7cf8:	00000000 	nop
    7cfc:	00000000 	nop
    7d00:	00000000 	nop
    7d04:	00000000 	nop
    7d08:	00000000 	nop
    7d0c:	00000000 	nop
    7d10:	00000000 	nop
    7d14:	00000000 	nop
    7d18:	00000000 	nop
    7d1c:	00000000 	nop
    7d20:	00000000 	nop
    7d24:	00000000 	nop
    7d28:	00000000 	nop
    7d2c:	00000000 	nop
    7d30:	00000000 	nop
    7d34:	00000000 	nop
    7d38:	00000000 	nop
    7d3c:	00000000 	nop
    7d40:	00000000 	nop
    7d44:	00000000 	nop
    7d48:	00000000 	nop
    7d4c:	00000000 	nop
    7d50:	00000000 	nop
    7d54:	00000000 	nop
    7d58:	00000000 	nop
    7d5c:	00000000 	nop
    7d60:	00000000 	nop
    7d64:	00000000 	nop
    7d68:	00000000 	nop
    7d6c:	00000000 	nop
    7d70:	00000000 	nop
    7d74:	00000000 	nop
    7d78:	00000000 	nop
    7d7c:	00000000 	nop
    7d80:	00000000 	nop
    7d84:	00000000 	nop
    7d88:	00000000 	nop
    7d8c:	00000000 	nop
    7d90:	00000000 	nop
    7d94:	00000000 	nop
    7d98:	00000000 	nop
    7d9c:	00000000 	nop
    7da0:	00000000 	nop
    7da4:	00000000 	nop
    7da8:	00000000 	nop
    7dac:	00000000 	nop
    7db0:	00000000 	nop
    7db4:	00000000 	nop
    7db8:	00000000 	nop
    7dbc:	00000000 	nop
    7dc0:	00000000 	nop
    7dc4:	00000000 	nop
    7dc8:	00000000 	nop
    7dcc:	00000000 	nop
    7dd0:	00000000 	nop
    7dd4:	00000000 	nop
    7dd8:	00000000 	nop
    7ddc:	00000000 	nop
    7de0:	00000000 	nop
    7de4:	00000000 	nop
    7de8:	00000000 	nop
    7dec:	00000000 	nop
    7df0:	00000000 	nop
    7df4:	00000000 	nop
    7df8:	00000000 	nop
    7dfc:	00000000 	nop
    7e00:	00000000 	nop
    7e04:	00000000 	nop
    7e08:	00000000 	nop
    7e0c:	00000000 	nop
    7e10:	00000000 	nop
    7e14:	00000000 	nop
    7e18:	00000000 	nop
    7e1c:	00000000 	nop
    7e20:	00000000 	nop
    7e24:	00000000 	nop
    7e28:	00000000 	nop
    7e2c:	00000000 	nop
    7e30:	00000000 	nop
    7e34:	00000000 	nop
    7e38:	00000000 	nop
    7e3c:	00000000 	nop
    7e40:	00000000 	nop
    7e44:	00000000 	nop
    7e48:	00000000 	nop
    7e4c:	00000000 	nop
    7e50:	00000000 	nop
    7e54:	00000000 	nop
    7e58:	00000000 	nop
    7e5c:	00000000 	nop
    7e60:	00000000 	nop
    7e64:	00000000 	nop
    7e68:	00000000 	nop
    7e6c:	00000000 	nop
    7e70:	00000000 	nop
    7e74:	00000000 	nop
    7e78:	00000000 	nop
    7e7c:	00000000 	nop
    7e80:	00000000 	nop
    7e84:	00000000 	nop
    7e88:	00000000 	nop
    7e8c:	00000000 	nop
    7e90:	00000000 	nop
    7e94:	00000000 	nop
    7e98:	00000000 	nop
    7e9c:	00000000 	nop
    7ea0:	00000000 	nop
    7ea4:	00000000 	nop
    7ea8:	00000000 	nop
    7eac:	00000000 	nop
    7eb0:	00000000 	nop
    7eb4:	00000000 	nop
    7eb8:	00000000 	nop
    7ebc:	00000000 	nop
    7ec0:	00000000 	nop
    7ec4:	00000000 	nop
    7ec8:	00000000 	nop
    7ecc:	00000000 	nop
    7ed0:	00000000 	nop
    7ed4:	00000000 	nop
    7ed8:	00000000 	nop
    7edc:	00000000 	nop
    7ee0:	00000000 	nop
    7ee4:	00000000 	nop
    7ee8:	00000000 	nop
    7eec:	00000000 	nop
    7ef0:	00000000 	nop
    7ef4:	00000000 	nop
    7ef8:	00000000 	nop
    7efc:	00000000 	nop
    7f00:	00000000 	nop
    7f04:	00000000 	nop
    7f08:	00000000 	nop
    7f0c:	00000000 	nop
    7f10:	00000000 	nop
    7f14:	00000000 	nop
    7f18:	00000000 	nop
    7f1c:	00000000 	nop
    7f20:	00000000 	nop
    7f24:	00000000 	nop
    7f28:	00000000 	nop
    7f2c:	00000000 	nop
    7f30:	00000000 	nop
    7f34:	00000000 	nop
    7f38:	00000000 	nop
    7f3c:	00000000 	nop
    7f40:	00000000 	nop
    7f44:	00000000 	nop
    7f48:	00000000 	nop
    7f4c:	00000000 	nop
    7f50:	00000000 	nop
    7f54:	00000000 	nop
    7f58:	00000000 	nop
    7f5c:	00000000 	nop
    7f60:	00000000 	nop
    7f64:	00000000 	nop
    7f68:	00000000 	nop
    7f6c:	00000000 	nop
    7f70:	00000000 	nop
    7f74:	00000000 	nop
    7f78:	00000000 	nop
    7f7c:	00000000 	nop
    7f80:	00000000 	nop
    7f84:	00000000 	nop
    7f88:	00000000 	nop
    7f8c:	00000000 	nop
    7f90:	00000000 	nop
    7f94:	00000000 	nop
    7f98:	00000000 	nop
    7f9c:	00000000 	nop
    7fa0:	00000000 	nop
    7fa4:	00000000 	nop
    7fa8:	00000000 	nop
    7fac:	00000000 	nop
    7fb0:	00000000 	nop
    7fb4:	00000000 	nop
    7fb8:	00000000 	nop
    7fbc:	00000000 	nop
    7fc0:	00000000 	nop
    7fc4:	00000000 	nop
    7fc8:	00000000 	nop
    7fcc:	00000000 	nop
    7fd0:	00000000 	nop
    7fd4:	00000000 	nop
    7fd8:	00000000 	nop
    7fdc:	00000000 	nop
    7fe0:	00000000 	nop
    7fe4:	00000000 	nop
    7fe8:	00000000 	nop
    7fec:	00000000 	nop
    7ff0:	00000000 	nop
    7ff4:	00000000 	nop
    7ff8:	00000000 	nop
    7ffc:	00000000 	nop
