
main:     file format elf32-bigmips


Disassembly of section .text:

00000000 <_start>:
       0:	241dffff 	li	sp,-1
       4:	3c028000 	lui	v0,0x8000
       8:	8c420430 	lw	v0,1072(v0)
       c:	00000000 	nop
      10:	0040f809 	jalr	v0
      14:	00000000 	nop
      18:	0c000d7d 	jal	35f4 <main>
      1c:	00000000 	nop

00000020 <Control::MARG::start()>:
      20:	27bdfee0 	addiu	sp,sp,-288
      24:	afbf011c 	sw	ra,284(sp)
      28:	afbe0118 	sw	s8,280(sp)
      2c:	afb70114 	sw	s7,276(sp)
      30:	afb60110 	sw	s6,272(sp)
      34:	afb5010c 	sw	s5,268(sp)
      38:	afb40108 	sw	s4,264(sp)
      3c:	afb30104 	sw	s3,260(sp)
      40:	afb20100 	sw	s2,256(sp)
      44:	00809821 	move	s3,a0
      48:	afb100fc 	sw	s1,252(sp)
      4c:	0c00065a 	jal	1968 <System::Bus::I2C::start()>
      50:	afb000f8 	sw	s0,248(sp)
      54:	240400d0 	li	a0,208
      58:	0c000663 	jal	198c <_ZN6System3Bus3I2CL2ioEhNS1_6IoTypeE.2794>
      5c:	24050001 	li	a1,1
      60:	2404003b 	li	a0,59
      64:	0c000663 	jal	198c <_ZN6System3Bus3I2CL2ioEhNS1_6IoTypeE.2794>
      68:	24050001 	li	a1,1
      6c:	0c000651 	jal	1944 <System::Bus::I2C::stop()>
      70:	00000000 	nop
      74:	0c00065a 	jal	1968 <System::Bus::I2C::start()>
      78:	00000000 	nop
      7c:	240400d1 	li	a0,209
      80:	0c000663 	jal	198c <_ZN6System3Bus3I2CL2ioEhNS1_6IoTypeE.2794>
      84:	24050001 	li	a1,1
      88:	0c000685 	jal	1a14 <System::Bus::I2C::read()>
      8c:	00000000 	nop
      90:	0c000685 	jal	1a14 <System::Bus::I2C::read()>
      94:	afa200f0 	sw	v0,240(sp)
      98:	0c000685 	jal	1a14 <System::Bus::I2C::read()>
      9c:	afa200e8 	sw	v0,232(sp)
      a0:	0c000685 	jal	1a14 <System::Bus::I2C::read()>
      a4:	afa200ec 	sw	v0,236(sp)
      a8:	0c000685 	jal	1a14 <System::Bus::I2C::read()>
      ac:	0040f021 	move	s8,v0
      b0:	0c000685 	jal	1a14 <System::Bus::I2C::read()>
      b4:	0040b821 	move	s7,v0
      b8:	0c000685 	jal	1a14 <System::Bus::I2C::read()>
      bc:	0040b021 	move	s6,v0
      c0:	0c000685 	jal	1a14 <System::Bus::I2C::read()>
      c4:	00000000 	nop
      c8:	0c000685 	jal	1a14 <System::Bus::I2C::read()>
      cc:	00000000 	nop
      d0:	0c000685 	jal	1a14 <System::Bus::I2C::read()>
      d4:	0040a821 	move	s5,v0
      d8:	0c000685 	jal	1a14 <System::Bus::I2C::read()>
      dc:	0040a021 	move	s4,v0
      e0:	0c000685 	jal	1a14 <System::Bus::I2C::read()>
      e4:	00409021 	move	s2,v0
      e8:	0c000685 	jal	1a14 <System::Bus::I2C::read()>
      ec:	00408821 	move	s1,v0
      f0:	24050001 	li	a1,1
      f4:	240400ff 	li	a0,255
      f8:	0c000663 	jal	198c <_ZN6System3Bus3I2CL2ioEhNS1_6IoTypeE.2794>
      fc:	00408021 	move	s0,v0
     100:	0c000651 	jal	1944 <System::Bus::I2C::stop()>
     104:	00000000 	nop
     108:	8fa700f0 	lw	a3,240(sp)
     10c:	8fa600e8 	lw	a2,232(sp)
     110:	00072200 	sll	a0,a3,0x8
     114:	0c0008c0 	jal	2300 <_ZN4MathL11sign_extendEi.2486>
     118:	00862025 	or	a0,a0,a2
     11c:	8fa300ec 	lw	v1,236(sp)
     120:	afa200e8 	sw	v0,232(sp)
     124:	00032200 	sll	a0,v1,0x8
     128:	0c0008c0 	jal	2300 <_ZN4MathL11sign_extendEi.2486>
     12c:	009e2025 	or	a0,a0,s8
     130:	00172200 	sll	a0,s7,0x8
     134:	00962025 	or	a0,a0,s6
     138:	0c0008c0 	jal	2300 <_ZN4MathL11sign_extendEi.2486>
     13c:	0040f021 	move	s8,v0
     140:	00152200 	sll	a0,s5,0x8
     144:	00942025 	or	a0,a0,s4
     148:	0c0008c0 	jal	2300 <_ZN4MathL11sign_extendEi.2486>
     14c:	0040b021 	move	s6,v0
     150:	00122200 	sll	a0,s2,0x8
     154:	00912025 	or	a0,a0,s1
     158:	0c0008c0 	jal	2300 <_ZN4MathL11sign_extendEi.2486>
     15c:	0040a021 	move	s4,v0
     160:	00102200 	sll	a0,s0,0x8
     164:	0c0008c0 	jal	2300 <_ZN4MathL11sign_extendEi.2486>
     168:	00408821 	move	s1,v0
     16c:	0c0004d0 	jal	1340 <_ZN6System8Registry8instanceEv.local.6>
     170:	00408021 	move	s0,v0
     174:	8fa500e8 	lw	a1,232(sp)
     178:	0c0004d0 	jal	1340 <_ZN6System8Registry8instanceEv.local.6>
     17c:	ac45001c 	sw	a1,28(v0)
     180:	0c0004d0 	jal	1340 <_ZN6System8Registry8instanceEv.local.6>
     184:	ac5e0020 	sw	s8,32(v0)
     188:	0c0004d0 	jal	1340 <_ZN6System8Registry8instanceEv.local.6>
     18c:	ac560024 	sw	s6,36(v0)
     190:	0c0004d0 	jal	1340 <_ZN6System8Registry8instanceEv.local.6>
     194:	ac540034 	sw	s4,52(v0)
     198:	0c0004d0 	jal	1340 <_ZN6System8Registry8instanceEv.local.6>
     19c:	ac510038 	sw	s1,56(v0)
     1a0:	ac50003c 	sw	s0,60(v0)
     1a4:	3c023d7a 	lui	v0,0x3d7a
     1a8:	afa200c0 	sw	v0,192(sp)
     1ac:	3c023a00 	lui	v0,0x3a00
     1b0:	afa200bc 	sw	v0,188(sp)
     1b4:	3c023a70 	lui	v0,0x3a70
     1b8:	24427faf 	addiu	v0,v0,32687
     1bc:	afa200b8 	sw	v0,184(sp)
     1c0:	3c0232ab 	lui	v0,0x32ab
     1c4:	3442cc77 	ori	v0,v0,0xcc77
     1c8:	afa200b4 	sw	v0,180(sp)
     1cc:	8c100010 	lw	s0,16(zero)
     1d0:	8e660014 	lw	a2,20(s3)
     1d4:	00000000 	nop
     1d8:	02063023 	subu	a2,s0,a2
     1dc:	14c00003 	bnez	a2,1ec <Control::MARG::start()+0x1cc>
     1e0:	00000000 	nop
     1e4:	0800007f 	j	1fc <Control::MARG::start()+0x1dc>
     1e8:	afa00010 	sw	zero,16(sp)
     1ec:	00002021 	move	a0,zero
     1f0:	0c00068f 	jal	1a3c <float32::normalizeRoundAndPack(bool, int, unsigned int)>
     1f4:	2405009c 	li	a1,156
     1f8:	afa20010 	sw	v0,16(sp)
     1fc:	27a600b4 	addiu	a2,sp,180
     200:	27a40014 	addiu	a0,sp,20
     204:	0c000761 	jal	1d84 <float32::operator*(float32 const&) const>
     208:	27a50010 	addiu	a1,sp,16
     20c:	8fa20014 	lw	v0,20(sp)
     210:	ae700014 	sw	s0,20(s3)
     214:	0c0004d0 	jal	1340 <_ZN6System8Registry8instanceEv.local.6>
     218:	ae620018 	sw	v0,24(s3)
     21c:	8c450034 	lw	a1,52(v0)
     220:	0c0006a5 	jal	1a94 <float32::float32(int)>
     224:	27a40010 	addiu	a0,sp,16
     228:	27a600c0 	addiu	a2,sp,192
     22c:	27a400b0 	addiu	a0,sp,176
     230:	0c000761 	jal	1d84 <float32::operator*(float32 const&) const>
     234:	27a50010 	addiu	a1,sp,16
     238:	0c0004d0 	jal	1340 <_ZN6System8Registry8instanceEv.local.6>
     23c:	26710040 	addiu	s1,s3,64
     240:	8c450038 	lw	a1,56(v0)
     244:	0c0006a5 	jal	1a94 <float32::float32(int)>
     248:	27a40010 	addiu	a0,sp,16
     24c:	27a600c0 	addiu	a2,sp,192
     250:	27a400ac 	addiu	a0,sp,172
     254:	0c000761 	jal	1d84 <float32::operator*(float32 const&) const>
     258:	27a50010 	addiu	a1,sp,16
     25c:	0c0004d0 	jal	1340 <_ZN6System8Registry8instanceEv.local.6>
     260:	26720044 	addiu	s2,s3,68
     264:	8c45003c 	lw	a1,60(v0)
     268:	0c0006a5 	jal	1a94 <float32::float32(int)>
     26c:	27a40010 	addiu	a0,sp,16
     270:	27a600c0 	addiu	a2,sp,192
     274:	27a400a8 	addiu	a0,sp,168
     278:	0c000761 	jal	1d84 <float32::operator*(float32 const&) const>
     27c:	27a50010 	addiu	a1,sp,16
     280:	0c0004d0 	jal	1340 <_ZN6System8Registry8instanceEv.local.6>
     284:	3c164000 	lui	s6,0x4000
     288:	8c45001c 	lw	a1,28(v0)
     28c:	0c0006a5 	jal	1a94 <float32::float32(int)>
     290:	27a40010 	addiu	a0,sp,16
     294:	27a600bc 	addiu	a2,sp,188
     298:	27a400a4 	addiu	a0,sp,164
     29c:	0c000761 	jal	1d84 <float32::operator*(float32 const&) const>
     2a0:	27a50010 	addiu	a1,sp,16
     2a4:	0c0004d0 	jal	1340 <_ZN6System8Registry8instanceEv.local.6>
     2a8:	26740048 	addiu	s4,s3,72
     2ac:	8c450020 	lw	a1,32(v0)
     2b0:	0c0006a5 	jal	1a94 <float32::float32(int)>
     2b4:	27a40010 	addiu	a0,sp,16
     2b8:	27a600bc 	addiu	a2,sp,188
     2bc:	27a400a0 	addiu	a0,sp,160
     2c0:	0c000761 	jal	1d84 <float32::operator*(float32 const&) const>
     2c4:	27a50010 	addiu	a1,sp,16
     2c8:	0c0004d0 	jal	1340 <_ZN6System8Registry8instanceEv.local.6>
     2cc:	2670004c 	addiu	s0,s3,76
     2d0:	8c450024 	lw	a1,36(v0)
     2d4:	0c0006a5 	jal	1a94 <float32::float32(int)>
     2d8:	27a40010 	addiu	a0,sp,16
     2dc:	27a600bc 	addiu	a2,sp,188
     2e0:	27a4009c 	addiu	a0,sp,156
     2e4:	0c000761 	jal	1d84 <float32::operator*(float32 const&) const>
     2e8:	27a50010 	addiu	a1,sp,16
     2ec:	0c0004d0 	jal	1340 <_ZN6System8Registry8instanceEv.local.6>
     2f0:	3c173f80 	lui	s7,0x3f80
     2f4:	8c450040 	lw	a1,64(v0)
     2f8:	0c0006a5 	jal	1a94 <float32::float32(int)>
     2fc:	27a40010 	addiu	a0,sp,16
     300:	27a600b8 	addiu	a2,sp,184
     304:	27a40098 	addiu	a0,sp,152
     308:	0c000761 	jal	1d84 <float32::operator*(float32 const&) const>
     30c:	27a50010 	addiu	a1,sp,16
     310:	0c0004d0 	jal	1340 <_ZN6System8Registry8instanceEv.local.6>
     314:	26750018 	addiu	s5,s3,24
     318:	8c450044 	lw	a1,68(v0)
     31c:	0c0006a5 	jal	1a94 <float32::float32(int)>
     320:	27a40010 	addiu	a0,sp,16
     324:	27a600b8 	addiu	a2,sp,184
     328:	27a40094 	addiu	a0,sp,148
     32c:	0c000761 	jal	1d84 <float32::operator*(float32 const&) const>
     330:	27a50010 	addiu	a1,sp,16
     334:	0c0004d0 	jal	1340 <_ZN6System8Registry8instanceEv.local.6>
     338:	00000000 	nop
     33c:	8c450048 	lw	a1,72(v0)
     340:	0c0006a5 	jal	1a94 <float32::float32(int)>
     344:	27a40010 	addiu	a0,sp,16
     348:	27a40090 	addiu	a0,sp,144
     34c:	27a50010 	addiu	a1,sp,16
     350:	0c000761 	jal	1d84 <float32::operator*(float32 const&) const>
     354:	27a600b8 	addiu	a2,sp,184
     358:	8fa200b0 	lw	v0,176(sp)
     35c:	00000000 	nop
     360:	afa200d8 	sw	v0,216(sp)
     364:	8fa200ac 	lw	v0,172(sp)
     368:	00000000 	nop
     36c:	afa200d4 	sw	v0,212(sp)
     370:	8fa200a8 	lw	v0,168(sp)
     374:	00000000 	nop
     378:	afa200d0 	sw	v0,208(sp)
     37c:	8fa200a4 	lw	v0,164(sp)
     380:	27a40038 	addiu	a0,sp,56
     384:	afa200cc 	sw	v0,204(sp)
     388:	8fa200a0 	lw	v0,160(sp)
     38c:	27a50040 	addiu	a1,sp,64
     390:	afa200c8 	sw	v0,200(sp)
     394:	8fa2009c 	lw	v0,156(sp)
     398:	02203021 	move	a2,s1
     39c:	afa200c4 	sw	v0,196(sp)
     3a0:	3c023d9a 	lui	v0,0x3d9a
     3a4:	3442c70d 	ori	v0,v0,0xc70d
     3a8:	afa2008c 	sw	v0,140(sp)
     3ac:	3c023f00 	lui	v0,0x3f00
     3b0:	afa20040 	sw	v0,64(sp)
     3b4:	0c000761 	jal	1d84 <float32::operator*(float32 const&) const>
     3b8:	afb6003c 	sw	s6,60(sp)
     3bc:	27a40034 	addiu	a0,sp,52
     3c0:	27a50040 	addiu	a1,sp,64
     3c4:	0c000761 	jal	1d84 <float32::operator*(float32 const&) const>
     3c8:	02403021 	move	a2,s2
     3cc:	27a40030 	addiu	a0,sp,48
     3d0:	27a50040 	addiu	a1,sp,64
     3d4:	0c000761 	jal	1d84 <float32::operator*(float32 const&) const>
     3d8:	02803021 	move	a2,s4
     3dc:	27a4002c 	addiu	a0,sp,44
     3e0:	27a50040 	addiu	a1,sp,64
     3e4:	0c000761 	jal	1d84 <float32::operator*(float32 const&) const>
     3e8:	02003021 	move	a2,s0
     3ec:	27a40028 	addiu	a0,sp,40
     3f0:	27a5003c 	addiu	a1,sp,60
     3f4:	0c000761 	jal	1d84 <float32::operator*(float32 const&) const>
     3f8:	02203021 	move	a2,s1
     3fc:	27a40024 	addiu	a0,sp,36
     400:	27a5003c 	addiu	a1,sp,60
     404:	0c000761 	jal	1d84 <float32::operator*(float32 const&) const>
     408:	02403021 	move	a2,s2
     40c:	27a40020 	addiu	a0,sp,32
     410:	27a5003c 	addiu	a1,sp,60
     414:	0c000761 	jal	1d84 <float32::operator*(float32 const&) const>
     418:	02803021 	move	a2,s4
     41c:	27a500cc 	addiu	a1,sp,204
     420:	27a4001c 	addiu	a0,sp,28
     424:	0c000761 	jal	1d84 <float32::operator*(float32 const&) const>
     428:	00a03021 	move	a2,a1
     42c:	27a500c8 	addiu	a1,sp,200
     430:	00a03021 	move	a2,a1
     434:	0c000761 	jal	1d84 <float32::operator*(float32 const&) const>
     438:	27a40010 	addiu	a0,sp,16
     43c:	27a4001c 	addiu	a0,sp,28
     440:	0c00072e 	jal	1cb8 <float32::operator+=(float32 const&)>
     444:	27a50010 	addiu	a1,sp,16
     448:	27a500c4 	addiu	a1,sp,196
     44c:	00a03021 	move	a2,a1
     450:	0c000761 	jal	1d84 <float32::operator*(float32 const&) const>
     454:	27a40010 	addiu	a0,sp,16
     458:	27a4001c 	addiu	a0,sp,28
     45c:	0c00072e 	jal	1cb8 <float32::operator+=(float32 const&)>
     460:	27a50010 	addiu	a1,sp,16
     464:	27a40010 	addiu	a0,sp,16
     468:	0c000851 	jal	2144 <rsqrt(float32 const&)>
     46c:	27a5001c 	addiu	a1,sp,28
     470:	8fa20010 	lw	v0,16(sp)
     474:	27a400cc 	addiu	a0,sp,204
     478:	27a50088 	addiu	a1,sp,136
     47c:	0c00087c 	jal	21f0 <float32::operator*=(float32 const&)>
     480:	afa20088 	sw	v0,136(sp)
     484:	27a400c8 	addiu	a0,sp,200
     488:	0c00087c 	jal	21f0 <float32::operator*=(float32 const&)>
     48c:	27a50088 	addiu	a1,sp,136
     490:	27a400c4 	addiu	a0,sp,196
     494:	0c00087c 	jal	21f0 <float32::operator*=(float32 const&)>
     498:	27a50088 	addiu	a1,sp,136
     49c:	27a40010 	addiu	a0,sp,16
     4a0:	27a50024 	addiu	a1,sp,36
     4a4:	0c000761 	jal	1d84 <float32::operator*(float32 const&) const>
     4a8:	02003021 	move	a2,s0
     4ac:	8fa20010 	lw	v0,16(sp)
     4b0:	02803021 	move	a2,s4
     4b4:	27a40010 	addiu	a0,sp,16
     4b8:	27a50028 	addiu	a1,sp,40
     4bc:	0c000761 	jal	1d84 <float32::operator*(float32 const&) const>
     4c0:	afa20074 	sw	v0,116(sp)
     4c4:	27a40074 	addiu	a0,sp,116
     4c8:	0c000752 	jal	1d48 <float32::operator-=(float32 const&)>
     4cc:	27a50010 	addiu	a1,sp,16
     4d0:	27a40074 	addiu	a0,sp,116
     4d4:	0c000752 	jal	1d48 <float32::operator-=(float32 const&)>
     4d8:	27a500cc 	addiu	a1,sp,204
     4dc:	27a40010 	addiu	a0,sp,16
     4e0:	27a50028 	addiu	a1,sp,40
     4e4:	0c000761 	jal	1d84 <float32::operator*(float32 const&) const>
     4e8:	02403021 	move	a2,s2
     4ec:	8fa20010 	lw	v0,16(sp)
     4f0:	02003021 	move	a2,s0
     4f4:	27a40010 	addiu	a0,sp,16
     4f8:	27a50020 	addiu	a1,sp,32
     4fc:	0c000761 	jal	1d84 <float32::operator*(float32 const&) const>
     500:	afa20070 	sw	v0,112(sp)
     504:	27a40070 	addiu	a0,sp,112
     508:	0c00072e 	jal	1cb8 <float32::operator+=(float32 const&)>
     50c:	27a50010 	addiu	a1,sp,16
     510:	27a40070 	addiu	a0,sp,112
     514:	0c000752 	jal	1d48 <float32::operator-=(float32 const&)>
     518:	27a500c8 	addiu	a1,sp,200
     51c:	02403021 	move	a2,s2
     520:	27a40010 	addiu	a0,sp,16
     524:	27a50024 	addiu	a1,sp,36
     528:	0c000761 	jal	1d84 <float32::operator*(float32 const&) const>
     52c:	afb7006c 	sw	s7,108(sp)
     530:	27a4006c 	addiu	a0,sp,108
     534:	0c000752 	jal	1d48 <float32::operator-=(float32 const&)>
     538:	27a50010 	addiu	a1,sp,16
     53c:	02803021 	move	a2,s4
     540:	27a40010 	addiu	a0,sp,16
     544:	0c000761 	jal	1d84 <float32::operator*(float32 const&) const>
     548:	27a50020 	addiu	a1,sp,32
     54c:	27a4006c 	addiu	a0,sp,108
     550:	0c000752 	jal	1d48 <float32::operator-=(float32 const&)>
     554:	27a50010 	addiu	a1,sp,16
     558:	27a4006c 	addiu	a0,sp,108
     55c:	0c000752 	jal	1d48 <float32::operator-=(float32 const&)>
     560:	27a500c4 	addiu	a1,sp,196
     564:	8fa20020 	lw	v0,32(sp)
     568:	27a40010 	addiu	a0,sp,16
     56c:	27a5003c 	addiu	a1,sp,60
     570:	02003021 	move	a2,s0
     574:	0c000761 	jal	1d84 <float32::operator*(float32 const&) const>
     578:	afa20068 	sw	v0,104(sp)
     57c:	8fa20010 	lw	v0,16(sp)
     580:	27a40010 	addiu	a0,sp,16
     584:	afa20064 	sw	v0,100(sp)
     588:	8fa20028 	lw	v0,40(sp)
     58c:	27a5003c 	addiu	a1,sp,60
     590:	afa20060 	sw	v0,96(sp)
     594:	8fa20024 	lw	v0,36(sp)
     598:	27a6005c 	addiu	a2,sp,92
     59c:	0c000761 	jal	1d84 <float32::operator*(float32 const&) const>
     5a0:	afa2005c 	sw	v0,92(sp)
     5a4:	8fa20010 	lw	v0,16(sp)
     5a8:	27a40010 	addiu	a0,sp,16
     5ac:	27a5003c 	addiu	a1,sp,60
     5b0:	27a60068 	addiu	a2,sp,104
     5b4:	0c000761 	jal	1d84 <float32::operator*(float32 const&) const>
     5b8:	afa20058 	sw	v0,88(sp)
     5bc:	8fa20010 	lw	v0,16(sp)
     5c0:	27a40010 	addiu	a0,sp,16
     5c4:	27a5005c 	addiu	a1,sp,92
     5c8:	27a60070 	addiu	a2,sp,112
     5cc:	0c000761 	jal	1d84 <float32::operator*(float32 const&) const>
     5d0:	afa20054 	sw	v0,84(sp)
     5d4:	8fa20010 	lw	v0,16(sp)
     5d8:	27a60074 	addiu	a2,sp,116
     5dc:	27a40010 	addiu	a0,sp,16
     5e0:	27a50068 	addiu	a1,sp,104
     5e4:	0c000761 	jal	1d84 <float32::operator*(float32 const&) const>
     5e8:	afa20050 	sw	v0,80(sp)
     5ec:	27a40050 	addiu	a0,sp,80
     5f0:	0c000752 	jal	1d48 <float32::operator-=(float32 const&)>
     5f4:	27a50010 	addiu	a1,sp,16
     5f8:	27a40010 	addiu	a0,sp,16
     5fc:	27a50064 	addiu	a1,sp,100
     600:	0c000761 	jal	1d84 <float32::operator*(float32 const&) const>
     604:	27a60074 	addiu	a2,sp,116
     608:	8fa20010 	lw	v0,16(sp)
     60c:	27a60070 	addiu	a2,sp,112
     610:	27a40010 	addiu	a0,sp,16
     614:	27a50060 	addiu	a1,sp,96
     618:	0c000761 	jal	1d84 <float32::operator*(float32 const&) const>
     61c:	afa2004c 	sw	v0,76(sp)
     620:	27a4004c 	addiu	a0,sp,76
     624:	0c00072e 	jal	1cb8 <float32::operator+=(float32 const&)>
     628:	27a50010 	addiu	a1,sp,16
     62c:	27a6006c 	addiu	a2,sp,108
     630:	27a40010 	addiu	a0,sp,16
     634:	0c000761 	jal	1d84 <float32::operator*(float32 const&) const>
     638:	27a50058 	addiu	a1,sp,88
     63c:	27a4004c 	addiu	a0,sp,76
     640:	0c000752 	jal	1d48 <float32::operator-=(float32 const&)>
     644:	27a50010 	addiu	a1,sp,16
     648:	27a40010 	addiu	a0,sp,16
     64c:	27a50064 	addiu	a1,sp,100
     650:	0c000761 	jal	1d84 <float32::operator*(float32 const&) const>
     654:	27a60070 	addiu	a2,sp,112
     658:	8fa20010 	lw	v0,16(sp)
     65c:	27a6006c 	addiu	a2,sp,108
     660:	27a40010 	addiu	a0,sp,16
     664:	27a50054 	addiu	a1,sp,84
     668:	0c000761 	jal	1d84 <float32::operator*(float32 const&) const>
     66c:	afa20048 	sw	v0,72(sp)
     670:	27a40048 	addiu	a0,sp,72
     674:	0c000752 	jal	1d48 <float32::operator-=(float32 const&)>
     678:	27a50010 	addiu	a1,sp,16
     67c:	27a60074 	addiu	a2,sp,116
     680:	27a40010 	addiu	a0,sp,16
     684:	0c000761 	jal	1d84 <float32::operator*(float32 const&) const>
     688:	27a50060 	addiu	a1,sp,96
     68c:	27a40048 	addiu	a0,sp,72
     690:	0c000752 	jal	1d48 <float32::operator-=(float32 const&)>
     694:	27a50010 	addiu	a1,sp,16
     698:	27a40010 	addiu	a0,sp,16
     69c:	27a5005c 	addiu	a1,sp,92
     6a0:	0c000761 	jal	1d84 <float32::operator*(float32 const&) const>
     6a4:	27a60074 	addiu	a2,sp,116
     6a8:	8fa20010 	lw	v0,16(sp)
     6ac:	27a40010 	addiu	a0,sp,16
     6b0:	27a50068 	addiu	a1,sp,104
     6b4:	27a60070 	addiu	a2,sp,112
     6b8:	0c000761 	jal	1d84 <float32::operator*(float32 const&) const>
     6bc:	afa20044 	sw	v0,68(sp)
     6c0:	27a400e0 	addiu	a0,sp,224
     6c4:	27a50044 	addiu	a1,sp,68
     6c8:	0c000718 	jal	1c60 <float32::operator+(float32 const&) const>
     6cc:	27a60010 	addiu	a2,sp,16
     6d0:	27a50050 	addiu	a1,sp,80
     6d4:	27a40010 	addiu	a0,sp,16
     6d8:	0c000761 	jal	1d84 <float32::operator*(float32 const&) const>
     6dc:	00a03021 	move	a2,a1
     6e0:	8fa20010 	lw	v0,16(sp)
     6e4:	27a5004c 	addiu	a1,sp,76
     6e8:	00a03021 	move	a2,a1
     6ec:	27a40010 	addiu	a0,sp,16
     6f0:	0c000761 	jal	1d84 <float32::operator*(float32 const&) const>
     6f4:	afa2001c 	sw	v0,28(sp)
     6f8:	27a4001c 	addiu	a0,sp,28
     6fc:	0c00072e 	jal	1cb8 <float32::operator+=(float32 const&)>
     700:	27a50010 	addiu	a1,sp,16
     704:	27a50048 	addiu	a1,sp,72
     708:	00a03021 	move	a2,a1
     70c:	0c000761 	jal	1d84 <float32::operator*(float32 const&) const>
     710:	27a40010 	addiu	a0,sp,16
     714:	27a4001c 	addiu	a0,sp,28
     718:	0c00072e 	jal	1cb8 <float32::operator+=(float32 const&)>
     71c:	27a50010 	addiu	a1,sp,16
     720:	27a50044 	addiu	a1,sp,68
     724:	00a03021 	move	a2,a1
     728:	0c000761 	jal	1d84 <float32::operator*(float32 const&) const>
     72c:	27a40010 	addiu	a0,sp,16
     730:	27a4001c 	addiu	a0,sp,28
     734:	0c00072e 	jal	1cb8 <float32::operator+=(float32 const&)>
     738:	27a50010 	addiu	a1,sp,16
     73c:	27a40010 	addiu	a0,sp,16
     740:	0c000851 	jal	2144 <rsqrt(float32 const&)>
     744:	27a5001c 	addiu	a1,sp,28
     748:	8fa20010 	lw	v0,16(sp)
     74c:	27a40050 	addiu	a0,sp,80
     750:	27a50088 	addiu	a1,sp,136
     754:	0c00087c 	jal	21f0 <float32::operator*=(float32 const&)>
     758:	afa20088 	sw	v0,136(sp)
     75c:	27a4004c 	addiu	a0,sp,76
     760:	0c00087c 	jal	21f0 <float32::operator*=(float32 const&)>
     764:	27a50088 	addiu	a1,sp,136
     768:	27a40048 	addiu	a0,sp,72
     76c:	0c00087c 	jal	21f0 <float32::operator*=(float32 const&)>
     770:	27a50088 	addiu	a1,sp,136
     774:	27a40044 	addiu	a0,sp,68
     778:	0c00087c 	jal	21f0 <float32::operator*=(float32 const&)>
     77c:	27a50088 	addiu	a1,sp,136
     780:	27a600d8 	addiu	a2,sp,216
     784:	27a40010 	addiu	a0,sp,16
     788:	27a50034 	addiu	a1,sp,52
     78c:	0c000761 	jal	1d84 <float32::operator*(float32 const&) const>
     790:	afa00084 	sw	zero,132(sp)
     794:	27a40084 	addiu	a0,sp,132
     798:	0c000752 	jal	1d48 <float32::operator-=(float32 const&)>
     79c:	27a50010 	addiu	a1,sp,16
     7a0:	27a600d4 	addiu	a2,sp,212
     7a4:	27a40010 	addiu	a0,sp,16
     7a8:	0c000761 	jal	1d84 <float32::operator*(float32 const&) const>
     7ac:	27a50030 	addiu	a1,sp,48
     7b0:	27a40084 	addiu	a0,sp,132
     7b4:	0c000752 	jal	1d48 <float32::operator-=(float32 const&)>
     7b8:	27a50010 	addiu	a1,sp,16
     7bc:	27a600d0 	addiu	a2,sp,208
     7c0:	27a40010 	addiu	a0,sp,16
     7c4:	0c000761 	jal	1d84 <float32::operator*(float32 const&) const>
     7c8:	27a5002c 	addiu	a1,sp,44
     7cc:	27a40084 	addiu	a0,sp,132
     7d0:	0c000752 	jal	1d48 <float32::operator-=(float32 const&)>
     7d4:	27a50010 	addiu	a1,sp,16
     7d8:	27a40010 	addiu	a0,sp,16
     7dc:	27a50038 	addiu	a1,sp,56
     7e0:	0c000761 	jal	1d84 <float32::operator*(float32 const&) const>
     7e4:	27a600d8 	addiu	a2,sp,216
     7e8:	8fa20010 	lw	v0,16(sp)
     7ec:	27a600d0 	addiu	a2,sp,208
     7f0:	27a40010 	addiu	a0,sp,16
     7f4:	27a50030 	addiu	a1,sp,48
     7f8:	0c000761 	jal	1d84 <float32::operator*(float32 const&) const>
     7fc:	afa20080 	sw	v0,128(sp)
     800:	27a40080 	addiu	a0,sp,128
     804:	0c00072e 	jal	1cb8 <float32::operator+=(float32 const&)>
     808:	27a50010 	addiu	a1,sp,16
     80c:	27a600d4 	addiu	a2,sp,212
     810:	27a40010 	addiu	a0,sp,16
     814:	0c000761 	jal	1d84 <float32::operator*(float32 const&) const>
     818:	27a5002c 	addiu	a1,sp,44
     81c:	27a40080 	addiu	a0,sp,128
     820:	0c000752 	jal	1d48 <float32::operator-=(float32 const&)>
     824:	27a50010 	addiu	a1,sp,16
     828:	27a40010 	addiu	a0,sp,16
     82c:	27a50038 	addiu	a1,sp,56
     830:	0c000761 	jal	1d84 <float32::operator*(float32 const&) const>
     834:	27a600d4 	addiu	a2,sp,212
     838:	8fa20010 	lw	v0,16(sp)
     83c:	27a600d0 	addiu	a2,sp,208
     840:	27a40010 	addiu	a0,sp,16
     844:	27a50034 	addiu	a1,sp,52
     848:	0c000761 	jal	1d84 <float32::operator*(float32 const&) const>
     84c:	afa2007c 	sw	v0,124(sp)
     850:	27a4007c 	addiu	a0,sp,124
     854:	0c000752 	jal	1d48 <float32::operator-=(float32 const&)>
     858:	27a50010 	addiu	a1,sp,16
     85c:	27a600d8 	addiu	a2,sp,216
     860:	27a40010 	addiu	a0,sp,16
     864:	0c000761 	jal	1d84 <float32::operator*(float32 const&) const>
     868:	27a5002c 	addiu	a1,sp,44
     86c:	27a4007c 	addiu	a0,sp,124
     870:	0c00072e 	jal	1cb8 <float32::operator+=(float32 const&)>
     874:	27a50010 	addiu	a1,sp,16
     878:	27a40010 	addiu	a0,sp,16
     87c:	27a50038 	addiu	a1,sp,56
     880:	0c000761 	jal	1d84 <float32::operator*(float32 const&) const>
     884:	27a600d0 	addiu	a2,sp,208
     888:	8fa20010 	lw	v0,16(sp)
     88c:	27a600d4 	addiu	a2,sp,212
     890:	27a40010 	addiu	a0,sp,16
     894:	27a50034 	addiu	a1,sp,52
     898:	0c000761 	jal	1d84 <float32::operator*(float32 const&) const>
     89c:	afa20078 	sw	v0,120(sp)
     8a0:	27a40078 	addiu	a0,sp,120
     8a4:	0c00072e 	jal	1cb8 <float32::operator+=(float32 const&)>
     8a8:	27a50010 	addiu	a1,sp,16
     8ac:	27a600d8 	addiu	a2,sp,216
     8b0:	27a40010 	addiu	a0,sp,16
     8b4:	0c000761 	jal	1d84 <float32::operator*(float32 const&) const>
     8b8:	27a50030 	addiu	a1,sp,48
     8bc:	27a40078 	addiu	a0,sp,120
     8c0:	0c000752 	jal	1d48 <float32::operator-=(float32 const&)>
     8c4:	27a50010 	addiu	a1,sp,16
     8c8:	27a40018 	addiu	a0,sp,24
     8cc:	27a5008c 	addiu	a1,sp,140
     8d0:	0c000761 	jal	1d84 <float32::operator*(float32 const&) const>
     8d4:	27a60050 	addiu	a2,sp,80
     8d8:	27a40014 	addiu	a0,sp,20
     8dc:	27a50084 	addiu	a1,sp,132
     8e0:	0c00073d 	jal	1cf4 <float32::operator-(float32 const&) const>
     8e4:	27a60018 	addiu	a2,sp,24
     8e8:	02a03021 	move	a2,s5
     8ec:	27a40010 	addiu	a0,sp,16
     8f0:	0c000761 	jal	1d84 <float32::operator*(float32 const&) const>
     8f4:	27a50014 	addiu	a1,sp,20
     8f8:	02202021 	move	a0,s1
     8fc:	0c00072e 	jal	1cb8 <float32::operator+=(float32 const&)>
     900:	27a50010 	addiu	a1,sp,16
     904:	27a40018 	addiu	a0,sp,24
     908:	27a5008c 	addiu	a1,sp,140
     90c:	0c000761 	jal	1d84 <float32::operator*(float32 const&) const>
     910:	27a6004c 	addiu	a2,sp,76
     914:	27a40014 	addiu	a0,sp,20
     918:	27a50080 	addiu	a1,sp,128
     91c:	0c00073d 	jal	1cf4 <float32::operator-(float32 const&) const>
     920:	27a60018 	addiu	a2,sp,24
     924:	02a03021 	move	a2,s5
     928:	27a40010 	addiu	a0,sp,16
     92c:	0c000761 	jal	1d84 <float32::operator*(float32 const&) const>
     930:	27a50014 	addiu	a1,sp,20
     934:	02402021 	move	a0,s2
     938:	0c00072e 	jal	1cb8 <float32::operator+=(float32 const&)>
     93c:	27a50010 	addiu	a1,sp,16
     940:	27a40018 	addiu	a0,sp,24
     944:	27a5008c 	addiu	a1,sp,140
     948:	0c000761 	jal	1d84 <float32::operator*(float32 const&) const>
     94c:	27a60048 	addiu	a2,sp,72
     950:	27a40014 	addiu	a0,sp,20
     954:	27a5007c 	addiu	a1,sp,124
     958:	0c00073d 	jal	1cf4 <float32::operator-(float32 const&) const>
     95c:	27a60018 	addiu	a2,sp,24
     960:	02a03021 	move	a2,s5
     964:	27a40010 	addiu	a0,sp,16
     968:	0c000761 	jal	1d84 <float32::operator*(float32 const&) const>
     96c:	27a50014 	addiu	a1,sp,20
     970:	02802021 	move	a0,s4
     974:	0c00072e 	jal	1cb8 <float32::operator+=(float32 const&)>
     978:	27a50010 	addiu	a1,sp,16
     97c:	27a40018 	addiu	a0,sp,24
     980:	27a5008c 	addiu	a1,sp,140
     984:	0c000761 	jal	1d84 <float32::operator*(float32 const&) const>
     988:	27a60044 	addiu	a2,sp,68
     98c:	27a40014 	addiu	a0,sp,20
     990:	27a50078 	addiu	a1,sp,120
     994:	0c00073d 	jal	1cf4 <float32::operator-(float32 const&) const>
     998:	27a60018 	addiu	a2,sp,24
     99c:	02a03021 	move	a2,s5
     9a0:	27a40010 	addiu	a0,sp,16
     9a4:	0c000761 	jal	1d84 <float32::operator*(float32 const&) const>
     9a8:	27a50014 	addiu	a1,sp,20
     9ac:	02002021 	move	a0,s0
     9b0:	0c00072e 	jal	1cb8 <float32::operator+=(float32 const&)>
     9b4:	27a50010 	addiu	a1,sp,16
     9b8:	27a40010 	addiu	a0,sp,16
     9bc:	02202821 	move	a1,s1
     9c0:	0c000761 	jal	1d84 <float32::operator*(float32 const&) const>
     9c4:	02203021 	move	a2,s1
     9c8:	8fa20010 	lw	v0,16(sp)
     9cc:	02403021 	move	a2,s2
     9d0:	27a40010 	addiu	a0,sp,16
     9d4:	02402821 	move	a1,s2
     9d8:	0c000761 	jal	1d84 <float32::operator*(float32 const&) const>
     9dc:	afa2001c 	sw	v0,28(sp)
     9e0:	27a4001c 	addiu	a0,sp,28
     9e4:	0c00072e 	jal	1cb8 <float32::operator+=(float32 const&)>
     9e8:	27a50010 	addiu	a1,sp,16
     9ec:	02803021 	move	a2,s4
     9f0:	27a40010 	addiu	a0,sp,16
     9f4:	0c000761 	jal	1d84 <float32::operator*(float32 const&) const>
     9f8:	02802821 	move	a1,s4
     9fc:	27a4001c 	addiu	a0,sp,28
     a00:	0c00072e 	jal	1cb8 <float32::operator+=(float32 const&)>
     a04:	27a50010 	addiu	a1,sp,16
     a08:	02003021 	move	a2,s0
     a0c:	27a40010 	addiu	a0,sp,16
     a10:	0c000761 	jal	1d84 <float32::operator*(float32 const&) const>
     a14:	02002821 	move	a1,s0
     a18:	27a4001c 	addiu	a0,sp,28
     a1c:	0c00072e 	jal	1cb8 <float32::operator+=(float32 const&)>
     a20:	27a50010 	addiu	a1,sp,16
     a24:	27a40010 	addiu	a0,sp,16
     a28:	0c000851 	jal	2144 <rsqrt(float32 const&)>
     a2c:	27a5001c 	addiu	a1,sp,28
     a30:	8fa20010 	lw	v0,16(sp)
     a34:	02202021 	move	a0,s1
     a38:	27a50088 	addiu	a1,sp,136
     a3c:	0c00087c 	jal	21f0 <float32::operator*=(float32 const&)>
     a40:	afa20088 	sw	v0,136(sp)
     a44:	02402021 	move	a0,s2
     a48:	0c00087c 	jal	21f0 <float32::operator*=(float32 const&)>
     a4c:	27a50088 	addiu	a1,sp,136
     a50:	02802021 	move	a0,s4
     a54:	0c00087c 	jal	21f0 <float32::operator*=(float32 const&)>
     a58:	27a50088 	addiu	a1,sp,136
     a5c:	02002021 	move	a0,s0
     a60:	0c00087c 	jal	21f0 <float32::operator*=(float32 const&)>
     a64:	27a50088 	addiu	a1,sp,136
     a68:	0c0004d0 	jal	1340 <_ZN6System8Registry8instanceEv.local.6>
     a6c:	00000000 	nop
     a70:	8e630040 	lw	v1,64(s3)
     a74:	0c0004d0 	jal	1340 <_ZN6System8Registry8instanceEv.local.6>
     a78:	ac430000 	sw	v1,0(v0)
     a7c:	8e630044 	lw	v1,68(s3)
     a80:	0c0004d0 	jal	1340 <_ZN6System8Registry8instanceEv.local.6>
     a84:	ac430004 	sw	v1,4(v0)
     a88:	8e630048 	lw	v1,72(s3)
     a8c:	0c0004d0 	jal	1340 <_ZN6System8Registry8instanceEv.local.6>
     a90:	ac430008 	sw	v1,8(v0)
     a94:	8e63004c 	lw	v1,76(s3)
     a98:	27a40040 	addiu	a0,sp,64
     a9c:	ac43000c 	sw	v1,12(v0)
     aa0:	27a50034 	addiu	a1,sp,52
     aa4:	02403021 	move	a2,s2
     aa8:	afb70038 	sw	s7,56(sp)
     aac:	afb60034 	sw	s6,52(sp)
     ab0:	0c000761 	jal	1d84 <float32::operator*(float32 const&) const>
     ab4:	afa0003c 	sw	zero,60(sp)
     ab8:	27a40044 	addiu	a0,sp,68
     abc:	27a50040 	addiu	a1,sp,64
     ac0:	0c000761 	jal	1d84 <float32::operator*(float32 const&) const>
     ac4:	02803021 	move	a2,s4
     ac8:	27a40028 	addiu	a0,sp,40
     acc:	27a50034 	addiu	a1,sp,52
     ad0:	0c000761 	jal	1d84 <float32::operator*(float32 const&) const>
     ad4:	02203021 	move	a2,s1
     ad8:	27a4002c 	addiu	a0,sp,44
     adc:	27a50028 	addiu	a1,sp,40
     ae0:	0c000761 	jal	1d84 <float32::operator*(float32 const&) const>
     ae4:	02003021 	move	a2,s0
     ae8:	27a40048 	addiu	a0,sp,72
     aec:	27a50044 	addiu	a1,sp,68
     af0:	0c00073d 	jal	1cf4 <float32::operator-(float32 const&) const>
     af4:	27a6002c 	addiu	a2,sp,44
     af8:	27a40018 	addiu	a0,sp,24
     afc:	27a50034 	addiu	a1,sp,52
     b00:	0c000761 	jal	1d84 <float32::operator*(float32 const&) const>
     b04:	02203021 	move	a2,s1
     b08:	27a4001c 	addiu	a0,sp,28
     b0c:	27a50018 	addiu	a1,sp,24
     b10:	0c000761 	jal	1d84 <float32::operator*(float32 const&) const>
     b14:	02203021 	move	a2,s1
     b18:	27a40010 	addiu	a0,sp,16
     b1c:	27a50034 	addiu	a1,sp,52
     b20:	0c000761 	jal	1d84 <float32::operator*(float32 const&) const>
     b24:	02403021 	move	a2,s2
     b28:	27a40014 	addiu	a0,sp,20
     b2c:	27a50010 	addiu	a1,sp,16
     b30:	0c000761 	jal	1d84 <float32::operator*(float32 const&) const>
     b34:	02403021 	move	a2,s2
     b38:	27a40020 	addiu	a0,sp,32
     b3c:	27a5001c 	addiu	a1,sp,28
     b40:	0c000718 	jal	1c60 <float32::operator+(float32 const&) const>
     b44:	27a60014 	addiu	a2,sp,20
     b48:	27a40024 	addiu	a0,sp,36
     b4c:	27a50020 	addiu	a1,sp,32
     b50:	0c00073d 	jal	1cf4 <float32::operator-(float32 const&) const>
     b54:	27a60038 	addiu	a2,sp,56
     b58:	27a40030 	addiu	a0,sp,48
     b5c:	27a50048 	addiu	a1,sp,72
     b60:	0c0007b7 	jal	1edc <atan2_deg(float32 const&, float32 const&)>
     b64:	27a60024 	addiu	a2,sp,36
     b68:	27a40048 	addiu	a0,sp,72
     b6c:	27a50034 	addiu	a1,sp,52
     b70:	0c000761 	jal	1d84 <float32::operator*(float32 const&) const>
     b74:	02403021 	move	a2,s2
     b78:	27a4004c 	addiu	a0,sp,76
     b7c:	27a50048 	addiu	a1,sp,72
     b80:	0c000761 	jal	1d84 <float32::operator*(float32 const&) const>
     b84:	02003021 	move	a2,s0
     b88:	27a40040 	addiu	a0,sp,64
     b8c:	27a50034 	addiu	a1,sp,52
     b90:	0c000761 	jal	1d84 <float32::operator*(float32 const&) const>
     b94:	02203021 	move	a2,s1
     b98:	27a40044 	addiu	a0,sp,68
     b9c:	27a50040 	addiu	a1,sp,64
     ba0:	0c000761 	jal	1d84 <float32::operator*(float32 const&) const>
     ba4:	02803021 	move	a2,s4
     ba8:	27a40050 	addiu	a0,sp,80
     bac:	27a5004c 	addiu	a1,sp,76
     bb0:	0c000718 	jal	1c60 <float32::operator+(float32 const&) const>
     bb4:	27a60044 	addiu	a2,sp,68
     bb8:	3c023fa2 	lui	v0,0x3fa2
     bbc:	3442f983 	ori	v0,v0,0xf983
     bc0:	afa2002c 	sw	v0,44(sp)
     bc4:	3c02becf 	lui	v0,0xbecf
     bc8:	3442817a 	ori	v0,v0,0x817a
     bcc:	27a40010 	addiu	a0,sp,16
     bd0:	27a5002c 	addiu	a1,sp,44
     bd4:	27a60050 	addiu	a2,sp,80
     bd8:	0c000761 	jal	1d84 <float32::operator*(float32 const&) const>
     bdc:	afa20028 	sw	v0,40(sp)
     be0:	27a40018 	addiu	a0,sp,24
     be4:	27a50028 	addiu	a1,sp,40
     be8:	0c000761 	jal	1d84 <float32::operator*(float32 const&) const>
     bec:	27a60050 	addiu	a2,sp,80
     bf0:	3c137fff 	lui	s3,0x7fff
     bf4:	8fa20050 	lw	v0,80(sp)
     bf8:	3673ffff 	ori	s3,s3,0xffff
     bfc:	00531024 	and	v0,v0,s3
     c00:	27a40014 	addiu	a0,sp,20
     c04:	27a50018 	addiu	a1,sp,24
     c08:	27a6001c 	addiu	a2,sp,28
     c0c:	afa20050 	sw	v0,80(sp)
     c10:	0c000761 	jal	1d84 <float32::operator*(float32 const&) const>
     c14:	afa2001c 	sw	v0,28(sp)
     c18:	27a40054 	addiu	a0,sp,84
     c1c:	27a50010 	addiu	a1,sp,16
     c20:	0c000718 	jal	1c60 <float32::operator+(float32 const&) const>
     c24:	27a60014 	addiu	a2,sp,20
     c28:	3c023e66 	lui	v0,0x3e66
     c2c:	24426666 	addiu	v0,v0,26214
     c30:	afa20024 	sw	v0,36(sp)
     c34:	8fa20054 	lw	v0,84(sp)
     c38:	27a4001c 	addiu	a0,sp,28
     c3c:	00539824 	and	s3,v0,s3
     c40:	27a50054 	addiu	a1,sp,84
     c44:	27a60020 	addiu	a2,sp,32
     c48:	afb30054 	sw	s3,84(sp)
     c4c:	0c000761 	jal	1d84 <float32::operator*(float32 const&) const>
     c50:	afb30020 	sw	s3,32(sp)
     c54:	27a40018 	addiu	a0,sp,24
     c58:	27a5001c 	addiu	a1,sp,28
     c5c:	0c00073d 	jal	1cf4 <float32::operator-(float32 const&) const>
     c60:	27a60054 	addiu	a2,sp,84
     c64:	27a40014 	addiu	a0,sp,20
     c68:	27a50024 	addiu	a1,sp,36
     c6c:	0c000761 	jal	1d84 <float32::operator*(float32 const&) const>
     c70:	27a60018 	addiu	a2,sp,24
     c74:	27a40010 	addiu	a0,sp,16
     c78:	27a50014 	addiu	a1,sp,20
     c7c:	0c000718 	jal	1c60 <float32::operator+(float32 const&) const>
     c80:	27a60054 	addiu	a2,sp,84
     c84:	8fa20010 	lw	v0,16(sp)
     c88:	27a40018 	addiu	a0,sp,24
     c8c:	27a50038 	addiu	a1,sp,56
     c90:	27a60054 	addiu	a2,sp,84
     c94:	0c00053d 	jal	14f4 <float32::operator/(float32 const&) const>
     c98:	afa20054 	sw	v0,84(sp)
     c9c:	27a4001c 	addiu	a0,sp,28
     ca0:	27a5003c 	addiu	a1,sp,60
     ca4:	0c00073d 	jal	1cf4 <float32::operator-(float32 const&) const>
     ca8:	27a60018 	addiu	a2,sp,24
     cac:	3c024265 	lui	v0,0x4265
     cb0:	24422ee1 	addiu	v0,v0,12001
     cb4:	27a40014 	addiu	a0,sp,20
     cb8:	27a5001c 	addiu	a1,sp,28
     cbc:	27a60010 	addiu	a2,sp,16
     cc0:	0c000761 	jal	1d84 <float32::operator*(float32 const&) const>
     cc4:	afa20010 	sw	v0,16(sp)
     cc8:	27a40048 	addiu	a0,sp,72
     ccc:	27a50034 	addiu	a1,sp,52
     cd0:	0c000761 	jal	1d84 <float32::operator*(float32 const&) const>
     cd4:	02803021 	move	a2,s4
     cd8:	27a4004c 	addiu	a0,sp,76
     cdc:	27a50048 	addiu	a1,sp,72
     ce0:	0c000761 	jal	1d84 <float32::operator*(float32 const&) const>
     ce4:	02003021 	move	a2,s0
     ce8:	27a40040 	addiu	a0,sp,64
     cec:	27a50034 	addiu	a1,sp,52
     cf0:	0c000761 	jal	1d84 <float32::operator*(float32 const&) const>
     cf4:	02203021 	move	a2,s1
     cf8:	27a40044 	addiu	a0,sp,68
     cfc:	27a50040 	addiu	a1,sp,64
     d00:	0c000761 	jal	1d84 <float32::operator*(float32 const&) const>
     d04:	02403021 	move	a2,s2
     d08:	27a40050 	addiu	a0,sp,80
     d0c:	27a5004c 	addiu	a1,sp,76
     d10:	0c00073d 	jal	1cf4 <float32::operator-(float32 const&) const>
     d14:	27a60044 	addiu	a2,sp,68
     d18:	27a40020 	addiu	a0,sp,32
     d1c:	27a50034 	addiu	a1,sp,52
     d20:	0c000761 	jal	1d84 <float32::operator*(float32 const&) const>
     d24:	02203021 	move	a2,s1
     d28:	27a40024 	addiu	a0,sp,36
     d2c:	27a50020 	addiu	a1,sp,32
     d30:	0c000761 	jal	1d84 <float32::operator*(float32 const&) const>
     d34:	02203021 	move	a2,s1
     d38:	27a40018 	addiu	a0,sp,24
     d3c:	27a50034 	addiu	a1,sp,52
     d40:	0c000761 	jal	1d84 <float32::operator*(float32 const&) const>
     d44:	02003021 	move	a2,s0
     d48:	27a4001c 	addiu	a0,sp,28
     d4c:	27a50018 	addiu	a1,sp,24
     d50:	0c000761 	jal	1d84 <float32::operator*(float32 const&) const>
     d54:	02003021 	move	a2,s0
     d58:	27a40028 	addiu	a0,sp,40
     d5c:	27a50024 	addiu	a1,sp,36
     d60:	0c000718 	jal	1c60 <float32::operator+(float32 const&) const>
     d64:	27a6001c 	addiu	a2,sp,28
     d68:	27a4002c 	addiu	a0,sp,44
     d6c:	27a50028 	addiu	a1,sp,40
     d70:	0c00073d 	jal	1cf4 <float32::operator-(float32 const&) const>
     d74:	27a60038 	addiu	a2,sp,56
     d78:	27a40010 	addiu	a0,sp,16
     d7c:	27a50050 	addiu	a1,sp,80
     d80:	0c0007b7 	jal	1edc <atan2_deg(float32 const&, float32 const&)>
     d84:	27a6002c 	addiu	a2,sp,44
     d88:	0c0004d0 	jal	1340 <_ZN6System8Registry8instanceEv.local.6>
     d8c:	00000000 	nop
     d90:	8fa30030 	lw	v1,48(sp)
     d94:	0c0004d0 	jal	1340 <_ZN6System8Registry8instanceEv.local.6>
     d98:	ac430010 	sw	v1,16(v0)
     d9c:	8fa30014 	lw	v1,20(sp)
     da0:	0c0004d0 	jal	1340 <_ZN6System8Registry8instanceEv.local.6>
     da4:	ac430014 	sw	v1,20(v0)
     da8:	8fa30010 	lw	v1,16(sp)
     dac:	8fbf011c 	lw	ra,284(sp)
     db0:	8fbe0118 	lw	s8,280(sp)
     db4:	8fb70114 	lw	s7,276(sp)
     db8:	8fb60110 	lw	s6,272(sp)
     dbc:	8fb5010c 	lw	s5,268(sp)
     dc0:	8fb40108 	lw	s4,264(sp)
     dc4:	8fb30104 	lw	s3,260(sp)
     dc8:	8fb20100 	lw	s2,256(sp)
     dcc:	8fb100fc 	lw	s1,252(sp)
     dd0:	8fb000f8 	lw	s0,248(sp)
     dd4:	ac430018 	sw	v1,24(v0)
     dd8:	03e00008 	jr	ra
     ddc:	27bd0120 	addiu	sp,sp,288

00000de0 <Radio::Digital::XBeeReadIdleTask::start()>:
     de0:	8c020018 	lw	v0,24(zero)
     de4:	00000000 	nop
     de8:	00021403 	sra	v0,v0,0x10
     dec:	1040004c 	beqz	v0,f20 <Radio::Digital::XBeeReadIdleTask::start()+0x140>
     df0:	00000000 	nop
     df4:	8c020018 	lw	v0,24(zero)
     df8:	8c830040 	lw	v1,64(a0)
     dfc:	27bdffe8 	addiu	sp,sp,-24
     e00:	00021600 	sll	v0,v0,0x18
     e04:	00021603 	sra	v0,v0,0x18
     e08:	afb00010 	sw	s0,16(sp)
     e0c:	afbf0014 	sw	ra,20(sp)
     e10:	00808021 	move	s0,a0
     e14:	ac000018 	sw	zero,24(zero)
     e18:	1460000f 	bnez	v1,e58 <Radio::Digital::XBeeReadIdleTask::start()+0x78>
     e1c:	00000000 	nop
     e20:	2403003e 	li	v1,62
     e24:	14430006 	bne	v0,v1,e40 <Radio::Digital::XBeeReadIdleTask::start()+0x60>
     e28:	00000000 	nop
     e2c:	3c020000 	lui	v0,0x0
     e30:	24422364 	addiu	v0,v0,9060
     e34:	a080003c 	sb	zero,60(a0)
     e38:	080003c5 	j	f14 <Radio::Digital::XBeeReadIdleTask::start()+0x134>
     e3c:	ac820040 	sw	v0,64(a0)
     e40:	18400034 	blez	v0,f14 <Radio::Digital::XBeeReadIdleTask::start()+0x134>
     e44:	28430005 	slti	v1,v0,5
     e48:	14600025 	bnez	v1,ee0 <Radio::Digital::XBeeReadIdleTask::start()+0x100>
     e4c:	3c038000 	lui	v1,0x8000
     e50:	080003c5 	j	f14 <Radio::Digital::XBeeReadIdleTask::start()+0x134>
     e54:	00000000 	nop
     e58:	8c840038 	lw	a0,56(a0)
     e5c:	00000000 	nop
     e60:	2c860020 	sltiu	a2,a0,32
     e64:	10c00006 	beqz	a2,e80 <Radio::Digital::XBeeReadIdleTask::start()+0xa0>
     e68:	24050001 	li	a1,1
     e6c:	02042821 	addu	a1,s0,a0
     e70:	24840001 	addiu	a0,a0,1
     e74:	a0a20014 	sb	v0,20(a1)
     e78:	ae040038 	sw	a0,56(s0)
     e7c:	00002821 	move	a1,zero
     e80:	3c040000 	lui	a0,0x0
     e84:	24842364 	addiu	a0,a0,9060
     e88:	1464000a 	bne	v1,a0,eb4 <Radio::Digital::XBeeReadIdleTask::start()+0xd4>
     e8c:	2404000d 	li	a0,13
     e90:	10440003 	beq	v0,a0,ea0 <Radio::Digital::XBeeReadIdleTask::start()+0xc0>
     e94:	2404000a 	li	a0,10
     e98:	1444000b 	bne	v0,a0,ec8 <Radio::Digital::XBeeReadIdleTask::start()+0xe8>
     e9c:	00000000 	nop
     ea0:	8e020038 	lw	v0,56(s0)
     ea4:	00000000 	nop
     ea8:	02021021 	addu	v0,s0,v0
     eac:	080003c1 	j	f04 <Radio::Digital::XBeeReadIdleTask::start()+0x124>
     eb0:	a0400014 	sb	zero,20(v0)
     eb4:	9202003c 	lbu	v0,60(s0)
     eb8:	8e040038 	lw	a0,56(s0)
     ebc:	00000000 	nop
     ec0:	10820010 	beq	a0,v0,f04 <Radio::Digital::XBeeReadIdleTask::start()+0x124>
     ec4:	00000000 	nop
     ec8:	10a00012 	beqz	a1,f14 <Radio::Digital::XBeeReadIdleTask::start()+0x134>
     ecc:	00000000 	nop
     ed0:	ae000038 	sw	zero,56(s0)
     ed4:	a200003c 	sb	zero,60(s0)
     ed8:	080003c5 	j	f14 <Radio::Digital::XBeeReadIdleTask::start()+0x134>
     edc:	ae000040 	sw	zero,64(s0)
     ee0:	24630114 	addiu	v1,v1,276
     ee4:	000210c0 	sll	v0,v0,0x3
     ee8:	00621021 	addu	v0,v1,v0
     eec:	88430004 	lwl	v1,4(v0)
     ef0:	90440000 	lbu	a0,0(v0)
     ef4:	98430007 	lwr	v1,7(v0)
     ef8:	a204003c 	sb	a0,60(s0)
     efc:	080003c5 	j	f14 <Radio::Digital::XBeeReadIdleTask::start()+0x134>
     f00:	ae030040 	sw	v1,64(s0)
     f04:	0060f809 	jalr	v1
     f08:	26040014 	addiu	a0,s0,20
     f0c:	080003b5 	j	ed4 <Radio::Digital::XBeeReadIdleTask::start()+0xf4>
     f10:	ae000038 	sw	zero,56(s0)
     f14:	8fbf0014 	lw	ra,20(sp)
     f18:	8fb00010 	lw	s0,16(sp)
     f1c:	27bd0018 	addiu	sp,sp,24
     f20:	03e00008 	jr	ra
     f24:	00000000 	nop

00000f28 <_ZN7float3219shift32RightJammingEjiPj.1713>:
     f28:	10a00009 	beqz	a1,f50 <_ZN7float3219shift32RightJammingEjiPj.1713+0x28>
     f2c:	00801021 	move	v0,a0
     f30:	28a30020 	slti	v1,a1,32
     f34:	10600006 	beqz	v1,f50 <_ZN7float3219shift32RightJammingEjiPj.1713+0x28>
     f38:	0004102b 	sltu	v0,zero,a0
     f3c:	00051023 	negu	v0,a1
     f40:	00441004 	sllv	v0,a0,v0
     f44:	0002102b 	sltu	v0,zero,v0
     f48:	00a42806 	srlv	a1,a0,a1
     f4c:	00451025 	or	v0,v0,a1
     f50:	03e00008 	jr	ra
     f54:	acc20000 	sw	v0,0(a2)

00000f58 <_ZN7float3212roundAndPackEbij.1703>:
     f58:	30a3ffff 	andi	v1,a1,0xffff
     f5c:	27bdffe8 	addiu	sp,sp,-24
     f60:	2c6300fd 	sltiu	v1,v1,253
     f64:	30c2007f 	andi	v0,a2,0x7f
     f68:	afb00010 	sw	s0,16(sp)
     f6c:	afbf0014 	sw	ra,20(sp)
     f70:	afa60020 	sw	a2,32(sp)
     f74:	14600015 	bnez	v1,fcc <_ZN7float3212roundAndPackEbij.1703+0x74>
     f78:	00808021 	move	s0,a0
     f7c:	28a300fe 	slti	v1,a1,254
     f80:	10600006 	beqz	v1,f9c <_ZN7float3212roundAndPackEbij.1703+0x44>
     f84:	240300fd 	li	v1,253
     f88:	14a30008 	bne	a1,v1,fac <_ZN7float3212roundAndPackEbij.1703+0x54>
     f8c:	00000000 	nop
     f90:	24c60040 	addiu	a2,a2,64
     f94:	04c1000d 	bgez	a2,fcc <_ZN7float3212roundAndPackEbij.1703+0x74>
     f98:	00000000 	nop
     f9c:	001087c0 	sll	s0,s0,0x1f
     fa0:	3c027f80 	lui	v0,0x7f80
     fa4:	08000401 	j	1004 <_ZN7float3212roundAndPackEbij.1703+0xac>
     fa8:	02021021 	addu	v0,s0,v0
     fac:	04a10007 	bgez	a1,fcc <_ZN7float3212roundAndPackEbij.1703+0x74>
     fb0:	00c02021 	move	a0,a2
     fb4:	00052823 	negu	a1,a1
     fb8:	0c0003ca 	jal	f28 <_ZN7float3219shift32RightJammingEjiPj.1713>
     fbc:	27a60020 	addiu	a2,sp,32
     fc0:	8fa20020 	lw	v0,32(sp)
     fc4:	00002821 	move	a1,zero
     fc8:	3042007f 	andi	v0,v0,0x7f
     fcc:	8fa30020 	lw	v1,32(sp)
     fd0:	38420040 	xori	v0,v0,0x40
     fd4:	2c420001 	sltiu	v0,v0,1
     fd8:	24630040 	addiu	v1,v1,64
     fdc:	000319c2 	srl	v1,v1,0x7
     fe0:	00021027 	nor	v0,zero,v0
     fe4:	00431024 	and	v0,v0,v1
     fe8:	0002182b 	sltu	v1,zero,v0
     fec:	00031823 	negu	v1,v1
     ff0:	00a32824 	and	a1,a1,v1
     ff4:	001087c0 	sll	s0,s0,0x1f
     ff8:	00501021 	addu	v0,v0,s0
     ffc:	00052dc0 	sll	a1,a1,0x17
    1000:	00451021 	addu	v0,v0,a1
    1004:	8fbf0014 	lw	ra,20(sp)
    1008:	8fb00010 	lw	s0,16(sp)
    100c:	03e00008 	jr	ra
    1010:	27bd0018 	addiu	sp,sp,24

00001014 <_ZN7float327addSigsEjjb.1698>:
    1014:	27bdffd8 	addiu	sp,sp,-40
    1018:	00801021 	move	v0,a0
    101c:	afb00018 	sw	s0,24(sp)
    1020:	000485c2 	srl	s0,a0,0x17
    1024:	3c04007f 	lui	a0,0x7f
    1028:	3484ffff 	ori	a0,a0,0xffff
    102c:	afb1001c 	sw	s1,28(sp)
    1030:	00058dc2 	srl	s1,a1,0x17
    1034:	321000ff 	andi	s0,s0,0xff
    1038:	323100ff 	andi	s1,s1,0xff
    103c:	00443824 	and	a3,v0,a0
    1040:	00a42824 	and	a1,a1,a0
    1044:	00073980 	sll	a3,a3,0x6
    1048:	00052980 	sll	a1,a1,0x6
    104c:	02111823 	subu	v1,s0,s1
    1050:	afb20020 	sw	s2,32(sp)
    1054:	afbf0024 	sw	ra,36(sp)
    1058:	00c09021 	move	s2,a2
    105c:	afa70014 	sw	a3,20(sp)
    1060:	18600010 	blez	v1,10a4 <_ZN7float327addSigsEjjb.1698+0x90>
    1064:	afa50010 	sw	a1,16(sp)
    1068:	240400ff 	li	a0,255
    106c:	1204003d 	beq	s0,a0,1164 <_ZN7float327addSigsEjjb.1698+0x150>
    1070:	00000000 	nop
    1074:	16200003 	bnez	s1,1084 <_ZN7float327addSigsEjjb.1698+0x70>
    1078:	3c022000 	lui	v0,0x2000
    107c:	08000423 	j	108c <_ZN7float327addSigsEjjb.1698+0x78>
    1080:	2463ffff 	addiu	v1,v1,-1
    1084:	00a22825 	or	a1,a1,v0
    1088:	afa50010 	sw	a1,16(sp)
    108c:	8fa40010 	lw	a0,16(sp)
    1090:	00602821 	move	a1,v1
    1094:	0c0003ca 	jal	f28 <_ZN7float3219shift32RightJammingEjiPj.1713>
    1098:	27a60010 	addiu	a2,sp,16
    109c:	0800044c 	j	1130 <_ZN7float327addSigsEjjb.1698+0x11c>
    10a0:	02002821 	move	a1,s0
    10a4:	10600014 	beqz	v1,10f8 <_ZN7float327addSigsEjjb.1698+0xe4>
    10a8:	00000000 	nop
    10ac:	240200ff 	li	v0,255
    10b0:	16220004 	bne	s1,v0,10c4 <_ZN7float327addSigsEjjb.1698+0xb0>
    10b4:	000617c0 	sll	v0,a2,0x1f
    10b8:	3c037f80 	lui	v1,0x7f80
    10bc:	08000459 	j	1164 <_ZN7float327addSigsEjjb.1698+0x150>
    10c0:	00431021 	addu	v0,v0,v1
    10c4:	16000003 	bnez	s0,10d4 <_ZN7float327addSigsEjjb.1698+0xc0>
    10c8:	00000000 	nop
    10cc:	08000438 	j	10e0 <_ZN7float327addSigsEjjb.1698+0xcc>
    10d0:	24630001 	addiu	v1,v1,1
    10d4:	3c052000 	lui	a1,0x2000
    10d8:	00e53825 	or	a3,a3,a1
    10dc:	afa70014 	sw	a3,20(sp)
    10e0:	8fa40014 	lw	a0,20(sp)
    10e4:	00032823 	negu	a1,v1
    10e8:	0c0003ca 	jal	f28 <_ZN7float3219shift32RightJammingEjiPj.1713>
    10ec:	27a60014 	addiu	a2,sp,20
    10f0:	0800044c 	j	1130 <_ZN7float327addSigsEjjb.1698+0x11c>
    10f4:	02202821 	move	a1,s1
    10f8:	240300ff 	li	v1,255
    10fc:	12030019 	beq	s0,v1,1164 <_ZN7float327addSigsEjjb.1698+0x150>
    1100:	00000000 	nop
    1104:	16000006 	bnez	s0,1120 <_ZN7float327addSigsEjjb.1698+0x10c>
    1108:	3c034000 	lui	v1,0x4000
    110c:	00a71021 	addu	v0,a1,a3
    1110:	00021182 	srl	v0,v0,0x6
    1114:	000697c0 	sll	s2,a2,0x1f
    1118:	08000459 	j	1164 <_ZN7float327addSigsEjjb.1698+0x150>
    111c:	00521021 	addu	v0,v0,s2
    1120:	00e31821 	addu	v1,a3,v1
    1124:	00653021 	addu	a2,v1,a1
    1128:	08000457 	j	115c <_ZN7float327addSigsEjjb.1698+0x148>
    112c:	02002821 	move	a1,s0
    1130:	8fa20014 	lw	v0,20(sp)
    1134:	3c032000 	lui	v1,0x2000
    1138:	00621825 	or	v1,v1,v0
    113c:	8fa20010 	lw	v0,16(sp)
    1140:	00000000 	nop
    1144:	00623021 	addu	a2,v1,v0
    1148:	00061040 	sll	v0,a2,0x1
    114c:	04400003 	bltz	v0,115c <_ZN7float327addSigsEjjb.1698+0x148>
    1150:	afa30014 	sw	v1,20(sp)
    1154:	24a5ffff 	addiu	a1,a1,-1
    1158:	00403021 	move	a2,v0
    115c:	0c0003d6 	jal	f58 <_ZN7float3212roundAndPackEbij.1703>
    1160:	02402021 	move	a0,s2
    1164:	8fbf0024 	lw	ra,36(sp)
    1168:	8fb20020 	lw	s2,32(sp)
    116c:	8fb1001c 	lw	s1,28(sp)
    1170:	8fb00018 	lw	s0,24(sp)
    1174:	03e00008 	jr	ra
    1178:	27bd0028 	addiu	sp,sp,40

0000117c <_ZN7float3219countLeadingZeros32Ej.1718>:
    117c:	3c030001 	lui	v1,0x1
    1180:	0083182b 	sltu	v1,a0,v1
    1184:	10600003 	beqz	v1,1194 <_ZN7float3219countLeadingZeros32Ej.1718+0x18>
    1188:	00001021 	move	v0,zero
    118c:	00042400 	sll	a0,a0,0x10
    1190:	24020010 	li	v0,16
    1194:	3c030100 	lui	v1,0x100
    1198:	0083182b 	sltu	v1,a0,v1
    119c:	10600005 	beqz	v1,11b4 <_ZN7float3219countLeadingZeros32Ej.1718+0x38>
    11a0:	3c038000 	lui	v1,0x8000
    11a4:	24420008 	addiu	v0,v0,8
    11a8:	00021600 	sll	v0,v0,0x18
    11ac:	00021603 	sra	v0,v0,0x18
    11b0:	00042200 	sll	a0,a0,0x8
    11b4:	24630014 	addiu	v1,v1,20
    11b8:	00042602 	srl	a0,a0,0x18
    11bc:	00832021 	addu	a0,a0,v1
    11c0:	90830000 	lbu	v1,0(a0)
    11c4:	00000000 	nop
    11c8:	00621021 	addu	v0,v1,v0
    11cc:	00021600 	sll	v0,v0,0x18
    11d0:	03e00008 	jr	ra
    11d4:	00021603 	sra	v0,v0,0x18

000011d8 <_ZN7float3218normalizeSubnormalEjPiPj.1708>:
    11d8:	27bdffe0 	addiu	sp,sp,-32
    11dc:	afbf001c 	sw	ra,28(sp)
    11e0:	afb20018 	sw	s2,24(sp)
    11e4:	afb10014 	sw	s1,20(sp)
    11e8:	afb00010 	sw	s0,16(sp)
    11ec:	00a08821 	move	s1,a1
    11f0:	00c09021 	move	s2,a2
    11f4:	0c00045f 	jal	117c <_ZN7float3219countLeadingZeros32Ej.1718>
    11f8:	00808021 	move	s0,a0
    11fc:	2442fff8 	addiu	v0,v0,-8
    1200:	00021600 	sll	v0,v0,0x18
    1204:	00021603 	sra	v0,v0,0x18
    1208:	8fbf001c 	lw	ra,28(sp)
    120c:	24030001 	li	v1,1
    1210:	00508004 	sllv	s0,s0,v0
    1214:	00621023 	subu	v0,v1,v0
    1218:	ae500000 	sw	s0,0(s2)
    121c:	8fb20018 	lw	s2,24(sp)
    1220:	8fb00010 	lw	s0,16(sp)
    1224:	ae220000 	sw	v0,0(s1)
    1228:	8fb10014 	lw	s1,20(sp)
    122c:	03e00008 	jr	ra
    1230:	27bd0020 	addiu	sp,sp,32

00001234 <_ZNK7float32ltERKS_.1724>:
    1234:	8c830000 	lw	v1,0(a0)
    1238:	8ca40000 	lw	a0,0(a1)
    123c:	00032dc2 	srl	a1,v1,0x17
    1240:	30a500ff 	andi	a1,a1,0xff
    1244:	240200ff 	li	v0,255
    1248:	14a20007 	bne	a1,v0,1268 <_ZNK7float32ltERKS_.1724+0x34>
    124c:	00042dc2 	srl	a1,a0,0x17
    1250:	3c05007f 	lui	a1,0x7f
    1254:	34a5ffff 	ori	a1,a1,0xffff
    1258:	00652824 	and	a1,v1,a1
    125c:	14a00020 	bnez	a1,12e0 <_ZNK7float32ltERKS_.1724+0xac>
    1260:	00001021 	move	v0,zero
    1264:	00042dc2 	srl	a1,a0,0x17
    1268:	30a500ff 	andi	a1,a1,0xff
    126c:	240200ff 	li	v0,255
    1270:	14a20016 	bne	a1,v0,12cc <_ZNK7float32ltERKS_.1724+0x98>
    1274:	00032fc2 	srl	a1,v1,0x1f
    1278:	3c05007f 	lui	a1,0x7f
    127c:	34a5ffff 	ori	a1,a1,0xffff
    1280:	00852824 	and	a1,a0,a1
    1284:	14a00016 	bnez	a1,12e0 <_ZNK7float32ltERKS_.1724+0xac>
    1288:	00001021 	move	v0,zero
    128c:	080004b3 	j	12cc <_ZNK7float32ltERKS_.1724+0x98>
    1290:	00032fc2 	srl	a1,v1,0x1f
    1294:	10a00012 	beqz	a1,12e0 <_ZNK7float32ltERKS_.1724+0xac>
    1298:	00001021 	move	v0,zero
    129c:	00831825 	or	v1,a0,v1
    12a0:	00031840 	sll	v1,v1,0x1
    12a4:	1060000e 	beqz	v1,12e0 <_ZNK7float32ltERKS_.1724+0xac>
    12a8:	00000000 	nop
    12ac:	03e00008 	jr	ra
    12b0:	24020001 	li	v0,1
    12b4:	10640003 	beq	v1,a0,12c4 <_ZNK7float32ltERKS_.1724+0x90>
    12b8:	0064182b 	sltu	v1,v1,a0
    12bc:	14a3fffb 	bne	a1,v1,12ac <_ZNK7float32ltERKS_.1724+0x78>
    12c0:	00000000 	nop
    12c4:	03e00008 	jr	ra
    12c8:	00001021 	move	v0,zero
    12cc:	000417c2 	srl	v0,a0,0x1f
    12d0:	14a2fff0 	bne	a1,v0,1294 <_ZNK7float32ltERKS_.1724+0x60>
    12d4:	00000000 	nop
    12d8:	080004ad 	j	12b4 <_ZNK7float32ltERKS_.1724+0x80>
    12dc:	00000000 	nop
    12e0:	03e00008 	jr	ra
    12e4:	00000000 	nop

000012e8 <_ZN4MathL6divideEii.2558.1728>:
    12e8:	2403001f 	li	v1,31
    12ec:	00001021 	move	v0,zero
    12f0:	00003021 	move	a2,zero
    12f4:	24080001 	li	t0,1
    12f8:	2407ffff 	li	a3,-1
    12fc:	00684804 	sllv	t1,t0,v1
    1300:	01244824 	and	t1,t1,a0
    1304:	00694807 	srav	t1,t1,v1
    1308:	00063040 	sll	a2,a2,0x1
    130c:	00c93021 	addu	a2,a2,t1
    1310:	00c5482a 	slt	t1,a2,a1
    1314:	15200003 	bnez	t1,1324 <_ZN4MathL6divideEii.2558.1728+0x3c>
    1318:	00021040 	sll	v0,v0,0x1
    131c:	00c53023 	subu	a2,a2,a1
    1320:	24420001 	addiu	v0,v0,1
    1324:	2463ffff 	addiu	v1,v1,-1
    1328:	1467fff5 	bne	v1,a3,1300 <_ZN4MathL6divideEii.2558.1728+0x18>
    132c:	00684804 	sllv	t1,t0,v1
    1330:	03e00008 	jr	ra
    1334:	00000000 	nop

00001338 <_ZN5Radio8Messages14defaultHandlerEPc.1737>:
    1338:	03e00008 	jr	ra
    133c:	00000000 	nop

00001340 <_ZN6System8Registry8instanceEv.local.6>:
    1340:	3c028000 	lui	v0,0x8000
    1344:	804302c8 	lb	v1,712(v0)
    1348:	00402021 	move	a0,v0
    134c:	14600012 	bnez	v1,1398 <_ZN6System8Registry8instanceEv.local.6+0x58>
    1350:	3c028000 	lui	v0,0x8000
    1354:	3c038000 	lui	v1,0x8000
    1358:	244502d0 	addiu	a1,v0,720
    135c:	246302ec 	addiu	v1,v1,748
    1360:	24a50080 	addiu	a1,a1,128
    1364:	ac600000 	sw	zero,0(v1)
    1368:	24630004 	addiu	v1,v1,4
    136c:	1465fffd 	bne	v1,a1,1364 <_ZN6System8Registry8instanceEv.local.6+0x24>
    1370:	244702d0 	addiu	a3,v0,720
    1374:	00001821 	move	v1,zero
    1378:	24050007 	li	a1,7
    137c:	00033080 	sll	a2,v1,0x2
    1380:	00e63021 	addu	a2,a3,a2
    1384:	24630001 	addiu	v1,v1,1
    1388:	1465fffc 	bne	v1,a1,137c <_ZN6System8Registry8instanceEv.local.6+0x3c>
    138c:	acc00000 	sw	zero,0(a2)
    1390:	24030001 	li	v1,1
    1394:	a08302c8 	sb	v1,712(a0)
    1398:	03e00008 	jr	ra
    139c:	244202d0 	addiu	v0,v0,720

000013a0 <Control::StabilizationAndEngineUpdateTask::start()>:
    13a0:	27bdffd8 	addiu	sp,sp,-40
    13a4:	afb00014 	sw	s0,20(sp)
    13a8:	afbf0024 	sw	ra,36(sp)
    13ac:	afb30020 	sw	s3,32(sp)
    13b0:	afb2001c 	sw	s2,28(sp)
    13b4:	0c0004d0 	jal	1340 <_ZN6System8Registry8instanceEv.local.6>
    13b8:	afb10018 	sw	s1,24(sp)
    13bc:	8c500054 	lw	s0,84(v0)
    13c0:	00000000 	nop
    13c4:	2e0200c9 	sltiu	v0,s0,201
    13c8:	1440000f 	bnez	v0,1408 <Control::StabilizationAndEngineUpdateTask::start()+0x68>
    13cc:	00000000 	nop
    13d0:	0c0004d0 	jal	1340 <_ZN6System8Registry8instanceEv.local.6>
    13d4:	00000000 	nop
    13d8:	8c530064 	lw	s3,100(v0)
    13dc:	0c0004d0 	jal	1340 <_ZN6System8Registry8instanceEv.local.6>
    13e0:	02139821 	addu	s3,s0,s3
    13e4:	8c510068 	lw	s1,104(v0)
    13e8:	0c0004d0 	jal	1340 <_ZN6System8Registry8instanceEv.local.6>
    13ec:	02118823 	subu	s1,s0,s1
    13f0:	8c520064 	lw	s2,100(v0)
    13f4:	0c0004d0 	jal	1340 <_ZN6System8Registry8instanceEv.local.6>
    13f8:	02129023 	subu	s2,s0,s2
    13fc:	8c420068 	lw	v0,104(v0)
    1400:	08000505 	j	1414 <Control::StabilizationAndEngineUpdateTask::start()+0x74>
    1404:	02028021 	addu	s0,s0,v0
    1408:	02009021 	move	s2,s0
    140c:	02008821 	move	s1,s0
    1410:	02009821 	move	s3,s0
    1414:	00139c00 	sll	s3,s3,0x10
    1418:	00118c00 	sll	s1,s1,0x10
    141c:	8fbf0024 	lw	ra,36(sp)
    1420:	02729025 	or	s2,s3,s2
    1424:	02308025 	or	s0,s1,s0
    1428:	ac12001c 	sw	s2,28(zero)
    142c:	8fb30020 	lw	s3,32(sp)
    1430:	ac100020 	sw	s0,32(zero)
    1434:	8fb2001c 	lw	s2,28(sp)
    1438:	8fb10018 	lw	s1,24(sp)
    143c:	8fb00014 	lw	s0,20(sp)
    1440:	03e00008 	jr	ra
    1444:	27bd0028 	addiu	sp,sp,40

00001448 <b32todec(int)>:
    1448:	000417c3 	sra	v0,a0,0x1f
    144c:	00441826 	xor	v1,v0,a0
    1450:	00621023 	subu	v0,v1,v0
    1454:	3c030098 	lui	v1,0x98
    1458:	34639680 	ori	v1,v1,0x9680
    145c:	0043102b 	sltu	v0,v0,v1
    1460:	14400014 	bnez	v0,14b4 <b32todec(int)+0x6c>
    1464:	3c074f42 	lui	a3,0x4f42
    1468:	08000533 	j	14cc <b32todec(int)+0x84>
    146c:	3c062020 	lui	a2,0x2020
    1470:	2403001f 	li	v1,31
    1474:	00002821 	move	a1,zero
    1478:	00664004 	sllv	t0,a2,v1
    147c:	01044024 	and	t0,t0,a0
    1480:	00684007 	srav	t0,t0,v1
    1484:	00052840 	sll	a1,a1,0x1
    1488:	00a82821 	addu	a1,a1,t0
    148c:	28a8000a 	slti	t0,a1,10
    1490:	15000003 	bnez	t0,14a0 <b32todec(int)+0x58>
    1494:	00021040 	sll	v0,v0,0x1
    1498:	24a5fff6 	addiu	a1,a1,-10
    149c:	24420001 	addiu	v0,v0,1
    14a0:	2463ffff 	addiu	v1,v1,-1
    14a4:	1467fff5 	bne	v1,a3,147c <b32todec(int)+0x34>
    14a8:	00664004 	sllv	t0,a2,v1
    14ac:	0800052f 	j	14bc <b32todec(int)+0x74>
    14b0:	00402021 	move	a0,v0
    14b4:	24060001 	li	a2,1
    14b8:	2407ffff 	li	a3,-1
    14bc:	1480ffec 	bnez	a0,1470 <b32todec(int)+0x28>
    14c0:	00001021 	move	v0,zero
    14c4:	03e00008 	jr	ra
    14c8:	00001821 	move	v1,zero
    14cc:	34e74947 	ori	a3,a3,0x4947
    14d0:	04810005 	bgez	a0,14e8 <b32todec(int)+0xa0>
    14d4:	34c62054 	ori	a2,a2,0x2054
    14d8:	3c074f42 	lui	a3,0x4f42
    14dc:	3c062020 	lui	a2,0x2020
    14e0:	34e74947 	ori	a3,a3,0x4947
    14e4:	34c62d54 	ori	a2,a2,0x2d54
    14e8:	00c01021 	move	v0,a2
    14ec:	03e00008 	jr	ra
    14f0:	00e01821 	move	v1,a3

000014f4 <float32::operator/(float32 const&) const>:
    14f4:	27bdffb0 	addiu	sp,sp,-80
    14f8:	8ca50000 	lw	a1,0(a1)
    14fc:	afb20030 	sw	s2,48(sp)
    1500:	8cd20000 	lw	s2,0(a2)
    1504:	afb00028 	sw	s0,40(sp)
    1508:	00808021 	move	s0,a0
    150c:	3c04007f 	lui	a0,0x7f
    1510:	3484ffff 	ori	a0,a0,0xffff
    1514:	000515c2 	srl	v0,a1,0x17
    1518:	00121dc2 	srl	v1,s2,0x17
    151c:	00a43024 	and	a2,a1,a0
    1520:	304200ff 	andi	v0,v0,0xff
    1524:	02442024 	and	a0,s2,a0
    1528:	306300ff 	andi	v1,v1,0xff
    152c:	00b29026 	xor	s2,a1,s2
    1530:	240500ff 	li	a1,255
    1534:	afbf004c 	sw	ra,76(sp)
    1538:	afbe0048 	sw	s8,72(sp)
    153c:	afb70044 	sw	s7,68(sp)
    1540:	afb60040 	sw	s6,64(sp)
    1544:	afb5003c 	sw	s5,60(sp)
    1548:	afb40038 	sw	s4,56(sp)
    154c:	afb30034 	sw	s3,52(sp)
    1550:	afb1002c 	sw	s1,44(sp)
    1554:	afa6001c 	sw	a2,28(sp)
    1558:	afa20014 	sw	v0,20(sp)
    155c:	afa40018 	sw	a0,24(sp)
    1560:	afa30010 	sw	v1,16(sp)
    1564:	14450005 	bne	v0,a1,157c <float32::operator/(float32 const&) const+0x88>
    1568:	001297c2 	srl	s2,s2,0x1f
    156c:	1462000f 	bne	v1,v0,15ac <float32::operator/(float32 const&) const+0xb8>
    1570:	001297c0 	sll	s2,s2,0x1f
    1574:	080005dc 	j	1770 <float32::operator/(float32 const&) const+0x27c>
    1578:	2402ffff 	li	v0,-1
    157c:	14650003 	bne	v1,a1,158c <float32::operator/(float32 const&) const+0x98>
    1580:	00000000 	nop
    1584:	0800057a 	j	15e8 <float32::operator/(float32 const&) const+0xf4>
    1588:	001297c0 	sll	s2,s2,0x1f
    158c:	1460000d 	bnez	v1,15c4 <float32::operator/(float32 const&) const+0xd0>
    1590:	00000000 	nop
    1594:	14800008 	bnez	a0,15b8 <float32::operator/(float32 const&) const+0xc4>
    1598:	00461025 	or	v0,v0,a2
    159c:	14400003 	bnez	v0,15ac <float32::operator/(float32 const&) const+0xb8>
    15a0:	001297c0 	sll	s2,s2,0x1f
    15a4:	080005dc 	j	1770 <float32::operator/(float32 const&) const+0x27c>
    15a8:	2402ffff 	li	v0,-1
    15ac:	3c027f80 	lui	v0,0x7f80
    15b0:	0800057a 	j	15e8 <float32::operator/(float32 const&) const+0xf4>
    15b4:	02429021 	addu	s2,s2,v0
    15b8:	27a50010 	addiu	a1,sp,16
    15bc:	0c000476 	jal	11d8 <_ZN7float3218normalizeSubnormalEjPiPj.1708>
    15c0:	27a60018 	addiu	a2,sp,24
    15c4:	8fa20014 	lw	v0,20(sp)
    15c8:	00000000 	nop
    15cc:	1440000b 	bnez	v0,15fc <float32::operator/(float32 const&) const+0x108>
    15d0:	00000000 	nop
    15d4:	8fa4001c 	lw	a0,28(sp)
    15d8:	00000000 	nop
    15dc:	14800004 	bnez	a0,15f0 <float32::operator/(float32 const&) const+0xfc>
    15e0:	00000000 	nop
    15e4:	001297c0 	sll	s2,s2,0x1f
    15e8:	080005dd 	j	1774 <float32::operator/(float32 const&) const+0x280>
    15ec:	ae120000 	sw	s2,0(s0)
    15f0:	27a50014 	addiu	a1,sp,20
    15f4:	0c000476 	jal	11d8 <_ZN7float3218normalizeSubnormalEjPiPj.1708>
    15f8:	27a6001c 	addiu	a2,sp,28
    15fc:	8fa3001c 	lw	v1,28(sp)
    1600:	8fb10018 	lw	s1,24(sp)
    1604:	8fa20010 	lw	v0,16(sp)
    1608:	3c040080 	lui	a0,0x80
    160c:	8fb50014 	lw	s5,20(sp)
    1610:	00831825 	or	v1,a0,v1
    1614:	00918825 	or	s1,a0,s1
    1618:	00118a00 	sll	s1,s1,0x8
    161c:	02a2a823 	subu	s5,s5,v0
    1620:	000311c0 	sll	v0,v1,0x7
    1624:	00031a00 	sll	v1,v1,0x8
    1628:	0071182b 	sltu	v1,v1,s1
    162c:	afa2001c 	sw	v0,28(sp)
    1630:	10600003 	beqz	v1,1640 <float32::operator/(float32 const&) const+0x14c>
    1634:	afb10018 	sw	s1,24(sp)
    1638:	08000593 	j	164c <float32::operator/(float32 const&) const+0x158>
    163c:	26b5007d 	addiu	s5,s5,125
    1640:	00021042 	srl	v0,v0,0x1
    1644:	afa2001c 	sw	v0,28(sp)
    1648:	26b5007e 	addiu	s5,s5,126
    164c:	8fb3001c 	lw	s3,28(sp)
    1650:	00000000 	nop
    1654:	0271102b 	sltu	v0,s3,s1
    1658:	1040002d 	beqz	v0,1710 <float32::operator/(float32 const&) const+0x21c>
    165c:	2406ffff 	li	a2,-1
    1660:	0011f402 	srl	s8,s1,0x10
    1664:	001ebc00 	sll	s7,s8,0x10
    1668:	0277102b 	sltu	v0,s3,s7
    166c:	10400005 	beqz	v0,1684 <float32::operator/(float32 const&) const+0x190>
    1670:	3c14ffff 	lui	s4,0xffff
    1674:	02602021 	move	a0,s3
    1678:	0c0004ba 	jal	12e8 <_ZN4MathL6divideEii.2558.1728>
    167c:	03c02821 	move	a1,s8
    1680:	0002a400 	sll	s4,v0,0x10
    1684:	02910019 	multu	s4,s1
    1688:	00113400 	sll	a2,s1,0x10
    168c:	03c02821 	move	a1,s8
    1690:	00002021 	move	a0,zero
    1694:	24c60020 	addiu	a2,a2,32
    1698:	00005812 	mflo	t3
    169c:	000bb023 	negu	s6,t3
    16a0:	0016102b 	sltu	v0,zero,s6
    16a4:	00005010 	mfhi	t2
    16a8:	026a5023 	subu	t2,s3,t2
    16ac:	01425023 	subu	t2,t2,v0
    16b0:	afaa0024 	sw	t2,36(sp)
    16b4:	0c000d36 	jal	34d8 <__ashldi3>
    16b8:	afb60020 	sw	s6,32(sp)
    16bc:	8fa70020 	lw	a3,32(sp)
    16c0:	8faa0024 	lw	t2,36(sp)
    16c4:	080005b9 	j	16e4 <float32::operator/(float32 const&) const+0x1f0>
    16c8:	3c05ffff 	lui	a1,0xffff
    16cc:	0096b02b 	sltu	s6,a0,s6
    16d0:	01425021 	addu	t2,t2,v0
    16d4:	02ca5021 	addu	t2,s6,t2
    16d8:	0285a021 	addu	s4,s4,a1
    16dc:	0080b021 	move	s6,a0
    16e0:	00803821 	move	a3,a0
    16e4:	0540fff9 	bltz	t2,16cc <float32::operator/(float32 const&) const+0x1d8>
    16e8:	02c32021 	addu	a0,s6,v1
    16ec:	000a5400 	sll	t2,t2,0x10
    16f0:	00073c02 	srl	a3,a3,0x10
    16f4:	00ea2025 	or	a0,a3,t2
    16f8:	0097b82b 	sltu	s7,a0,s7
    16fc:	12e00003 	beqz	s7,170c <float32::operator/(float32 const&) const+0x218>
    1700:	3402ffff 	li	v0,0xffff
    1704:	0c0004ba 	jal	12e8 <_ZN4MathL6divideEii.2558.1728>
    1708:	03c02821 	move	a1,s8
    170c:	00543025 	or	a2,v0,s4
    1710:	30c2003f 	andi	v0,a2,0x3f
    1714:	2c420003 	sltiu	v0,v0,3
    1718:	10400013 	beqz	v0,1768 <float32::operator/(float32 const&) const+0x274>
    171c:	02402021 	move	a0,s2
    1720:	00d10019 	multu	a2,s1
    1724:	00004812 	mflo	t1
    1728:	00091023 	negu	v0,t1
    172c:	0002182b 	sltu	v1,zero,v0
    1730:	00004010 	mfhi	t0
    1734:	02684023 	subu	t0,s3,t0
    1738:	01034023 	subu	t0,t0,v1
    173c:	080005d6 	j	1758 <float32::operator/(float32 const&) const+0x264>
    1740:	00401821 	move	v1,v0
    1744:	00511821 	addu	v1,v0,s1
    1748:	0062102b 	sltu	v0,v1,v0
    174c:	00484021 	addu	t0,v0,t0
    1750:	24c6ffff 	addiu	a2,a2,-1
    1754:	00601021 	move	v0,v1
    1758:	0500fffa 	bltz	t0,1744 <float32::operator/(float32 const&) const+0x250>
    175c:	0003182b 	sltu	v1,zero,v1
    1760:	00c33025 	or	a2,a2,v1
    1764:	02402021 	move	a0,s2
    1768:	0c0003d6 	jal	f58 <_ZN7float3212roundAndPackEbij.1703>
    176c:	02a02821 	move	a1,s5
    1770:	ae020000 	sw	v0,0(s0)
    1774:	8fbf004c 	lw	ra,76(sp)
    1778:	02001021 	move	v0,s0
    177c:	8fbe0048 	lw	s8,72(sp)
    1780:	8fb70044 	lw	s7,68(sp)
    1784:	8fb60040 	lw	s6,64(sp)
    1788:	8fb5003c 	lw	s5,60(sp)
    178c:	8fb40038 	lw	s4,56(sp)
    1790:	8fb30034 	lw	s3,52(sp)
    1794:	8fb20030 	lw	s2,48(sp)
    1798:	8fb1002c 	lw	s1,44(sp)
    179c:	8fb00028 	lw	s0,40(sp)
    17a0:	03e00008 	jr	ra
    17a4:	27bd0050 	addiu	sp,sp,80

000017a8 <System::Bus::UART::write_waiting(char const*, unsigned int)>:
    17a8:	00a01821 	move	v1,a1
    17ac:	10a00004 	beqz	a1,17c0 <System::Bus::UART::write_waiting(char const*, unsigned int)+0x18>
    17b0:	00801021 	move	v0,a0
    17b4:	080005f7 	j	17dc <System::Bus::UART::write_waiting(char const*, unsigned int)+0x34>
    17b8:	24060020 	li	a2,32
    17bc:	24420001 	addiu	v0,v0,1
    17c0:	80460000 	lb	a2,0(v0)
    17c4:	00000000 	nop
    17c8:	14c0fffc 	bnez	a2,17bc <System::Bus::UART::write_waiting(char const*, unsigned int)+0x14>
    17cc:	00441823 	subu	v1,v0,a0
    17d0:	080005f7 	j	17dc <System::Bus::UART::write_waiting(char const*, unsigned int)+0x34>
    17d4:	24060020 	li	a2,32
    17d8:	00000000 	nop
    17dc:	8c020014 	lw	v0,20(zero)
    17e0:	00000000 	nop
    17e4:	00c21023 	subu	v0,a2,v0
    17e8:	0043102b 	sltu	v0,v0,v1
    17ec:	1440fffa 	bnez	v0,17d8 <System::Bus::UART::write_waiting(char const*, unsigned int)+0x30>
    17f0:	00000000 	nop
    17f4:	24060020 	li	a2,32
    17f8:	10a00008 	beqz	a1,181c <System::Bus::UART::write_waiting(char const*, unsigned int)+0x74>
    17fc:	00821821 	addu	v1,a0,v0
    1800:	0045182b 	sltu	v1,v0,a1
    1804:	1060000c 	beqz	v1,1838 <System::Bus::UART::write_waiting(char const*, unsigned int)+0x90>
    1808:	00000000 	nop
    180c:	00821821 	addu	v1,a0,v0
    1810:	80630000 	lb	v1,0(v1)
    1814:	0800060c 	j	1830 <System::Bus::UART::write_waiting(char const*, unsigned int)+0x88>
    1818:	24420001 	addiu	v0,v0,1
    181c:	80630000 	lb	v1,0(v1)
    1820:	00000000 	nop
    1824:	10600004 	beqz	v1,1838 <System::Bus::UART::write_waiting(char const*, unsigned int)+0x90>
    1828:	00000000 	nop
    182c:	24420001 	addiu	v0,v0,1
    1830:	1446fff1 	bne	v0,a2,17f8 <System::Bus::UART::write_waiting(char const*, unsigned int)+0x50>
    1834:	ac030014 	sw	v1,20(zero)
    1838:	03e00008 	jr	ra
    183c:	00000000 	nop

00001840 <Radio::Digital::TelemetryTask::start()>:
    1840:	27bdffd0 	addiu	sp,sp,-48
    1844:	24020080 	li	v0,128
    1848:	afbf002c 	sw	ra,44(sp)
    184c:	0c0004d0 	jal	1340 <_ZN6System8Registry8instanceEv.local.6>
    1850:	afa20010 	sw	v0,16(sp)
    1854:	8c420000 	lw	v0,0(v0)
    1858:	0c0004d0 	jal	1340 <_ZN6System8Registry8instanceEv.local.6>
    185c:	afa20014 	sw	v0,20(sp)
    1860:	8c420004 	lw	v0,4(v0)
    1864:	0c0004d0 	jal	1340 <_ZN6System8Registry8instanceEv.local.6>
    1868:	afa20018 	sw	v0,24(sp)
    186c:	8c420008 	lw	v0,8(v0)
    1870:	0c0004d0 	jal	1340 <_ZN6System8Registry8instanceEv.local.6>
    1874:	afa2001c 	sw	v0,28(sp)
    1878:	8c42000c 	lw	v0,12(v0)
    187c:	27a40010 	addiu	a0,sp,16
    1880:	24050014 	li	a1,20
    1884:	0c0005ea 	jal	17a8 <System::Bus::UART::write_waiting(char const*, unsigned int)>
    1888:	afa20020 	sw	v0,32(sp)
    188c:	8fbf002c 	lw	ra,44(sp)
    1890:	00000000 	nop
    1894:	03e00008 	jr	ra
    1898:	27bd0030 	addiu	sp,sp,48

0000189c <System::Tasking::TaskScheduler::selectNextTask(unsigned int)>:
    189c:	27bdfff8 	addiu	sp,sp,-8
    18a0:	24820004 	addiu	v0,a0,4
    18a4:	afa20000 	sw	v0,0(sp)
    18a8:	24820008 	addiu	v0,a0,8
    18ac:	afa20004 	sw	v0,4(sp)
    18b0:	00001821 	move	v1,zero
    18b4:	00004021 	move	t0,zero
    18b8:	2409ffff 	li	t1,-1
    18bc:	00003021 	move	a2,zero
    18c0:	240b0008 	li	t3,8
    18c4:	03a31021 	addu	v0,sp,v1
    18c8:	8c420000 	lw	v0,0(v0)
    18cc:	00000000 	nop
    18d0:	8c470000 	lw	a3,0(v0)
    18d4:	00000000 	nop
    18d8:	10e0000e 	beqz	a3,1914 <System::Tasking::TaskScheduler::selectNextTask(unsigned int)+0x78>
    18dc:	00e01021 	move	v0,a3
    18e0:	8c4a0004 	lw	t2,4(v0)
    18e4:	00000000 	nop
    18e8:	01455023 	subu	t2,t2,a1
    18ec:	0149602b 	sltu	t4,t2,t1
    18f0:	11800004 	beqz	t4,1904 <System::Tasking::TaskScheduler::selectNextTask(unsigned int)+0x68>
    18f4:	00000000 	nop
    18f8:	00e04021 	move	t0,a3
    18fc:	01404821 	move	t1,t2
    1900:	00403021 	move	a2,v0
    1904:	8c42000c 	lw	v0,12(v0)
    1908:	00000000 	nop
    190c:	1440fff4 	bnez	v0,18e0 <System::Tasking::TaskScheduler::selectNextTask(unsigned int)+0x44>
    1910:	00000000 	nop
    1914:	24630004 	addiu	v1,v1,4
    1918:	146bffeb 	bne	v1,t3,18c8 <System::Tasking::TaskScheduler::selectNextTask(unsigned int)+0x2c>
    191c:	03a31021 	addu	v0,sp,v1
    1920:	8cc20004 	lw	v0,4(a2)
    1924:	ac860010 	sw	a2,16(a0)
    1928:	ac820014 	sw	v0,20(a0)
    192c:	8c820004 	lw	v0,4(a0)
    1930:	27bd0008 	addiu	sp,sp,8
    1934:	01024026 	xor	t0,t0,v0
    1938:	0008402b 	sltu	t0,zero,t0
    193c:	03e00008 	jr	ra
    1940:	ac880018 	sw	t0,24(a0)

00001944 <System::Bus::I2C::stop()>:
    1944:	3c020001 	lui	v0,0x1
    1948:	244200ff 	addiu	v0,v0,255
    194c:	ac02000c 	sw	v0,12(zero)
    1950:	8c02000c 	lw	v0,12(zero)
    1954:	00000000 	nop
    1958:	0440fffd 	bltz	v0,1950 <System::Bus::I2C::stop()+0xc>
    195c:	00000000 	nop
    1960:	03e00008 	jr	ra
    1964:	00000000 	nop

00001968 <System::Bus::I2C::start()>:
    1968:	3c020004 	lui	v0,0x4
    196c:	244200ff 	addiu	v0,v0,255
    1970:	ac02000c 	sw	v0,12(zero)
    1974:	8c02000c 	lw	v0,12(zero)
    1978:	00000000 	nop
    197c:	0440fffd 	bltz	v0,1974 <System::Bus::I2C::start()+0xc>
    1980:	00000000 	nop
    1984:	03e00008 	jr	ra
    1988:	00000000 	nop

0000198c <_ZN6System3Bus3I2CL2ioEhNS1_6IoTypeE.2794>:
    198c:	24020001 	li	v0,1
    1990:	14a20002 	bne	a1,v0,199c <_ZN6System3Bus3I2CL2ioEhNS1_6IoTypeE.2794+0x10>
    1994:	3c020002 	lui	v0,0x2
    1998:	34840100 	ori	a0,a0,0x100
    199c:	00822025 	or	a0,a0,v0
    19a0:	ac04000c 	sw	a0,12(zero)
    19a4:	8c02000c 	lw	v0,12(zero)
    19a8:	00000000 	nop
    19ac:	0440fffd 	bltz	v0,19a4 <_ZN6System3Bus3I2CL2ioEhNS1_6IoTypeE.2794+0x18>
    19b0:	00000000 	nop
    19b4:	8c02000c 	lw	v0,12(zero)
    19b8:	03e00008 	jr	ra
    19bc:	00000000 	nop

000019c0 <_ZN7Sensors3IMU7MPU6050L13mpu6050_setupEcc.2490>:
    19c0:	27bdffe0 	addiu	sp,sp,-32
    19c4:	afbf001c 	sw	ra,28(sp)
    19c8:	afb10018 	sw	s1,24(sp)
    19cc:	afb00014 	sw	s0,20(sp)
    19d0:	00808821 	move	s1,a0
    19d4:	0c00065a 	jal	1968 <System::Bus::I2C::start()>
    19d8:	00a08021 	move	s0,a1
    19dc:	240400d0 	li	a0,208
    19e0:	0c000663 	jal	198c <_ZN6System3Bus3I2CL2ioEhNS1_6IoTypeE.2794>
    19e4:	24050001 	li	a1,1
    19e8:	322400ff 	andi	a0,s1,0xff
    19ec:	0c000663 	jal	198c <_ZN6System3Bus3I2CL2ioEhNS1_6IoTypeE.2794>
    19f0:	24050001 	li	a1,1
    19f4:	320400ff 	andi	a0,s0,0xff
    19f8:	0c000663 	jal	198c <_ZN6System3Bus3I2CL2ioEhNS1_6IoTypeE.2794>
    19fc:	24050001 	li	a1,1
    1a00:	8fbf001c 	lw	ra,28(sp)
    1a04:	8fb10018 	lw	s1,24(sp)
    1a08:	8fb00014 	lw	s0,20(sp)
    1a0c:	08000651 	j	1944 <System::Bus::I2C::stop()>
    1a10:	27bd0020 	addiu	sp,sp,32

00001a14 <System::Bus::I2C::read()>:
    1a14:	27bdffe8 	addiu	sp,sp,-24
    1a18:	240400ff 	li	a0,255
    1a1c:	afbf0014 	sw	ra,20(sp)
    1a20:	0c000663 	jal	198c <_ZN6System3Bus3I2CL2ioEhNS1_6IoTypeE.2794>
    1a24:	00002821 	move	a1,zero
    1a28:	8fbf0014 	lw	ra,20(sp)
    1a2c:	00021600 	sll	v0,v0,0x18
    1a30:	00021603 	sra	v0,v0,0x18
    1a34:	03e00008 	jr	ra
    1a38:	27bd0018 	addiu	sp,sp,24

00001a3c <float32::normalizeRoundAndPack(bool, int, unsigned int)>:
    1a3c:	27bdffe0 	addiu	sp,sp,-32
    1a40:	afb20018 	sw	s2,24(sp)
    1a44:	00809021 	move	s2,a0
    1a48:	00c02021 	move	a0,a2
    1a4c:	afbf001c 	sw	ra,28(sp)
    1a50:	afb10014 	sw	s1,20(sp)
    1a54:	afb00010 	sw	s0,16(sp)
    1a58:	00a08821 	move	s1,a1
    1a5c:	0c00045f 	jal	117c <_ZN7float3219countLeadingZeros32Ej.1718>
    1a60:	00c08021 	move	s0,a2
    1a64:	2442ffff 	addiu	v0,v0,-1
    1a68:	00023600 	sll	a2,v0,0x18
    1a6c:	00063603 	sra	a2,a2,0x18
    1a70:	02262823 	subu	a1,s1,a2
    1a74:	8fbf001c 	lw	ra,28(sp)
    1a78:	8fb10014 	lw	s1,20(sp)
    1a7c:	02402021 	move	a0,s2
    1a80:	00d03004 	sllv	a2,s0,a2
    1a84:	8fb20018 	lw	s2,24(sp)
    1a88:	8fb00010 	lw	s0,16(sp)
    1a8c:	080003d6 	j	f58 <_ZN7float3212roundAndPackEbij.1703>
    1a90:	27bd0020 	addiu	sp,sp,32

00001a94 <float32::float32(int)>:
    1a94:	27bdffe8 	addiu	sp,sp,-24
    1a98:	afb00010 	sw	s0,16(sp)
    1a9c:	afbf0014 	sw	ra,20(sp)
    1aa0:	14a00003 	bnez	a1,1ab0 <float32::float32(int)+0x1c>
    1aa4:	00808021 	move	s0,a0
    1aa8:	080006b7 	j	1adc <float32::float32(int)+0x48>
    1aac:	ac800000 	sw	zero,0(a0)
    1ab0:	3c028000 	lui	v0,0x8000
    1ab4:	14a20003 	bne	a1,v0,1ac4 <float32::float32(int)+0x30>
    1ab8:	000527c2 	srl	a0,a1,0x1f
    1abc:	080006b6 	j	1ad8 <float32::float32(int)+0x44>
    1ac0:	3c02cf00 	lui	v0,0xcf00
    1ac4:	10800002 	beqz	a0,1ad0 <float32::float32(int)+0x3c>
    1ac8:	00a03021 	move	a2,a1
    1acc:	00053023 	negu	a2,a1
    1ad0:	0c00068f 	jal	1a3c <float32::normalizeRoundAndPack(bool, int, unsigned int)>
    1ad4:	2405009c 	li	a1,156
    1ad8:	ae020000 	sw	v0,0(s0)
    1adc:	8fbf0014 	lw	ra,20(sp)
    1ae0:	8fb00010 	lw	s0,16(sp)
    1ae4:	03e00008 	jr	ra
    1ae8:	27bd0018 	addiu	sp,sp,24

00001aec <_ZN7float327subSigsEjjb.1680>:
    1aec:	27bdffd8 	addiu	sp,sp,-40
    1af0:	3c03007f 	lui	v1,0x7f
    1af4:	00a03821 	move	a3,a1
    1af8:	3463ffff 	ori	v1,v1,0xffff
    1afc:	afb1001c 	sw	s1,28(sp)
    1b00:	afb00018 	sw	s0,24(sp)
    1b04:	00058dc2 	srl	s1,a1,0x17
    1b08:	000485c2 	srl	s0,a0,0x17
    1b0c:	00801021 	move	v0,a0
    1b10:	321000ff 	andi	s0,s0,0xff
    1b14:	00832024 	and	a0,a0,v1
    1b18:	323100ff 	andi	s1,s1,0xff
    1b1c:	00e31824 	and	v1,a3,v1
    1b20:	000421c0 	sll	a0,a0,0x7
    1b24:	000319c0 	sll	v1,v1,0x7
    1b28:	02112823 	subu	a1,s0,s1
    1b2c:	afb20020 	sw	s2,32(sp)
    1b30:	afbf0024 	sw	ra,36(sp)
    1b34:	00c09021 	move	s2,a2
    1b38:	afa40014 	sw	a0,20(sp)
    1b3c:	1ca0002b 	bgtz	a1,1bec <_ZN7float327subSigsEjjb.1680+0x100>
    1b40:	afa30010 	sw	v1,16(sp)
    1b44:	14a0000e 	bnez	a1,1b80 <_ZN7float327subSigsEjjb.1680+0x94>
    1b48:	00000000 	nop
    1b4c:	240500ff 	li	a1,255
    1b50:	1205003d 	beq	s0,a1,1c48 <_ZN7float327subSigsEjjb.1680+0x15c>
    1b54:	2402ffff 	li	v0,-1
    1b58:	16000003 	bnez	s0,1b68 <_ZN7float327subSigsEjjb.1680+0x7c>
    1b5c:	0064102b 	sltu	v0,v1,a0
    1b60:	24110001 	li	s1,1
    1b64:	24100001 	li	s0,1
    1b68:	14400030 	bnez	v0,1c2c <_ZN7float327subSigsEjjb.1680+0x140>
    1b6c:	0083182b 	sltu	v1,a0,v1
    1b70:	10600035 	beqz	v1,1c48 <_ZN7float327subSigsEjjb.1680+0x15c>
    1b74:	00001021 	move	v0,zero
    1b78:	080006f5 	j	1bd4 <_ZN7float327subSigsEjjb.1680+0xe8>
    1b7c:	00000000 	nop
    1b80:	240200ff 	li	v0,255
    1b84:	16220005 	bne	s1,v0,1b9c <_ZN7float327subSigsEjjb.1680+0xb0>
    1b88:	38c20001 	xori	v0,a2,0x1
    1b8c:	000217c0 	sll	v0,v0,0x1f
    1b90:	3c037f80 	lui	v1,0x7f80
    1b94:	08000712 	j	1c48 <_ZN7float327subSigsEjjb.1680+0x15c>
    1b98:	00431021 	addu	v0,v0,v1
    1b9c:	16000003 	bnez	s0,1bac <_ZN7float327subSigsEjjb.1680+0xc0>
    1ba0:	3c034000 	lui	v1,0x4000
    1ba4:	080006ed 	j	1bb4 <_ZN7float327subSigsEjjb.1680+0xc8>
    1ba8:	24a50001 	addiu	a1,a1,1
    1bac:	00832025 	or	a0,a0,v1
    1bb0:	afa40014 	sw	a0,20(sp)
    1bb4:	8fa40014 	lw	a0,20(sp)
    1bb8:	00052823 	negu	a1,a1
    1bbc:	0c0003ca 	jal	f28 <_ZN7float3219shift32RightJammingEjiPj.1713>
    1bc0:	27a60014 	addiu	a2,sp,20
    1bc4:	8fa30010 	lw	v1,16(sp)
    1bc8:	3c024000 	lui	v0,0x4000
    1bcc:	00621025 	or	v0,v1,v0
    1bd0:	afa20010 	sw	v0,16(sp)
    1bd4:	8fa20014 	lw	v0,20(sp)
    1bd8:	8fa60010 	lw	a2,16(sp)
    1bdc:	3a520001 	xori	s2,s2,0x1
    1be0:	00c23023 	subu	a2,a2,v0
    1be4:	0800070f 	j	1c3c <_ZN7float327subSigsEjjb.1680+0x150>
    1be8:	02202821 	move	a1,s1
    1bec:	240400ff 	li	a0,255
    1bf0:	12040015 	beq	s0,a0,1c48 <_ZN7float327subSigsEjjb.1680+0x15c>
    1bf4:	00000000 	nop
    1bf8:	16200003 	bnez	s1,1c08 <_ZN7float327subSigsEjjb.1680+0x11c>
    1bfc:	3c024000 	lui	v0,0x4000
    1c00:	08000704 	j	1c10 <_ZN7float327subSigsEjjb.1680+0x124>
    1c04:	24a5ffff 	addiu	a1,a1,-1
    1c08:	00621825 	or	v1,v1,v0
    1c0c:	afa30010 	sw	v1,16(sp)
    1c10:	8fa40010 	lw	a0,16(sp)
    1c14:	0c0003ca 	jal	f28 <_ZN7float3219shift32RightJammingEjiPj.1713>
    1c18:	27a60010 	addiu	a2,sp,16
    1c1c:	8fa30014 	lw	v1,20(sp)
    1c20:	3c024000 	lui	v0,0x4000
    1c24:	00621025 	or	v0,v1,v0
    1c28:	afa20014 	sw	v0,20(sp)
    1c2c:	8fa20010 	lw	v0,16(sp)
    1c30:	8fa60014 	lw	a2,20(sp)
    1c34:	02002821 	move	a1,s0
    1c38:	00c23023 	subu	a2,a2,v0
    1c3c:	02402021 	move	a0,s2
    1c40:	0c00068f 	jal	1a3c <float32::normalizeRoundAndPack(bool, int, unsigned int)>
    1c44:	24a5ffff 	addiu	a1,a1,-1
    1c48:	8fbf0024 	lw	ra,36(sp)
    1c4c:	8fb20020 	lw	s2,32(sp)
    1c50:	8fb1001c 	lw	s1,28(sp)
    1c54:	8fb00018 	lw	s0,24(sp)
    1c58:	03e00008 	jr	ra
    1c5c:	27bd0028 	addiu	sp,sp,40

00001c60 <float32::operator+(float32 const&) const>:
    1c60:	27bdffe8 	addiu	sp,sp,-24
    1c64:	afb00010 	sw	s0,16(sp)
    1c68:	00808021 	move	s0,a0
    1c6c:	8ca40000 	lw	a0,0(a1)
    1c70:	8cc50000 	lw	a1,0(a2)
    1c74:	000417c2 	srl	v0,a0,0x1f
    1c78:	00051fc2 	srl	v1,a1,0x1f
    1c7c:	afbf0014 	sw	ra,20(sp)
    1c80:	14430005 	bne	v0,v1,1c98 <float32::operator+(float32 const&) const+0x38>
    1c84:	00403021 	move	a2,v0
    1c88:	0c000405 	jal	1014 <_ZN7float327addSigsEjjb.1698>
    1c8c:	00000000 	nop
    1c90:	08000728 	j	1ca0 <float32::operator+(float32 const&) const+0x40>
    1c94:	00000000 	nop
    1c98:	0c0006bb 	jal	1aec <_ZN7float327subSigsEjjb.1680>
    1c9c:	00000000 	nop
    1ca0:	8fbf0014 	lw	ra,20(sp)
    1ca4:	ae020000 	sw	v0,0(s0)
    1ca8:	02001021 	move	v0,s0
    1cac:	8fb00010 	lw	s0,16(sp)
    1cb0:	03e00008 	jr	ra
    1cb4:	27bd0018 	addiu	sp,sp,24

00001cb8 <float32::operator+=(float32 const&)>:
    1cb8:	27bdffe0 	addiu	sp,sp,-32
    1cbc:	afb00018 	sw	s0,24(sp)
    1cc0:	00808021 	move	s0,a0
    1cc4:	00a03021 	move	a2,a1
    1cc8:	27a40010 	addiu	a0,sp,16
    1ccc:	afbf001c 	sw	ra,28(sp)
    1cd0:	0c000718 	jal	1c60 <float32::operator+(float32 const&) const>
    1cd4:	02002821 	move	a1,s0
    1cd8:	8fa20010 	lw	v0,16(sp)
    1cdc:	8fbf001c 	lw	ra,28(sp)
    1ce0:	ae020000 	sw	v0,0(s0)
    1ce4:	02001021 	move	v0,s0
    1ce8:	8fb00018 	lw	s0,24(sp)
    1cec:	03e00008 	jr	ra
    1cf0:	27bd0020 	addiu	sp,sp,32

00001cf4 <float32::operator-(float32 const&) const>:
    1cf4:	27bdffe8 	addiu	sp,sp,-24
    1cf8:	afb00010 	sw	s0,16(sp)
    1cfc:	00808021 	move	s0,a0
    1d00:	8ca40000 	lw	a0,0(a1)
    1d04:	8cc50000 	lw	a1,0(a2)
    1d08:	000437c2 	srl	a2,a0,0x1f
    1d0c:	000517c2 	srl	v0,a1,0x1f
    1d10:	14c20005 	bne	a2,v0,1d28 <float32::operator-(float32 const&) const+0x34>
    1d14:	afbf0014 	sw	ra,20(sp)
    1d18:	0c0006bb 	jal	1aec <_ZN7float327subSigsEjjb.1680>
    1d1c:	00000000 	nop
    1d20:	0800074c 	j	1d30 <float32::operator-(float32 const&) const+0x3c>
    1d24:	00000000 	nop
    1d28:	0c000405 	jal	1014 <_ZN7float327addSigsEjjb.1698>
    1d2c:	00000000 	nop
    1d30:	8fbf0014 	lw	ra,20(sp)
    1d34:	ae020000 	sw	v0,0(s0)
    1d38:	02001021 	move	v0,s0
    1d3c:	8fb00010 	lw	s0,16(sp)
    1d40:	03e00008 	jr	ra
    1d44:	27bd0018 	addiu	sp,sp,24

00001d48 <float32::operator-=(float32 const&)>:
    1d48:	27bdffe0 	addiu	sp,sp,-32
    1d4c:	afb00018 	sw	s0,24(sp)
    1d50:	00808021 	move	s0,a0
    1d54:	00a03021 	move	a2,a1
    1d58:	27a40010 	addiu	a0,sp,16
    1d5c:	afbf001c 	sw	ra,28(sp)
    1d60:	0c00073d 	jal	1cf4 <float32::operator-(float32 const&) const>
    1d64:	02002821 	move	a1,s0
    1d68:	8fa20010 	lw	v0,16(sp)
    1d6c:	8fbf001c 	lw	ra,28(sp)
    1d70:	ae020000 	sw	v0,0(s0)
    1d74:	02001021 	move	v0,s0
    1d78:	8fb00018 	lw	s0,24(sp)
    1d7c:	03e00008 	jr	ra
    1d80:	27bd0020 	addiu	sp,sp,32

00001d84 <float32::operator*(float32 const&) const>:
    1d84:	27bdffd0 	addiu	sp,sp,-48
    1d88:	8ca20000 	lw	v0,0(a1)
    1d8c:	afb10028 	sw	s1,40(sp)
    1d90:	8cd10000 	lw	s1,0(a2)
    1d94:	3c06007f 	lui	a2,0x7f
    1d98:	34c6ffff 	ori	a2,a2,0xffff
    1d9c:	00021dc2 	srl	v1,v0,0x17
    1da0:	00112dc2 	srl	a1,s1,0x17
    1da4:	afb00024 	sw	s0,36(sp)
    1da8:	306300ff 	andi	v1,v1,0xff
    1dac:	00808021 	move	s0,a0
    1db0:	30a500ff 	andi	a1,a1,0xff
    1db4:	00462024 	and	a0,v0,a2
    1db8:	02263024 	and	a2,s1,a2
    1dbc:	00518826 	xor	s1,v0,s1
    1dc0:	240200ff 	li	v0,255
    1dc4:	afbf002c 	sw	ra,44(sp)
    1dc8:	afa4001c 	sw	a0,28(sp)
    1dcc:	afa30014 	sw	v1,20(sp)
    1dd0:	afa60018 	sw	a2,24(sp)
    1dd4:	afa50010 	sw	a1,16(sp)
    1dd8:	14620006 	bne	v1,v0,1df4 <float32::operator*(float32 const&) const+0x70>
    1ddc:	00118fc2 	srl	s1,s1,0x1f
    1de0:	00a62825 	or	a1,a1,a2
    1de4:	10a00036 	beqz	a1,1ec0 <float32::operator*(float32 const&) const+0x13c>
    1de8:	2402ffff 	li	v0,-1
    1dec:	08000780 	j	1e00 <float32::operator*(float32 const&) const+0x7c>
    1df0:	00118fc0 	sll	s1,s1,0x1f
    1df4:	14a20005 	bne	a1,v0,1e0c <float32::operator*(float32 const&) const+0x88>
    1df8:	00000000 	nop
    1dfc:	00118fc0 	sll	s1,s1,0x1f
    1e00:	3c027f80 	lui	v0,0x7f80
    1e04:	08000794 	j	1e50 <float32::operator*(float32 const&) const+0xcc>
    1e08:	02228821 	addu	s1,s1,v0
    1e0c:	14600007 	bnez	v1,1e2c <float32::operator*(float32 const&) const+0xa8>
    1e10:	00000000 	nop
    1e14:	14800003 	bnez	a0,1e24 <float32::operator*(float32 const&) const+0xa0>
    1e18:	27a50014 	addiu	a1,sp,20
    1e1c:	08000794 	j	1e50 <float32::operator*(float32 const&) const+0xcc>
    1e20:	00118fc0 	sll	s1,s1,0x1f
    1e24:	0c000476 	jal	11d8 <_ZN7float3218normalizeSubnormalEjPiPj.1708>
    1e28:	27a6001c 	addiu	a2,sp,28
    1e2c:	8fa20010 	lw	v0,16(sp)
    1e30:	00000000 	nop
    1e34:	1440000b 	bnez	v0,1e64 <float32::operator*(float32 const&) const+0xe0>
    1e38:	00000000 	nop
    1e3c:	8fa40018 	lw	a0,24(sp)
    1e40:	00000000 	nop
    1e44:	14800004 	bnez	a0,1e58 <float32::operator*(float32 const&) const+0xd4>
    1e48:	27a50010 	addiu	a1,sp,16
    1e4c:	00118fc0 	sll	s1,s1,0x1f
    1e50:	080007b1 	j	1ec4 <float32::operator*(float32 const&) const+0x140>
    1e54:	ae110000 	sw	s1,0(s0)
    1e58:	0c000476 	jal	11d8 <_ZN7float3218normalizeSubnormalEjPiPj.1708>
    1e5c:	27a60018 	addiu	a2,sp,24
    1e60:	8fa20010 	lw	v0,16(sp)
    1e64:	8fa30014 	lw	v1,20(sp)
    1e68:	8fa60018 	lw	a2,24(sp)
    1e6c:	00621821 	addu	v1,v1,v0
    1e70:	8fa2001c 	lw	v0,28(sp)
    1e74:	3c040080 	lui	a0,0x80
    1e78:	00821025 	or	v0,a0,v0
    1e7c:	00863025 	or	a2,a0,a2
    1e80:	000211c0 	sll	v0,v0,0x7
    1e84:	00063200 	sll	a2,a2,0x8
    1e88:	00c20019 	multu	a2,v0
    1e8c:	afa2001c 	sw	v0,28(sp)
    1e90:	afa60018 	sw	a2,24(sp)
    1e94:	00003812 	mflo	a3
    1e98:	0007102b 	sltu	v0,zero,a3
    1e9c:	00003010 	mfhi	a2
    1ea0:	00461025 	or	v0,v0,a2
    1ea4:	00023040 	sll	a2,v0,0x1
    1ea8:	04c10003 	bgez	a2,1eb8 <float32::operator*(float32 const&) const+0x134>
    1eac:	2465ff80 	addiu	a1,v1,-128
    1eb0:	2465ff81 	addiu	a1,v1,-127
    1eb4:	00403021 	move	a2,v0
    1eb8:	0c0003d6 	jal	f58 <_ZN7float3212roundAndPackEbij.1703>
    1ebc:	02202021 	move	a0,s1
    1ec0:	ae020000 	sw	v0,0(s0)
    1ec4:	8fbf002c 	lw	ra,44(sp)
    1ec8:	02001021 	move	v0,s0
    1ecc:	8fb10028 	lw	s1,40(sp)
    1ed0:	8fb00024 	lw	s0,36(sp)
    1ed4:	03e00008 	jr	ra
    1ed8:	27bd0030 	addiu	sp,sp,48

00001edc <atan2_deg(float32 const&, float32 const&)>:
    1edc:	3c023e8f 	lui	v0,0x3e8f
    1ee0:	27bdffa0 	addiu	sp,sp,-96
    1ee4:	3442cf81 	ori	v0,v0,0xcf81
    1ee8:	3c037fff 	lui	v1,0x7fff
    1eec:	afb20054 	sw	s2,84(sp)
    1ef0:	afa20024 	sw	v0,36(sp)
    1ef4:	00809021 	move	s2,a0
    1ef8:	3c024265 	lui	v0,0x4265
    1efc:	8ca40000 	lw	a0,0(a1)
    1f00:	24422ee0 	addiu	v0,v0,12000
    1f04:	3463ffff 	ori	v1,v1,0xffff
    1f08:	afb0004c 	sw	s0,76(sp)
    1f0c:	afa20020 	sw	v0,32(sp)
    1f10:	00a08021 	move	s0,a1
    1f14:	3c0242b4 	lui	v0,0x42b4
    1f18:	00832824 	and	a1,a0,v1
    1f1c:	ae050000 	sw	a1,0(s0)
    1f20:	afa2001c 	sw	v0,28(sp)
    1f24:	3c02c2b4 	lui	v0,0xc2b4
    1f28:	afa20018 	sw	v0,24(sp)
    1f2c:	8cc20000 	lw	v0,0(a2)
    1f30:	afb10050 	sw	s1,80(sp)
    1f34:	00431824 	and	v1,v0,v1
    1f38:	afbf005c 	sw	ra,92(sp)
    1f3c:	afb30058 	sw	s3,88(sp)
    1f40:	00c08821 	move	s1,a2
    1f44:	acc30000 	sw	v1,0(a2)
    1f48:	00053dc2 	srl	a3,a1,0x17
    1f4c:	240600ff 	li	a2,255
    1f50:	14e60007 	bne	a3,a2,1f70 <atan2_deg(float32 const&, float32 const&)+0x94>
    1f54:	000335c2 	srl	a2,v1,0x17
    1f58:	3c06007f 	lui	a2,0x7f
    1f5c:	34c6ffff 	ori	a2,a2,0xffff
    1f60:	00862024 	and	a0,a0,a2
    1f64:	1480000e 	bnez	a0,1fa0 <atan2_deg(float32 const&, float32 const&)+0xc4>
    1f68:	27a40038 	addiu	a0,sp,56
    1f6c:	000335c2 	srl	a2,v1,0x17
    1f70:	240400ff 	li	a0,255
    1f74:	14c40068 	bne	a2,a0,2118 <atan2_deg(float32 const&, float32 const&)+0x23c>
    1f78:	3c04007f 	lui	a0,0x7f
    1f7c:	3484ffff 	ori	a0,a0,0xffff
    1f80:	00441024 	and	v0,v0,a0
    1f84:	14400006 	bnez	v0,1fa0 <atan2_deg(float32 const&, float32 const&)+0xc4>
    1f88:	27a40038 	addiu	a0,sp,56
    1f8c:	08000846 	j	2118 <atan2_deg(float32 const&, float32 const&)+0x23c>
    1f90:	00000000 	nop
    1f94:	1460002d 	bnez	v1,204c <atan2_deg(float32 const&, float32 const&)+0x170>
    1f98:	27a40014 	addiu	a0,sp,20
    1f9c:	27a40038 	addiu	a0,sp,56
    1fa0:	02002821 	move	a1,s0
    1fa4:	0c000761 	jal	1d84 <float32::operator*(float32 const&) const>
    1fa8:	02203021 	move	a2,s1
    1fac:	27a4003c 	addiu	a0,sp,60
    1fb0:	27a50038 	addiu	a1,sp,56
    1fb4:	0c000761 	jal	1d84 <float32::operator*(float32 const&) const>
    1fb8:	27a60020 	addiu	a2,sp,32
    1fbc:	3c02bf80 	lui	v0,0xbf80
    1fc0:	27a40040 	addiu	a0,sp,64
    1fc4:	27a5003c 	addiu	a1,sp,60
    1fc8:	27a60034 	addiu	a2,sp,52
    1fcc:	0c000761 	jal	1d84 <float32::operator*(float32 const&) const>
    1fd0:	afa20034 	sw	v0,52(sp)
    1fd4:	27a4002c 	addiu	a0,sp,44
    1fd8:	02002821 	move	a1,s0
    1fdc:	0c000761 	jal	1d84 <float32::operator*(float32 const&) const>
    1fe0:	02003021 	move	a2,s0
    1fe4:	27a40014 	addiu	a0,sp,20
    1fe8:	27a50024 	addiu	a1,sp,36
    1fec:	0c000761 	jal	1d84 <float32::operator*(float32 const&) const>
    1ff0:	02203021 	move	a2,s1
    1ff4:	27a40028 	addiu	a0,sp,40
    1ff8:	27a50014 	addiu	a1,sp,20
    1ffc:	0c000761 	jal	1d84 <float32::operator*(float32 const&) const>
    2000:	02203021 	move	a2,s1
    2004:	27a40030 	addiu	a0,sp,48
    2008:	27a5002c 	addiu	a1,sp,44
    200c:	0c00073d 	jal	1cf4 <float32::operator-(float32 const&) const>
    2010:	27a60028 	addiu	a2,sp,40
    2014:	27a60030 	addiu	a2,sp,48
    2018:	27a40044 	addiu	a0,sp,68
    201c:	0c00053d 	jal	14f4 <float32::operator/(float32 const&) const>
    2020:	27a50040 	addiu	a1,sp,64
    2024:	02002021 	move	a0,s0
    2028:	27a50010 	addiu	a1,sp,16
    202c:	0c00048d 	jal	1234 <_ZNK7float32ltERKS_.1724>
    2030:	afa00010 	sw	zero,16(sp)
    2034:	10400002 	beqz	v0,2040 <atan2_deg(float32 const&, float32 const&)+0x164>
    2038:	27a6001c 	addiu	a2,sp,28
    203c:	27a60018 	addiu	a2,sp,24
    2040:	02402021 	move	a0,s2
    2044:	08000842 	j	2108 <atan2_deg(float32 const&, float32 const&)+0x22c>
    2048:	27a50044 	addiu	a1,sp,68
    204c:	02002821 	move	a1,s0
    2050:	0c000761 	jal	1d84 <float32::operator*(float32 const&) const>
    2054:	02203021 	move	a2,s1
    2058:	27a40014 	addiu	a0,sp,20
    205c:	27a50010 	addiu	a1,sp,16
    2060:	0c00048d 	jal	1234 <_ZNK7float32ltERKS_.1724>
    2064:	afa00010 	sw	zero,16(sp)
    2068:	10400002 	beqz	v0,2074 <atan2_deg(float32 const&, float32 const&)+0x198>
    206c:	27b30018 	addiu	s3,sp,24
    2070:	27b3001c 	addiu	s3,sp,28
    2074:	02002021 	move	a0,s0
    2078:	27a50010 	addiu	a1,sp,16
    207c:	0c00048d 	jal	1234 <_ZNK7float32ltERKS_.1724>
    2080:	afa00010 	sw	zero,16(sp)
    2084:	10400002 	beqz	v0,2090 <atan2_deg(float32 const&, float32 const&)+0x1b4>
    2088:	27a6001c 	addiu	a2,sp,28
    208c:	27a60018 	addiu	a2,sp,24
    2090:	27a4003c 	addiu	a0,sp,60
    2094:	0c000718 	jal	1c60 <float32::operator+(float32 const&) const>
    2098:	02602821 	move	a1,s3
    209c:	27a40034 	addiu	a0,sp,52
    20a0:	27a50020 	addiu	a1,sp,32
    20a4:	0c000761 	jal	1d84 <float32::operator*(float32 const&) const>
    20a8:	27a60014 	addiu	a2,sp,20
    20ac:	27a4002c 	addiu	a0,sp,44
    20b0:	02202821 	move	a1,s1
    20b4:	0c000761 	jal	1d84 <float32::operator*(float32 const&) const>
    20b8:	02203021 	move	a2,s1
    20bc:	27a40010 	addiu	a0,sp,16
    20c0:	27a50024 	addiu	a1,sp,36
    20c4:	0c000761 	jal	1d84 <float32::operator*(float32 const&) const>
    20c8:	02003021 	move	a2,s0
    20cc:	27a40028 	addiu	a0,sp,40
    20d0:	27a50010 	addiu	a1,sp,16
    20d4:	0c000761 	jal	1d84 <float32::operator*(float32 const&) const>
    20d8:	02003021 	move	a2,s0
    20dc:	27a40030 	addiu	a0,sp,48
    20e0:	27a5002c 	addiu	a1,sp,44
    20e4:	0c000718 	jal	1c60 <float32::operator+(float32 const&) const>
    20e8:	27a60028 	addiu	a2,sp,40
    20ec:	27a40038 	addiu	a0,sp,56
    20f0:	27a50034 	addiu	a1,sp,52
    20f4:	0c00053d 	jal	14f4 <float32::operator/(float32 const&) const>
    20f8:	27a60030 	addiu	a2,sp,48
    20fc:	02402021 	move	a0,s2
    2100:	27a5003c 	addiu	a1,sp,60
    2104:	27a60038 	addiu	a2,sp,56
    2108:	0c000718 	jal	1c60 <float32::operator+(float32 const&) const>
    210c:	00000000 	nop
    2110:	0800084a 	j	2128 <atan2_deg(float32 const&, float32 const&)+0x24c>
    2114:	02401021 	move	v0,s2
    2118:	14a3ff9e 	bne	a1,v1,1f94 <atan2_deg(float32 const&, float32 const&)+0xb8>
    211c:	00a3182b 	sltu	v1,a1,v1
    2120:	08000813 	j	204c <atan2_deg(float32 const&, float32 const&)+0x170>
    2124:	27a40014 	addiu	a0,sp,20
    2128:	8fbf005c 	lw	ra,92(sp)
    212c:	8fb30058 	lw	s3,88(sp)
    2130:	8fb20054 	lw	s2,84(sp)
    2134:	8fb10050 	lw	s1,80(sp)
    2138:	8fb0004c 	lw	s0,76(sp)
    213c:	03e00008 	jr	ra
    2140:	27bd0060 	addiu	sp,sp,96

00002144 <rsqrt(float32 const&)>:
    2144:	8ca20000 	lw	v0,0(a1)
    2148:	27bdffc8 	addiu	sp,sp,-56
    214c:	afbf0034 	sw	ra,52(sp)
    2150:	afb00030 	sw	s0,48(sp)
    2154:	00808021 	move	s0,a0
    2158:	ac820000 	sw	v0,0(a0)
    215c:	3c023fc0 	lui	v0,0x3fc0
    2160:	afa20018 	sw	v0,24(sp)
    2164:	27a40010 	addiu	a0,sp,16
    2168:	3c023f00 	lui	v0,0x3f00
    216c:	27a50014 	addiu	a1,sp,20
    2170:	02003021 	move	a2,s0
    2174:	0c000761 	jal	1d84 <float32::operator*(float32 const&) const>
    2178:	afa20014 	sw	v0,20(sp)
    217c:	8e030000 	lw	v1,0(s0)
    2180:	3c025f37 	lui	v0,0x5f37
    2184:	00031843 	sra	v1,v1,0x1
    2188:	24425a86 	addiu	v0,v0,23174
    218c:	00431023 	subu	v0,v0,v1
    2190:	ae020000 	sw	v0,0(s0)
    2194:	27a4001c 	addiu	a0,sp,28
    2198:	27a50010 	addiu	a1,sp,16
    219c:	0c000761 	jal	1d84 <float32::operator*(float32 const&) const>
    21a0:	02003021 	move	a2,s0
    21a4:	27a40020 	addiu	a0,sp,32
    21a8:	27a5001c 	addiu	a1,sp,28
    21ac:	0c000761 	jal	1d84 <float32::operator*(float32 const&) const>
    21b0:	02003021 	move	a2,s0
    21b4:	27a40024 	addiu	a0,sp,36
    21b8:	27a50018 	addiu	a1,sp,24
    21bc:	0c00073d 	jal	1cf4 <float32::operator-(float32 const&) const>
    21c0:	27a60020 	addiu	a2,sp,32
    21c4:	27a40028 	addiu	a0,sp,40
    21c8:	02002821 	move	a1,s0
    21cc:	0c000761 	jal	1d84 <float32::operator*(float32 const&) const>
    21d0:	27a60024 	addiu	a2,sp,36
    21d4:	8fa20028 	lw	v0,40(sp)
    21d8:	8fbf0034 	lw	ra,52(sp)
    21dc:	ae020000 	sw	v0,0(s0)
    21e0:	02001021 	move	v0,s0
    21e4:	8fb00030 	lw	s0,48(sp)
    21e8:	03e00008 	jr	ra
    21ec:	27bd0038 	addiu	sp,sp,56

000021f0 <float32::operator*=(float32 const&)>:
    21f0:	27bdffe0 	addiu	sp,sp,-32
    21f4:	afb00018 	sw	s0,24(sp)
    21f8:	00808021 	move	s0,a0
    21fc:	00a03021 	move	a2,a1
    2200:	27a40010 	addiu	a0,sp,16
    2204:	afbf001c 	sw	ra,28(sp)
    2208:	0c000761 	jal	1d84 <float32::operator*(float32 const&) const>
    220c:	02002821 	move	a1,s0
    2210:	8fa20010 	lw	v0,16(sp)
    2214:	8fbf001c 	lw	ra,28(sp)
    2218:	ae020000 	sw	v0,0(s0)
    221c:	02001021 	move	v0,s0
    2220:	8fb00018 	lw	s0,24(sp)
    2224:	03e00008 	jr	ra
    2228:	27bd0020 	addiu	sp,sp,32

0000222c <float32::operator int() const>:
    222c:	8c850000 	lw	a1,0(a0)
    2230:	3c02007f 	lui	v0,0x7f
    2234:	00051dc2 	srl	v1,a1,0x17
    2238:	306300ff 	andi	v1,v1,0xff
    223c:	3442ffff 	ori	v0,v0,0xffff
    2240:	2464ff6a 	addiu	a0,v1,-150
    2244:	00a21024 	and	v0,a1,v0
    2248:	04800013 	bltz	a0,2298 <float32::operator int() const+0x6c>
    224c:	000537c2 	srl	a2,a1,0x1f
    2250:	2867009e 	slti	a3,v1,158
    2254:	14e0000c 	bnez	a3,2288 <float32::operator int() const+0x5c>
    2258:	00000000 	nop
    225c:	3c04cf00 	lui	a0,0xcf00
    2260:	10a40024 	beq	a1,a0,22f4 <float32::operator int() const+0xc8>
    2264:	00000000 	nop
    2268:	10c0001f 	beqz	a2,22e8 <float32::operator int() const+0xbc>
    226c:	240400ff 	li	a0,255
    2270:	14640020 	bne	v1,a0,22f4 <float32::operator int() const+0xc8>
    2274:	00000000 	nop
    2278:	1040001e 	beqz	v0,22f4 <float32::operator int() const+0xc8>
    227c:	00000000 	nop
    2280:	080008bb 	j	22ec <float32::operator int() const+0xc0>
    2284:	3c027fff 	lui	v0,0x7fff
    2288:	3c030080 	lui	v1,0x80
    228c:	00431025 	or	v0,v0,v1
    2290:	080008b6 	j	22d8 <float32::operator int() const+0xac>
    2294:	00821004 	sllv	v0,v0,a0
    2298:	2865007e 	slti	a1,v1,126
    229c:	10a00003 	beqz	a1,22ac <float32::operator int() const+0x80>
    22a0:	00621825 	or	v1,v1,v0
    22a4:	080008b0 	j	22c0 <float32::operator int() const+0x94>
    22a8:	00001021 	move	v0,zero
    22ac:	3c030080 	lui	v1,0x80
    22b0:	00431025 	or	v0,v0,v1
    22b4:	00821804 	sllv	v1,v0,a0
    22b8:	00042023 	negu	a0,a0
    22bc:	00821006 	srlv	v0,v0,a0
    22c0:	04610005 	bgez	v1,22d8 <float32::operator int() const+0xac>
    22c4:	00031840 	sll	v1,v1,0x1
    22c8:	14600003 	bnez	v1,22d8 <float32::operator int() const+0xac>
    22cc:	24420001 	addiu	v0,v0,1
    22d0:	2403fffe 	li	v1,-2
    22d4:	00431024 	and	v0,v0,v1
    22d8:	10c00007 	beqz	a2,22f8 <float32::operator int() const+0xcc>
    22dc:	00000000 	nop
    22e0:	03e00008 	jr	ra
    22e4:	00021023 	negu	v0,v0
    22e8:	3c027fff 	lui	v0,0x7fff
    22ec:	03e00008 	jr	ra
    22f0:	3442ffff 	ori	v0,v0,0xffff
    22f4:	3c028000 	lui	v0,0x8000
    22f8:	03e00008 	jr	ra
    22fc:	00000000 	nop

00002300 <_ZN4MathL11sign_extendEi.2486>:
    2300:	3083ffff 	andi	v1,a0,0xffff
    2304:	00031bc3 	sra	v1,v1,0xf
    2308:	10600003 	beqz	v1,2318 <_ZN4MathL11sign_extendEi.2486+0x18>
    230c:	00801021 	move	v0,a0
    2310:	3c03ffff 	lui	v1,0xffff
    2314:	00831025 	or	v0,a0,v1
    2318:	03e00008 	jr	ra
    231c:	00000000 	nop

00002320 <b32tohex(unsigned int)>:
    2320:	3c078000 	lui	a3,0x8000
    2324:	00001021 	move	v0,zero
    2328:	24e70000 	addiu	a3,a3,0
    232c:	24030008 	li	v1,8
    2330:	27bdfff8 	addiu	sp,sp,-8
    2334:	00043702 	srl	a2,a0,0x1c
    2338:	00e63021 	addu	a2,a3,a2
    233c:	90c60000 	lbu	a2,0(a2)
    2340:	03a22821 	addu	a1,sp,v0
    2344:	24420001 	addiu	v0,v0,1
    2348:	a0a60000 	sb	a2,0(a1)
    234c:	1443fff9 	bne	v0,v1,2334 <b32tohex(unsigned int)+0x14>
    2350:	00042100 	sll	a0,a0,0x4
    2354:	8fa20000 	lw	v0,0(sp)
    2358:	8fa30004 	lw	v1,4(sp)
    235c:	03e00008 	jr	ra
    2360:	27bd0008 	addiu	sp,sp,8

00002364 <Radio::Messages::consoleHandler(char*)>:
    2364:	27bdfef8 	addiu	sp,sp,-264
    2368:	00801021 	move	v0,a0
    236c:	afb100e4 	sw	s1,228(sp)
    2370:	afbf0104 	sw	ra,260(sp)
    2374:	afbe0100 	sw	s8,256(sp)
    2378:	afb700fc 	sw	s7,252(sp)
    237c:	afb600f8 	sw	s6,248(sp)
    2380:	afb500f4 	sw	s5,244(sp)
    2384:	afb400f0 	sw	s4,240(sp)
    2388:	afb300ec 	sw	s3,236(sp)
    238c:	afb200e8 	sw	s2,232(sp)
    2390:	afb000e0 	sw	s0,224(sp)
    2394:	00808821 	move	s1,a0
    2398:	afa00010 	sw	zero,16(sp)
    239c:	afa00014 	sw	zero,20(sp)
    23a0:	080008eb 	j	23ac <Radio::Messages::consoleHandler(char*)+0x48>
    23a4:	afa00018 	sw	zero,24(sp)
    23a8:	24420001 	addiu	v0,v0,1
    23ac:	80430000 	lb	v1,0(v0)
    23b0:	00000000 	nop
    23b4:	1460fffc 	bnez	v1,23a8 <Radio::Messages::consoleHandler(char*)+0x44>
    23b8:	0051b023 	subu	s6,v0,s1
    23bc:	26d60001 	addiu	s6,s6,1
    23c0:	0236b021 	addu	s6,s1,s6
    23c4:	12360438 	beq	s1,s6,34a8 <Radio::Messages::consoleHandler(char*)+0x1144>
    23c8:	3c178000 	lui	s7,0x8000
    23cc:	3c158000 	lui	s5,0x8000
    23d0:	24100001 	li	s0,1
    23d4:	2413002b 	li	s3,43
    23d8:	00009021 	move	s2,zero
    23dc:	26f70148 	addiu	s7,s7,328
    23e0:	26b50144 	addiu	s5,s5,324
    23e4:	3c148000 	lui	s4,0x8000
    23e8:	2602ffff 	addiu	v0,s0,-1
    23ec:	2c430050 	sltiu	v1,v0,80
    23f0:	1060042d 	beqz	v1,34a8 <Radio::Messages::consoleHandler(char*)+0x1144>
    23f4:	00021080 	sll	v0,v0,0x2
    23f8:	02e21021 	addu	v0,s7,v0
    23fc:	8c420000 	lw	v0,0(v0)
    2400:	00000000 	nop
    2404:	00400008 	jr	v0
    2408:	00000000 	nop
    240c:	82220000 	lb	v0,0(s1)
    2410:	24030068 	li	v1,104
    2414:	10430389 	beq	v0,v1,323c <Radio::Messages::consoleHandler(char*)+0xed8>
    2418:	28430069 	slti	v1,v0,105
    241c:	10600008 	beqz	v1,2440 <Radio::Messages::consoleHandler(char*)+0xdc>
    2420:	24030073 	li	v1,115
    2424:	24030020 	li	v1,32
    2428:	1043041c 	beq	v0,v1,349c <Radio::Messages::consoleHandler(char*)+0x1138>
    242c:	24030067 	li	v1,103
    2430:	1443041d 	bne	v0,v1,34a8 <Radio::Messages::consoleHandler(char*)+0x1144>
    2434:	24100002 	li	s0,2
    2438:	08000d28 	j	34a0 <Radio::Messages::consoleHandler(char*)+0x113c>
    243c:	26310001 	addiu	s1,s1,1
    2440:	14430419 	bne	v0,v1,34a8 <Radio::Messages::consoleHandler(char*)+0x1144>
    2444:	24100024 	li	s0,36
    2448:	08000d28 	j	34a0 <Radio::Messages::consoleHandler(char*)+0x113c>
    244c:	26310001 	addiu	s1,s1,1
    2450:	82230000 	lb	v1,0(s1)
    2454:	24020065 	li	v0,101
    2458:	14620413 	bne	v1,v0,34a8 <Radio::Messages::consoleHandler(char*)+0x1144>
    245c:	24100003 	li	s0,3
    2460:	08000d28 	j	34a0 <Radio::Messages::consoleHandler(char*)+0x113c>
    2464:	26310001 	addiu	s1,s1,1
    2468:	82230000 	lb	v1,0(s1)
    246c:	24020074 	li	v0,116
    2470:	1462040d 	bne	v1,v0,34a8 <Radio::Messages::consoleHandler(char*)+0x1144>
    2474:	24100004 	li	s0,4
    2478:	08000d28 	j	34a0 <Radio::Messages::consoleHandler(char*)+0x113c>
    247c:	26310001 	addiu	s1,s1,1
    2480:	82230000 	lb	v1,0(s1)
    2484:	2402005f 	li	v0,95
    2488:	14620407 	bne	v1,v0,34a8 <Radio::Messages::consoleHandler(char*)+0x1144>
    248c:	24100005 	li	s0,5
    2490:	08000d28 	j	34a0 <Radio::Messages::consoleHandler(char*)+0x113c>
    2494:	26310001 	addiu	s1,s1,1
    2498:	82220000 	lb	v0,0(s1)
    249c:	2403006d 	li	v1,109
    24a0:	10430360 	beq	v0,v1,3224 <Radio::Messages::consoleHandler(char*)+0xec0>
    24a4:	2843006e 	slti	v1,v0,110
    24a8:	10600008 	beqz	v1,24cc <Radio::Messages::consoleHandler(char*)+0x168>
    24ac:	24030071 	li	v1,113
    24b0:	24030061 	li	v1,97
    24b4:	1043000d 	beq	v0,v1,24ec <Radio::Messages::consoleHandler(char*)+0x188>
    24b8:	24030067 	li	v1,103
    24bc:	144303fa 	bne	v0,v1,34a8 <Radio::Messages::consoleHandler(char*)+0x1144>
    24c0:	2410000e 	li	s0,14
    24c4:	08000d28 	j	34a0 <Radio::Messages::consoleHandler(char*)+0x113c>
    24c8:	26310001 	addiu	s1,s1,1
    24cc:	10430357 	beq	v0,v1,322c <Radio::Messages::consoleHandler(char*)+0xec8>
    24d0:	24030074 	li	v1,116
    24d4:	10430357 	beq	v0,v1,3234 <Radio::Messages::consoleHandler(char*)+0xed0>
    24d8:	24030070 	li	v1,112
    24dc:	144303f2 	bne	v0,v1,34a8 <Radio::Messages::consoleHandler(char*)+0x1144>
    24e0:	24100014 	li	s0,20
    24e4:	08000d28 	j	34a0 <Radio::Messages::consoleHandler(char*)+0x113c>
    24e8:	26310001 	addiu	s1,s1,1
    24ec:	08000d27 	j	349c <Radio::Messages::consoleHandler(char*)+0x1138>
    24f0:	24100006 	li	s0,6
    24f4:	82220000 	lb	v0,0(s1)
    24f8:	2403006c 	li	v1,108
    24fc:	104303e2 	beq	v0,v1,3488 <Radio::Messages::consoleHandler(char*)+0x1124>
    2500:	2403006e 	li	v1,110
    2504:	10430345 	beq	v0,v1,321c <Radio::Messages::consoleHandler(char*)+0xeb8>
    2508:	24030063 	li	v1,99
    250c:	144303e6 	bne	v0,v1,34a8 <Radio::Messages::consoleHandler(char*)+0x1144>
    2510:	24100007 	li	s0,7
    2514:	08000d28 	j	34a0 <Radio::Messages::consoleHandler(char*)+0x113c>
    2518:	26310001 	addiu	s1,s1,1
    251c:	82230000 	lb	v1,0(s1)
    2520:	24020063 	li	v0,99
    2524:	146203e0 	bne	v1,v0,34a8 <Radio::Messages::consoleHandler(char*)+0x1144>
    2528:	00000000 	nop
    252c:	08000b84 	j	2e10 <Radio::Messages::consoleHandler(char*)+0xaac>
    2530:	00000000 	nop
    2534:	82220000 	lb	v0,0(s1)
    2538:	2403000a 	li	v1,10
    253c:	104303d4 	beq	v0,v1,3490 <Radio::Messages::consoleHandler(char*)+0x112c>
    2540:	2843000b 	slti	v1,v0,11
    2544:	10600005 	beqz	v1,255c <Radio::Messages::consoleHandler(char*)+0x1f8>
    2548:	00000000 	nop
    254c:	104003d3 	beqz	v0,349c <Radio::Messages::consoleHandler(char*)+0x1138>
    2550:	24100051 	li	s0,81
    2554:	08000d2a 	j	34a8 <Radio::Messages::consoleHandler(char*)+0x1144>
    2558:	00000000 	nop
    255c:	2403000d 	li	v1,13
    2560:	104303cb 	beq	v0,v1,3490 <Radio::Messages::consoleHandler(char*)+0x112c>
    2564:	24030020 	li	v1,32
    2568:	144303cf 	bne	v0,v1,34a8 <Radio::Messages::consoleHandler(char*)+0x1144>
    256c:	26310001 	addiu	s1,s1,1
    2570:	08000d28 	j	34a0 <Radio::Messages::consoleHandler(char*)+0x113c>
    2574:	00000000 	nop
    2578:	82230000 	lb	v1,0(s1)
    257c:	24020074 	li	v0,116
    2580:	146203c9 	bne	v1,v0,34a8 <Radio::Messages::consoleHandler(char*)+0x1144>
    2584:	00000000 	nop
    2588:	08000ba7 	j	2e9c <Radio::Messages::consoleHandler(char*)+0xb38>
    258c:	00000000 	nop
    2590:	82230000 	lb	v1,0(s1)
    2594:	24020067 	li	v0,103
    2598:	146203c3 	bne	v1,v0,34a8 <Radio::Messages::consoleHandler(char*)+0x1144>
    259c:	2410000b 	li	s0,11
    25a0:	08000d28 	j	34a0 <Radio::Messages::consoleHandler(char*)+0x113c>
    25a4:	26310001 	addiu	s1,s1,1
    25a8:	82230000 	lb	v1,0(s1)
    25ac:	2402006c 	li	v0,108
    25b0:	146203bd 	bne	v1,v0,34a8 <Radio::Messages::consoleHandler(char*)+0x1144>
    25b4:	2410000c 	li	s0,12
    25b8:	08000d28 	j	34a0 <Radio::Messages::consoleHandler(char*)+0x113c>
    25bc:	26310001 	addiu	s1,s1,1
    25c0:	82230000 	lb	v1,0(s1)
    25c4:	24020065 	li	v0,101
    25c8:	146203b7 	bne	v1,v0,34a8 <Radio::Messages::consoleHandler(char*)+0x1144>
    25cc:	2410000d 	li	s0,13
    25d0:	08000d28 	j	34a0 <Radio::Messages::consoleHandler(char*)+0x113c>
    25d4:	26310001 	addiu	s1,s1,1
    25d8:	82230000 	lb	v1,0(s1)
    25dc:	24020073 	li	v0,115
    25e0:	146203b1 	bne	v1,v0,34a8 <Radio::Messages::consoleHandler(char*)+0x1144>
    25e4:	00000000 	nop
    25e8:	08000bb6 	j	2ed8 <Radio::Messages::consoleHandler(char*)+0xb74>
    25ec:	00000000 	nop
    25f0:	82230000 	lb	v1,0(s1)
    25f4:	24020079 	li	v0,121
    25f8:	146203ab 	bne	v1,v0,34a8 <Radio::Messages::consoleHandler(char*)+0x1144>
    25fc:	2410000f 	li	s0,15
    2600:	08000d28 	j	34a0 <Radio::Messages::consoleHandler(char*)+0x113c>
    2604:	26310001 	addiu	s1,s1,1
    2608:	82230000 	lb	v1,0(s1)
    260c:	24020072 	li	v0,114
    2610:	146203a5 	bne	v1,v0,34a8 <Radio::Messages::consoleHandler(char*)+0x1144>
    2614:	24100010 	li	s0,16
    2618:	08000d28 	j	34a0 <Radio::Messages::consoleHandler(char*)+0x113c>
    261c:	26310001 	addiu	s1,s1,1
    2620:	82230000 	lb	v1,0(s1)
    2624:	2402006f 	li	v0,111
    2628:	1462039f 	bne	v1,v0,34a8 <Radio::Messages::consoleHandler(char*)+0x1144>
    262c:	00000000 	nop
    2630:	08000bdc 	j	2f70 <Radio::Messages::consoleHandler(char*)+0xc0c>
    2634:	00000000 	nop
    2638:	82230000 	lb	v1,0(s1)
    263c:	24020061 	li	v0,97
    2640:	14620399 	bne	v1,v0,34a8 <Radio::Messages::consoleHandler(char*)+0x1144>
    2644:	24100012 	li	s0,18
    2648:	08000d28 	j	34a0 <Radio::Messages::consoleHandler(char*)+0x113c>
    264c:	26310001 	addiu	s1,s1,1
    2650:	82230000 	lb	v1,0(s1)
    2654:	24020067 	li	v0,103
    2658:	14620393 	bne	v1,v0,34a8 <Radio::Messages::consoleHandler(char*)+0x1144>
    265c:	24100013 	li	s0,19
    2660:	08000d28 	j	34a0 <Radio::Messages::consoleHandler(char*)+0x113c>
    2664:	26310001 	addiu	s1,s1,1
    2668:	82230000 	lb	v1,0(s1)
    266c:	2402006e 	li	v0,110
    2670:	1462038d 	bne	v1,v0,34a8 <Radio::Messages::consoleHandler(char*)+0x1144>
    2674:	00000000 	nop
    2678:	08000bff 	j	2ffc <Radio::Messages::consoleHandler(char*)+0xc98>
    267c:	00000000 	nop
    2680:	82230000 	lb	v1,0(s1)
    2684:	24020069 	li	v0,105
    2688:	14620387 	bne	v1,v0,34a8 <Radio::Messages::consoleHandler(char*)+0x1144>
    268c:	24100015 	li	s0,21
    2690:	08000d28 	j	34a0 <Radio::Messages::consoleHandler(char*)+0x113c>
    2694:	26310001 	addiu	s1,s1,1
    2698:	82230000 	lb	v1,0(s1)
    269c:	24020064 	li	v0,100
    26a0:	14620381 	bne	v1,v0,34a8 <Radio::Messages::consoleHandler(char*)+0x1144>
    26a4:	00000000 	nop
    26a8:	08000c22 	j	3088 <Radio::Messages::consoleHandler(char*)+0xd24>
    26ac:	00000000 	nop
    26b0:	82230000 	lb	v1,0(s1)
    26b4:	24020075 	li	v0,117
    26b8:	1462037b 	bne	v1,v0,34a8 <Radio::Messages::consoleHandler(char*)+0x1144>
    26bc:	24100017 	li	s0,23
    26c0:	08000d28 	j	34a0 <Radio::Messages::consoleHandler(char*)+0x113c>
    26c4:	26310001 	addiu	s1,s1,1
    26c8:	82230000 	lb	v1,0(s1)
    26cc:	24020061 	li	v0,97
    26d0:	14620375 	bne	v1,v0,34a8 <Radio::Messages::consoleHandler(char*)+0x1144>
    26d4:	24100018 	li	s0,24
    26d8:	08000d28 	j	34a0 <Radio::Messages::consoleHandler(char*)+0x113c>
    26dc:	26310001 	addiu	s1,s1,1
    26e0:	82230000 	lb	v1,0(s1)
    26e4:	24020074 	li	v0,116
    26e8:	1462036f 	bne	v1,v0,34a8 <Radio::Messages::consoleHandler(char*)+0x1144>
    26ec:	00000000 	nop
    26f0:	08000c45 	j	3114 <Radio::Messages::consoleHandler(char*)+0xdb0>
    26f4:	00000000 	nop
    26f8:	82220000 	lb	v0,0(s1)
    26fc:	24030065 	li	v1,101
    2700:	10430005 	beq	v0,v1,2718 <Radio::Messages::consoleHandler(char*)+0x3b4>
    2704:	24030068 	li	v1,104
    2708:	14430367 	bne	v0,v1,34a8 <Radio::Messages::consoleHandler(char*)+0x1144>
    270c:	2410001c 	li	s0,28
    2710:	08000d28 	j	34a0 <Radio::Messages::consoleHandler(char*)+0x113c>
    2714:	26310001 	addiu	s1,s1,1
    2718:	08000d27 	j	349c <Radio::Messages::consoleHandler(char*)+0x1138>
    271c:	2410001a 	li	s0,26
    2720:	82230000 	lb	v1,0(s1)
    2724:	2402006d 	li	v0,109
    2728:	1462035f 	bne	v1,v0,34a8 <Radio::Messages::consoleHandler(char*)+0x1144>
    272c:	2410001b 	li	s0,27
    2730:	08000d28 	j	34a0 <Radio::Messages::consoleHandler(char*)+0x113c>
    2734:	26310001 	addiu	s1,s1,1
    2738:	82230000 	lb	v1,0(s1)
    273c:	24020070 	li	v0,112
    2740:	14620359 	bne	v1,v0,34a8 <Radio::Messages::consoleHandler(char*)+0x1144>
    2744:	00000000 	nop
    2748:	08000c75 	j	31d4 <Radio::Messages::consoleHandler(char*)+0xe70>
    274c:	00000000 	nop
    2750:	82230000 	lb	v1,0(s1)
    2754:	24020072 	li	v0,114
    2758:	14620353 	bne	v1,v0,34a8 <Radio::Messages::consoleHandler(char*)+0x1144>
    275c:	2410001d 	li	s0,29
    2760:	08000d28 	j	34a0 <Radio::Messages::consoleHandler(char*)+0x113c>
    2764:	26310001 	addiu	s1,s1,1
    2768:	82230000 	lb	v1,0(s1)
    276c:	2402006f 	li	v0,111
    2770:	1462034d 	bne	v1,v0,34a8 <Radio::Messages::consoleHandler(char*)+0x1144>
    2774:	2410001e 	li	s0,30
    2778:	08000d28 	j	34a0 <Radio::Messages::consoleHandler(char*)+0x113c>
    277c:	26310001 	addiu	s1,s1,1
    2780:	82230000 	lb	v1,0(s1)
    2784:	24020074 	li	v0,116
    2788:	14620347 	bne	v1,v0,34a8 <Radio::Messages::consoleHandler(char*)+0x1144>
    278c:	2410001f 	li	s0,31
    2790:	08000d28 	j	34a0 <Radio::Messages::consoleHandler(char*)+0x113c>
    2794:	26310001 	addiu	s1,s1,1
    2798:	82230000 	lb	v1,0(s1)
    279c:	24020074 	li	v0,116
    27a0:	14620341 	bne	v1,v0,34a8 <Radio::Messages::consoleHandler(char*)+0x1144>
    27a4:	24100020 	li	s0,32
    27a8:	08000d28 	j	34a0 <Radio::Messages::consoleHandler(char*)+0x113c>
    27ac:	26310001 	addiu	s1,s1,1
    27b0:	82230000 	lb	v1,0(s1)
    27b4:	2402006c 	li	v0,108
    27b8:	1462033b 	bne	v1,v0,34a8 <Radio::Messages::consoleHandler(char*)+0x1144>
    27bc:	24100021 	li	s0,33
    27c0:	08000d28 	j	34a0 <Radio::Messages::consoleHandler(char*)+0x113c>
    27c4:	26310001 	addiu	s1,s1,1
    27c8:	82230000 	lb	v1,0(s1)
    27cc:	24020065 	li	v0,101
    27d0:	14620335 	bne	v1,v0,34a8 <Radio::Messages::consoleHandler(char*)+0x1144>
    27d4:	00000000 	nop
    27d8:	08000c7e 	j	31f8 <Radio::Messages::consoleHandler(char*)+0xe94>
    27dc:	00000000 	nop
    27e0:	82230000 	lb	v1,0(s1)
    27e4:	24020065 	li	v0,101
    27e8:	1462032f 	bne	v1,v0,34a8 <Radio::Messages::consoleHandler(char*)+0x1144>
    27ec:	24100023 	li	s0,35
    27f0:	08000d28 	j	34a0 <Radio::Messages::consoleHandler(char*)+0x113c>
    27f4:	26310001 	addiu	s1,s1,1
    27f8:	82230000 	lb	v1,0(s1)
    27fc:	24020079 	li	v0,121
    2800:	14620329 	bne	v1,v0,34a8 <Radio::Messages::consoleHandler(char*)+0x1144>
    2804:	02a02021 	move	a0,s5
    2808:	08000bb2 	j	2ec8 <Radio::Messages::consoleHandler(char*)+0xb64>
    280c:	00000000 	nop
    2810:	82230000 	lb	v1,0(s1)
    2814:	24020065 	li	v0,101
    2818:	14620323 	bne	v1,v0,34a8 <Radio::Messages::consoleHandler(char*)+0x1144>
    281c:	24100025 	li	s0,37
    2820:	08000d28 	j	34a0 <Radio::Messages::consoleHandler(char*)+0x113c>
    2824:	26310001 	addiu	s1,s1,1
    2828:	82230000 	lb	v1,0(s1)
    282c:	24020074 	li	v0,116
    2830:	1462031d 	bne	v1,v0,34a8 <Radio::Messages::consoleHandler(char*)+0x1144>
    2834:	24100026 	li	s0,38
    2838:	08000d28 	j	34a0 <Radio::Messages::consoleHandler(char*)+0x113c>
    283c:	26310001 	addiu	s1,s1,1
    2840:	82230000 	lb	v1,0(s1)
    2844:	2402005f 	li	v0,95
    2848:	14620317 	bne	v1,v0,34a8 <Radio::Messages::consoleHandler(char*)+0x1144>
    284c:	24100027 	li	s0,39
    2850:	08000d28 	j	34a0 <Radio::Messages::consoleHandler(char*)+0x113c>
    2854:	26310001 	addiu	s1,s1,1
    2858:	82220000 	lb	v0,0(s1)
    285c:	24030072 	li	v1,114
    2860:	1043030d 	beq	v0,v1,3498 <Radio::Messages::consoleHandler(char*)+0x1134>
    2864:	28430073 	slti	v1,v0,115
    2868:	10600006 	beqz	v1,2884 <Radio::Messages::consoleHandler(char*)+0x520>
    286c:	24030074 	li	v1,116
    2870:	24030070 	li	v1,112
    2874:	1443030c 	bne	v0,v1,34a8 <Radio::Messages::consoleHandler(char*)+0x1144>
    2878:	24100028 	li	s0,40
    287c:	08000d28 	j	34a0 <Radio::Messages::consoleHandler(char*)+0x113c>
    2880:	26310001 	addiu	s1,s1,1
    2884:	1043026f 	beq	v0,v1,3244 <Radio::Messages::consoleHandler(char*)+0xee0>
    2888:	24030079 	li	v1,121
    288c:	14430306 	bne	v0,v1,34a8 <Radio::Messages::consoleHandler(char*)+0x1144>
    2890:	2410004b 	li	s0,75
    2894:	08000d28 	j	34a0 <Radio::Messages::consoleHandler(char*)+0x113c>
    2898:	26310001 	addiu	s1,s1,1
    289c:	82230000 	lb	v1,0(s1)
    28a0:	24020069 	li	v0,105
    28a4:	14620300 	bne	v1,v0,34a8 <Radio::Messages::consoleHandler(char*)+0x1144>
    28a8:	24100029 	li	s0,41
    28ac:	08000d28 	j	34a0 <Radio::Messages::consoleHandler(char*)+0x113c>
    28b0:	26310001 	addiu	s1,s1,1
    28b4:	82220000 	lb	v0,0(s1)
    28b8:	24030064 	li	v1,100
    28bc:	10430005 	beq	v0,v1,28d4 <Radio::Messages::consoleHandler(char*)+0x570>
    28c0:	24030074 	li	v1,116
    28c4:	144302f8 	bne	v0,v1,34a8 <Radio::Messages::consoleHandler(char*)+0x1144>
    28c8:	24100034 	li	s0,52
    28cc:	08000d28 	j	34a0 <Radio::Messages::consoleHandler(char*)+0x113c>
    28d0:	26310001 	addiu	s1,s1,1
    28d4:	08000d27 	j	349c <Radio::Messages::consoleHandler(char*)+0x1138>
    28d8:	2410002a 	li	s0,42
    28dc:	82230000 	lb	v1,0(s1)
    28e0:	24020020 	li	v0,32
    28e4:	146202f0 	bne	v1,v0,34a8 <Radio::Messages::consoleHandler(char*)+0x1144>
    28e8:	2410002b 	li	s0,43
    28ec:	08000d28 	j	34a0 <Radio::Messages::consoleHandler(char*)+0x113c>
    28f0:	26310001 	addiu	s1,s1,1
    28f4:	82220000 	lb	v0,0(s1)
    28f8:	2403002b 	li	v1,43
    28fc:	1043026e 	beq	v0,v1,32b8 <Radio::Messages::consoleHandler(char*)+0xf54>
    2900:	2403002d 	li	v1,45
    2904:	1043026c 	beq	v0,v1,32b8 <Radio::Messages::consoleHandler(char*)+0xf54>
    2908:	24030020 	li	v1,32
    290c:	08000a47 	j	291c <Radio::Messages::consoleHandler(char*)+0x5b8>
    2910:	00000000 	nop
    2914:	82220000 	lb	v0,0(s1)
    2918:	24030020 	li	v1,32
    291c:	104302df 	beq	v0,v1,349c <Radio::Messages::consoleHandler(char*)+0x1138>
    2920:	2442ffd0 	addiu	v0,v0,-48
    2924:	304200ff 	andi	v0,v0,0xff
    2928:	2c42000a 	sltiu	v0,v0,10
    292c:	14400247 	bnez	v0,324c <Radio::Messages::consoleHandler(char*)+0xee8>
    2930:	2410002d 	li	s0,45
    2934:	08000d2a 	j	34a8 <Radio::Messages::consoleHandler(char*)+0x1144>
    2938:	00000000 	nop
    293c:	82220000 	lb	v0,0(s1)
    2940:	24030020 	li	v1,32
    2944:	1043024e 	beq	v0,v1,3280 <Radio::Messages::consoleHandler(char*)+0xf1c>
    2948:	2442ffd0 	addiu	v0,v0,-48
    294c:	08000b7f 	j	2dfc <Radio::Messages::consoleHandler(char*)+0xa98>
    2950:	304200ff 	andi	v0,v0,0xff
    2954:	82220000 	lb	v0,0(s1)
    2958:	2403002b 	li	v1,43
    295c:	10430258 	beq	v0,v1,32c0 <Radio::Messages::consoleHandler(char*)+0xf5c>
    2960:	2403002d 	li	v1,45
    2964:	10430256 	beq	v0,v1,32c0 <Radio::Messages::consoleHandler(char*)+0xf5c>
    2968:	24030020 	li	v1,32
    296c:	08000a5f 	j	297c <Radio::Messages::consoleHandler(char*)+0x618>
    2970:	00000000 	nop
    2974:	82220000 	lb	v0,0(s1)
    2978:	24030020 	li	v1,32
    297c:	104302c7 	beq	v0,v1,349c <Radio::Messages::consoleHandler(char*)+0x1138>
    2980:	2442ffd0 	addiu	v0,v0,-48
    2984:	304200ff 	andi	v0,v0,0xff
    2988:	2c42000a 	sltiu	v0,v0,10
    298c:	1440022f 	bnez	v0,324c <Radio::Messages::consoleHandler(char*)+0xee8>
    2990:	24100030 	li	s0,48
    2994:	08000d2a 	j	34a8 <Radio::Messages::consoleHandler(char*)+0x1144>
    2998:	00000000 	nop
    299c:	82220000 	lb	v0,0(s1)
    29a0:	24030020 	li	v1,32
    29a4:	10430238 	beq	v0,v1,3288 <Radio::Messages::consoleHandler(char*)+0xf24>
    29a8:	2442ffd0 	addiu	v0,v0,-48
    29ac:	08000b7f 	j	2dfc <Radio::Messages::consoleHandler(char*)+0xa98>
    29b0:	304200ff 	andi	v0,v0,0xff
    29b4:	82220000 	lb	v0,0(s1)
    29b8:	2403002b 	li	v1,43
    29bc:	10430242 	beq	v0,v1,32c8 <Radio::Messages::consoleHandler(char*)+0xf64>
    29c0:	2403002d 	li	v1,45
    29c4:	10430240 	beq	v0,v1,32c8 <Radio::Messages::consoleHandler(char*)+0xf64>
    29c8:	24030020 	li	v1,32
    29cc:	08000a77 	j	29dc <Radio::Messages::consoleHandler(char*)+0x678>
    29d0:	00000000 	nop
    29d4:	82220000 	lb	v0,0(s1)
    29d8:	24030020 	li	v1,32
    29dc:	104302af 	beq	v0,v1,349c <Radio::Messages::consoleHandler(char*)+0x1138>
    29e0:	2442ffd0 	addiu	v0,v0,-48
    29e4:	304200ff 	andi	v0,v0,0xff
    29e8:	2c42000a 	sltiu	v0,v0,10
    29ec:	14400217 	bnez	v0,324c <Radio::Messages::consoleHandler(char*)+0xee8>
    29f0:	24100033 	li	s0,51
    29f4:	08000d2a 	j	34a8 <Radio::Messages::consoleHandler(char*)+0x1144>
    29f8:	00000000 	nop
    29fc:	82220000 	lb	v0,0(s1)
    2a00:	2403000a 	li	v1,10
    2a04:	1043023f 	beq	v0,v1,3304 <Radio::Messages::consoleHandler(char*)+0xfa0>
    2a08:	2843000b 	slti	v1,v0,11
    2a0c:	10600005 	beqz	v1,2a24 <Radio::Messages::consoleHandler(char*)+0x6c0>
    2a10:	00000000 	nop
    2a14:	1040023b 	beqz	v0,3304 <Radio::Messages::consoleHandler(char*)+0xfa0>
    2a18:	2442ffd0 	addiu	v0,v0,-48
    2a1c:	08000b7f 	j	2dfc <Radio::Messages::consoleHandler(char*)+0xa98>
    2a20:	304200ff 	andi	v0,v0,0xff
    2a24:	2403000d 	li	v1,13
    2a28:	10430236 	beq	v0,v1,3304 <Radio::Messages::consoleHandler(char*)+0xfa0>
    2a2c:	24030020 	li	v1,32
    2a30:	10430232 	beq	v0,v1,32fc <Radio::Messages::consoleHandler(char*)+0xf98>
    2a34:	2442ffd0 	addiu	v0,v0,-48
    2a38:	08000b7f 	j	2dfc <Radio::Messages::consoleHandler(char*)+0xa98>
    2a3c:	304200ff 	andi	v0,v0,0xff
    2a40:	82230000 	lb	v1,0(s1)
    2a44:	24020063 	li	v0,99
    2a48:	14620297 	bne	v1,v0,34a8 <Radio::Messages::consoleHandler(char*)+0x1144>
    2a4c:	24100035 	li	s0,53
    2a50:	08000d28 	j	34a0 <Radio::Messages::consoleHandler(char*)+0x113c>
    2a54:	26310001 	addiu	s1,s1,1
    2a58:	82230000 	lb	v1,0(s1)
    2a5c:	24020068 	li	v0,104
    2a60:	14620291 	bne	v1,v0,34a8 <Radio::Messages::consoleHandler(char*)+0x1144>
    2a64:	24100036 	li	s0,54
    2a68:	08000d28 	j	34a0 <Radio::Messages::consoleHandler(char*)+0x113c>
    2a6c:	26310001 	addiu	s1,s1,1
    2a70:	82230000 	lb	v1,0(s1)
    2a74:	24020020 	li	v0,32
    2a78:	1462028b 	bne	v1,v0,34a8 <Radio::Messages::consoleHandler(char*)+0x1144>
    2a7c:	24100037 	li	s0,55
    2a80:	08000d28 	j	34a0 <Radio::Messages::consoleHandler(char*)+0x113c>
    2a84:	26310001 	addiu	s1,s1,1
    2a88:	82220000 	lb	v0,0(s1)
    2a8c:	2403002b 	li	v1,43
    2a90:	1043020f 	beq	v0,v1,32d0 <Radio::Messages::consoleHandler(char*)+0xf6c>
    2a94:	2403002d 	li	v1,45
    2a98:	1043020d 	beq	v0,v1,32d0 <Radio::Messages::consoleHandler(char*)+0xf6c>
    2a9c:	24030020 	li	v1,32
    2aa0:	08000aac 	j	2ab0 <Radio::Messages::consoleHandler(char*)+0x74c>
    2aa4:	00000000 	nop
    2aa8:	82220000 	lb	v0,0(s1)
    2aac:	24030020 	li	v1,32
    2ab0:	1043027a 	beq	v0,v1,349c <Radio::Messages::consoleHandler(char*)+0x1138>
    2ab4:	2442ffd0 	addiu	v0,v0,-48
    2ab8:	304200ff 	andi	v0,v0,0xff
    2abc:	2c42000a 	sltiu	v0,v0,10
    2ac0:	144001e2 	bnez	v0,324c <Radio::Messages::consoleHandler(char*)+0xee8>
    2ac4:	24100039 	li	s0,57
    2ac8:	08000d2a 	j	34a8 <Radio::Messages::consoleHandler(char*)+0x1144>
    2acc:	00000000 	nop
    2ad0:	82220000 	lb	v0,0(s1)
    2ad4:	2403000a 	li	v1,10
    2ad8:	1043023a 	beq	v0,v1,33c4 <Radio::Messages::consoleHandler(char*)+0x1060>
    2adc:	2843000b 	slti	v1,v0,11
    2ae0:	10600005 	beqz	v1,2af8 <Radio::Messages::consoleHandler(char*)+0x794>
    2ae4:	00000000 	nop
    2ae8:	10400236 	beqz	v0,33c4 <Radio::Messages::consoleHandler(char*)+0x1060>
    2aec:	2442ffd0 	addiu	v0,v0,-48
    2af0:	08000b7f 	j	2dfc <Radio::Messages::consoleHandler(char*)+0xa98>
    2af4:	304200ff 	andi	v0,v0,0xff
    2af8:	2403000d 	li	v1,13
    2afc:	10430231 	beq	v0,v1,33c4 <Radio::Messages::consoleHandler(char*)+0x1060>
    2b00:	24030020 	li	v1,32
    2b04:	1043022d 	beq	v0,v1,33bc <Radio::Messages::consoleHandler(char*)+0x1058>
    2b08:	2442ffd0 	addiu	v0,v0,-48
    2b0c:	08000b7f 	j	2dfc <Radio::Messages::consoleHandler(char*)+0xa98>
    2b10:	304200ff 	andi	v0,v0,0xff
    2b14:	82230000 	lb	v1,0(s1)
    2b18:	2402006f 	li	v0,111
    2b1c:	14620262 	bne	v1,v0,34a8 <Radio::Messages::consoleHandler(char*)+0x1144>
    2b20:	2410003b 	li	s0,59
    2b24:	08000d28 	j	34a0 <Radio::Messages::consoleHandler(char*)+0x113c>
    2b28:	26310001 	addiu	s1,s1,1
    2b2c:	82230000 	lb	v1,0(s1)
    2b30:	2402006c 	li	v0,108
    2b34:	1462025c 	bne	v1,v0,34a8 <Radio::Messages::consoleHandler(char*)+0x1144>
    2b38:	2410003c 	li	s0,60
    2b3c:	08000d28 	j	34a0 <Radio::Messages::consoleHandler(char*)+0x113c>
    2b40:	26310001 	addiu	s1,s1,1
    2b44:	82230000 	lb	v1,0(s1)
    2b48:	2402006c 	li	v0,108
    2b4c:	14620256 	bne	v1,v0,34a8 <Radio::Messages::consoleHandler(char*)+0x1144>
    2b50:	2410003d 	li	s0,61
    2b54:	08000d28 	j	34a0 <Radio::Messages::consoleHandler(char*)+0x113c>
    2b58:	26310001 	addiu	s1,s1,1
    2b5c:	82230000 	lb	v1,0(s1)
    2b60:	24020020 	li	v0,32
    2b64:	14620250 	bne	v1,v0,34a8 <Radio::Messages::consoleHandler(char*)+0x1144>
    2b68:	2410003e 	li	s0,62
    2b6c:	08000d28 	j	34a0 <Radio::Messages::consoleHandler(char*)+0x113c>
    2b70:	26310001 	addiu	s1,s1,1
    2b74:	82220000 	lb	v0,0(s1)
    2b78:	2403002b 	li	v1,43
    2b7c:	104301d6 	beq	v0,v1,32d8 <Radio::Messages::consoleHandler(char*)+0xf74>
    2b80:	2403002d 	li	v1,45
    2b84:	104301d4 	beq	v0,v1,32d8 <Radio::Messages::consoleHandler(char*)+0xf74>
    2b88:	24030020 	li	v1,32
    2b8c:	08000ae7 	j	2b9c <Radio::Messages::consoleHandler(char*)+0x838>
    2b90:	00000000 	nop
    2b94:	82220000 	lb	v0,0(s1)
    2b98:	24030020 	li	v1,32
    2b9c:	1043023f 	beq	v0,v1,349c <Radio::Messages::consoleHandler(char*)+0x1138>
    2ba0:	2442ffd0 	addiu	v0,v0,-48
    2ba4:	304200ff 	andi	v0,v0,0xff
    2ba8:	2c42000a 	sltiu	v0,v0,10
    2bac:	144001a7 	bnez	v0,324c <Radio::Messages::consoleHandler(char*)+0xee8>
    2bb0:	24100040 	li	s0,64
    2bb4:	08000d2a 	j	34a8 <Radio::Messages::consoleHandler(char*)+0x1144>
    2bb8:	00000000 	nop
    2bbc:	82220000 	lb	v0,0(s1)
    2bc0:	2403000a 	li	v1,10
    2bc4:	10430221 	beq	v0,v1,344c <Radio::Messages::consoleHandler(char*)+0x10e8>
    2bc8:	2843000b 	slti	v1,v0,11
    2bcc:	10600005 	beqz	v1,2be4 <Radio::Messages::consoleHandler(char*)+0x880>
    2bd0:	00000000 	nop
    2bd4:	1040021d 	beqz	v0,344c <Radio::Messages::consoleHandler(char*)+0x10e8>
    2bd8:	2442ffd0 	addiu	v0,v0,-48
    2bdc:	08000b7f 	j	2dfc <Radio::Messages::consoleHandler(char*)+0xa98>
    2be0:	304200ff 	andi	v0,v0,0xff
    2be4:	2403000d 	li	v1,13
    2be8:	10430218 	beq	v0,v1,344c <Radio::Messages::consoleHandler(char*)+0x10e8>
    2bec:	24030020 	li	v1,32
    2bf0:	10430214 	beq	v0,v1,3444 <Radio::Messages::consoleHandler(char*)+0x10e0>
    2bf4:	2442ffd0 	addiu	v0,v0,-48
    2bf8:	08000b7f 	j	2dfc <Radio::Messages::consoleHandler(char*)+0xa98>
    2bfc:	304200ff 	andi	v0,v0,0xff
    2c00:	82230000 	lb	v1,0(s1)
    2c04:	24020068 	li	v0,104
    2c08:	14620227 	bne	v1,v0,34a8 <Radio::Messages::consoleHandler(char*)+0x1144>
    2c0c:	24100042 	li	s0,66
    2c10:	08000d28 	j	34a0 <Radio::Messages::consoleHandler(char*)+0x113c>
    2c14:	26310001 	addiu	s1,s1,1
    2c18:	82230000 	lb	v1,0(s1)
    2c1c:	24020072 	li	v0,114
    2c20:	14620221 	bne	v1,v0,34a8 <Radio::Messages::consoleHandler(char*)+0x1144>
    2c24:	24100043 	li	s0,67
    2c28:	08000d28 	j	34a0 <Radio::Messages::consoleHandler(char*)+0x113c>
    2c2c:	26310001 	addiu	s1,s1,1
    2c30:	82230000 	lb	v1,0(s1)
    2c34:	2402006f 	li	v0,111
    2c38:	1462021b 	bne	v1,v0,34a8 <Radio::Messages::consoleHandler(char*)+0x1144>
    2c3c:	24100044 	li	s0,68
    2c40:	08000d28 	j	34a0 <Radio::Messages::consoleHandler(char*)+0x113c>
    2c44:	26310001 	addiu	s1,s1,1
    2c48:	82230000 	lb	v1,0(s1)
    2c4c:	24020074 	li	v0,116
    2c50:	14620215 	bne	v1,v0,34a8 <Radio::Messages::consoleHandler(char*)+0x1144>
    2c54:	24100045 	li	s0,69
    2c58:	08000d28 	j	34a0 <Radio::Messages::consoleHandler(char*)+0x113c>
    2c5c:	26310001 	addiu	s1,s1,1
    2c60:	82230000 	lb	v1,0(s1)
    2c64:	24020074 	li	v0,116
    2c68:	1462020f 	bne	v1,v0,34a8 <Radio::Messages::consoleHandler(char*)+0x1144>
    2c6c:	24100046 	li	s0,70
    2c70:	08000d28 	j	34a0 <Radio::Messages::consoleHandler(char*)+0x113c>
    2c74:	26310001 	addiu	s1,s1,1
    2c78:	82230000 	lb	v1,0(s1)
    2c7c:	2402006c 	li	v0,108
    2c80:	14620209 	bne	v1,v0,34a8 <Radio::Messages::consoleHandler(char*)+0x1144>
    2c84:	24100047 	li	s0,71
    2c88:	08000d28 	j	34a0 <Radio::Messages::consoleHandler(char*)+0x113c>
    2c8c:	26310001 	addiu	s1,s1,1
    2c90:	82230000 	lb	v1,0(s1)
    2c94:	24020065 	li	v0,101
    2c98:	14620203 	bne	v1,v0,34a8 <Radio::Messages::consoleHandler(char*)+0x1144>
    2c9c:	24100048 	li	s0,72
    2ca0:	08000d28 	j	34a0 <Radio::Messages::consoleHandler(char*)+0x113c>
    2ca4:	26310001 	addiu	s1,s1,1
    2ca8:	82230000 	lb	v1,0(s1)
    2cac:	24020020 	li	v0,32
    2cb0:	146201fd 	bne	v1,v0,34a8 <Radio::Messages::consoleHandler(char*)+0x1144>
    2cb4:	24100049 	li	s0,73
    2cb8:	08000d28 	j	34a0 <Radio::Messages::consoleHandler(char*)+0x113c>
    2cbc:	26310001 	addiu	s1,s1,1
    2cc0:	82220000 	lb	v0,0(s1)
    2cc4:	24030020 	li	v1,32
    2cc8:	104301f4 	beq	v0,v1,349c <Radio::Messages::consoleHandler(char*)+0x1138>
    2ccc:	2442ffd0 	addiu	v0,v0,-48
    2cd0:	304200ff 	andi	v0,v0,0xff
    2cd4:	2c42000a 	sltiu	v0,v0,10
    2cd8:	1440015c 	bnez	v0,324c <Radio::Messages::consoleHandler(char*)+0xee8>
    2cdc:	2410004a 	li	s0,74
    2ce0:	08000d2a 	j	34a8 <Radio::Messages::consoleHandler(char*)+0x1144>
    2ce4:	00000000 	nop
    2ce8:	82220000 	lb	v0,0(s1)
    2cec:	2403000a 	li	v1,10
    2cf0:	1043019f 	beq	v0,v1,3370 <Radio::Messages::consoleHandler(char*)+0x100c>
    2cf4:	2843000b 	slti	v1,v0,11
    2cf8:	10600005 	beqz	v1,2d10 <Radio::Messages::consoleHandler(char*)+0x9ac>
    2cfc:	00000000 	nop
    2d00:	1040019b 	beqz	v0,3370 <Radio::Messages::consoleHandler(char*)+0x100c>
    2d04:	2442ffd0 	addiu	v0,v0,-48
    2d08:	08000b7f 	j	2dfc <Radio::Messages::consoleHandler(char*)+0xa98>
    2d0c:	304200ff 	andi	v0,v0,0xff
    2d10:	2403000d 	li	v1,13
    2d14:	10430196 	beq	v0,v1,3370 <Radio::Messages::consoleHandler(char*)+0x100c>
    2d18:	24030020 	li	v1,32
    2d1c:	10430192 	beq	v0,v1,3368 <Radio::Messages::consoleHandler(char*)+0x1004>
    2d20:	2442ffd0 	addiu	v0,v0,-48
    2d24:	08000b7f 	j	2dfc <Radio::Messages::consoleHandler(char*)+0xa98>
    2d28:	304200ff 	andi	v0,v0,0xff
    2d2c:	82230000 	lb	v1,0(s1)
    2d30:	24020061 	li	v0,97
    2d34:	146201dc 	bne	v1,v0,34a8 <Radio::Messages::consoleHandler(char*)+0x1144>
    2d38:	2410004c 	li	s0,76
    2d3c:	08000d28 	j	34a0 <Radio::Messages::consoleHandler(char*)+0x113c>
    2d40:	26310001 	addiu	s1,s1,1
    2d44:	82230000 	lb	v1,0(s1)
    2d48:	24020077 	li	v0,119
    2d4c:	146201d6 	bne	v1,v0,34a8 <Radio::Messages::consoleHandler(char*)+0x1144>
    2d50:	2410004d 	li	s0,77
    2d54:	08000d28 	j	34a0 <Radio::Messages::consoleHandler(char*)+0x113c>
    2d58:	26310001 	addiu	s1,s1,1
    2d5c:	82230000 	lb	v1,0(s1)
    2d60:	24020020 	li	v0,32
    2d64:	146201d0 	bne	v1,v0,34a8 <Radio::Messages::consoleHandler(char*)+0x1144>
    2d68:	2410004e 	li	s0,78
    2d6c:	08000d28 	j	34a0 <Radio::Messages::consoleHandler(char*)+0x113c>
    2d70:	26310001 	addiu	s1,s1,1
    2d74:	82220000 	lb	v0,0(s1)
    2d78:	2403002b 	li	v1,43
    2d7c:	10430158 	beq	v0,v1,32e0 <Radio::Messages::consoleHandler(char*)+0xf7c>
    2d80:	2403002d 	li	v1,45
    2d84:	10430156 	beq	v0,v1,32e0 <Radio::Messages::consoleHandler(char*)+0xf7c>
    2d88:	24030020 	li	v1,32
    2d8c:	08000b67 	j	2d9c <Radio::Messages::consoleHandler(char*)+0xa38>
    2d90:	00000000 	nop
    2d94:	82220000 	lb	v0,0(s1)
    2d98:	24030020 	li	v1,32
    2d9c:	104301bf 	beq	v0,v1,349c <Radio::Messages::consoleHandler(char*)+0x1138>
    2da0:	2442ffd0 	addiu	v0,v0,-48
    2da4:	304200ff 	andi	v0,v0,0xff
    2da8:	2c42000a 	sltiu	v0,v0,10
    2dac:	14400127 	bnez	v0,324c <Radio::Messages::consoleHandler(char*)+0xee8>
    2db0:	24100050 	li	s0,80
    2db4:	08000d2a 	j	34a8 <Radio::Messages::consoleHandler(char*)+0x1144>
    2db8:	00000000 	nop
    2dbc:	82220000 	lb	v0,0(s1)
    2dc0:	2403000a 	li	v1,10
    2dc4:	10430190 	beq	v0,v1,3408 <Radio::Messages::consoleHandler(char*)+0x10a4>
    2dc8:	2843000b 	slti	v1,v0,11
    2dcc:	10600005 	beqz	v1,2de4 <Radio::Messages::consoleHandler(char*)+0xa80>
    2dd0:	00000000 	nop
    2dd4:	1040018c 	beqz	v0,3408 <Radio::Messages::consoleHandler(char*)+0x10a4>
    2dd8:	2442ffd0 	addiu	v0,v0,-48
    2ddc:	08000b7f 	j	2dfc <Radio::Messages::consoleHandler(char*)+0xa98>
    2de0:	304200ff 	andi	v0,v0,0xff
    2de4:	2403000d 	li	v1,13
    2de8:	10430187 	beq	v0,v1,3408 <Radio::Messages::consoleHandler(char*)+0x10a4>
    2dec:	24030020 	li	v1,32
    2df0:	10430183 	beq	v0,v1,3400 <Radio::Messages::consoleHandler(char*)+0x109c>
    2df4:	2442ffd0 	addiu	v0,v0,-48
    2df8:	304200ff 	andi	v0,v0,0xff
    2dfc:	2c42000a 	sltiu	v0,v0,10
    2e00:	14400113 	bnez	v0,3250 <Radio::Messages::consoleHandler(char*)+0xeec>
    2e04:	27a30010 	addiu	v1,sp,16
    2e08:	08000d2a 	j	34a8 <Radio::Messages::consoleHandler(char*)+0x1144>
    2e0c:	00000000 	nop
    2e10:	0c0004d0 	jal	1340 <_ZN6System8Registry8instanceEv.local.6>
    2e14:	3c108000 	lui	s0,0x8000
    2e18:	8c44001c 	lw	a0,28(v0)
    2e1c:	0c0008c8 	jal	2320 <b32tohex(unsigned int)>
    2e20:	00000000 	nop
    2e24:	27a400c8 	addiu	a0,sp,200
    2e28:	24050008 	li	a1,8
    2e2c:	afa300cc 	sw	v1,204(sp)
    2e30:	0c0005ea 	jal	17a8 <System::Bus::UART::write_waiting(char const*, unsigned int)>
    2e34:	afa200c8 	sw	v0,200(sp)
    2e38:	00002821 	move	a1,zero
    2e3c:	0c0005ea 	jal	17a8 <System::Bus::UART::write_waiting(char const*, unsigned int)>
    2e40:	2604013c 	addiu	a0,s0,316
    2e44:	0c0004d0 	jal	1340 <_ZN6System8Registry8instanceEv.local.6>
    2e48:	00000000 	nop
    2e4c:	8c440020 	lw	a0,32(v0)
    2e50:	0c0008c8 	jal	2320 <b32tohex(unsigned int)>
    2e54:	00000000 	nop
    2e58:	27a400c0 	addiu	a0,sp,192
    2e5c:	24050008 	li	a1,8
    2e60:	afa300c4 	sw	v1,196(sp)
    2e64:	0c0005ea 	jal	17a8 <System::Bus::UART::write_waiting(char const*, unsigned int)>
    2e68:	afa200c0 	sw	v0,192(sp)
    2e6c:	2604013c 	addiu	a0,s0,316
    2e70:	0c0005ea 	jal	17a8 <System::Bus::UART::write_waiting(char const*, unsigned int)>
    2e74:	00002821 	move	a1,zero
    2e78:	0c0004d0 	jal	1340 <_ZN6System8Registry8instanceEv.local.6>
    2e7c:	00000000 	nop
    2e80:	8c440024 	lw	a0,36(v0)
    2e84:	0c0008c8 	jal	2320 <b32tohex(unsigned int)>
    2e88:	00000000 	nop
    2e8c:	afa300bc 	sw	v1,188(sp)
    2e90:	afa200b8 	sw	v0,184(sp)
    2e94:	08000baf 	j	2ebc <Radio::Messages::consoleHandler(char*)+0xb58>
    2e98:	27a400b8 	addiu	a0,sp,184
    2e9c:	0c0004d0 	jal	1340 <_ZN6System8Registry8instanceEv.local.6>
    2ea0:	00000000 	nop
    2ea4:	8c440050 	lw	a0,80(v0)
    2ea8:	0c0008c8 	jal	2320 <b32tohex(unsigned int)>
    2eac:	00000000 	nop
    2eb0:	afa300b4 	sw	v1,180(sp)
    2eb4:	afa200b0 	sw	v0,176(sp)
    2eb8:	27a400b0 	addiu	a0,sp,176
    2ebc:	0c0005ea 	jal	17a8 <System::Bus::UART::write_waiting(char const*, unsigned int)>
    2ec0:	24050008 	li	a1,8
    2ec4:	26840140 	addiu	a0,s4,320
    2ec8:	0c0005ea 	jal	17a8 <System::Bus::UART::write_waiting(char const*, unsigned int)>
    2ecc:	00002821 	move	a1,zero
    2ed0:	08000d27 	j	349c <Radio::Messages::consoleHandler(char*)+0x1138>
    2ed4:	24100008 	li	s0,8
    2ed8:	0c0004d0 	jal	1340 <_ZN6System8Registry8instanceEv.local.6>
    2edc:	3c108000 	lui	s0,0x8000
    2ee0:	0c00088b 	jal	222c <float32::operator int() const>
    2ee4:	24440010 	addiu	a0,v0,16
    2ee8:	0c000512 	jal	1448 <b32todec(int)>
    2eec:	00402021 	move	a0,v0
    2ef0:	27a400a8 	addiu	a0,sp,168
    2ef4:	24050008 	li	a1,8
    2ef8:	afa300ac 	sw	v1,172(sp)
    2efc:	0c0005ea 	jal	17a8 <System::Bus::UART::write_waiting(char const*, unsigned int)>
    2f00:	afa200a8 	sw	v0,168(sp)
    2f04:	00002821 	move	a1,zero
    2f08:	0c0005ea 	jal	17a8 <System::Bus::UART::write_waiting(char const*, unsigned int)>
    2f0c:	2604013c 	addiu	a0,s0,316
    2f10:	0c0004d0 	jal	1340 <_ZN6System8Registry8instanceEv.local.6>
    2f14:	00000000 	nop
    2f18:	0c00088b 	jal	222c <float32::operator int() const>
    2f1c:	24440014 	addiu	a0,v0,20
    2f20:	0c000512 	jal	1448 <b32todec(int)>
    2f24:	00402021 	move	a0,v0
    2f28:	27a400a0 	addiu	a0,sp,160
    2f2c:	24050008 	li	a1,8
    2f30:	afa300a4 	sw	v1,164(sp)
    2f34:	0c0005ea 	jal	17a8 <System::Bus::UART::write_waiting(char const*, unsigned int)>
    2f38:	afa200a0 	sw	v0,160(sp)
    2f3c:	00002821 	move	a1,zero
    2f40:	0c0005ea 	jal	17a8 <System::Bus::UART::write_waiting(char const*, unsigned int)>
    2f44:	2604013c 	addiu	a0,s0,316
    2f48:	0c0004d0 	jal	1340 <_ZN6System8Registry8instanceEv.local.6>
    2f4c:	00000000 	nop
    2f50:	0c00088b 	jal	222c <float32::operator int() const>
    2f54:	24440018 	addiu	a0,v0,24
    2f58:	0c000512 	jal	1448 <b32todec(int)>
    2f5c:	00402021 	move	a0,v0
    2f60:	afa3009c 	sw	v1,156(sp)
    2f64:	afa20098 	sw	v0,152(sp)
    2f68:	08000baf 	j	2ebc <Radio::Messages::consoleHandler(char*)+0xb58>
    2f6c:	27a40098 	addiu	a0,sp,152
    2f70:	0c0004d0 	jal	1340 <_ZN6System8Registry8instanceEv.local.6>
    2f74:	3c108000 	lui	s0,0x8000
    2f78:	8c440034 	lw	a0,52(v0)
    2f7c:	0c0008c8 	jal	2320 <b32tohex(unsigned int)>
    2f80:	00000000 	nop
    2f84:	27a40090 	addiu	a0,sp,144
    2f88:	24050008 	li	a1,8
    2f8c:	afa30094 	sw	v1,148(sp)
    2f90:	0c0005ea 	jal	17a8 <System::Bus::UART::write_waiting(char const*, unsigned int)>
    2f94:	afa20090 	sw	v0,144(sp)
    2f98:	00002821 	move	a1,zero
    2f9c:	0c0005ea 	jal	17a8 <System::Bus::UART::write_waiting(char const*, unsigned int)>
    2fa0:	2604013c 	addiu	a0,s0,316
    2fa4:	0c0004d0 	jal	1340 <_ZN6System8Registry8instanceEv.local.6>
    2fa8:	00000000 	nop
    2fac:	8c440038 	lw	a0,56(v0)
    2fb0:	0c0008c8 	jal	2320 <b32tohex(unsigned int)>
    2fb4:	00000000 	nop
    2fb8:	27a40088 	addiu	a0,sp,136
    2fbc:	24050008 	li	a1,8
    2fc0:	afa3008c 	sw	v1,140(sp)
    2fc4:	0c0005ea 	jal	17a8 <System::Bus::UART::write_waiting(char const*, unsigned int)>
    2fc8:	afa20088 	sw	v0,136(sp)
    2fcc:	2604013c 	addiu	a0,s0,316
    2fd0:	0c0005ea 	jal	17a8 <System::Bus::UART::write_waiting(char const*, unsigned int)>
    2fd4:	00002821 	move	a1,zero
    2fd8:	0c0004d0 	jal	1340 <_ZN6System8Registry8instanceEv.local.6>
    2fdc:	00000000 	nop
    2fe0:	8c44003c 	lw	a0,60(v0)
    2fe4:	0c0008c8 	jal	2320 <b32tohex(unsigned int)>
    2fe8:	00000000 	nop
    2fec:	afa30084 	sw	v1,132(sp)
    2ff0:	afa20080 	sw	v0,128(sp)
    2ff4:	08000baf 	j	2ebc <Radio::Messages::consoleHandler(char*)+0xb58>
    2ff8:	27a40080 	addiu	a0,sp,128
    2ffc:	0c0004d0 	jal	1340 <_ZN6System8Registry8instanceEv.local.6>
    3000:	3c108000 	lui	s0,0x8000
    3004:	8c440040 	lw	a0,64(v0)
    3008:	0c0008c8 	jal	2320 <b32tohex(unsigned int)>
    300c:	00000000 	nop
    3010:	27a40078 	addiu	a0,sp,120
    3014:	24050008 	li	a1,8
    3018:	afa3007c 	sw	v1,124(sp)
    301c:	0c0005ea 	jal	17a8 <System::Bus::UART::write_waiting(char const*, unsigned int)>
    3020:	afa20078 	sw	v0,120(sp)
    3024:	00002821 	move	a1,zero
    3028:	0c0005ea 	jal	17a8 <System::Bus::UART::write_waiting(char const*, unsigned int)>
    302c:	2604013c 	addiu	a0,s0,316
    3030:	0c0004d0 	jal	1340 <_ZN6System8Registry8instanceEv.local.6>
    3034:	00000000 	nop
    3038:	8c440044 	lw	a0,68(v0)
    303c:	0c0008c8 	jal	2320 <b32tohex(unsigned int)>
    3040:	00000000 	nop
    3044:	27a40070 	addiu	a0,sp,112
    3048:	24050008 	li	a1,8
    304c:	afa30074 	sw	v1,116(sp)
    3050:	0c0005ea 	jal	17a8 <System::Bus::UART::write_waiting(char const*, unsigned int)>
    3054:	afa20070 	sw	v0,112(sp)
    3058:	2604013c 	addiu	a0,s0,316
    305c:	0c0005ea 	jal	17a8 <System::Bus::UART::write_waiting(char const*, unsigned int)>
    3060:	00002821 	move	a1,zero
    3064:	0c0004d0 	jal	1340 <_ZN6System8Registry8instanceEv.local.6>
    3068:	00000000 	nop
    306c:	8c440048 	lw	a0,72(v0)
    3070:	0c0008c8 	jal	2320 <b32tohex(unsigned int)>
    3074:	00000000 	nop
    3078:	afa3006c 	sw	v1,108(sp)
    307c:	afa20068 	sw	v0,104(sp)
    3080:	08000baf 	j	2ebc <Radio::Messages::consoleHandler(char*)+0xb58>
    3084:	27a40068 	addiu	a0,sp,104
    3088:	0c0004d0 	jal	1340 <_ZN6System8Registry8instanceEv.local.6>
    308c:	3c108000 	lui	s0,0x8000
    3090:	8c440058 	lw	a0,88(v0)
    3094:	0c0008c8 	jal	2320 <b32tohex(unsigned int)>
    3098:	00000000 	nop
    309c:	27a40060 	addiu	a0,sp,96
    30a0:	24050008 	li	a1,8
    30a4:	afa30064 	sw	v1,100(sp)
    30a8:	0c0005ea 	jal	17a8 <System::Bus::UART::write_waiting(char const*, unsigned int)>
    30ac:	afa20060 	sw	v0,96(sp)
    30b0:	00002821 	move	a1,zero
    30b4:	0c0005ea 	jal	17a8 <System::Bus::UART::write_waiting(char const*, unsigned int)>
    30b8:	2604013c 	addiu	a0,s0,316
    30bc:	0c0004d0 	jal	1340 <_ZN6System8Registry8instanceEv.local.6>
    30c0:	00000000 	nop
    30c4:	8c44005c 	lw	a0,92(v0)
    30c8:	0c0008c8 	jal	2320 <b32tohex(unsigned int)>
    30cc:	00000000 	nop
    30d0:	27a40058 	addiu	a0,sp,88
    30d4:	24050008 	li	a1,8
    30d8:	afa3005c 	sw	v1,92(sp)
    30dc:	0c0005ea 	jal	17a8 <System::Bus::UART::write_waiting(char const*, unsigned int)>
    30e0:	afa20058 	sw	v0,88(sp)
    30e4:	2604013c 	addiu	a0,s0,316
    30e8:	0c0005ea 	jal	17a8 <System::Bus::UART::write_waiting(char const*, unsigned int)>
    30ec:	00002821 	move	a1,zero
    30f0:	0c0004d0 	jal	1340 <_ZN6System8Registry8instanceEv.local.6>
    30f4:	00000000 	nop
    30f8:	8c440060 	lw	a0,96(v0)
    30fc:	0c0008c8 	jal	2320 <b32tohex(unsigned int)>
    3100:	00000000 	nop
    3104:	afa30054 	sw	v1,84(sp)
    3108:	afa20050 	sw	v0,80(sp)
    310c:	08000baf 	j	2ebc <Radio::Messages::consoleHandler(char*)+0xb58>
    3110:	27a40050 	addiu	a0,sp,80
    3114:	0c0004d0 	jal	1340 <_ZN6System8Registry8instanceEv.local.6>
    3118:	3c108000 	lui	s0,0x8000
    311c:	8c440000 	lw	a0,0(v0)
    3120:	0c0008c8 	jal	2320 <b32tohex(unsigned int)>
    3124:	00000000 	nop
    3128:	27a40048 	addiu	a0,sp,72
    312c:	24050008 	li	a1,8
    3130:	afa3004c 	sw	v1,76(sp)
    3134:	0c0005ea 	jal	17a8 <System::Bus::UART::write_waiting(char const*, unsigned int)>
    3138:	afa20048 	sw	v0,72(sp)
    313c:	00002821 	move	a1,zero
    3140:	0c0005ea 	jal	17a8 <System::Bus::UART::write_waiting(char const*, unsigned int)>
    3144:	2604013c 	addiu	a0,s0,316
    3148:	0c0004d0 	jal	1340 <_ZN6System8Registry8instanceEv.local.6>
    314c:	00000000 	nop
    3150:	8c440004 	lw	a0,4(v0)
    3154:	0c0008c8 	jal	2320 <b32tohex(unsigned int)>
    3158:	00000000 	nop
    315c:	27a40040 	addiu	a0,sp,64
    3160:	24050008 	li	a1,8
    3164:	afa30044 	sw	v1,68(sp)
    3168:	0c0005ea 	jal	17a8 <System::Bus::UART::write_waiting(char const*, unsigned int)>
    316c:	afa20040 	sw	v0,64(sp)
    3170:	00002821 	move	a1,zero
    3174:	0c0005ea 	jal	17a8 <System::Bus::UART::write_waiting(char const*, unsigned int)>
    3178:	2604013c 	addiu	a0,s0,316
    317c:	0c0004d0 	jal	1340 <_ZN6System8Registry8instanceEv.local.6>
    3180:	00000000 	nop
    3184:	8c440008 	lw	a0,8(v0)
    3188:	0c0008c8 	jal	2320 <b32tohex(unsigned int)>
    318c:	00000000 	nop
    3190:	27a40038 	addiu	a0,sp,56
    3194:	24050008 	li	a1,8
    3198:	afa3003c 	sw	v1,60(sp)
    319c:	0c0005ea 	jal	17a8 <System::Bus::UART::write_waiting(char const*, unsigned int)>
    31a0:	afa20038 	sw	v0,56(sp)
    31a4:	2604013c 	addiu	a0,s0,316
    31a8:	0c0005ea 	jal	17a8 <System::Bus::UART::write_waiting(char const*, unsigned int)>
    31ac:	00002821 	move	a1,zero
    31b0:	0c0004d0 	jal	1340 <_ZN6System8Registry8instanceEv.local.6>
    31b4:	00000000 	nop
    31b8:	8c44000c 	lw	a0,12(v0)
    31bc:	0c0008c8 	jal	2320 <b32tohex(unsigned int)>
    31c0:	00000000 	nop
    31c4:	afa30034 	sw	v1,52(sp)
    31c8:	afa20030 	sw	v0,48(sp)
    31cc:	08000baf 	j	2ebc <Radio::Messages::consoleHandler(char*)+0xb58>
    31d0:	27a40030 	addiu	a0,sp,48
    31d4:	0c0004d0 	jal	1340 <_ZN6System8Registry8instanceEv.local.6>
    31d8:	00000000 	nop
    31dc:	8c44004c 	lw	a0,76(v0)
    31e0:	0c0008c8 	jal	2320 <b32tohex(unsigned int)>
    31e4:	00000000 	nop
    31e8:	afa3002c 	sw	v1,44(sp)
    31ec:	afa20028 	sw	v0,40(sp)
    31f0:	08000baf 	j	2ebc <Radio::Messages::consoleHandler(char*)+0xb58>
    31f4:	27a40028 	addiu	a0,sp,40
    31f8:	0c0004d0 	jal	1340 <_ZN6System8Registry8instanceEv.local.6>
    31fc:	00000000 	nop
    3200:	8c440054 	lw	a0,84(v0)
    3204:	0c0008c8 	jal	2320 <b32tohex(unsigned int)>
    3208:	00000000 	nop
    320c:	afa30024 	sw	v1,36(sp)
    3210:	afa20020 	sw	v0,32(sp)
    3214:	08000baf 	j	2ebc <Radio::Messages::consoleHandler(char*)+0xb58>
    3218:	27a40020 	addiu	a0,sp,32
    321c:	08000d27 	j	349c <Radio::Messages::consoleHandler(char*)+0x1138>
    3220:	2410000a 	li	s0,10
    3224:	08000d27 	j	349c <Radio::Messages::consoleHandler(char*)+0x1138>
    3228:	24100011 	li	s0,17
    322c:	08000d27 	j	349c <Radio::Messages::consoleHandler(char*)+0x1138>
    3230:	24100016 	li	s0,22
    3234:	08000d27 	j	349c <Radio::Messages::consoleHandler(char*)+0x1138>
    3238:	24100019 	li	s0,25
    323c:	08000d27 	j	349c <Radio::Messages::consoleHandler(char*)+0x1138>
    3240:	24100022 	li	s0,34
    3244:	08000d27 	j	349c <Radio::Messages::consoleHandler(char*)+0x1138>
    3248:	24100041 	li	s0,65
    324c:	27a30010 	addiu	v1,sp,16
    3250:	00121080 	sll	v0,s2,0x2
    3254:	00621021 	addu	v0,v1,v0
    3258:	8c430000 	lw	v1,0(v0)
    325c:	2404000a 	li	a0,10
    3260:	00830018 	mult	a0,v1
    3264:	82230000 	lb	v1,0(s1)
    3268:	00000000 	nop
    326c:	2463ffd0 	addiu	v1,v1,-48
    3270:	00002812 	mflo	a1
    3274:	00a31821 	addu	v1,a1,v1
    3278:	08000d27 	j	349c <Radio::Messages::consoleHandler(char*)+0x1138>
    327c:	ac430000 	sw	v1,0(v0)
    3280:	08000ca3 	j	328c <Radio::Messages::consoleHandler(char*)+0xf28>
    3284:	2410002e 	li	s0,46
    3288:	24100031 	li	s0,49
    328c:	2402002d 	li	v0,45
    3290:	16620007 	bne	s3,v0,32b0 <Radio::Messages::consoleHandler(char*)+0xf4c>
    3294:	27a30010 	addiu	v1,sp,16
    3298:	00121080 	sll	v0,s2,0x2
    329c:	00621021 	addu	v0,v1,v0
    32a0:	8c430000 	lw	v1,0(v0)
    32a4:	2413002b 	li	s3,43
    32a8:	00031823 	negu	v1,v1
    32ac:	ac430000 	sw	v1,0(v0)
    32b0:	08000d27 	j	349c <Radio::Messages::consoleHandler(char*)+0x1138>
    32b4:	26520001 	addiu	s2,s2,1
    32b8:	08000cb9 	j	32e4 <Radio::Messages::consoleHandler(char*)+0xf80>
    32bc:	2410002c 	li	s0,44
    32c0:	08000cb9 	j	32e4 <Radio::Messages::consoleHandler(char*)+0xf80>
    32c4:	2410002f 	li	s0,47
    32c8:	08000cb9 	j	32e4 <Radio::Messages::consoleHandler(char*)+0xf80>
    32cc:	24100032 	li	s0,50
    32d0:	08000cb9 	j	32e4 <Radio::Messages::consoleHandler(char*)+0xf80>
    32d4:	24100038 	li	s0,56
    32d8:	08000cb9 	j	32e4 <Radio::Messages::consoleHandler(char*)+0xf80>
    32dc:	2410003f 	li	s0,63
    32e0:	2410004f 	li	s0,79
    32e4:	82230000 	lb	v1,0(s1)
    32e8:	2402002d 	li	v0,45
    32ec:	1462006b 	bne	v1,v0,349c <Radio::Messages::consoleHandler(char*)+0x1138>
    32f0:	00000000 	nop
    32f4:	08000d27 	j	349c <Radio::Messages::consoleHandler(char*)+0x1138>
    32f8:	2413002d 	li	s3,45
    32fc:	08000cc2 	j	3308 <Radio::Messages::consoleHandler(char*)+0xfa4>
    3300:	24100008 	li	s0,8
    3304:	24100051 	li	s0,81
    3308:	2402002d 	li	v0,45
    330c:	16620007 	bne	s3,v0,332c <Radio::Messages::consoleHandler(char*)+0xfc8>
    3310:	00121080 	sll	v0,s2,0x2
    3314:	27a40010 	addiu	a0,sp,16
    3318:	00821021 	addu	v0,a0,v0
    331c:	8c430000 	lw	v1,0(v0)
    3320:	2413002b 	li	s3,43
    3324:	00031823 	negu	v1,v1
    3328:	ac430000 	sw	v1,0(v0)
    332c:	8fa30014 	lw	v1,20(sp)
    3330:	8fa40010 	lw	a0,16(sp)
    3334:	afa300d8 	sw	v1,216(sp)
    3338:	8fbe0018 	lw	s8,24(sp)
    333c:	0c0004d0 	jal	1340 <_ZN6System8Registry8instanceEv.local.6>
    3340:	afa400d4 	sw	a0,212(sp)
    3344:	8fa400d4 	lw	a0,212(sp)
    3348:	26520001 	addiu	s2,s2,1
    334c:	0c0004d0 	jal	1340 <_ZN6System8Registry8instanceEv.local.6>
    3350:	ac440058 	sw	a0,88(v0)
    3354:	8fa300d8 	lw	v1,216(sp)
    3358:	0c0004d0 	jal	1340 <_ZN6System8Registry8instanceEv.local.6>
    335c:	ac43005c 	sw	v1,92(v0)
    3360:	08000cea 	j	33a8 <Radio::Messages::consoleHandler(char*)+0x1044>
    3364:	ac5e0060 	sw	s8,96(v0)
    3368:	08000cdd 	j	3374 <Radio::Messages::consoleHandler(char*)+0x1010>
    336c:	24100008 	li	s0,8
    3370:	24100051 	li	s0,81
    3374:	2402002d 	li	v0,45
    3378:	16620007 	bne	s3,v0,3398 <Radio::Messages::consoleHandler(char*)+0x1034>
    337c:	00121080 	sll	v0,s2,0x2
    3380:	27a50010 	addiu	a1,sp,16
    3384:	00a21021 	addu	v0,a1,v0
    3388:	8c430000 	lw	v1,0(v0)
    338c:	2413002b 	li	s3,43
    3390:	00031823 	negu	v1,v1
    3394:	ac430000 	sw	v1,0(v0)
    3398:	8fbe0010 	lw	s8,16(sp)
    339c:	0c0004d0 	jal	1340 <_ZN6System8Registry8instanceEv.local.6>
    33a0:	26520001 	addiu	s2,s2,1
    33a4:	ac5e0054 	sw	s8,84(v0)
    33a8:	02a02021 	move	a0,s5
    33ac:	0c0005ea 	jal	17a8 <System::Bus::UART::write_waiting(char const*, unsigned int)>
    33b0:	00002821 	move	a1,zero
    33b4:	08000d28 	j	34a0 <Radio::Messages::consoleHandler(char*)+0x113c>
    33b8:	26310001 	addiu	s1,s1,1
    33bc:	08000cf2 	j	33c8 <Radio::Messages::consoleHandler(char*)+0x1064>
    33c0:	24100008 	li	s0,8
    33c4:	24100051 	li	s0,81
    33c8:	2402002d 	li	v0,45
    33cc:	16620007 	bne	s3,v0,33ec <Radio::Messages::consoleHandler(char*)+0x1088>
    33d0:	27a30010 	addiu	v1,sp,16
    33d4:	00121080 	sll	v0,s2,0x2
    33d8:	00621021 	addu	v0,v1,v0
    33dc:	8c430000 	lw	v1,0(v0)
    33e0:	2413002b 	li	s3,43
    33e4:	00031823 	negu	v1,v1
    33e8:	ac430000 	sw	v1,0(v0)
    33ec:	8fbe0010 	lw	s8,16(sp)
    33f0:	0c0004d0 	jal	1340 <_ZN6System8Registry8instanceEv.local.6>
    33f4:	26520001 	addiu	s2,s2,1
    33f8:	08000cea 	j	33a8 <Radio::Messages::consoleHandler(char*)+0x1044>
    33fc:	ac5e0074 	sw	s8,116(v0)
    3400:	08000d03 	j	340c <Radio::Messages::consoleHandler(char*)+0x10a8>
    3404:	24100008 	li	s0,8
    3408:	24100051 	li	s0,81
    340c:	2402002d 	li	v0,45
    3410:	16620007 	bne	s3,v0,3430 <Radio::Messages::consoleHandler(char*)+0x10cc>
    3414:	00121080 	sll	v0,s2,0x2
    3418:	27a40010 	addiu	a0,sp,16
    341c:	00821021 	addu	v0,a0,v0
    3420:	8c430000 	lw	v1,0(v0)
    3424:	2413002b 	li	s3,43
    3428:	00031823 	negu	v1,v1
    342c:	ac430000 	sw	v1,0(v0)
    3430:	8fbe0010 	lw	s8,16(sp)
    3434:	0c0004d0 	jal	1340 <_ZN6System8Registry8instanceEv.local.6>
    3438:	26520001 	addiu	s2,s2,1
    343c:	08000cea 	j	33a8 <Radio::Messages::consoleHandler(char*)+0x1044>
    3440:	ac5e0078 	sw	s8,120(v0)
    3444:	08000d14 	j	3450 <Radio::Messages::consoleHandler(char*)+0x10ec>
    3448:	24100008 	li	s0,8
    344c:	24100051 	li	s0,81
    3450:	2402002d 	li	v0,45
    3454:	16620007 	bne	s3,v0,3474 <Radio::Messages::consoleHandler(char*)+0x1110>
    3458:	00121080 	sll	v0,s2,0x2
    345c:	27a50010 	addiu	a1,sp,16
    3460:	00a21021 	addu	v0,a1,v0
    3464:	8c430000 	lw	v1,0(v0)
    3468:	2413002b 	li	s3,43
    346c:	00031823 	negu	v1,v1
    3470:	ac430000 	sw	v1,0(v0)
    3474:	8fbe0010 	lw	s8,16(sp)
    3478:	0c0004d0 	jal	1340 <_ZN6System8Registry8instanceEv.local.6>
    347c:	26520001 	addiu	s2,s2,1
    3480:	08000cea 	j	33a8 <Radio::Messages::consoleHandler(char*)+0x1044>
    3484:	ac5e007c 	sw	s8,124(v0)
    3488:	08000d27 	j	349c <Radio::Messages::consoleHandler(char*)+0x1138>
    348c:	24100009 	li	s0,9
    3490:	08000d27 	j	349c <Radio::Messages::consoleHandler(char*)+0x1138>
    3494:	24100051 	li	s0,81
    3498:	2410003a 	li	s0,58
    349c:	26310001 	addiu	s1,s1,1
    34a0:	1636fbd2 	bne	s1,s6,23ec <Radio::Messages::consoleHandler(char*)+0x88>
    34a4:	2602ffff 	addiu	v0,s0,-1
    34a8:	8fbf0104 	lw	ra,260(sp)
    34ac:	8fbe0100 	lw	s8,256(sp)
    34b0:	8fb700fc 	lw	s7,252(sp)
    34b4:	8fb600f8 	lw	s6,248(sp)
    34b8:	8fb500f4 	lw	s5,244(sp)
    34bc:	8fb400f0 	lw	s4,240(sp)
    34c0:	8fb300ec 	lw	s3,236(sp)
    34c4:	8fb200e8 	lw	s2,232(sp)
    34c8:	8fb100e4 	lw	s1,228(sp)
    34cc:	8fb000e0 	lw	s0,224(sp)
    34d0:	03e00008 	jr	ra
    34d4:	27bd0108 	addiu	sp,sp,264

000034d8 <__ashldi3>:

#ifdef L_ashldi3
DWtype
__ashldi3 (DWtype u, shift_count_type b)
{
  if (b == 0)
    34d8:	10c0000a 	beqz	a2,3504 <__ashldi3+0x2c>
    34dc:	00801021 	move	v0,a0
    return u;

  const DWunion uu = {.ll = u};
  const shift_count_type bm = W_TYPE_SIZE - b;
    34e0:	24030020 	li	v1,32
    34e4:	00661823 	subu	v1,v1,a2
  DWunion w;

  if (bm <= 0)
    34e8:	18600008 	blez	v1,350c <__ashldi3+0x34>
    34ec:	00000000 	nop
      w.s.low = 0;
      w.s.high = (UWtype) uu.s.low << -bm;
    }
  else
    {
      const UWtype carries = (UWtype) uu.s.low >> bm;
    34f0:	00651806 	srlv	v1,a1,v1

      w.s.low = (UWtype) uu.s.low << b;
      w.s.high = ((UWtype) uu.s.high << b) | carries;
    34f4:	00c41004 	sllv	v0,a0,a2
    }
  else
    {
      const UWtype carries = (UWtype) uu.s.low >> bm;

      w.s.low = (UWtype) uu.s.low << b;
    34f8:	00c53004 	sllv	a2,a1,a2
      w.s.high = ((UWtype) uu.s.high << b) | carries;
    34fc:	00621025 	or	v0,v1,v0
    }

  return w.ll;
    3500:	00c02821 	move	a1,a2
}
    3504:	03e00008 	jr	ra
    3508:	00a01821 	move	v1,a1
  DWunion w;

  if (bm <= 0)
    {
      w.s.low = 0;
      w.s.high = (UWtype) uu.s.low << -bm;
    350c:	00031023 	negu	v0,v1
  const shift_count_type bm = W_TYPE_SIZE - b;
  DWunion w;

  if (bm <= 0)
    {
      w.s.low = 0;
    3510:	00003021 	move	a2,zero
      w.s.high = (UWtype) uu.s.low << -bm;
    3514:	00451004 	sllv	v0,a1,v0

      w.s.low = (UWtype) uu.s.low << b;
      w.s.high = ((UWtype) uu.s.high << b) | carries;
    }

  return w.ll;
    3518:	08000d41 	j	3504 <__ashldi3+0x2c>
    351c:	00c02821 	move	a1,a2

00003520 <_GLOBAL__sub_I__ZN6System7Tasking4Pool16xbeeReadIdleTaskE.2952.1318>:
    3520:	3c048000 	lui	a0,0x8000
    3524:	3c038000 	lui	v1,0x8000
    3528:	248402c0 	addiu	a0,a0,704
    352c:	27bdffe8 	addiu	sp,sp,-24
    3530:	24620350 	addiu	v0,v1,848
    3534:	ac640350 	sw	a0,848(v1)
    3538:	3c038000 	lui	v1,0x8000
    353c:	afbf0014 	sw	ra,20(sp)
    3540:	afb00010 	sw	s0,16(sp)
    3544:	ac400004 	sw	zero,4(v0)
    3548:	ac400008 	sw	zero,8(v0)
    354c:	ac40000c 	sw	zero,12(v0)
    3550:	ac400038 	sw	zero,56(v0)
    3554:	a040003c 	sb	zero,60(v0)
    3558:	ac400040 	sw	zero,64(v0)
    355c:	24620394 	addiu	v0,v1,916
    3560:	ac400004 	sw	zero,4(v0)
    3564:	ac400008 	sw	zero,8(v0)
    3568:	ac40000c 	sw	zero,12(v0)
    356c:	3c028000 	lui	v0,0x8000
    3570:	244202b0 	addiu	v0,v0,688
    3574:	ac620394 	sw	v0,916(v1)
    3578:	3c038000 	lui	v1,0x8000
    357c:	246203a8 	addiu	v0,v1,936
    3580:	ac400004 	sw	zero,4(v0)
    3584:	ac400008 	sw	zero,8(v0)
    3588:	ac400014 	sw	zero,20(v0)
    358c:	ac400018 	sw	zero,24(v0)
    3590:	ac40001c 	sw	zero,28(v0)
    3594:	ac400020 	sw	zero,32(v0)
    3598:	ac40000c 	sw	zero,12(v0)
    359c:	3c028000 	lui	v0,0x8000
    35a0:	245003cc 	addiu	s0,v0,972
    35a4:	3c048000 	lui	a0,0x8000
    35a8:	ae000004 	sw	zero,4(s0)
    35ac:	ae000008 	sw	zero,8(s0)
    35b0:	248402a0 	addiu	a0,a0,672
    35b4:	ac6403a8 	sw	a0,936(v1)
    35b8:	8c050010 	lw	a1,16(zero)
    35bc:	3c038000 	lui	v1,0x8000
    35c0:	3c048000 	lui	a0,0x8000
    35c4:	24630290 	addiu	v1,v1,656
    35c8:	248403e4 	addiu	a0,a0,996
    35cc:	ae00000c 	sw	zero,12(s0)
    35d0:	0c0006a5 	jal	1a94 <float32::float32(int)>
    35d4:	ac4303cc 	sw	v1,972(v0)
    35d8:	8fbf0014 	lw	ra,20(sp)
    35dc:	3c023f80 	lui	v0,0x3f80
    35e0:	ae020040 	sw	v0,64(s0)
    35e4:	ae020050 	sw	v0,80(s0)
    35e8:	8fb00010 	lw	s0,16(sp)
    35ec:	03e00008 	jr	ra
    35f0:	27bd0018 	addiu	sp,sp,24

000035f4 <main>:
    35f4:	27bdffb0 	addiu	sp,sp,-80
    35f8:	2404006b 	li	a0,107
    35fc:	2405ff80 	li	a1,-128
    3600:	afbf004c 	sw	ra,76(sp)
    3604:	afb40048 	sw	s4,72(sp)
    3608:	afb30044 	sw	s3,68(sp)
    360c:	afb20040 	sw	s2,64(sp)
    3610:	afb1003c 	sw	s1,60(sp)
    3614:	0c000670 	jal	19c0 <_ZN7Sensors3IMU7MPU6050L13mpu6050_setupEcc.2490>
    3618:	afb00038 	sw	s0,56(sp)
    361c:	3402f424 	li	v0,0xf424
    3620:	2442ffff 	addiu	v0,v0,-1
    3624:	1440fffe 	bnez	v0,3620 <main+0x2c>
    3628:	2404006b 	li	a0,107
    362c:	0c000670 	jal	19c0 <_ZN7Sensors3IMU7MPU6050L13mpu6050_setupEcc.2490>
    3630:	00002821 	move	a1,zero
    3634:	2404001a 	li	a0,26
    3638:	0c000670 	jal	19c0 <_ZN7Sensors3IMU7MPU6050L13mpu6050_setupEcc.2490>
    363c:	24050003 	li	a1,3
    3640:	2404001b 	li	a0,27
    3644:	0c000670 	jal	19c0 <_ZN7Sensors3IMU7MPU6050L13mpu6050_setupEcc.2490>
    3648:	24050018 	li	a1,24
    364c:	2404001c 	li	a0,28
    3650:	0c000670 	jal	19c0 <_ZN7Sensors3IMU7MPU6050L13mpu6050_setupEcc.2490>
    3654:	24050018 	li	a1,24
    3658:	240230d4 	li	v0,12500
    365c:	2442ffff 	addiu	v0,v0,-1
    3660:	1440fffe 	bnez	v0,365c <main+0x68>
    3664:	3c060001 	lui	a2,0x1
    3668:	24050001 	li	a1,1
    366c:	34c6e848 	ori	a2,a2,0xe848
    3670:	24040008 	li	a0,8
    3674:	00451804 	sllv	v1,a1,v0
    3678:	306300ff 	andi	v1,v1,0xff
    367c:	ac030004 	sw	v1,4(zero)
    3680:	00c01821 	move	v1,a2
    3684:	2463ffff 	addiu	v1,v1,-1
    3688:	1460fffe 	bnez	v1,3684 <main+0x90>
    368c:	00000000 	nop
    3690:	24420001 	addiu	v0,v0,1
    3694:	1444fff8 	bne	v0,a0,3678 <main+0x84>
    3698:	00451804 	sllv	v1,a1,v0
    369c:	3c060001 	lui	a2,0x1
    36a0:	00001021 	move	v0,zero
    36a4:	24050080 	li	a1,128
    36a8:	34c6e848 	ori	a2,a2,0xe848
    36ac:	24040009 	li	a0,9
    36b0:	00451807 	srav	v1,a1,v0
    36b4:	ac030004 	sw	v1,4(zero)
    36b8:	00c01821 	move	v1,a2
    36bc:	2463ffff 	addiu	v1,v1,-1
    36c0:	1460fffe 	bnez	v1,36bc <main+0xc8>
    36c4:	00000000 	nop
    36c8:	24420001 	addiu	v0,v0,1
    36cc:	1444fff9 	bne	v0,a0,36b4 <main+0xc0>
    36d0:	00451807 	srav	v1,a1,v0
    36d4:	3c028000 	lui	v0,0x8000
    36d8:	24420350 	addiu	v0,v0,848
    36dc:	ac400008 	sw	zero,8(v0)
    36e0:	afa00024 	sw	zero,36(sp)
    36e4:	afa00028 	sw	zero,40(sp)
    36e8:	8c030010 	lw	v1,16(zero)
    36ec:	27b00010 	addiu	s0,sp,16
    36f0:	ac430004 	sw	v1,4(v0)
    36f4:	ac500010 	sw	s0,16(v0)
    36f8:	afa20010 	sw	v0,16(sp)
    36fc:	3c030007 	lui	v1,0x7
    3700:	3c028000 	lui	v0,0x8000
    3704:	244203cc 	addiu	v0,v0,972
    3708:	3463a120 	ori	v1,v1,0xa120
    370c:	ac430008 	sw	v1,8(v0)
    3710:	8c040010 	lw	a0,16(zero)
    3714:	ac500010 	sw	s0,16(v0)
    3718:	00831821 	addu	v1,a0,v1
    371c:	ac430004 	sw	v1,4(v0)
    3720:	02002021 	move	a0,s0
    3724:	00002821 	move	a1,zero
    3728:	3c12b2d0 	lui	s2,0xb2d0
    372c:	afa00018 	sw	zero,24(sp)
    3730:	afa0001c 	sw	zero,28(sp)
    3734:	afa00020 	sw	zero,32(sp)
    3738:	afa20014 	sw	v0,20(sp)
    373c:	0c000627 	jal	189c <System::Tasking::TaskScheduler::selectNextTask(unsigned int)>
    3740:	26525e00 	addiu	s2,s2,24064
    3744:	27b30014 	addiu	s3,sp,20
    3748:	27b40018 	addiu	s4,sp,24
    374c:	8fa40020 	lw	a0,32(sp)
    3750:	8c110010 	lw	s1,16(zero)
    3754:	1080003f 	beqz	a0,3854 <main+0x260>
    3758:	00000000 	nop
    375c:	8fa20024 	lw	v0,36(sp)
    3760:	00000000 	nop
    3764:	0222182b 	sltu	v1,s1,v0
    3768:	1460003a 	bnez	v1,3854 <main+0x260>
    376c:	02221023 	subu	v0,s1,v0
    3770:	0052102b 	sltu	v0,v0,s2
    3774:	10400037 	beqz	v0,3854 <main+0x260>
    3778:	00000000 	nop
    377c:	8c820000 	lw	v0,0(a0)
    3780:	00000000 	nop
    3784:	8c420000 	lw	v0,0(v0)
    3788:	00000000 	nop
    378c:	0040f809 	jalr	v0
    3790:	00000000 	nop
    3794:	8fa40028 	lw	a0,40(sp)
    3798:	24030001 	li	v1,1
    379c:	8fa20020 	lw	v0,32(sp)
    37a0:	14830023 	bne	a0,v1,3830 <main+0x23c>
    37a4:	00002821 	move	a1,zero
    37a8:	afb0002c 	sw	s0,44(sp)
    37ac:	afb30030 	sw	s3,48(sp)
    37b0:	afb40034 	sw	s4,52(sp)
    37b4:	2406000c 	li	a2,12
    37b8:	27a4002c 	addiu	a0,sp,44
    37bc:	00851821 	addu	v1,a0,a1
    37c0:	8c640000 	lw	a0,0(v1)
    37c4:	00000000 	nop
    37c8:	8c830000 	lw	v1,0(a0)
    37cc:	00000000 	nop
    37d0:	10600012 	beqz	v1,381c <main+0x228>
    37d4:	00000000 	nop
    37d8:	14620005 	bne	v1,v0,37f0 <main+0x1fc>
    37dc:	00000000 	nop
    37e0:	8c43000c 	lw	v1,12(v0)
    37e4:	08000e0a 	j	3828 <main+0x234>
    37e8:	ac830000 	sw	v1,0(a0)
    37ec:	00801821 	move	v1,a0
    37f0:	8c64000c 	lw	a0,12(v1)
    37f4:	00000000 	nop
    37f8:	10800006 	beqz	a0,3814 <main+0x220>
    37fc:	00000000 	nop
    3800:	1482fffa 	bne	a0,v0,37ec <main+0x1f8>
    3804:	00000000 	nop
    3808:	8c44000c 	lw	a0,12(v0)
    380c:	08000e0a 	j	3828 <main+0x234>
    3810:	ac64000c 	sw	a0,12(v1)
    3814:	1040fffc 	beqz	v0,3808 <main+0x214>
    3818:	00000000 	nop
    381c:	24a50004 	addiu	a1,a1,4
    3820:	14a6ffe6 	bne	a1,a2,37bc <main+0x1c8>
    3824:	27a4002c 	addiu	a0,sp,44
    3828:	08000e10 	j	3840 <main+0x24c>
    382c:	ac400010 	sw	zero,16(v0)
    3830:	8c430008 	lw	v1,8(v0)
    3834:	00000000 	nop
    3838:	02231821 	addu	v1,s1,v1
    383c:	ac430004 	sw	v1,4(v0)
    3840:	02002021 	move	a0,s0
    3844:	0c000627 	jal	189c <System::Tasking::TaskScheduler::selectNextTask(unsigned int)>
    3848:	02202821 	move	a1,s1
    384c:	08000dd3 	j	374c <main+0x158>
    3850:	00000000 	nop
    3854:	8fa2001c 	lw	v0,28(sp)
    3858:	00000000 	nop
    385c:	10400006 	beqz	v0,3878 <main+0x284>
    3860:	00000000 	nop
    3864:	8c42000c 	lw	v0,12(v0)
    3868:	00000000 	nop
    386c:	afa2001c 	sw	v0,28(sp)
    3870:	8fa2001c 	lw	v0,28(sp)
    3874:	00000000 	nop
    3878:	14400004 	bnez	v0,388c <main+0x298>
    387c:	00000000 	nop
    3880:	8fa20010 	lw	v0,16(sp)
    3884:	00000000 	nop
    3888:	afa2001c 	sw	v0,28(sp)
    388c:	8fa4001c 	lw	a0,28(sp)
    3890:	00000000 	nop
    3894:	1080ffad 	beqz	a0,374c <main+0x158>
    3898:	00000000 	nop
    389c:	8c820000 	lw	v0,0(a0)
    38a0:	00000000 	nop
    38a4:	8c420000 	lw	v0,0(v0)
    38a8:	00000000 	nop
    38ac:	0040f809 	jalr	v0
    38b0:	00000000 	nop
    38b4:	08000dd3 	j	374c <main+0x158>
    38b8:	00000000 	nop

000038bc <CODE_ENDS>:
    38bc:	00000000 	nop
    38c0:	00000000 	nop
    38c4:	00000000 	nop
    38c8:	00000000 	nop
    38cc:	00000000 	nop
    38d0:	00000000 	nop
    38d4:	00000000 	nop
    38d8:	00000000 	nop
    38dc:	00000000 	nop
    38e0:	00000000 	nop
    38e4:	00000000 	nop
    38e8:	00000000 	nop
    38ec:	00000000 	nop
    38f0:	00000000 	nop
    38f4:	00000000 	nop
    38f8:	00000000 	nop
    38fc:	00000000 	nop
    3900:	00000000 	nop
    3904:	00000000 	nop
    3908:	00000000 	nop
    390c:	00000000 	nop
    3910:	00000000 	nop
    3914:	00000000 	nop
    3918:	00000000 	nop
    391c:	00000000 	nop
    3920:	00000000 	nop
    3924:	00000000 	nop
    3928:	00000000 	nop
    392c:	00000000 	nop
    3930:	00000000 	nop
    3934:	00000000 	nop
    3938:	00000000 	nop
    393c:	00000000 	nop
    3940:	00000000 	nop
    3944:	00000000 	nop
    3948:	00000000 	nop
    394c:	00000000 	nop
    3950:	00000000 	nop
    3954:	00000000 	nop
    3958:	00000000 	nop
    395c:	00000000 	nop
    3960:	00000000 	nop
    3964:	00000000 	nop
    3968:	00000000 	nop
    396c:	00000000 	nop
    3970:	00000000 	nop
    3974:	00000000 	nop
    3978:	00000000 	nop
    397c:	00000000 	nop
    3980:	00000000 	nop
    3984:	00000000 	nop
    3988:	00000000 	nop
    398c:	00000000 	nop
    3990:	00000000 	nop
    3994:	00000000 	nop
    3998:	00000000 	nop
    399c:	00000000 	nop
    39a0:	00000000 	nop
    39a4:	00000000 	nop
    39a8:	00000000 	nop
    39ac:	00000000 	nop
    39b0:	00000000 	nop
    39b4:	00000000 	nop
    39b8:	00000000 	nop
    39bc:	00000000 	nop
    39c0:	00000000 	nop
    39c4:	00000000 	nop
    39c8:	00000000 	nop
    39cc:	00000000 	nop
    39d0:	00000000 	nop
    39d4:	00000000 	nop
    39d8:	00000000 	nop
    39dc:	00000000 	nop
    39e0:	00000000 	nop
    39e4:	00000000 	nop
    39e8:	00000000 	nop
    39ec:	00000000 	nop
    39f0:	00000000 	nop
    39f4:	00000000 	nop
    39f8:	00000000 	nop
    39fc:	00000000 	nop
    3a00:	00000000 	nop
    3a04:	00000000 	nop
    3a08:	00000000 	nop
    3a0c:	00000000 	nop
    3a10:	00000000 	nop
    3a14:	00000000 	nop
    3a18:	00000000 	nop
    3a1c:	00000000 	nop
    3a20:	00000000 	nop
    3a24:	00000000 	nop
    3a28:	00000000 	nop
    3a2c:	00000000 	nop
    3a30:	00000000 	nop
    3a34:	00000000 	nop
    3a38:	00000000 	nop
    3a3c:	00000000 	nop
    3a40:	00000000 	nop
    3a44:	00000000 	nop
    3a48:	00000000 	nop
    3a4c:	00000000 	nop
    3a50:	00000000 	nop
    3a54:	00000000 	nop
    3a58:	00000000 	nop
    3a5c:	00000000 	nop
    3a60:	00000000 	nop
    3a64:	00000000 	nop
    3a68:	00000000 	nop
    3a6c:	00000000 	nop
    3a70:	00000000 	nop
    3a74:	00000000 	nop
    3a78:	00000000 	nop
    3a7c:	00000000 	nop
    3a80:	00000000 	nop
    3a84:	00000000 	nop
    3a88:	00000000 	nop
    3a8c:	00000000 	nop
    3a90:	00000000 	nop
    3a94:	00000000 	nop
    3a98:	00000000 	nop
    3a9c:	00000000 	nop
    3aa0:	00000000 	nop
    3aa4:	00000000 	nop
    3aa8:	00000000 	nop
    3aac:	00000000 	nop
    3ab0:	00000000 	nop
    3ab4:	00000000 	nop
    3ab8:	00000000 	nop
    3abc:	00000000 	nop
    3ac0:	00000000 	nop
    3ac4:	00000000 	nop
    3ac8:	00000000 	nop
    3acc:	00000000 	nop
    3ad0:	00000000 	nop
    3ad4:	00000000 	nop
    3ad8:	00000000 	nop
    3adc:	00000000 	nop
    3ae0:	00000000 	nop
    3ae4:	00000000 	nop
    3ae8:	00000000 	nop
    3aec:	00000000 	nop
    3af0:	00000000 	nop
    3af4:	00000000 	nop
    3af8:	00000000 	nop
    3afc:	00000000 	nop
    3b00:	00000000 	nop
    3b04:	00000000 	nop
    3b08:	00000000 	nop
    3b0c:	00000000 	nop
    3b10:	00000000 	nop
    3b14:	00000000 	nop
    3b18:	00000000 	nop
    3b1c:	00000000 	nop
    3b20:	00000000 	nop
    3b24:	00000000 	nop
    3b28:	00000000 	nop
    3b2c:	00000000 	nop
    3b30:	00000000 	nop
    3b34:	00000000 	nop
    3b38:	00000000 	nop
    3b3c:	00000000 	nop
    3b40:	00000000 	nop
    3b44:	00000000 	nop
    3b48:	00000000 	nop
    3b4c:	00000000 	nop
    3b50:	00000000 	nop
    3b54:	00000000 	nop
    3b58:	00000000 	nop
    3b5c:	00000000 	nop
    3b60:	00000000 	nop
    3b64:	00000000 	nop
    3b68:	00000000 	nop
    3b6c:	00000000 	nop
    3b70:	00000000 	nop
    3b74:	00000000 	nop
    3b78:	00000000 	nop
    3b7c:	00000000 	nop
    3b80:	00000000 	nop
    3b84:	00000000 	nop
    3b88:	00000000 	nop
    3b8c:	00000000 	nop
    3b90:	00000000 	nop
    3b94:	00000000 	nop
    3b98:	00000000 	nop
    3b9c:	00000000 	nop
    3ba0:	00000000 	nop
    3ba4:	00000000 	nop
    3ba8:	00000000 	nop
    3bac:	00000000 	nop
    3bb0:	00000000 	nop
    3bb4:	00000000 	nop
    3bb8:	00000000 	nop
    3bbc:	00000000 	nop
    3bc0:	00000000 	nop
    3bc4:	00000000 	nop
    3bc8:	00000000 	nop
    3bcc:	00000000 	nop
    3bd0:	00000000 	nop
    3bd4:	00000000 	nop
    3bd8:	00000000 	nop
    3bdc:	00000000 	nop
    3be0:	00000000 	nop
    3be4:	00000000 	nop
    3be8:	00000000 	nop
    3bec:	00000000 	nop
    3bf0:	00000000 	nop
    3bf4:	00000000 	nop
    3bf8:	00000000 	nop
    3bfc:	00000000 	nop
    3c00:	00000000 	nop
    3c04:	00000000 	nop
    3c08:	00000000 	nop
    3c0c:	00000000 	nop
    3c10:	00000000 	nop
    3c14:	00000000 	nop
    3c18:	00000000 	nop
    3c1c:	00000000 	nop
    3c20:	00000000 	nop
    3c24:	00000000 	nop
    3c28:	00000000 	nop
    3c2c:	00000000 	nop
    3c30:	00000000 	nop
    3c34:	00000000 	nop
    3c38:	00000000 	nop
    3c3c:	00000000 	nop
    3c40:	00000000 	nop
    3c44:	00000000 	nop
    3c48:	00000000 	nop
    3c4c:	00000000 	nop
    3c50:	00000000 	nop
    3c54:	00000000 	nop
    3c58:	00000000 	nop
    3c5c:	00000000 	nop
    3c60:	00000000 	nop
    3c64:	00000000 	nop
    3c68:	00000000 	nop
    3c6c:	00000000 	nop
    3c70:	00000000 	nop
    3c74:	00000000 	nop
    3c78:	00000000 	nop
    3c7c:	00000000 	nop
    3c80:	00000000 	nop
    3c84:	00000000 	nop
    3c88:	00000000 	nop
    3c8c:	00000000 	nop
    3c90:	00000000 	nop
    3c94:	00000000 	nop
    3c98:	00000000 	nop
    3c9c:	00000000 	nop
    3ca0:	00000000 	nop
    3ca4:	00000000 	nop
    3ca8:	00000000 	nop
    3cac:	00000000 	nop
    3cb0:	00000000 	nop
    3cb4:	00000000 	nop
    3cb8:	00000000 	nop
    3cbc:	00000000 	nop
    3cc0:	00000000 	nop
    3cc4:	00000000 	nop
    3cc8:	00000000 	nop
    3ccc:	00000000 	nop
    3cd0:	00000000 	nop
    3cd4:	00000000 	nop
    3cd8:	00000000 	nop
    3cdc:	00000000 	nop
    3ce0:	00000000 	nop
    3ce4:	00000000 	nop
    3ce8:	00000000 	nop
    3cec:	00000000 	nop
    3cf0:	00000000 	nop
    3cf4:	00000000 	nop
    3cf8:	00000000 	nop
    3cfc:	00000000 	nop
    3d00:	00000000 	nop
    3d04:	00000000 	nop
    3d08:	00000000 	nop
    3d0c:	00000000 	nop
    3d10:	00000000 	nop
    3d14:	00000000 	nop
    3d18:	00000000 	nop
    3d1c:	00000000 	nop
    3d20:	00000000 	nop
    3d24:	00000000 	nop
    3d28:	00000000 	nop
    3d2c:	00000000 	nop
    3d30:	00000000 	nop
    3d34:	00000000 	nop
    3d38:	00000000 	nop
    3d3c:	00000000 	nop
    3d40:	00000000 	nop
    3d44:	00000000 	nop
    3d48:	00000000 	nop
    3d4c:	00000000 	nop
    3d50:	00000000 	nop
    3d54:	00000000 	nop
    3d58:	00000000 	nop
    3d5c:	00000000 	nop
    3d60:	00000000 	nop
    3d64:	00000000 	nop
    3d68:	00000000 	nop
    3d6c:	00000000 	nop
    3d70:	00000000 	nop
    3d74:	00000000 	nop
    3d78:	00000000 	nop
    3d7c:	00000000 	nop
    3d80:	00000000 	nop
    3d84:	00000000 	nop
    3d88:	00000000 	nop
    3d8c:	00000000 	nop
    3d90:	00000000 	nop
    3d94:	00000000 	nop
    3d98:	00000000 	nop
    3d9c:	00000000 	nop
    3da0:	00000000 	nop
    3da4:	00000000 	nop
    3da8:	00000000 	nop
    3dac:	00000000 	nop
    3db0:	00000000 	nop
    3db4:	00000000 	nop
    3db8:	00000000 	nop
    3dbc:	00000000 	nop
    3dc0:	00000000 	nop
    3dc4:	00000000 	nop
    3dc8:	00000000 	nop
    3dcc:	00000000 	nop
    3dd0:	00000000 	nop
    3dd4:	00000000 	nop
    3dd8:	00000000 	nop
    3ddc:	00000000 	nop
    3de0:	00000000 	nop
    3de4:	00000000 	nop
    3de8:	00000000 	nop
    3dec:	00000000 	nop
    3df0:	00000000 	nop
    3df4:	00000000 	nop
    3df8:	00000000 	nop
    3dfc:	00000000 	nop
    3e00:	00000000 	nop
    3e04:	00000000 	nop
    3e08:	00000000 	nop
    3e0c:	00000000 	nop
    3e10:	00000000 	nop
    3e14:	00000000 	nop
    3e18:	00000000 	nop
    3e1c:	00000000 	nop
    3e20:	00000000 	nop
    3e24:	00000000 	nop
    3e28:	00000000 	nop
    3e2c:	00000000 	nop
    3e30:	00000000 	nop
    3e34:	00000000 	nop
    3e38:	00000000 	nop
    3e3c:	00000000 	nop
    3e40:	00000000 	nop
    3e44:	00000000 	nop
    3e48:	00000000 	nop
    3e4c:	00000000 	nop
    3e50:	00000000 	nop
    3e54:	00000000 	nop
    3e58:	00000000 	nop
    3e5c:	00000000 	nop
    3e60:	00000000 	nop
    3e64:	00000000 	nop
    3e68:	00000000 	nop
    3e6c:	00000000 	nop
    3e70:	00000000 	nop
    3e74:	00000000 	nop
    3e78:	00000000 	nop
    3e7c:	00000000 	nop
    3e80:	00000000 	nop
    3e84:	00000000 	nop
    3e88:	00000000 	nop
    3e8c:	00000000 	nop
    3e90:	00000000 	nop
    3e94:	00000000 	nop
    3e98:	00000000 	nop
    3e9c:	00000000 	nop
    3ea0:	00000000 	nop
    3ea4:	00000000 	nop
    3ea8:	00000000 	nop
    3eac:	00000000 	nop
    3eb0:	00000000 	nop
    3eb4:	00000000 	nop
    3eb8:	00000000 	nop
    3ebc:	00000000 	nop
    3ec0:	00000000 	nop
    3ec4:	00000000 	nop
    3ec8:	00000000 	nop
    3ecc:	00000000 	nop
    3ed0:	00000000 	nop
    3ed4:	00000000 	nop
    3ed8:	00000000 	nop
    3edc:	00000000 	nop
    3ee0:	00000000 	nop
    3ee4:	00000000 	nop
    3ee8:	00000000 	nop
    3eec:	00000000 	nop
    3ef0:	00000000 	nop
    3ef4:	00000000 	nop
    3ef8:	00000000 	nop
    3efc:	00000000 	nop
    3f00:	00000000 	nop
    3f04:	00000000 	nop
    3f08:	00000000 	nop
    3f0c:	00000000 	nop
    3f10:	00000000 	nop
    3f14:	00000000 	nop
    3f18:	00000000 	nop
    3f1c:	00000000 	nop
    3f20:	00000000 	nop
    3f24:	00000000 	nop
    3f28:	00000000 	nop
    3f2c:	00000000 	nop
    3f30:	00000000 	nop
    3f34:	00000000 	nop
    3f38:	00000000 	nop
    3f3c:	00000000 	nop
    3f40:	00000000 	nop
    3f44:	00000000 	nop
    3f48:	00000000 	nop
    3f4c:	00000000 	nop
    3f50:	00000000 	nop
    3f54:	00000000 	nop
    3f58:	00000000 	nop
    3f5c:	00000000 	nop
    3f60:	00000000 	nop
    3f64:	00000000 	nop
    3f68:	00000000 	nop
    3f6c:	00000000 	nop
    3f70:	00000000 	nop
    3f74:	00000000 	nop
    3f78:	00000000 	nop
    3f7c:	00000000 	nop
    3f80:	00000000 	nop
    3f84:	00000000 	nop
    3f88:	00000000 	nop
    3f8c:	00000000 	nop
    3f90:	00000000 	nop
    3f94:	00000000 	nop
    3f98:	00000000 	nop
    3f9c:	00000000 	nop
    3fa0:	00000000 	nop
    3fa4:	00000000 	nop
    3fa8:	00000000 	nop
    3fac:	00000000 	nop
    3fb0:	00000000 	nop
    3fb4:	00000000 	nop
    3fb8:	00000000 	nop
    3fbc:	00000000 	nop
    3fc0:	00000000 	nop
    3fc4:	00000000 	nop
    3fc8:	00000000 	nop
    3fcc:	00000000 	nop
    3fd0:	00000000 	nop
    3fd4:	00000000 	nop
    3fd8:	00000000 	nop
    3fdc:	00000000 	nop
    3fe0:	00000000 	nop
    3fe4:	00000000 	nop
    3fe8:	00000000 	nop
    3fec:	00000000 	nop
    3ff0:	00000000 	nop
    3ff4:	00000000 	nop
    3ff8:	00000000 	nop
    3ffc:	00000000 	nop
    4000:	00000000 	nop
    4004:	00000000 	nop
    4008:	00000000 	nop
    400c:	00000000 	nop
    4010:	00000000 	nop
    4014:	00000000 	nop
    4018:	00000000 	nop
    401c:	00000000 	nop
    4020:	00000000 	nop
    4024:	00000000 	nop
    4028:	00000000 	nop
    402c:	00000000 	nop
    4030:	00000000 	nop
    4034:	00000000 	nop
    4038:	00000000 	nop
    403c:	00000000 	nop
    4040:	00000000 	nop
    4044:	00000000 	nop
    4048:	00000000 	nop
    404c:	00000000 	nop
    4050:	00000000 	nop
    4054:	00000000 	nop
    4058:	00000000 	nop
    405c:	00000000 	nop
    4060:	00000000 	nop
    4064:	00000000 	nop
    4068:	00000000 	nop
    406c:	00000000 	nop
    4070:	00000000 	nop
    4074:	00000000 	nop
    4078:	00000000 	nop
    407c:	00000000 	nop
    4080:	00000000 	nop
    4084:	00000000 	nop
    4088:	00000000 	nop
    408c:	00000000 	nop
    4090:	00000000 	nop
    4094:	00000000 	nop
    4098:	00000000 	nop
    409c:	00000000 	nop
    40a0:	00000000 	nop
    40a4:	00000000 	nop
    40a8:	00000000 	nop
    40ac:	00000000 	nop
    40b0:	00000000 	nop
    40b4:	00000000 	nop
    40b8:	00000000 	nop
    40bc:	00000000 	nop
    40c0:	00000000 	nop
    40c4:	00000000 	nop
    40c8:	00000000 	nop
    40cc:	00000000 	nop
    40d0:	00000000 	nop
    40d4:	00000000 	nop
    40d8:	00000000 	nop
    40dc:	00000000 	nop
    40e0:	00000000 	nop
    40e4:	00000000 	nop
    40e8:	00000000 	nop
    40ec:	00000000 	nop
    40f0:	00000000 	nop
    40f4:	00000000 	nop
    40f8:	00000000 	nop
    40fc:	00000000 	nop
    4100:	00000000 	nop
    4104:	00000000 	nop
    4108:	00000000 	nop
    410c:	00000000 	nop
    4110:	00000000 	nop
    4114:	00000000 	nop
    4118:	00000000 	nop
    411c:	00000000 	nop
    4120:	00000000 	nop
    4124:	00000000 	nop
    4128:	00000000 	nop
    412c:	00000000 	nop
    4130:	00000000 	nop
    4134:	00000000 	nop
    4138:	00000000 	nop
    413c:	00000000 	nop
    4140:	00000000 	nop
    4144:	00000000 	nop
    4148:	00000000 	nop
    414c:	00000000 	nop
    4150:	00000000 	nop
    4154:	00000000 	nop
    4158:	00000000 	nop
    415c:	00000000 	nop
    4160:	00000000 	nop
    4164:	00000000 	nop
    4168:	00000000 	nop
    416c:	00000000 	nop
    4170:	00000000 	nop
    4174:	00000000 	nop
    4178:	00000000 	nop
    417c:	00000000 	nop
    4180:	00000000 	nop
    4184:	00000000 	nop
    4188:	00000000 	nop
    418c:	00000000 	nop
    4190:	00000000 	nop
    4194:	00000000 	nop
    4198:	00000000 	nop
    419c:	00000000 	nop
    41a0:	00000000 	nop
    41a4:	00000000 	nop
    41a8:	00000000 	nop
    41ac:	00000000 	nop
    41b0:	00000000 	nop
    41b4:	00000000 	nop
    41b8:	00000000 	nop
    41bc:	00000000 	nop
    41c0:	00000000 	nop
    41c4:	00000000 	nop
    41c8:	00000000 	nop
    41cc:	00000000 	nop
    41d0:	00000000 	nop
    41d4:	00000000 	nop
    41d8:	00000000 	nop
    41dc:	00000000 	nop
    41e0:	00000000 	nop
    41e4:	00000000 	nop
    41e8:	00000000 	nop
    41ec:	00000000 	nop
    41f0:	00000000 	nop
    41f4:	00000000 	nop
    41f8:	00000000 	nop
    41fc:	00000000 	nop
    4200:	00000000 	nop
    4204:	00000000 	nop
    4208:	00000000 	nop
    420c:	00000000 	nop
    4210:	00000000 	nop
    4214:	00000000 	nop
    4218:	00000000 	nop
    421c:	00000000 	nop
    4220:	00000000 	nop
    4224:	00000000 	nop
    4228:	00000000 	nop
    422c:	00000000 	nop
    4230:	00000000 	nop
    4234:	00000000 	nop
    4238:	00000000 	nop
    423c:	00000000 	nop
    4240:	00000000 	nop
    4244:	00000000 	nop
    4248:	00000000 	nop
    424c:	00000000 	nop
    4250:	00000000 	nop
    4254:	00000000 	nop
    4258:	00000000 	nop
    425c:	00000000 	nop
    4260:	00000000 	nop
    4264:	00000000 	nop
    4268:	00000000 	nop
    426c:	00000000 	nop
    4270:	00000000 	nop
    4274:	00000000 	nop
    4278:	00000000 	nop
    427c:	00000000 	nop
    4280:	00000000 	nop
    4284:	00000000 	nop
    4288:	00000000 	nop
    428c:	00000000 	nop
    4290:	00000000 	nop
    4294:	00000000 	nop
    4298:	00000000 	nop
    429c:	00000000 	nop
    42a0:	00000000 	nop
    42a4:	00000000 	nop
    42a8:	00000000 	nop
    42ac:	00000000 	nop
    42b0:	00000000 	nop
    42b4:	00000000 	nop
    42b8:	00000000 	nop
    42bc:	00000000 	nop
    42c0:	00000000 	nop
    42c4:	00000000 	nop
    42c8:	00000000 	nop
    42cc:	00000000 	nop
    42d0:	00000000 	nop
    42d4:	00000000 	nop
    42d8:	00000000 	nop
    42dc:	00000000 	nop
    42e0:	00000000 	nop
    42e4:	00000000 	nop
    42e8:	00000000 	nop
    42ec:	00000000 	nop
    42f0:	00000000 	nop
    42f4:	00000000 	nop
    42f8:	00000000 	nop
    42fc:	00000000 	nop
    4300:	00000000 	nop
    4304:	00000000 	nop
    4308:	00000000 	nop
    430c:	00000000 	nop
    4310:	00000000 	nop
    4314:	00000000 	nop
    4318:	00000000 	nop
    431c:	00000000 	nop
    4320:	00000000 	nop
    4324:	00000000 	nop
    4328:	00000000 	nop
    432c:	00000000 	nop
    4330:	00000000 	nop
    4334:	00000000 	nop
    4338:	00000000 	nop
    433c:	00000000 	nop
    4340:	00000000 	nop
    4344:	00000000 	nop
    4348:	00000000 	nop
    434c:	00000000 	nop
    4350:	00000000 	nop
    4354:	00000000 	nop
    4358:	00000000 	nop
    435c:	00000000 	nop
    4360:	00000000 	nop
    4364:	00000000 	nop
    4368:	00000000 	nop
    436c:	00000000 	nop
    4370:	00000000 	nop
    4374:	00000000 	nop
    4378:	00000000 	nop
    437c:	00000000 	nop
    4380:	00000000 	nop
    4384:	00000000 	nop
    4388:	00000000 	nop
    438c:	00000000 	nop
    4390:	00000000 	nop
    4394:	00000000 	nop
    4398:	00000000 	nop
    439c:	00000000 	nop
    43a0:	00000000 	nop
    43a4:	00000000 	nop
    43a8:	00000000 	nop
    43ac:	00000000 	nop
    43b0:	00000000 	nop
    43b4:	00000000 	nop
    43b8:	00000000 	nop
    43bc:	00000000 	nop
    43c0:	00000000 	nop
    43c4:	00000000 	nop
    43c8:	00000000 	nop
    43cc:	00000000 	nop
    43d0:	00000000 	nop
    43d4:	00000000 	nop
    43d8:	00000000 	nop
    43dc:	00000000 	nop
    43e0:	00000000 	nop
    43e4:	00000000 	nop
    43e8:	00000000 	nop
    43ec:	00000000 	nop
    43f0:	00000000 	nop
    43f4:	00000000 	nop
    43f8:	00000000 	nop
    43fc:	00000000 	nop
    4400:	00000000 	nop
    4404:	00000000 	nop
    4408:	00000000 	nop
    440c:	00000000 	nop
    4410:	00000000 	nop
    4414:	00000000 	nop
    4418:	00000000 	nop
    441c:	00000000 	nop
    4420:	00000000 	nop
    4424:	00000000 	nop
    4428:	00000000 	nop
    442c:	00000000 	nop
    4430:	00000000 	nop
    4434:	00000000 	nop
    4438:	00000000 	nop
    443c:	00000000 	nop
    4440:	00000000 	nop
    4444:	00000000 	nop
    4448:	00000000 	nop
    444c:	00000000 	nop
    4450:	00000000 	nop
    4454:	00000000 	nop
    4458:	00000000 	nop
    445c:	00000000 	nop
    4460:	00000000 	nop
    4464:	00000000 	nop
    4468:	00000000 	nop
    446c:	00000000 	nop
    4470:	00000000 	nop
    4474:	00000000 	nop
    4478:	00000000 	nop
    447c:	00000000 	nop
    4480:	00000000 	nop
    4484:	00000000 	nop
    4488:	00000000 	nop
    448c:	00000000 	nop
    4490:	00000000 	nop
    4494:	00000000 	nop
    4498:	00000000 	nop
    449c:	00000000 	nop
    44a0:	00000000 	nop
    44a4:	00000000 	nop
    44a8:	00000000 	nop
    44ac:	00000000 	nop
    44b0:	00000000 	nop
    44b4:	00000000 	nop
    44b8:	00000000 	nop
    44bc:	00000000 	nop
    44c0:	00000000 	nop
    44c4:	00000000 	nop
    44c8:	00000000 	nop
    44cc:	00000000 	nop
    44d0:	00000000 	nop
    44d4:	00000000 	nop
    44d8:	00000000 	nop
    44dc:	00000000 	nop
    44e0:	00000000 	nop
    44e4:	00000000 	nop
    44e8:	00000000 	nop
    44ec:	00000000 	nop
    44f0:	00000000 	nop
    44f4:	00000000 	nop
    44f8:	00000000 	nop
    44fc:	00000000 	nop
    4500:	00000000 	nop
    4504:	00000000 	nop
    4508:	00000000 	nop
    450c:	00000000 	nop
    4510:	00000000 	nop
    4514:	00000000 	nop
    4518:	00000000 	nop
    451c:	00000000 	nop
    4520:	00000000 	nop
    4524:	00000000 	nop
    4528:	00000000 	nop
    452c:	00000000 	nop
    4530:	00000000 	nop
    4534:	00000000 	nop
    4538:	00000000 	nop
    453c:	00000000 	nop
    4540:	00000000 	nop
    4544:	00000000 	nop
    4548:	00000000 	nop
    454c:	00000000 	nop
    4550:	00000000 	nop
    4554:	00000000 	nop
    4558:	00000000 	nop
    455c:	00000000 	nop
    4560:	00000000 	nop
    4564:	00000000 	nop
    4568:	00000000 	nop
    456c:	00000000 	nop
    4570:	00000000 	nop
    4574:	00000000 	nop
    4578:	00000000 	nop
    457c:	00000000 	nop
    4580:	00000000 	nop
    4584:	00000000 	nop
    4588:	00000000 	nop
    458c:	00000000 	nop
    4590:	00000000 	nop
    4594:	00000000 	nop
    4598:	00000000 	nop
    459c:	00000000 	nop
    45a0:	00000000 	nop
    45a4:	00000000 	nop
    45a8:	00000000 	nop
    45ac:	00000000 	nop
    45b0:	00000000 	nop
    45b4:	00000000 	nop
    45b8:	00000000 	nop
    45bc:	00000000 	nop
    45c0:	00000000 	nop
    45c4:	00000000 	nop
    45c8:	00000000 	nop
    45cc:	00000000 	nop
    45d0:	00000000 	nop
    45d4:	00000000 	nop
    45d8:	00000000 	nop
    45dc:	00000000 	nop
    45e0:	00000000 	nop
    45e4:	00000000 	nop
    45e8:	00000000 	nop
    45ec:	00000000 	nop
    45f0:	00000000 	nop
    45f4:	00000000 	nop
    45f8:	00000000 	nop
    45fc:	00000000 	nop
    4600:	00000000 	nop
    4604:	00000000 	nop
    4608:	00000000 	nop
    460c:	00000000 	nop
    4610:	00000000 	nop
    4614:	00000000 	nop
    4618:	00000000 	nop
    461c:	00000000 	nop
    4620:	00000000 	nop
    4624:	00000000 	nop
    4628:	00000000 	nop
    462c:	00000000 	nop
    4630:	00000000 	nop
    4634:	00000000 	nop
    4638:	00000000 	nop
    463c:	00000000 	nop
    4640:	00000000 	nop
    4644:	00000000 	nop
    4648:	00000000 	nop
    464c:	00000000 	nop
    4650:	00000000 	nop
    4654:	00000000 	nop
    4658:	00000000 	nop
    465c:	00000000 	nop
    4660:	00000000 	nop
    4664:	00000000 	nop
    4668:	00000000 	nop
    466c:	00000000 	nop
    4670:	00000000 	nop
    4674:	00000000 	nop
    4678:	00000000 	nop
    467c:	00000000 	nop
    4680:	00000000 	nop
    4684:	00000000 	nop
    4688:	00000000 	nop
    468c:	00000000 	nop
    4690:	00000000 	nop
    4694:	00000000 	nop
    4698:	00000000 	nop
    469c:	00000000 	nop
    46a0:	00000000 	nop
    46a4:	00000000 	nop
    46a8:	00000000 	nop
    46ac:	00000000 	nop
    46b0:	00000000 	nop
    46b4:	00000000 	nop
    46b8:	00000000 	nop
    46bc:	00000000 	nop
    46c0:	00000000 	nop
    46c4:	00000000 	nop
    46c8:	00000000 	nop
    46cc:	00000000 	nop
    46d0:	00000000 	nop
    46d4:	00000000 	nop
    46d8:	00000000 	nop
    46dc:	00000000 	nop
    46e0:	00000000 	nop
    46e4:	00000000 	nop
    46e8:	00000000 	nop
    46ec:	00000000 	nop
    46f0:	00000000 	nop
    46f4:	00000000 	nop
    46f8:	00000000 	nop
    46fc:	00000000 	nop
    4700:	00000000 	nop
    4704:	00000000 	nop
    4708:	00000000 	nop
    470c:	00000000 	nop
    4710:	00000000 	nop
    4714:	00000000 	nop
    4718:	00000000 	nop
    471c:	00000000 	nop
    4720:	00000000 	nop
    4724:	00000000 	nop
    4728:	00000000 	nop
    472c:	00000000 	nop
    4730:	00000000 	nop
    4734:	00000000 	nop
    4738:	00000000 	nop
    473c:	00000000 	nop
    4740:	00000000 	nop
    4744:	00000000 	nop
    4748:	00000000 	nop
    474c:	00000000 	nop
    4750:	00000000 	nop
    4754:	00000000 	nop
    4758:	00000000 	nop
    475c:	00000000 	nop
    4760:	00000000 	nop
    4764:	00000000 	nop
    4768:	00000000 	nop
    476c:	00000000 	nop
    4770:	00000000 	nop
    4774:	00000000 	nop
    4778:	00000000 	nop
    477c:	00000000 	nop
    4780:	00000000 	nop
    4784:	00000000 	nop
    4788:	00000000 	nop
    478c:	00000000 	nop
    4790:	00000000 	nop
    4794:	00000000 	nop
    4798:	00000000 	nop
    479c:	00000000 	nop
    47a0:	00000000 	nop
    47a4:	00000000 	nop
    47a8:	00000000 	nop
    47ac:	00000000 	nop
    47b0:	00000000 	nop
    47b4:	00000000 	nop
    47b8:	00000000 	nop
    47bc:	00000000 	nop
    47c0:	00000000 	nop
    47c4:	00000000 	nop
    47c8:	00000000 	nop
    47cc:	00000000 	nop
    47d0:	00000000 	nop
    47d4:	00000000 	nop
    47d8:	00000000 	nop
    47dc:	00000000 	nop
    47e0:	00000000 	nop
    47e4:	00000000 	nop
    47e8:	00000000 	nop
    47ec:	00000000 	nop
    47f0:	00000000 	nop
    47f4:	00000000 	nop
    47f8:	00000000 	nop
    47fc:	00000000 	nop
    4800:	00000000 	nop
    4804:	00000000 	nop
    4808:	00000000 	nop
    480c:	00000000 	nop
    4810:	00000000 	nop
    4814:	00000000 	nop
    4818:	00000000 	nop
    481c:	00000000 	nop
    4820:	00000000 	nop
    4824:	00000000 	nop
    4828:	00000000 	nop
    482c:	00000000 	nop
    4830:	00000000 	nop
    4834:	00000000 	nop
    4838:	00000000 	nop
    483c:	00000000 	nop
    4840:	00000000 	nop
    4844:	00000000 	nop
    4848:	00000000 	nop
    484c:	00000000 	nop
    4850:	00000000 	nop
    4854:	00000000 	nop
    4858:	00000000 	nop
    485c:	00000000 	nop
    4860:	00000000 	nop
    4864:	00000000 	nop
    4868:	00000000 	nop
    486c:	00000000 	nop
    4870:	00000000 	nop
    4874:	00000000 	nop
    4878:	00000000 	nop
    487c:	00000000 	nop
    4880:	00000000 	nop
    4884:	00000000 	nop
    4888:	00000000 	nop
    488c:	00000000 	nop
    4890:	00000000 	nop
    4894:	00000000 	nop
    4898:	00000000 	nop
    489c:	00000000 	nop
    48a0:	00000000 	nop
    48a4:	00000000 	nop
    48a8:	00000000 	nop
    48ac:	00000000 	nop
    48b0:	00000000 	nop
    48b4:	00000000 	nop
    48b8:	00000000 	nop
    48bc:	00000000 	nop
    48c0:	00000000 	nop
    48c4:	00000000 	nop
    48c8:	00000000 	nop
    48cc:	00000000 	nop
    48d0:	00000000 	nop
    48d4:	00000000 	nop
    48d8:	00000000 	nop
    48dc:	00000000 	nop
    48e0:	00000000 	nop
    48e4:	00000000 	nop
    48e8:	00000000 	nop
    48ec:	00000000 	nop
    48f0:	00000000 	nop
    48f4:	00000000 	nop
    48f8:	00000000 	nop
    48fc:	00000000 	nop
    4900:	00000000 	nop
    4904:	00000000 	nop
    4908:	00000000 	nop
    490c:	00000000 	nop
    4910:	00000000 	nop
    4914:	00000000 	nop
    4918:	00000000 	nop
    491c:	00000000 	nop
    4920:	00000000 	nop
    4924:	00000000 	nop
    4928:	00000000 	nop
    492c:	00000000 	nop
    4930:	00000000 	nop
    4934:	00000000 	nop
    4938:	00000000 	nop
    493c:	00000000 	nop
    4940:	00000000 	nop
    4944:	00000000 	nop
    4948:	00000000 	nop
    494c:	00000000 	nop
    4950:	00000000 	nop
    4954:	00000000 	nop
    4958:	00000000 	nop
    495c:	00000000 	nop
    4960:	00000000 	nop
    4964:	00000000 	nop
    4968:	00000000 	nop
    496c:	00000000 	nop
    4970:	00000000 	nop
    4974:	00000000 	nop
    4978:	00000000 	nop
    497c:	00000000 	nop
    4980:	00000000 	nop
    4984:	00000000 	nop
    4988:	00000000 	nop
    498c:	00000000 	nop
    4990:	00000000 	nop
    4994:	00000000 	nop
    4998:	00000000 	nop
    499c:	00000000 	nop
    49a0:	00000000 	nop
    49a4:	00000000 	nop
    49a8:	00000000 	nop
    49ac:	00000000 	nop
    49b0:	00000000 	nop
    49b4:	00000000 	nop
    49b8:	00000000 	nop
    49bc:	00000000 	nop
    49c0:	00000000 	nop
    49c4:	00000000 	nop
    49c8:	00000000 	nop
    49cc:	00000000 	nop
    49d0:	00000000 	nop
    49d4:	00000000 	nop
    49d8:	00000000 	nop
    49dc:	00000000 	nop
    49e0:	00000000 	nop
    49e4:	00000000 	nop
    49e8:	00000000 	nop
    49ec:	00000000 	nop
    49f0:	00000000 	nop
    49f4:	00000000 	nop
    49f8:	00000000 	nop
    49fc:	00000000 	nop
    4a00:	00000000 	nop
    4a04:	00000000 	nop
    4a08:	00000000 	nop
    4a0c:	00000000 	nop
    4a10:	00000000 	nop
    4a14:	00000000 	nop
    4a18:	00000000 	nop
    4a1c:	00000000 	nop
    4a20:	00000000 	nop
    4a24:	00000000 	nop
    4a28:	00000000 	nop
    4a2c:	00000000 	nop
    4a30:	00000000 	nop
    4a34:	00000000 	nop
    4a38:	00000000 	nop
    4a3c:	00000000 	nop
    4a40:	00000000 	nop
    4a44:	00000000 	nop
    4a48:	00000000 	nop
    4a4c:	00000000 	nop
    4a50:	00000000 	nop
    4a54:	00000000 	nop
    4a58:	00000000 	nop
    4a5c:	00000000 	nop
    4a60:	00000000 	nop
    4a64:	00000000 	nop
    4a68:	00000000 	nop
    4a6c:	00000000 	nop
    4a70:	00000000 	nop
    4a74:	00000000 	nop
    4a78:	00000000 	nop
    4a7c:	00000000 	nop
    4a80:	00000000 	nop
    4a84:	00000000 	nop
    4a88:	00000000 	nop
    4a8c:	00000000 	nop
    4a90:	00000000 	nop
    4a94:	00000000 	nop
    4a98:	00000000 	nop
    4a9c:	00000000 	nop
    4aa0:	00000000 	nop
    4aa4:	00000000 	nop
    4aa8:	00000000 	nop
    4aac:	00000000 	nop
    4ab0:	00000000 	nop
    4ab4:	00000000 	nop
    4ab8:	00000000 	nop
    4abc:	00000000 	nop
    4ac0:	00000000 	nop
    4ac4:	00000000 	nop
    4ac8:	00000000 	nop
    4acc:	00000000 	nop
    4ad0:	00000000 	nop
    4ad4:	00000000 	nop
    4ad8:	00000000 	nop
    4adc:	00000000 	nop
    4ae0:	00000000 	nop
    4ae4:	00000000 	nop
    4ae8:	00000000 	nop
    4aec:	00000000 	nop
    4af0:	00000000 	nop
    4af4:	00000000 	nop
    4af8:	00000000 	nop
    4afc:	00000000 	nop
    4b00:	00000000 	nop
    4b04:	00000000 	nop
    4b08:	00000000 	nop
    4b0c:	00000000 	nop
    4b10:	00000000 	nop
    4b14:	00000000 	nop
    4b18:	00000000 	nop
    4b1c:	00000000 	nop
    4b20:	00000000 	nop
    4b24:	00000000 	nop
    4b28:	00000000 	nop
    4b2c:	00000000 	nop
    4b30:	00000000 	nop
    4b34:	00000000 	nop
    4b38:	00000000 	nop
    4b3c:	00000000 	nop
    4b40:	00000000 	nop
    4b44:	00000000 	nop
    4b48:	00000000 	nop
    4b4c:	00000000 	nop
    4b50:	00000000 	nop
    4b54:	00000000 	nop
    4b58:	00000000 	nop
    4b5c:	00000000 	nop
    4b60:	00000000 	nop
    4b64:	00000000 	nop
    4b68:	00000000 	nop
    4b6c:	00000000 	nop
    4b70:	00000000 	nop
    4b74:	00000000 	nop
    4b78:	00000000 	nop
    4b7c:	00000000 	nop
    4b80:	00000000 	nop
    4b84:	00000000 	nop
    4b88:	00000000 	nop
    4b8c:	00000000 	nop
    4b90:	00000000 	nop
    4b94:	00000000 	nop
    4b98:	00000000 	nop
    4b9c:	00000000 	nop
    4ba0:	00000000 	nop
    4ba4:	00000000 	nop
    4ba8:	00000000 	nop
    4bac:	00000000 	nop
    4bb0:	00000000 	nop
    4bb4:	00000000 	nop
    4bb8:	00000000 	nop
    4bbc:	00000000 	nop
    4bc0:	00000000 	nop
    4bc4:	00000000 	nop
    4bc8:	00000000 	nop
    4bcc:	00000000 	nop
    4bd0:	00000000 	nop
    4bd4:	00000000 	nop
    4bd8:	00000000 	nop
    4bdc:	00000000 	nop
    4be0:	00000000 	nop
    4be4:	00000000 	nop
    4be8:	00000000 	nop
    4bec:	00000000 	nop
    4bf0:	00000000 	nop
    4bf4:	00000000 	nop
    4bf8:	00000000 	nop
    4bfc:	00000000 	nop
    4c00:	00000000 	nop
    4c04:	00000000 	nop
    4c08:	00000000 	nop
    4c0c:	00000000 	nop
    4c10:	00000000 	nop
    4c14:	00000000 	nop
    4c18:	00000000 	nop
    4c1c:	00000000 	nop
    4c20:	00000000 	nop
    4c24:	00000000 	nop
    4c28:	00000000 	nop
    4c2c:	00000000 	nop
    4c30:	00000000 	nop
    4c34:	00000000 	nop
    4c38:	00000000 	nop
    4c3c:	00000000 	nop
    4c40:	00000000 	nop
    4c44:	00000000 	nop
    4c48:	00000000 	nop
    4c4c:	00000000 	nop
    4c50:	00000000 	nop
    4c54:	00000000 	nop
    4c58:	00000000 	nop
    4c5c:	00000000 	nop
    4c60:	00000000 	nop
    4c64:	00000000 	nop
    4c68:	00000000 	nop
    4c6c:	00000000 	nop
    4c70:	00000000 	nop
    4c74:	00000000 	nop
    4c78:	00000000 	nop
    4c7c:	00000000 	nop
    4c80:	00000000 	nop
    4c84:	00000000 	nop
    4c88:	00000000 	nop
    4c8c:	00000000 	nop
    4c90:	00000000 	nop
    4c94:	00000000 	nop
    4c98:	00000000 	nop
    4c9c:	00000000 	nop
    4ca0:	00000000 	nop
    4ca4:	00000000 	nop
    4ca8:	00000000 	nop
    4cac:	00000000 	nop
    4cb0:	00000000 	nop
    4cb4:	00000000 	nop
    4cb8:	00000000 	nop
    4cbc:	00000000 	nop
    4cc0:	00000000 	nop
    4cc4:	00000000 	nop
    4cc8:	00000000 	nop
    4ccc:	00000000 	nop
    4cd0:	00000000 	nop
    4cd4:	00000000 	nop
    4cd8:	00000000 	nop
    4cdc:	00000000 	nop
    4ce0:	00000000 	nop
    4ce4:	00000000 	nop
    4ce8:	00000000 	nop
    4cec:	00000000 	nop
    4cf0:	00000000 	nop
    4cf4:	00000000 	nop
    4cf8:	00000000 	nop
    4cfc:	00000000 	nop
    4d00:	00000000 	nop
    4d04:	00000000 	nop
    4d08:	00000000 	nop
    4d0c:	00000000 	nop
    4d10:	00000000 	nop
    4d14:	00000000 	nop
    4d18:	00000000 	nop
    4d1c:	00000000 	nop
    4d20:	00000000 	nop
    4d24:	00000000 	nop
    4d28:	00000000 	nop
    4d2c:	00000000 	nop
    4d30:	00000000 	nop
    4d34:	00000000 	nop
    4d38:	00000000 	nop
    4d3c:	00000000 	nop
    4d40:	00000000 	nop
    4d44:	00000000 	nop
    4d48:	00000000 	nop
    4d4c:	00000000 	nop
    4d50:	00000000 	nop
    4d54:	00000000 	nop
    4d58:	00000000 	nop
    4d5c:	00000000 	nop
    4d60:	00000000 	nop
    4d64:	00000000 	nop
    4d68:	00000000 	nop
    4d6c:	00000000 	nop
    4d70:	00000000 	nop
    4d74:	00000000 	nop
    4d78:	00000000 	nop
    4d7c:	00000000 	nop
    4d80:	00000000 	nop
    4d84:	00000000 	nop
    4d88:	00000000 	nop
    4d8c:	00000000 	nop
    4d90:	00000000 	nop
    4d94:	00000000 	nop
    4d98:	00000000 	nop
    4d9c:	00000000 	nop
    4da0:	00000000 	nop
    4da4:	00000000 	nop
    4da8:	00000000 	nop
    4dac:	00000000 	nop
    4db0:	00000000 	nop
    4db4:	00000000 	nop
    4db8:	00000000 	nop
    4dbc:	00000000 	nop
    4dc0:	00000000 	nop
    4dc4:	00000000 	nop
    4dc8:	00000000 	nop
    4dcc:	00000000 	nop
    4dd0:	00000000 	nop
    4dd4:	00000000 	nop
    4dd8:	00000000 	nop
    4ddc:	00000000 	nop
    4de0:	00000000 	nop
    4de4:	00000000 	nop
    4de8:	00000000 	nop
    4dec:	00000000 	nop
    4df0:	00000000 	nop
    4df4:	00000000 	nop
    4df8:	00000000 	nop
    4dfc:	00000000 	nop
    4e00:	00000000 	nop
    4e04:	00000000 	nop
    4e08:	00000000 	nop
    4e0c:	00000000 	nop
    4e10:	00000000 	nop
    4e14:	00000000 	nop
    4e18:	00000000 	nop
    4e1c:	00000000 	nop
    4e20:	00000000 	nop
    4e24:	00000000 	nop
    4e28:	00000000 	nop
    4e2c:	00000000 	nop
    4e30:	00000000 	nop
    4e34:	00000000 	nop
    4e38:	00000000 	nop
    4e3c:	00000000 	nop
    4e40:	00000000 	nop
    4e44:	00000000 	nop
    4e48:	00000000 	nop
    4e4c:	00000000 	nop
    4e50:	00000000 	nop
    4e54:	00000000 	nop
    4e58:	00000000 	nop
    4e5c:	00000000 	nop
    4e60:	00000000 	nop
    4e64:	00000000 	nop
    4e68:	00000000 	nop
    4e6c:	00000000 	nop
    4e70:	00000000 	nop
    4e74:	00000000 	nop
    4e78:	00000000 	nop
    4e7c:	00000000 	nop
    4e80:	00000000 	nop
    4e84:	00000000 	nop
    4e88:	00000000 	nop
    4e8c:	00000000 	nop
    4e90:	00000000 	nop
    4e94:	00000000 	nop
    4e98:	00000000 	nop
    4e9c:	00000000 	nop
    4ea0:	00000000 	nop
    4ea4:	00000000 	nop
    4ea8:	00000000 	nop
    4eac:	00000000 	nop
    4eb0:	00000000 	nop
    4eb4:	00000000 	nop
    4eb8:	00000000 	nop
    4ebc:	00000000 	nop
    4ec0:	00000000 	nop
    4ec4:	00000000 	nop
    4ec8:	00000000 	nop
    4ecc:	00000000 	nop
    4ed0:	00000000 	nop
    4ed4:	00000000 	nop
    4ed8:	00000000 	nop
    4edc:	00000000 	nop
    4ee0:	00000000 	nop
    4ee4:	00000000 	nop
    4ee8:	00000000 	nop
    4eec:	00000000 	nop
    4ef0:	00000000 	nop
    4ef4:	00000000 	nop
    4ef8:	00000000 	nop
    4efc:	00000000 	nop
    4f00:	00000000 	nop
    4f04:	00000000 	nop
    4f08:	00000000 	nop
    4f0c:	00000000 	nop
    4f10:	00000000 	nop
    4f14:	00000000 	nop
    4f18:	00000000 	nop
    4f1c:	00000000 	nop
    4f20:	00000000 	nop
    4f24:	00000000 	nop
    4f28:	00000000 	nop
    4f2c:	00000000 	nop
    4f30:	00000000 	nop
    4f34:	00000000 	nop
    4f38:	00000000 	nop
    4f3c:	00000000 	nop
    4f40:	00000000 	nop
    4f44:	00000000 	nop
    4f48:	00000000 	nop
    4f4c:	00000000 	nop
    4f50:	00000000 	nop
    4f54:	00000000 	nop
    4f58:	00000000 	nop
    4f5c:	00000000 	nop
    4f60:	00000000 	nop
    4f64:	00000000 	nop
    4f68:	00000000 	nop
    4f6c:	00000000 	nop
    4f70:	00000000 	nop
    4f74:	00000000 	nop
    4f78:	00000000 	nop
    4f7c:	00000000 	nop
    4f80:	00000000 	nop
    4f84:	00000000 	nop
    4f88:	00000000 	nop
    4f8c:	00000000 	nop
    4f90:	00000000 	nop
    4f94:	00000000 	nop
    4f98:	00000000 	nop
    4f9c:	00000000 	nop
    4fa0:	00000000 	nop
    4fa4:	00000000 	nop
    4fa8:	00000000 	nop
    4fac:	00000000 	nop
    4fb0:	00000000 	nop
    4fb4:	00000000 	nop
    4fb8:	00000000 	nop
    4fbc:	00000000 	nop
    4fc0:	00000000 	nop
    4fc4:	00000000 	nop
    4fc8:	00000000 	nop
    4fcc:	00000000 	nop
    4fd0:	00000000 	nop
    4fd4:	00000000 	nop
    4fd8:	00000000 	nop
    4fdc:	00000000 	nop
    4fe0:	00000000 	nop
    4fe4:	00000000 	nop
    4fe8:	00000000 	nop
    4fec:	00000000 	nop
    4ff0:	00000000 	nop
    4ff4:	00000000 	nop
    4ff8:	00000000 	nop
    4ffc:	00000000 	nop
    5000:	00000000 	nop
    5004:	00000000 	nop
    5008:	00000000 	nop
    500c:	00000000 	nop
    5010:	00000000 	nop
    5014:	00000000 	nop
    5018:	00000000 	nop
    501c:	00000000 	nop
    5020:	00000000 	nop
    5024:	00000000 	nop
    5028:	00000000 	nop
    502c:	00000000 	nop
    5030:	00000000 	nop
    5034:	00000000 	nop
    5038:	00000000 	nop
    503c:	00000000 	nop
    5040:	00000000 	nop
    5044:	00000000 	nop
    5048:	00000000 	nop
    504c:	00000000 	nop
    5050:	00000000 	nop
    5054:	00000000 	nop
    5058:	00000000 	nop
    505c:	00000000 	nop
    5060:	00000000 	nop
    5064:	00000000 	nop
    5068:	00000000 	nop
    506c:	00000000 	nop
    5070:	00000000 	nop
    5074:	00000000 	nop
    5078:	00000000 	nop
    507c:	00000000 	nop
    5080:	00000000 	nop
    5084:	00000000 	nop
    5088:	00000000 	nop
    508c:	00000000 	nop
    5090:	00000000 	nop
    5094:	00000000 	nop
    5098:	00000000 	nop
    509c:	00000000 	nop
    50a0:	00000000 	nop
    50a4:	00000000 	nop
    50a8:	00000000 	nop
    50ac:	00000000 	nop
    50b0:	00000000 	nop
    50b4:	00000000 	nop
    50b8:	00000000 	nop
    50bc:	00000000 	nop
    50c0:	00000000 	nop
    50c4:	00000000 	nop
    50c8:	00000000 	nop
    50cc:	00000000 	nop
    50d0:	00000000 	nop
    50d4:	00000000 	nop
    50d8:	00000000 	nop
    50dc:	00000000 	nop
    50e0:	00000000 	nop
    50e4:	00000000 	nop
    50e8:	00000000 	nop
    50ec:	00000000 	nop
    50f0:	00000000 	nop
    50f4:	00000000 	nop
    50f8:	00000000 	nop
    50fc:	00000000 	nop
    5100:	00000000 	nop
    5104:	00000000 	nop
    5108:	00000000 	nop
    510c:	00000000 	nop
    5110:	00000000 	nop
    5114:	00000000 	nop
    5118:	00000000 	nop
    511c:	00000000 	nop
    5120:	00000000 	nop
    5124:	00000000 	nop
    5128:	00000000 	nop
    512c:	00000000 	nop
    5130:	00000000 	nop
    5134:	00000000 	nop
    5138:	00000000 	nop
    513c:	00000000 	nop
    5140:	00000000 	nop
    5144:	00000000 	nop
    5148:	00000000 	nop
    514c:	00000000 	nop
    5150:	00000000 	nop
    5154:	00000000 	nop
    5158:	00000000 	nop
    515c:	00000000 	nop
    5160:	00000000 	nop
    5164:	00000000 	nop
    5168:	00000000 	nop
    516c:	00000000 	nop
    5170:	00000000 	nop
    5174:	00000000 	nop
    5178:	00000000 	nop
    517c:	00000000 	nop
    5180:	00000000 	nop
    5184:	00000000 	nop
    5188:	00000000 	nop
    518c:	00000000 	nop
    5190:	00000000 	nop
    5194:	00000000 	nop
    5198:	00000000 	nop
    519c:	00000000 	nop
    51a0:	00000000 	nop
    51a4:	00000000 	nop
    51a8:	00000000 	nop
    51ac:	00000000 	nop
    51b0:	00000000 	nop
    51b4:	00000000 	nop
    51b8:	00000000 	nop
    51bc:	00000000 	nop
    51c0:	00000000 	nop
    51c4:	00000000 	nop
    51c8:	00000000 	nop
    51cc:	00000000 	nop
    51d0:	00000000 	nop
    51d4:	00000000 	nop
    51d8:	00000000 	nop
    51dc:	00000000 	nop
    51e0:	00000000 	nop
    51e4:	00000000 	nop
    51e8:	00000000 	nop
    51ec:	00000000 	nop
    51f0:	00000000 	nop
    51f4:	00000000 	nop
    51f8:	00000000 	nop
    51fc:	00000000 	nop
    5200:	00000000 	nop
    5204:	00000000 	nop
    5208:	00000000 	nop
    520c:	00000000 	nop
    5210:	00000000 	nop
    5214:	00000000 	nop
    5218:	00000000 	nop
    521c:	00000000 	nop
    5220:	00000000 	nop
    5224:	00000000 	nop
    5228:	00000000 	nop
    522c:	00000000 	nop
    5230:	00000000 	nop
    5234:	00000000 	nop
    5238:	00000000 	nop
    523c:	00000000 	nop
    5240:	00000000 	nop
    5244:	00000000 	nop
    5248:	00000000 	nop
    524c:	00000000 	nop
    5250:	00000000 	nop
    5254:	00000000 	nop
    5258:	00000000 	nop
    525c:	00000000 	nop
    5260:	00000000 	nop
    5264:	00000000 	nop
    5268:	00000000 	nop
    526c:	00000000 	nop
    5270:	00000000 	nop
    5274:	00000000 	nop
    5278:	00000000 	nop
    527c:	00000000 	nop
    5280:	00000000 	nop
    5284:	00000000 	nop
    5288:	00000000 	nop
    528c:	00000000 	nop
    5290:	00000000 	nop
    5294:	00000000 	nop
    5298:	00000000 	nop
    529c:	00000000 	nop
    52a0:	00000000 	nop
    52a4:	00000000 	nop
    52a8:	00000000 	nop
    52ac:	00000000 	nop
    52b0:	00000000 	nop
    52b4:	00000000 	nop
    52b8:	00000000 	nop
    52bc:	00000000 	nop
    52c0:	00000000 	nop
    52c4:	00000000 	nop
    52c8:	00000000 	nop
    52cc:	00000000 	nop
    52d0:	00000000 	nop
    52d4:	00000000 	nop
    52d8:	00000000 	nop
    52dc:	00000000 	nop
    52e0:	00000000 	nop
    52e4:	00000000 	nop
    52e8:	00000000 	nop
    52ec:	00000000 	nop
    52f0:	00000000 	nop
    52f4:	00000000 	nop
    52f8:	00000000 	nop
    52fc:	00000000 	nop
    5300:	00000000 	nop
    5304:	00000000 	nop
    5308:	00000000 	nop
    530c:	00000000 	nop
    5310:	00000000 	nop
    5314:	00000000 	nop
    5318:	00000000 	nop
    531c:	00000000 	nop
    5320:	00000000 	nop
    5324:	00000000 	nop
    5328:	00000000 	nop
    532c:	00000000 	nop
    5330:	00000000 	nop
    5334:	00000000 	nop
    5338:	00000000 	nop
    533c:	00000000 	nop
    5340:	00000000 	nop
    5344:	00000000 	nop
    5348:	00000000 	nop
    534c:	00000000 	nop
    5350:	00000000 	nop
    5354:	00000000 	nop
    5358:	00000000 	nop
    535c:	00000000 	nop
    5360:	00000000 	nop
    5364:	00000000 	nop
    5368:	00000000 	nop
    536c:	00000000 	nop
    5370:	00000000 	nop
    5374:	00000000 	nop
    5378:	00000000 	nop
    537c:	00000000 	nop
    5380:	00000000 	nop
    5384:	00000000 	nop
    5388:	00000000 	nop
    538c:	00000000 	nop
    5390:	00000000 	nop
    5394:	00000000 	nop
    5398:	00000000 	nop
    539c:	00000000 	nop
    53a0:	00000000 	nop
    53a4:	00000000 	nop
    53a8:	00000000 	nop
    53ac:	00000000 	nop
    53b0:	00000000 	nop
    53b4:	00000000 	nop
    53b8:	00000000 	nop
    53bc:	00000000 	nop
    53c0:	00000000 	nop
    53c4:	00000000 	nop
    53c8:	00000000 	nop
    53cc:	00000000 	nop
    53d0:	00000000 	nop
    53d4:	00000000 	nop
    53d8:	00000000 	nop
    53dc:	00000000 	nop
    53e0:	00000000 	nop
    53e4:	00000000 	nop
    53e8:	00000000 	nop
    53ec:	00000000 	nop
    53f0:	00000000 	nop
    53f4:	00000000 	nop
    53f8:	00000000 	nop
    53fc:	00000000 	nop
    5400:	00000000 	nop
    5404:	00000000 	nop
    5408:	00000000 	nop
    540c:	00000000 	nop
    5410:	00000000 	nop
    5414:	00000000 	nop
    5418:	00000000 	nop
    541c:	00000000 	nop
    5420:	00000000 	nop
    5424:	00000000 	nop
    5428:	00000000 	nop
    542c:	00000000 	nop
    5430:	00000000 	nop
    5434:	00000000 	nop
    5438:	00000000 	nop
    543c:	00000000 	nop
    5440:	00000000 	nop
    5444:	00000000 	nop
    5448:	00000000 	nop
    544c:	00000000 	nop
    5450:	00000000 	nop
    5454:	00000000 	nop
    5458:	00000000 	nop
    545c:	00000000 	nop
    5460:	00000000 	nop
    5464:	00000000 	nop
    5468:	00000000 	nop
    546c:	00000000 	nop
    5470:	00000000 	nop
    5474:	00000000 	nop
    5478:	00000000 	nop
    547c:	00000000 	nop
    5480:	00000000 	nop
    5484:	00000000 	nop
    5488:	00000000 	nop
    548c:	00000000 	nop
    5490:	00000000 	nop
    5494:	00000000 	nop
    5498:	00000000 	nop
    549c:	00000000 	nop
    54a0:	00000000 	nop
    54a4:	00000000 	nop
    54a8:	00000000 	nop
    54ac:	00000000 	nop
    54b0:	00000000 	nop
    54b4:	00000000 	nop
    54b8:	00000000 	nop
    54bc:	00000000 	nop
    54c0:	00000000 	nop
    54c4:	00000000 	nop
    54c8:	00000000 	nop
    54cc:	00000000 	nop
    54d0:	00000000 	nop
    54d4:	00000000 	nop
    54d8:	00000000 	nop
    54dc:	00000000 	nop
    54e0:	00000000 	nop
    54e4:	00000000 	nop
    54e8:	00000000 	nop
    54ec:	00000000 	nop
    54f0:	00000000 	nop
    54f4:	00000000 	nop
    54f8:	00000000 	nop
    54fc:	00000000 	nop
    5500:	00000000 	nop
    5504:	00000000 	nop
    5508:	00000000 	nop
    550c:	00000000 	nop
    5510:	00000000 	nop
    5514:	00000000 	nop
    5518:	00000000 	nop
    551c:	00000000 	nop
    5520:	00000000 	nop
    5524:	00000000 	nop
    5528:	00000000 	nop
    552c:	00000000 	nop
    5530:	00000000 	nop
    5534:	00000000 	nop
    5538:	00000000 	nop
    553c:	00000000 	nop
    5540:	00000000 	nop
    5544:	00000000 	nop
    5548:	00000000 	nop
    554c:	00000000 	nop
    5550:	00000000 	nop
    5554:	00000000 	nop
    5558:	00000000 	nop
    555c:	00000000 	nop
    5560:	00000000 	nop
    5564:	00000000 	nop
    5568:	00000000 	nop
    556c:	00000000 	nop
    5570:	00000000 	nop
    5574:	00000000 	nop
    5578:	00000000 	nop
    557c:	00000000 	nop
    5580:	00000000 	nop
    5584:	00000000 	nop
    5588:	00000000 	nop
    558c:	00000000 	nop
    5590:	00000000 	nop
    5594:	00000000 	nop
    5598:	00000000 	nop
    559c:	00000000 	nop
    55a0:	00000000 	nop
    55a4:	00000000 	nop
    55a8:	00000000 	nop
    55ac:	00000000 	nop
    55b0:	00000000 	nop
    55b4:	00000000 	nop
    55b8:	00000000 	nop
    55bc:	00000000 	nop
    55c0:	00000000 	nop
    55c4:	00000000 	nop
    55c8:	00000000 	nop
    55cc:	00000000 	nop
    55d0:	00000000 	nop
    55d4:	00000000 	nop
    55d8:	00000000 	nop
    55dc:	00000000 	nop
    55e0:	00000000 	nop
    55e4:	00000000 	nop
    55e8:	00000000 	nop
    55ec:	00000000 	nop
    55f0:	00000000 	nop
    55f4:	00000000 	nop
    55f8:	00000000 	nop
    55fc:	00000000 	nop
    5600:	00000000 	nop
    5604:	00000000 	nop
    5608:	00000000 	nop
    560c:	00000000 	nop
    5610:	00000000 	nop
    5614:	00000000 	nop
    5618:	00000000 	nop
    561c:	00000000 	nop
    5620:	00000000 	nop
    5624:	00000000 	nop
    5628:	00000000 	nop
    562c:	00000000 	nop
    5630:	00000000 	nop
    5634:	00000000 	nop
    5638:	00000000 	nop
    563c:	00000000 	nop
    5640:	00000000 	nop
    5644:	00000000 	nop
    5648:	00000000 	nop
    564c:	00000000 	nop
    5650:	00000000 	nop
    5654:	00000000 	nop
    5658:	00000000 	nop
    565c:	00000000 	nop
    5660:	00000000 	nop
    5664:	00000000 	nop
    5668:	00000000 	nop
    566c:	00000000 	nop
    5670:	00000000 	nop
    5674:	00000000 	nop
    5678:	00000000 	nop
    567c:	00000000 	nop
    5680:	00000000 	nop
    5684:	00000000 	nop
    5688:	00000000 	nop
    568c:	00000000 	nop
    5690:	00000000 	nop
    5694:	00000000 	nop
    5698:	00000000 	nop
    569c:	00000000 	nop
    56a0:	00000000 	nop
    56a4:	00000000 	nop
    56a8:	00000000 	nop
    56ac:	00000000 	nop
    56b0:	00000000 	nop
    56b4:	00000000 	nop
    56b8:	00000000 	nop
    56bc:	00000000 	nop
    56c0:	00000000 	nop
    56c4:	00000000 	nop
    56c8:	00000000 	nop
    56cc:	00000000 	nop
    56d0:	00000000 	nop
    56d4:	00000000 	nop
    56d8:	00000000 	nop
    56dc:	00000000 	nop
    56e0:	00000000 	nop
    56e4:	00000000 	nop
    56e8:	00000000 	nop
    56ec:	00000000 	nop
    56f0:	00000000 	nop
    56f4:	00000000 	nop
    56f8:	00000000 	nop
    56fc:	00000000 	nop
    5700:	00000000 	nop
    5704:	00000000 	nop
    5708:	00000000 	nop
    570c:	00000000 	nop
    5710:	00000000 	nop
    5714:	00000000 	nop
    5718:	00000000 	nop
    571c:	00000000 	nop
    5720:	00000000 	nop
    5724:	00000000 	nop
    5728:	00000000 	nop
    572c:	00000000 	nop
    5730:	00000000 	nop
    5734:	00000000 	nop
    5738:	00000000 	nop
    573c:	00000000 	nop
    5740:	00000000 	nop
    5744:	00000000 	nop
    5748:	00000000 	nop
    574c:	00000000 	nop
    5750:	00000000 	nop
    5754:	00000000 	nop
    5758:	00000000 	nop
    575c:	00000000 	nop
    5760:	00000000 	nop
    5764:	00000000 	nop
    5768:	00000000 	nop
    576c:	00000000 	nop
    5770:	00000000 	nop
    5774:	00000000 	nop
    5778:	00000000 	nop
    577c:	00000000 	nop
    5780:	00000000 	nop
    5784:	00000000 	nop
    5788:	00000000 	nop
    578c:	00000000 	nop
    5790:	00000000 	nop
    5794:	00000000 	nop
    5798:	00000000 	nop
    579c:	00000000 	nop
    57a0:	00000000 	nop
    57a4:	00000000 	nop
    57a8:	00000000 	nop
    57ac:	00000000 	nop
    57b0:	00000000 	nop
    57b4:	00000000 	nop
    57b8:	00000000 	nop
    57bc:	00000000 	nop
    57c0:	00000000 	nop
    57c4:	00000000 	nop
    57c8:	00000000 	nop
    57cc:	00000000 	nop
    57d0:	00000000 	nop
    57d4:	00000000 	nop
    57d8:	00000000 	nop
    57dc:	00000000 	nop
    57e0:	00000000 	nop
    57e4:	00000000 	nop
    57e8:	00000000 	nop
    57ec:	00000000 	nop
    57f0:	00000000 	nop
    57f4:	00000000 	nop
    57f8:	00000000 	nop
    57fc:	00000000 	nop
    5800:	00000000 	nop
    5804:	00000000 	nop
    5808:	00000000 	nop
    580c:	00000000 	nop
    5810:	00000000 	nop
    5814:	00000000 	nop
    5818:	00000000 	nop
    581c:	00000000 	nop
    5820:	00000000 	nop
    5824:	00000000 	nop
    5828:	00000000 	nop
    582c:	00000000 	nop
    5830:	00000000 	nop
    5834:	00000000 	nop
    5838:	00000000 	nop
    583c:	00000000 	nop
    5840:	00000000 	nop
    5844:	00000000 	nop
    5848:	00000000 	nop
    584c:	00000000 	nop
    5850:	00000000 	nop
    5854:	00000000 	nop
    5858:	00000000 	nop
    585c:	00000000 	nop
    5860:	00000000 	nop
    5864:	00000000 	nop
    5868:	00000000 	nop
    586c:	00000000 	nop
    5870:	00000000 	nop
    5874:	00000000 	nop
    5878:	00000000 	nop
    587c:	00000000 	nop
    5880:	00000000 	nop
    5884:	00000000 	nop
    5888:	00000000 	nop
    588c:	00000000 	nop
    5890:	00000000 	nop
    5894:	00000000 	nop
    5898:	00000000 	nop
    589c:	00000000 	nop
    58a0:	00000000 	nop
    58a4:	00000000 	nop
    58a8:	00000000 	nop
    58ac:	00000000 	nop
    58b0:	00000000 	nop
    58b4:	00000000 	nop
    58b8:	00000000 	nop
    58bc:	00000000 	nop
    58c0:	00000000 	nop
    58c4:	00000000 	nop
    58c8:	00000000 	nop
    58cc:	00000000 	nop
    58d0:	00000000 	nop
    58d4:	00000000 	nop
    58d8:	00000000 	nop
    58dc:	00000000 	nop
    58e0:	00000000 	nop
    58e4:	00000000 	nop
    58e8:	00000000 	nop
    58ec:	00000000 	nop
    58f0:	00000000 	nop
    58f4:	00000000 	nop
    58f8:	00000000 	nop
    58fc:	00000000 	nop
    5900:	00000000 	nop
    5904:	00000000 	nop
    5908:	00000000 	nop
    590c:	00000000 	nop
    5910:	00000000 	nop
    5914:	00000000 	nop
    5918:	00000000 	nop
    591c:	00000000 	nop
    5920:	00000000 	nop
    5924:	00000000 	nop
    5928:	00000000 	nop
    592c:	00000000 	nop
    5930:	00000000 	nop
    5934:	00000000 	nop
    5938:	00000000 	nop
    593c:	00000000 	nop
    5940:	00000000 	nop
    5944:	00000000 	nop
    5948:	00000000 	nop
    594c:	00000000 	nop
    5950:	00000000 	nop
    5954:	00000000 	nop
    5958:	00000000 	nop
    595c:	00000000 	nop
    5960:	00000000 	nop
    5964:	00000000 	nop
    5968:	00000000 	nop
    596c:	00000000 	nop
    5970:	00000000 	nop
    5974:	00000000 	nop
    5978:	00000000 	nop
    597c:	00000000 	nop
    5980:	00000000 	nop
    5984:	00000000 	nop
    5988:	00000000 	nop
    598c:	00000000 	nop
    5990:	00000000 	nop
    5994:	00000000 	nop
    5998:	00000000 	nop
    599c:	00000000 	nop
    59a0:	00000000 	nop
    59a4:	00000000 	nop
    59a8:	00000000 	nop
    59ac:	00000000 	nop
    59b0:	00000000 	nop
    59b4:	00000000 	nop
    59b8:	00000000 	nop
    59bc:	00000000 	nop
    59c0:	00000000 	nop
    59c4:	00000000 	nop
    59c8:	00000000 	nop
    59cc:	00000000 	nop
    59d0:	00000000 	nop
    59d4:	00000000 	nop
    59d8:	00000000 	nop
    59dc:	00000000 	nop
    59e0:	00000000 	nop
    59e4:	00000000 	nop
    59e8:	00000000 	nop
    59ec:	00000000 	nop
    59f0:	00000000 	nop
    59f4:	00000000 	nop
    59f8:	00000000 	nop
    59fc:	00000000 	nop
    5a00:	00000000 	nop
    5a04:	00000000 	nop
    5a08:	00000000 	nop
    5a0c:	00000000 	nop
    5a10:	00000000 	nop
    5a14:	00000000 	nop
    5a18:	00000000 	nop
    5a1c:	00000000 	nop
    5a20:	00000000 	nop
    5a24:	00000000 	nop
    5a28:	00000000 	nop
    5a2c:	00000000 	nop
    5a30:	00000000 	nop
    5a34:	00000000 	nop
    5a38:	00000000 	nop
    5a3c:	00000000 	nop
    5a40:	00000000 	nop
    5a44:	00000000 	nop
    5a48:	00000000 	nop
    5a4c:	00000000 	nop
    5a50:	00000000 	nop
    5a54:	00000000 	nop
    5a58:	00000000 	nop
    5a5c:	00000000 	nop
    5a60:	00000000 	nop
    5a64:	00000000 	nop
    5a68:	00000000 	nop
    5a6c:	00000000 	nop
    5a70:	00000000 	nop
    5a74:	00000000 	nop
    5a78:	00000000 	nop
    5a7c:	00000000 	nop
    5a80:	00000000 	nop
    5a84:	00000000 	nop
    5a88:	00000000 	nop
    5a8c:	00000000 	nop
    5a90:	00000000 	nop
    5a94:	00000000 	nop
    5a98:	00000000 	nop
    5a9c:	00000000 	nop
    5aa0:	00000000 	nop
    5aa4:	00000000 	nop
    5aa8:	00000000 	nop
    5aac:	00000000 	nop
    5ab0:	00000000 	nop
    5ab4:	00000000 	nop
    5ab8:	00000000 	nop
    5abc:	00000000 	nop
    5ac0:	00000000 	nop
    5ac4:	00000000 	nop
    5ac8:	00000000 	nop
    5acc:	00000000 	nop
    5ad0:	00000000 	nop
    5ad4:	00000000 	nop
    5ad8:	00000000 	nop
    5adc:	00000000 	nop
    5ae0:	00000000 	nop
    5ae4:	00000000 	nop
    5ae8:	00000000 	nop
    5aec:	00000000 	nop
    5af0:	00000000 	nop
    5af4:	00000000 	nop
    5af8:	00000000 	nop
    5afc:	00000000 	nop
    5b00:	00000000 	nop
    5b04:	00000000 	nop
    5b08:	00000000 	nop
    5b0c:	00000000 	nop
    5b10:	00000000 	nop
    5b14:	00000000 	nop
    5b18:	00000000 	nop
    5b1c:	00000000 	nop
    5b20:	00000000 	nop
    5b24:	00000000 	nop
    5b28:	00000000 	nop
    5b2c:	00000000 	nop
    5b30:	00000000 	nop
    5b34:	00000000 	nop
    5b38:	00000000 	nop
    5b3c:	00000000 	nop
    5b40:	00000000 	nop
    5b44:	00000000 	nop
    5b48:	00000000 	nop
    5b4c:	00000000 	nop
    5b50:	00000000 	nop
    5b54:	00000000 	nop
    5b58:	00000000 	nop
    5b5c:	00000000 	nop
    5b60:	00000000 	nop
    5b64:	00000000 	nop
    5b68:	00000000 	nop
    5b6c:	00000000 	nop
    5b70:	00000000 	nop
    5b74:	00000000 	nop
    5b78:	00000000 	nop
    5b7c:	00000000 	nop
    5b80:	00000000 	nop
    5b84:	00000000 	nop
    5b88:	00000000 	nop
    5b8c:	00000000 	nop
    5b90:	00000000 	nop
    5b94:	00000000 	nop
    5b98:	00000000 	nop
    5b9c:	00000000 	nop
    5ba0:	00000000 	nop
    5ba4:	00000000 	nop
    5ba8:	00000000 	nop
    5bac:	00000000 	nop
    5bb0:	00000000 	nop
    5bb4:	00000000 	nop
    5bb8:	00000000 	nop
    5bbc:	00000000 	nop
    5bc0:	00000000 	nop
    5bc4:	00000000 	nop
    5bc8:	00000000 	nop
    5bcc:	00000000 	nop
    5bd0:	00000000 	nop
    5bd4:	00000000 	nop
    5bd8:	00000000 	nop
    5bdc:	00000000 	nop
    5be0:	00000000 	nop
    5be4:	00000000 	nop
    5be8:	00000000 	nop
    5bec:	00000000 	nop
    5bf0:	00000000 	nop
    5bf4:	00000000 	nop
    5bf8:	00000000 	nop
    5bfc:	00000000 	nop
    5c00:	00000000 	nop
    5c04:	00000000 	nop
    5c08:	00000000 	nop
    5c0c:	00000000 	nop
    5c10:	00000000 	nop
    5c14:	00000000 	nop
    5c18:	00000000 	nop
    5c1c:	00000000 	nop
    5c20:	00000000 	nop
    5c24:	00000000 	nop
    5c28:	00000000 	nop
    5c2c:	00000000 	nop
    5c30:	00000000 	nop
    5c34:	00000000 	nop
    5c38:	00000000 	nop
    5c3c:	00000000 	nop
    5c40:	00000000 	nop
    5c44:	00000000 	nop
    5c48:	00000000 	nop
    5c4c:	00000000 	nop
    5c50:	00000000 	nop
    5c54:	00000000 	nop
    5c58:	00000000 	nop
    5c5c:	00000000 	nop
    5c60:	00000000 	nop
    5c64:	00000000 	nop
    5c68:	00000000 	nop
    5c6c:	00000000 	nop
    5c70:	00000000 	nop
    5c74:	00000000 	nop
    5c78:	00000000 	nop
    5c7c:	00000000 	nop
    5c80:	00000000 	nop
    5c84:	00000000 	nop
    5c88:	00000000 	nop
    5c8c:	00000000 	nop
    5c90:	00000000 	nop
    5c94:	00000000 	nop
    5c98:	00000000 	nop
    5c9c:	00000000 	nop
    5ca0:	00000000 	nop
    5ca4:	00000000 	nop
    5ca8:	00000000 	nop
    5cac:	00000000 	nop
    5cb0:	00000000 	nop
    5cb4:	00000000 	nop
    5cb8:	00000000 	nop
    5cbc:	00000000 	nop
    5cc0:	00000000 	nop
    5cc4:	00000000 	nop
    5cc8:	00000000 	nop
    5ccc:	00000000 	nop
    5cd0:	00000000 	nop
    5cd4:	00000000 	nop
    5cd8:	00000000 	nop
    5cdc:	00000000 	nop
    5ce0:	00000000 	nop
    5ce4:	00000000 	nop
    5ce8:	00000000 	nop
    5cec:	00000000 	nop
    5cf0:	00000000 	nop
    5cf4:	00000000 	nop
    5cf8:	00000000 	nop
    5cfc:	00000000 	nop
    5d00:	00000000 	nop
    5d04:	00000000 	nop
    5d08:	00000000 	nop
    5d0c:	00000000 	nop
    5d10:	00000000 	nop
    5d14:	00000000 	nop
    5d18:	00000000 	nop
    5d1c:	00000000 	nop
    5d20:	00000000 	nop
    5d24:	00000000 	nop
    5d28:	00000000 	nop
    5d2c:	00000000 	nop
    5d30:	00000000 	nop
    5d34:	00000000 	nop
    5d38:	00000000 	nop
    5d3c:	00000000 	nop
    5d40:	00000000 	nop
    5d44:	00000000 	nop
    5d48:	00000000 	nop
    5d4c:	00000000 	nop
    5d50:	00000000 	nop
    5d54:	00000000 	nop
    5d58:	00000000 	nop
    5d5c:	00000000 	nop
    5d60:	00000000 	nop
    5d64:	00000000 	nop
    5d68:	00000000 	nop
    5d6c:	00000000 	nop
    5d70:	00000000 	nop
    5d74:	00000000 	nop
    5d78:	00000000 	nop
    5d7c:	00000000 	nop
    5d80:	00000000 	nop
    5d84:	00000000 	nop
    5d88:	00000000 	nop
    5d8c:	00000000 	nop
    5d90:	00000000 	nop
    5d94:	00000000 	nop
    5d98:	00000000 	nop
    5d9c:	00000000 	nop
    5da0:	00000000 	nop
    5da4:	00000000 	nop
    5da8:	00000000 	nop
    5dac:	00000000 	nop
    5db0:	00000000 	nop
    5db4:	00000000 	nop
    5db8:	00000000 	nop
    5dbc:	00000000 	nop
    5dc0:	00000000 	nop
    5dc4:	00000000 	nop
    5dc8:	00000000 	nop
    5dcc:	00000000 	nop
    5dd0:	00000000 	nop
    5dd4:	00000000 	nop
    5dd8:	00000000 	nop
    5ddc:	00000000 	nop
    5de0:	00000000 	nop
    5de4:	00000000 	nop
    5de8:	00000000 	nop
    5dec:	00000000 	nop
    5df0:	00000000 	nop
    5df4:	00000000 	nop
    5df8:	00000000 	nop
    5dfc:	00000000 	nop
    5e00:	00000000 	nop
    5e04:	00000000 	nop
    5e08:	00000000 	nop
    5e0c:	00000000 	nop
    5e10:	00000000 	nop
    5e14:	00000000 	nop
    5e18:	00000000 	nop
    5e1c:	00000000 	nop
    5e20:	00000000 	nop
    5e24:	00000000 	nop
    5e28:	00000000 	nop
    5e2c:	00000000 	nop
    5e30:	00000000 	nop
    5e34:	00000000 	nop
    5e38:	00000000 	nop
    5e3c:	00000000 	nop
    5e40:	00000000 	nop
    5e44:	00000000 	nop
    5e48:	00000000 	nop
    5e4c:	00000000 	nop
    5e50:	00000000 	nop
    5e54:	00000000 	nop
    5e58:	00000000 	nop
    5e5c:	00000000 	nop
    5e60:	00000000 	nop
    5e64:	00000000 	nop
    5e68:	00000000 	nop
    5e6c:	00000000 	nop
    5e70:	00000000 	nop
    5e74:	00000000 	nop
    5e78:	00000000 	nop
    5e7c:	00000000 	nop
    5e80:	00000000 	nop
    5e84:	00000000 	nop
    5e88:	00000000 	nop
    5e8c:	00000000 	nop
    5e90:	00000000 	nop
    5e94:	00000000 	nop
    5e98:	00000000 	nop
    5e9c:	00000000 	nop
    5ea0:	00000000 	nop
    5ea4:	00000000 	nop
    5ea8:	00000000 	nop
    5eac:	00000000 	nop
    5eb0:	00000000 	nop
    5eb4:	00000000 	nop
    5eb8:	00000000 	nop
    5ebc:	00000000 	nop
    5ec0:	00000000 	nop
    5ec4:	00000000 	nop
    5ec8:	00000000 	nop
    5ecc:	00000000 	nop
    5ed0:	00000000 	nop
    5ed4:	00000000 	nop
    5ed8:	00000000 	nop
    5edc:	00000000 	nop
    5ee0:	00000000 	nop
    5ee4:	00000000 	nop
    5ee8:	00000000 	nop
    5eec:	00000000 	nop
    5ef0:	00000000 	nop
    5ef4:	00000000 	nop
    5ef8:	00000000 	nop
    5efc:	00000000 	nop
    5f00:	00000000 	nop
    5f04:	00000000 	nop
    5f08:	00000000 	nop
    5f0c:	00000000 	nop
    5f10:	00000000 	nop
    5f14:	00000000 	nop
    5f18:	00000000 	nop
    5f1c:	00000000 	nop
    5f20:	00000000 	nop
    5f24:	00000000 	nop
    5f28:	00000000 	nop
    5f2c:	00000000 	nop
    5f30:	00000000 	nop
    5f34:	00000000 	nop
    5f38:	00000000 	nop
    5f3c:	00000000 	nop
    5f40:	00000000 	nop
    5f44:	00000000 	nop
    5f48:	00000000 	nop
    5f4c:	00000000 	nop
    5f50:	00000000 	nop
    5f54:	00000000 	nop
    5f58:	00000000 	nop
    5f5c:	00000000 	nop
    5f60:	00000000 	nop
    5f64:	00000000 	nop
    5f68:	00000000 	nop
    5f6c:	00000000 	nop
    5f70:	00000000 	nop
    5f74:	00000000 	nop
    5f78:	00000000 	nop
    5f7c:	00000000 	nop
    5f80:	00000000 	nop
    5f84:	00000000 	nop
    5f88:	00000000 	nop
    5f8c:	00000000 	nop
    5f90:	00000000 	nop
    5f94:	00000000 	nop
    5f98:	00000000 	nop
    5f9c:	00000000 	nop
    5fa0:	00000000 	nop
    5fa4:	00000000 	nop
    5fa8:	00000000 	nop
    5fac:	00000000 	nop
    5fb0:	00000000 	nop
    5fb4:	00000000 	nop
    5fb8:	00000000 	nop
    5fbc:	00000000 	nop
    5fc0:	00000000 	nop
    5fc4:	00000000 	nop
    5fc8:	00000000 	nop
    5fcc:	00000000 	nop
    5fd0:	00000000 	nop
    5fd4:	00000000 	nop
    5fd8:	00000000 	nop
    5fdc:	00000000 	nop
    5fe0:	00000000 	nop
    5fe4:	00000000 	nop
    5fe8:	00000000 	nop
    5fec:	00000000 	nop
    5ff0:	00000000 	nop
    5ff4:	00000000 	nop
    5ff8:	00000000 	nop
    5ffc:	00000000 	nop
    6000:	00000000 	nop
    6004:	00000000 	nop
    6008:	00000000 	nop
    600c:	00000000 	nop
    6010:	00000000 	nop
    6014:	00000000 	nop
    6018:	00000000 	nop
    601c:	00000000 	nop
    6020:	00000000 	nop
    6024:	00000000 	nop
    6028:	00000000 	nop
    602c:	00000000 	nop
    6030:	00000000 	nop
    6034:	00000000 	nop
    6038:	00000000 	nop
    603c:	00000000 	nop
    6040:	00000000 	nop
    6044:	00000000 	nop
    6048:	00000000 	nop
    604c:	00000000 	nop
    6050:	00000000 	nop
    6054:	00000000 	nop
    6058:	00000000 	nop
    605c:	00000000 	nop
    6060:	00000000 	nop
    6064:	00000000 	nop
    6068:	00000000 	nop
    606c:	00000000 	nop
    6070:	00000000 	nop
    6074:	00000000 	nop
    6078:	00000000 	nop
    607c:	00000000 	nop
    6080:	00000000 	nop
    6084:	00000000 	nop
    6088:	00000000 	nop
    608c:	00000000 	nop
    6090:	00000000 	nop
    6094:	00000000 	nop
    6098:	00000000 	nop
    609c:	00000000 	nop
    60a0:	00000000 	nop
    60a4:	00000000 	nop
    60a8:	00000000 	nop
    60ac:	00000000 	nop
    60b0:	00000000 	nop
    60b4:	00000000 	nop
    60b8:	00000000 	nop
    60bc:	00000000 	nop
    60c0:	00000000 	nop
    60c4:	00000000 	nop
    60c8:	00000000 	nop
    60cc:	00000000 	nop
    60d0:	00000000 	nop
    60d4:	00000000 	nop
    60d8:	00000000 	nop
    60dc:	00000000 	nop
    60e0:	00000000 	nop
    60e4:	00000000 	nop
    60e8:	00000000 	nop
    60ec:	00000000 	nop
    60f0:	00000000 	nop
    60f4:	00000000 	nop
    60f8:	00000000 	nop
    60fc:	00000000 	nop
    6100:	00000000 	nop
    6104:	00000000 	nop
    6108:	00000000 	nop
    610c:	00000000 	nop
    6110:	00000000 	nop
    6114:	00000000 	nop
    6118:	00000000 	nop
    611c:	00000000 	nop
    6120:	00000000 	nop
    6124:	00000000 	nop
    6128:	00000000 	nop
    612c:	00000000 	nop
    6130:	00000000 	nop
    6134:	00000000 	nop
    6138:	00000000 	nop
    613c:	00000000 	nop
    6140:	00000000 	nop
    6144:	00000000 	nop
    6148:	00000000 	nop
    614c:	00000000 	nop
    6150:	00000000 	nop
    6154:	00000000 	nop
    6158:	00000000 	nop
    615c:	00000000 	nop
    6160:	00000000 	nop
    6164:	00000000 	nop
    6168:	00000000 	nop
    616c:	00000000 	nop
    6170:	00000000 	nop
    6174:	00000000 	nop
    6178:	00000000 	nop
    617c:	00000000 	nop
    6180:	00000000 	nop
    6184:	00000000 	nop
    6188:	00000000 	nop
    618c:	00000000 	nop
    6190:	00000000 	nop
    6194:	00000000 	nop
    6198:	00000000 	nop
    619c:	00000000 	nop
    61a0:	00000000 	nop
    61a4:	00000000 	nop
    61a8:	00000000 	nop
    61ac:	00000000 	nop
    61b0:	00000000 	nop
    61b4:	00000000 	nop
    61b8:	00000000 	nop
    61bc:	00000000 	nop
    61c0:	00000000 	nop
    61c4:	00000000 	nop
    61c8:	00000000 	nop
    61cc:	00000000 	nop
    61d0:	00000000 	nop
    61d4:	00000000 	nop
    61d8:	00000000 	nop
    61dc:	00000000 	nop
    61e0:	00000000 	nop
    61e4:	00000000 	nop
    61e8:	00000000 	nop
    61ec:	00000000 	nop
    61f0:	00000000 	nop
    61f4:	00000000 	nop
    61f8:	00000000 	nop
    61fc:	00000000 	nop
    6200:	00000000 	nop
    6204:	00000000 	nop
    6208:	00000000 	nop
    620c:	00000000 	nop
    6210:	00000000 	nop
    6214:	00000000 	nop
    6218:	00000000 	nop
    621c:	00000000 	nop
    6220:	00000000 	nop
    6224:	00000000 	nop
    6228:	00000000 	nop
    622c:	00000000 	nop
    6230:	00000000 	nop
    6234:	00000000 	nop
    6238:	00000000 	nop
    623c:	00000000 	nop
    6240:	00000000 	nop
    6244:	00000000 	nop
    6248:	00000000 	nop
    624c:	00000000 	nop
    6250:	00000000 	nop
    6254:	00000000 	nop
    6258:	00000000 	nop
    625c:	00000000 	nop
    6260:	00000000 	nop
    6264:	00000000 	nop
    6268:	00000000 	nop
    626c:	00000000 	nop
    6270:	00000000 	nop
    6274:	00000000 	nop
    6278:	00000000 	nop
    627c:	00000000 	nop
    6280:	00000000 	nop
    6284:	00000000 	nop
    6288:	00000000 	nop
    628c:	00000000 	nop
    6290:	00000000 	nop
    6294:	00000000 	nop
    6298:	00000000 	nop
    629c:	00000000 	nop
    62a0:	00000000 	nop
    62a4:	00000000 	nop
    62a8:	00000000 	nop
    62ac:	00000000 	nop
    62b0:	00000000 	nop
    62b4:	00000000 	nop
    62b8:	00000000 	nop
    62bc:	00000000 	nop
    62c0:	00000000 	nop
    62c4:	00000000 	nop
    62c8:	00000000 	nop
    62cc:	00000000 	nop
    62d0:	00000000 	nop
    62d4:	00000000 	nop
    62d8:	00000000 	nop
    62dc:	00000000 	nop
    62e0:	00000000 	nop
    62e4:	00000000 	nop
    62e8:	00000000 	nop
    62ec:	00000000 	nop
    62f0:	00000000 	nop
    62f4:	00000000 	nop
    62f8:	00000000 	nop
    62fc:	00000000 	nop
    6300:	00000000 	nop
    6304:	00000000 	nop
    6308:	00000000 	nop
    630c:	00000000 	nop
    6310:	00000000 	nop
    6314:	00000000 	nop
    6318:	00000000 	nop
    631c:	00000000 	nop
    6320:	00000000 	nop
    6324:	00000000 	nop
    6328:	00000000 	nop
    632c:	00000000 	nop
    6330:	00000000 	nop
    6334:	00000000 	nop
    6338:	00000000 	nop
    633c:	00000000 	nop
    6340:	00000000 	nop
    6344:	00000000 	nop
    6348:	00000000 	nop
    634c:	00000000 	nop
    6350:	00000000 	nop
    6354:	00000000 	nop
    6358:	00000000 	nop
    635c:	00000000 	nop
    6360:	00000000 	nop
    6364:	00000000 	nop
    6368:	00000000 	nop
    636c:	00000000 	nop
    6370:	00000000 	nop
    6374:	00000000 	nop
    6378:	00000000 	nop
    637c:	00000000 	nop
    6380:	00000000 	nop
    6384:	00000000 	nop
    6388:	00000000 	nop
    638c:	00000000 	nop
    6390:	00000000 	nop
    6394:	00000000 	nop
    6398:	00000000 	nop
    639c:	00000000 	nop
    63a0:	00000000 	nop
    63a4:	00000000 	nop
    63a8:	00000000 	nop
    63ac:	00000000 	nop
    63b0:	00000000 	nop
    63b4:	00000000 	nop
    63b8:	00000000 	nop
    63bc:	00000000 	nop
    63c0:	00000000 	nop
    63c4:	00000000 	nop
    63c8:	00000000 	nop
    63cc:	00000000 	nop
    63d0:	00000000 	nop
    63d4:	00000000 	nop
    63d8:	00000000 	nop
    63dc:	00000000 	nop
    63e0:	00000000 	nop
    63e4:	00000000 	nop
    63e8:	00000000 	nop
    63ec:	00000000 	nop
    63f0:	00000000 	nop
    63f4:	00000000 	nop
    63f8:	00000000 	nop
    63fc:	00000000 	nop
    6400:	00000000 	nop
    6404:	00000000 	nop
    6408:	00000000 	nop
    640c:	00000000 	nop
    6410:	00000000 	nop
    6414:	00000000 	nop
    6418:	00000000 	nop
    641c:	00000000 	nop
    6420:	00000000 	nop
    6424:	00000000 	nop
    6428:	00000000 	nop
    642c:	00000000 	nop
    6430:	00000000 	nop
    6434:	00000000 	nop
    6438:	00000000 	nop
    643c:	00000000 	nop
    6440:	00000000 	nop
    6444:	00000000 	nop
    6448:	00000000 	nop
    644c:	00000000 	nop
    6450:	00000000 	nop
    6454:	00000000 	nop
    6458:	00000000 	nop
    645c:	00000000 	nop
    6460:	00000000 	nop
    6464:	00000000 	nop
    6468:	00000000 	nop
    646c:	00000000 	nop
    6470:	00000000 	nop
    6474:	00000000 	nop
    6478:	00000000 	nop
    647c:	00000000 	nop
    6480:	00000000 	nop
    6484:	00000000 	nop
    6488:	00000000 	nop
    648c:	00000000 	nop
    6490:	00000000 	nop
    6494:	00000000 	nop
    6498:	00000000 	nop
    649c:	00000000 	nop
    64a0:	00000000 	nop
    64a4:	00000000 	nop
    64a8:	00000000 	nop
    64ac:	00000000 	nop
    64b0:	00000000 	nop
    64b4:	00000000 	nop
    64b8:	00000000 	nop
    64bc:	00000000 	nop
    64c0:	00000000 	nop
    64c4:	00000000 	nop
    64c8:	00000000 	nop
    64cc:	00000000 	nop
    64d0:	00000000 	nop
    64d4:	00000000 	nop
    64d8:	00000000 	nop
    64dc:	00000000 	nop
    64e0:	00000000 	nop
    64e4:	00000000 	nop
    64e8:	00000000 	nop
    64ec:	00000000 	nop
    64f0:	00000000 	nop
    64f4:	00000000 	nop
    64f8:	00000000 	nop
    64fc:	00000000 	nop
    6500:	00000000 	nop
    6504:	00000000 	nop
    6508:	00000000 	nop
    650c:	00000000 	nop
    6510:	00000000 	nop
    6514:	00000000 	nop
    6518:	00000000 	nop
    651c:	00000000 	nop
    6520:	00000000 	nop
    6524:	00000000 	nop
    6528:	00000000 	nop
    652c:	00000000 	nop
    6530:	00000000 	nop
    6534:	00000000 	nop
    6538:	00000000 	nop
    653c:	00000000 	nop
    6540:	00000000 	nop
    6544:	00000000 	nop
    6548:	00000000 	nop
    654c:	00000000 	nop
    6550:	00000000 	nop
    6554:	00000000 	nop
    6558:	00000000 	nop
    655c:	00000000 	nop
    6560:	00000000 	nop
    6564:	00000000 	nop
    6568:	00000000 	nop
    656c:	00000000 	nop
    6570:	00000000 	nop
    6574:	00000000 	nop
    6578:	00000000 	nop
    657c:	00000000 	nop
    6580:	00000000 	nop
    6584:	00000000 	nop
    6588:	00000000 	nop
    658c:	00000000 	nop
    6590:	00000000 	nop
    6594:	00000000 	nop
    6598:	00000000 	nop
    659c:	00000000 	nop
    65a0:	00000000 	nop
    65a4:	00000000 	nop
    65a8:	00000000 	nop
    65ac:	00000000 	nop
    65b0:	00000000 	nop
    65b4:	00000000 	nop
    65b8:	00000000 	nop
    65bc:	00000000 	nop
    65c0:	00000000 	nop
    65c4:	00000000 	nop
    65c8:	00000000 	nop
    65cc:	00000000 	nop
    65d0:	00000000 	nop
    65d4:	00000000 	nop
    65d8:	00000000 	nop
    65dc:	00000000 	nop
    65e0:	00000000 	nop
    65e4:	00000000 	nop
    65e8:	00000000 	nop
    65ec:	00000000 	nop
    65f0:	00000000 	nop
    65f4:	00000000 	nop
    65f8:	00000000 	nop
    65fc:	00000000 	nop
    6600:	00000000 	nop
    6604:	00000000 	nop
    6608:	00000000 	nop
    660c:	00000000 	nop
    6610:	00000000 	nop
    6614:	00000000 	nop
    6618:	00000000 	nop
    661c:	00000000 	nop
    6620:	00000000 	nop
    6624:	00000000 	nop
    6628:	00000000 	nop
    662c:	00000000 	nop
    6630:	00000000 	nop
    6634:	00000000 	nop
    6638:	00000000 	nop
    663c:	00000000 	nop
    6640:	00000000 	nop
    6644:	00000000 	nop
    6648:	00000000 	nop
    664c:	00000000 	nop
    6650:	00000000 	nop
    6654:	00000000 	nop
    6658:	00000000 	nop
    665c:	00000000 	nop
    6660:	00000000 	nop
    6664:	00000000 	nop
    6668:	00000000 	nop
    666c:	00000000 	nop
    6670:	00000000 	nop
    6674:	00000000 	nop
    6678:	00000000 	nop
    667c:	00000000 	nop
    6680:	00000000 	nop
    6684:	00000000 	nop
    6688:	00000000 	nop
    668c:	00000000 	nop
    6690:	00000000 	nop
    6694:	00000000 	nop
    6698:	00000000 	nop
    669c:	00000000 	nop
    66a0:	00000000 	nop
    66a4:	00000000 	nop
    66a8:	00000000 	nop
    66ac:	00000000 	nop
    66b0:	00000000 	nop
    66b4:	00000000 	nop
    66b8:	00000000 	nop
    66bc:	00000000 	nop
    66c0:	00000000 	nop
    66c4:	00000000 	nop
    66c8:	00000000 	nop
    66cc:	00000000 	nop
    66d0:	00000000 	nop
    66d4:	00000000 	nop
    66d8:	00000000 	nop
    66dc:	00000000 	nop
    66e0:	00000000 	nop
    66e4:	00000000 	nop
    66e8:	00000000 	nop
    66ec:	00000000 	nop
    66f0:	00000000 	nop
    66f4:	00000000 	nop
    66f8:	00000000 	nop
    66fc:	00000000 	nop
    6700:	00000000 	nop
    6704:	00000000 	nop
    6708:	00000000 	nop
    670c:	00000000 	nop
    6710:	00000000 	nop
    6714:	00000000 	nop
    6718:	00000000 	nop
    671c:	00000000 	nop
    6720:	00000000 	nop
    6724:	00000000 	nop
    6728:	00000000 	nop
    672c:	00000000 	nop
    6730:	00000000 	nop
    6734:	00000000 	nop
    6738:	00000000 	nop
    673c:	00000000 	nop
    6740:	00000000 	nop
    6744:	00000000 	nop
    6748:	00000000 	nop
    674c:	00000000 	nop
    6750:	00000000 	nop
    6754:	00000000 	nop
    6758:	00000000 	nop
    675c:	00000000 	nop
    6760:	00000000 	nop
    6764:	00000000 	nop
    6768:	00000000 	nop
    676c:	00000000 	nop
    6770:	00000000 	nop
    6774:	00000000 	nop
    6778:	00000000 	nop
    677c:	00000000 	nop
    6780:	00000000 	nop
    6784:	00000000 	nop
    6788:	00000000 	nop
    678c:	00000000 	nop
    6790:	00000000 	nop
    6794:	00000000 	nop
    6798:	00000000 	nop
    679c:	00000000 	nop
    67a0:	00000000 	nop
    67a4:	00000000 	nop
    67a8:	00000000 	nop
    67ac:	00000000 	nop
    67b0:	00000000 	nop
    67b4:	00000000 	nop
    67b8:	00000000 	nop
    67bc:	00000000 	nop
    67c0:	00000000 	nop
    67c4:	00000000 	nop
    67c8:	00000000 	nop
    67cc:	00000000 	nop
    67d0:	00000000 	nop
    67d4:	00000000 	nop
    67d8:	00000000 	nop
    67dc:	00000000 	nop
    67e0:	00000000 	nop
    67e4:	00000000 	nop
    67e8:	00000000 	nop
    67ec:	00000000 	nop
    67f0:	00000000 	nop
    67f4:	00000000 	nop
    67f8:	00000000 	nop
    67fc:	00000000 	nop
    6800:	00000000 	nop
    6804:	00000000 	nop
    6808:	00000000 	nop
    680c:	00000000 	nop
    6810:	00000000 	nop
    6814:	00000000 	nop
    6818:	00000000 	nop
    681c:	00000000 	nop
    6820:	00000000 	nop
    6824:	00000000 	nop
    6828:	00000000 	nop
    682c:	00000000 	nop
    6830:	00000000 	nop
    6834:	00000000 	nop
    6838:	00000000 	nop
    683c:	00000000 	nop
    6840:	00000000 	nop
    6844:	00000000 	nop
    6848:	00000000 	nop
    684c:	00000000 	nop
    6850:	00000000 	nop
    6854:	00000000 	nop
    6858:	00000000 	nop
    685c:	00000000 	nop
    6860:	00000000 	nop
    6864:	00000000 	nop
    6868:	00000000 	nop
    686c:	00000000 	nop
    6870:	00000000 	nop
    6874:	00000000 	nop
    6878:	00000000 	nop
    687c:	00000000 	nop
    6880:	00000000 	nop
    6884:	00000000 	nop
    6888:	00000000 	nop
    688c:	00000000 	nop
    6890:	00000000 	nop
    6894:	00000000 	nop
    6898:	00000000 	nop
    689c:	00000000 	nop
    68a0:	00000000 	nop
    68a4:	00000000 	nop
    68a8:	00000000 	nop
    68ac:	00000000 	nop
    68b0:	00000000 	nop
    68b4:	00000000 	nop
    68b8:	00000000 	nop
    68bc:	00000000 	nop
    68c0:	00000000 	nop
    68c4:	00000000 	nop
    68c8:	00000000 	nop
    68cc:	00000000 	nop
    68d0:	00000000 	nop
    68d4:	00000000 	nop
    68d8:	00000000 	nop
    68dc:	00000000 	nop
    68e0:	00000000 	nop
    68e4:	00000000 	nop
    68e8:	00000000 	nop
    68ec:	00000000 	nop
    68f0:	00000000 	nop
    68f4:	00000000 	nop
    68f8:	00000000 	nop
    68fc:	00000000 	nop
    6900:	00000000 	nop
    6904:	00000000 	nop
    6908:	00000000 	nop
    690c:	00000000 	nop
    6910:	00000000 	nop
    6914:	00000000 	nop
    6918:	00000000 	nop
    691c:	00000000 	nop
    6920:	00000000 	nop
    6924:	00000000 	nop
    6928:	00000000 	nop
    692c:	00000000 	nop
    6930:	00000000 	nop
    6934:	00000000 	nop
    6938:	00000000 	nop
    693c:	00000000 	nop
    6940:	00000000 	nop
    6944:	00000000 	nop
    6948:	00000000 	nop
    694c:	00000000 	nop
    6950:	00000000 	nop
    6954:	00000000 	nop
    6958:	00000000 	nop
    695c:	00000000 	nop
    6960:	00000000 	nop
    6964:	00000000 	nop
    6968:	00000000 	nop
    696c:	00000000 	nop
    6970:	00000000 	nop
    6974:	00000000 	nop
    6978:	00000000 	nop
    697c:	00000000 	nop
    6980:	00000000 	nop
    6984:	00000000 	nop
    6988:	00000000 	nop
    698c:	00000000 	nop
    6990:	00000000 	nop
    6994:	00000000 	nop
    6998:	00000000 	nop
    699c:	00000000 	nop
    69a0:	00000000 	nop
    69a4:	00000000 	nop
    69a8:	00000000 	nop
    69ac:	00000000 	nop
    69b0:	00000000 	nop
    69b4:	00000000 	nop
    69b8:	00000000 	nop
    69bc:	00000000 	nop
    69c0:	00000000 	nop
    69c4:	00000000 	nop
    69c8:	00000000 	nop
    69cc:	00000000 	nop
    69d0:	00000000 	nop
    69d4:	00000000 	nop
    69d8:	00000000 	nop
    69dc:	00000000 	nop
    69e0:	00000000 	nop
    69e4:	00000000 	nop
    69e8:	00000000 	nop
    69ec:	00000000 	nop
    69f0:	00000000 	nop
    69f4:	00000000 	nop
    69f8:	00000000 	nop
    69fc:	00000000 	nop
    6a00:	00000000 	nop
    6a04:	00000000 	nop
    6a08:	00000000 	nop
    6a0c:	00000000 	nop
    6a10:	00000000 	nop
    6a14:	00000000 	nop
    6a18:	00000000 	nop
    6a1c:	00000000 	nop
    6a20:	00000000 	nop
    6a24:	00000000 	nop
    6a28:	00000000 	nop
    6a2c:	00000000 	nop
    6a30:	00000000 	nop
    6a34:	00000000 	nop
    6a38:	00000000 	nop
    6a3c:	00000000 	nop
    6a40:	00000000 	nop
    6a44:	00000000 	nop
    6a48:	00000000 	nop
    6a4c:	00000000 	nop
    6a50:	00000000 	nop
    6a54:	00000000 	nop
    6a58:	00000000 	nop
    6a5c:	00000000 	nop
    6a60:	00000000 	nop
    6a64:	00000000 	nop
    6a68:	00000000 	nop
    6a6c:	00000000 	nop
    6a70:	00000000 	nop
    6a74:	00000000 	nop
    6a78:	00000000 	nop
    6a7c:	00000000 	nop
    6a80:	00000000 	nop
    6a84:	00000000 	nop
    6a88:	00000000 	nop
    6a8c:	00000000 	nop
    6a90:	00000000 	nop
    6a94:	00000000 	nop
    6a98:	00000000 	nop
    6a9c:	00000000 	nop
    6aa0:	00000000 	nop
    6aa4:	00000000 	nop
    6aa8:	00000000 	nop
    6aac:	00000000 	nop
    6ab0:	00000000 	nop
    6ab4:	00000000 	nop
    6ab8:	00000000 	nop
    6abc:	00000000 	nop
    6ac0:	00000000 	nop
    6ac4:	00000000 	nop
    6ac8:	00000000 	nop
    6acc:	00000000 	nop
    6ad0:	00000000 	nop
    6ad4:	00000000 	nop
    6ad8:	00000000 	nop
    6adc:	00000000 	nop
    6ae0:	00000000 	nop
    6ae4:	00000000 	nop
    6ae8:	00000000 	nop
    6aec:	00000000 	nop
    6af0:	00000000 	nop
    6af4:	00000000 	nop
    6af8:	00000000 	nop
    6afc:	00000000 	nop
    6b00:	00000000 	nop
    6b04:	00000000 	nop
    6b08:	00000000 	nop
    6b0c:	00000000 	nop
    6b10:	00000000 	nop
    6b14:	00000000 	nop
    6b18:	00000000 	nop
    6b1c:	00000000 	nop
    6b20:	00000000 	nop
    6b24:	00000000 	nop
    6b28:	00000000 	nop
    6b2c:	00000000 	nop
    6b30:	00000000 	nop
    6b34:	00000000 	nop
    6b38:	00000000 	nop
    6b3c:	00000000 	nop
    6b40:	00000000 	nop
    6b44:	00000000 	nop
    6b48:	00000000 	nop
    6b4c:	00000000 	nop
    6b50:	00000000 	nop
    6b54:	00000000 	nop
    6b58:	00000000 	nop
    6b5c:	00000000 	nop
    6b60:	00000000 	nop
    6b64:	00000000 	nop
    6b68:	00000000 	nop
    6b6c:	00000000 	nop
    6b70:	00000000 	nop
    6b74:	00000000 	nop
    6b78:	00000000 	nop
    6b7c:	00000000 	nop
    6b80:	00000000 	nop
    6b84:	00000000 	nop
    6b88:	00000000 	nop
    6b8c:	00000000 	nop
    6b90:	00000000 	nop
    6b94:	00000000 	nop
    6b98:	00000000 	nop
    6b9c:	00000000 	nop
    6ba0:	00000000 	nop
    6ba4:	00000000 	nop
    6ba8:	00000000 	nop
    6bac:	00000000 	nop
    6bb0:	00000000 	nop
    6bb4:	00000000 	nop
    6bb8:	00000000 	nop
    6bbc:	00000000 	nop
    6bc0:	00000000 	nop
    6bc4:	00000000 	nop
    6bc8:	00000000 	nop
    6bcc:	00000000 	nop
    6bd0:	00000000 	nop
    6bd4:	00000000 	nop
    6bd8:	00000000 	nop
    6bdc:	00000000 	nop
    6be0:	00000000 	nop
    6be4:	00000000 	nop
    6be8:	00000000 	nop
    6bec:	00000000 	nop
    6bf0:	00000000 	nop
    6bf4:	00000000 	nop
    6bf8:	00000000 	nop
    6bfc:	00000000 	nop
    6c00:	00000000 	nop
    6c04:	00000000 	nop
    6c08:	00000000 	nop
    6c0c:	00000000 	nop
    6c10:	00000000 	nop
    6c14:	00000000 	nop
    6c18:	00000000 	nop
    6c1c:	00000000 	nop
    6c20:	00000000 	nop
    6c24:	00000000 	nop
    6c28:	00000000 	nop
    6c2c:	00000000 	nop
    6c30:	00000000 	nop
    6c34:	00000000 	nop
    6c38:	00000000 	nop
    6c3c:	00000000 	nop
    6c40:	00000000 	nop
    6c44:	00000000 	nop
    6c48:	00000000 	nop
    6c4c:	00000000 	nop
    6c50:	00000000 	nop
    6c54:	00000000 	nop
    6c58:	00000000 	nop
    6c5c:	00000000 	nop
    6c60:	00000000 	nop
    6c64:	00000000 	nop
    6c68:	00000000 	nop
    6c6c:	00000000 	nop
    6c70:	00000000 	nop
    6c74:	00000000 	nop
    6c78:	00000000 	nop
    6c7c:	00000000 	nop
    6c80:	00000000 	nop
    6c84:	00000000 	nop
    6c88:	00000000 	nop
    6c8c:	00000000 	nop
    6c90:	00000000 	nop
    6c94:	00000000 	nop
    6c98:	00000000 	nop
    6c9c:	00000000 	nop
    6ca0:	00000000 	nop
    6ca4:	00000000 	nop
    6ca8:	00000000 	nop
    6cac:	00000000 	nop
    6cb0:	00000000 	nop
    6cb4:	00000000 	nop
    6cb8:	00000000 	nop
    6cbc:	00000000 	nop
    6cc0:	00000000 	nop
    6cc4:	00000000 	nop
    6cc8:	00000000 	nop
    6ccc:	00000000 	nop
    6cd0:	00000000 	nop
    6cd4:	00000000 	nop
    6cd8:	00000000 	nop
    6cdc:	00000000 	nop
    6ce0:	00000000 	nop
    6ce4:	00000000 	nop
    6ce8:	00000000 	nop
    6cec:	00000000 	nop
    6cf0:	00000000 	nop
    6cf4:	00000000 	nop
    6cf8:	00000000 	nop
    6cfc:	00000000 	nop
    6d00:	00000000 	nop
    6d04:	00000000 	nop
    6d08:	00000000 	nop
    6d0c:	00000000 	nop
    6d10:	00000000 	nop
    6d14:	00000000 	nop
    6d18:	00000000 	nop
    6d1c:	00000000 	nop
    6d20:	00000000 	nop
    6d24:	00000000 	nop
    6d28:	00000000 	nop
    6d2c:	00000000 	nop
    6d30:	00000000 	nop
    6d34:	00000000 	nop
    6d38:	00000000 	nop
    6d3c:	00000000 	nop
    6d40:	00000000 	nop
    6d44:	00000000 	nop
    6d48:	00000000 	nop
    6d4c:	00000000 	nop
    6d50:	00000000 	nop
    6d54:	00000000 	nop
    6d58:	00000000 	nop
    6d5c:	00000000 	nop
    6d60:	00000000 	nop
    6d64:	00000000 	nop
    6d68:	00000000 	nop
    6d6c:	00000000 	nop
    6d70:	00000000 	nop
    6d74:	00000000 	nop
    6d78:	00000000 	nop
    6d7c:	00000000 	nop
    6d80:	00000000 	nop
    6d84:	00000000 	nop
    6d88:	00000000 	nop
    6d8c:	00000000 	nop
    6d90:	00000000 	nop
    6d94:	00000000 	nop
    6d98:	00000000 	nop
    6d9c:	00000000 	nop
    6da0:	00000000 	nop
    6da4:	00000000 	nop
    6da8:	00000000 	nop
    6dac:	00000000 	nop
    6db0:	00000000 	nop
    6db4:	00000000 	nop
    6db8:	00000000 	nop
    6dbc:	00000000 	nop
    6dc0:	00000000 	nop
    6dc4:	00000000 	nop
    6dc8:	00000000 	nop
    6dcc:	00000000 	nop
    6dd0:	00000000 	nop
    6dd4:	00000000 	nop
    6dd8:	00000000 	nop
    6ddc:	00000000 	nop
    6de0:	00000000 	nop
    6de4:	00000000 	nop
    6de8:	00000000 	nop
    6dec:	00000000 	nop
    6df0:	00000000 	nop
    6df4:	00000000 	nop
    6df8:	00000000 	nop
    6dfc:	00000000 	nop
    6e00:	00000000 	nop
    6e04:	00000000 	nop
    6e08:	00000000 	nop
    6e0c:	00000000 	nop
    6e10:	00000000 	nop
    6e14:	00000000 	nop
    6e18:	00000000 	nop
    6e1c:	00000000 	nop
    6e20:	00000000 	nop
    6e24:	00000000 	nop
    6e28:	00000000 	nop
    6e2c:	00000000 	nop
    6e30:	00000000 	nop
    6e34:	00000000 	nop
    6e38:	00000000 	nop
    6e3c:	00000000 	nop
    6e40:	00000000 	nop
    6e44:	00000000 	nop
    6e48:	00000000 	nop
    6e4c:	00000000 	nop
    6e50:	00000000 	nop
    6e54:	00000000 	nop
    6e58:	00000000 	nop
    6e5c:	00000000 	nop
    6e60:	00000000 	nop
    6e64:	00000000 	nop
    6e68:	00000000 	nop
    6e6c:	00000000 	nop
    6e70:	00000000 	nop
    6e74:	00000000 	nop
    6e78:	00000000 	nop
    6e7c:	00000000 	nop
    6e80:	00000000 	nop
    6e84:	00000000 	nop
    6e88:	00000000 	nop
    6e8c:	00000000 	nop
    6e90:	00000000 	nop
    6e94:	00000000 	nop
    6e98:	00000000 	nop
    6e9c:	00000000 	nop
    6ea0:	00000000 	nop
    6ea4:	00000000 	nop
    6ea8:	00000000 	nop
    6eac:	00000000 	nop
    6eb0:	00000000 	nop
    6eb4:	00000000 	nop
    6eb8:	00000000 	nop
    6ebc:	00000000 	nop
    6ec0:	00000000 	nop
    6ec4:	00000000 	nop
    6ec8:	00000000 	nop
    6ecc:	00000000 	nop
    6ed0:	00000000 	nop
    6ed4:	00000000 	nop
    6ed8:	00000000 	nop
    6edc:	00000000 	nop
    6ee0:	00000000 	nop
    6ee4:	00000000 	nop
    6ee8:	00000000 	nop
    6eec:	00000000 	nop
    6ef0:	00000000 	nop
    6ef4:	00000000 	nop
    6ef8:	00000000 	nop
    6efc:	00000000 	nop
    6f00:	00000000 	nop
    6f04:	00000000 	nop
    6f08:	00000000 	nop
    6f0c:	00000000 	nop
    6f10:	00000000 	nop
    6f14:	00000000 	nop
    6f18:	00000000 	nop
    6f1c:	00000000 	nop
    6f20:	00000000 	nop
    6f24:	00000000 	nop
    6f28:	00000000 	nop
    6f2c:	00000000 	nop
    6f30:	00000000 	nop
    6f34:	00000000 	nop
    6f38:	00000000 	nop
    6f3c:	00000000 	nop
    6f40:	00000000 	nop
    6f44:	00000000 	nop
    6f48:	00000000 	nop
    6f4c:	00000000 	nop
    6f50:	00000000 	nop
    6f54:	00000000 	nop
    6f58:	00000000 	nop
    6f5c:	00000000 	nop
    6f60:	00000000 	nop
    6f64:	00000000 	nop
    6f68:	00000000 	nop
    6f6c:	00000000 	nop
    6f70:	00000000 	nop
    6f74:	00000000 	nop
    6f78:	00000000 	nop
    6f7c:	00000000 	nop
    6f80:	00000000 	nop
    6f84:	00000000 	nop
    6f88:	00000000 	nop
    6f8c:	00000000 	nop
    6f90:	00000000 	nop
    6f94:	00000000 	nop
    6f98:	00000000 	nop
    6f9c:	00000000 	nop
    6fa0:	00000000 	nop
    6fa4:	00000000 	nop
    6fa8:	00000000 	nop
    6fac:	00000000 	nop
    6fb0:	00000000 	nop
    6fb4:	00000000 	nop
    6fb8:	00000000 	nop
    6fbc:	00000000 	nop
    6fc0:	00000000 	nop
    6fc4:	00000000 	nop
    6fc8:	00000000 	nop
    6fcc:	00000000 	nop
    6fd0:	00000000 	nop
    6fd4:	00000000 	nop
    6fd8:	00000000 	nop
    6fdc:	00000000 	nop
    6fe0:	00000000 	nop
    6fe4:	00000000 	nop
    6fe8:	00000000 	nop
    6fec:	00000000 	nop
    6ff0:	00000000 	nop
    6ff4:	00000000 	nop
    6ff8:	00000000 	nop
    6ffc:	00000000 	nop
    7000:	00000000 	nop
    7004:	00000000 	nop
    7008:	00000000 	nop
    700c:	00000000 	nop
    7010:	00000000 	nop
    7014:	00000000 	nop
    7018:	00000000 	nop
    701c:	00000000 	nop
    7020:	00000000 	nop
    7024:	00000000 	nop
    7028:	00000000 	nop
    702c:	00000000 	nop
    7030:	00000000 	nop
    7034:	00000000 	nop
    7038:	00000000 	nop
    703c:	00000000 	nop
    7040:	00000000 	nop
    7044:	00000000 	nop
    7048:	00000000 	nop
    704c:	00000000 	nop
    7050:	00000000 	nop
    7054:	00000000 	nop
    7058:	00000000 	nop
    705c:	00000000 	nop
    7060:	00000000 	nop
    7064:	00000000 	nop
    7068:	00000000 	nop
    706c:	00000000 	nop
    7070:	00000000 	nop
    7074:	00000000 	nop
    7078:	00000000 	nop
    707c:	00000000 	nop
    7080:	00000000 	nop
    7084:	00000000 	nop
    7088:	00000000 	nop
    708c:	00000000 	nop
    7090:	00000000 	nop
    7094:	00000000 	nop
    7098:	00000000 	nop
    709c:	00000000 	nop
    70a0:	00000000 	nop
    70a4:	00000000 	nop
    70a8:	00000000 	nop
    70ac:	00000000 	nop
    70b0:	00000000 	nop
    70b4:	00000000 	nop
    70b8:	00000000 	nop
    70bc:	00000000 	nop
    70c0:	00000000 	nop
    70c4:	00000000 	nop
    70c8:	00000000 	nop
    70cc:	00000000 	nop
    70d0:	00000000 	nop
    70d4:	00000000 	nop
    70d8:	00000000 	nop
    70dc:	00000000 	nop
    70e0:	00000000 	nop
    70e4:	00000000 	nop
    70e8:	00000000 	nop
    70ec:	00000000 	nop
    70f0:	00000000 	nop
    70f4:	00000000 	nop
    70f8:	00000000 	nop
    70fc:	00000000 	nop
    7100:	00000000 	nop
    7104:	00000000 	nop
    7108:	00000000 	nop
    710c:	00000000 	nop
    7110:	00000000 	nop
    7114:	00000000 	nop
    7118:	00000000 	nop
    711c:	00000000 	nop
    7120:	00000000 	nop
    7124:	00000000 	nop
    7128:	00000000 	nop
    712c:	00000000 	nop
    7130:	00000000 	nop
    7134:	00000000 	nop
    7138:	00000000 	nop
    713c:	00000000 	nop
    7140:	00000000 	nop
    7144:	00000000 	nop
    7148:	00000000 	nop
    714c:	00000000 	nop
    7150:	00000000 	nop
    7154:	00000000 	nop
    7158:	00000000 	nop
    715c:	00000000 	nop
    7160:	00000000 	nop
    7164:	00000000 	nop
    7168:	00000000 	nop
    716c:	00000000 	nop
    7170:	00000000 	nop
    7174:	00000000 	nop
    7178:	00000000 	nop
    717c:	00000000 	nop
    7180:	00000000 	nop
    7184:	00000000 	nop
    7188:	00000000 	nop
    718c:	00000000 	nop
    7190:	00000000 	nop
    7194:	00000000 	nop
    7198:	00000000 	nop
    719c:	00000000 	nop
    71a0:	00000000 	nop
    71a4:	00000000 	nop
    71a8:	00000000 	nop
    71ac:	00000000 	nop
    71b0:	00000000 	nop
    71b4:	00000000 	nop
    71b8:	00000000 	nop
    71bc:	00000000 	nop
    71c0:	00000000 	nop
    71c4:	00000000 	nop
    71c8:	00000000 	nop
    71cc:	00000000 	nop
    71d0:	00000000 	nop
    71d4:	00000000 	nop
    71d8:	00000000 	nop
    71dc:	00000000 	nop
    71e0:	00000000 	nop
    71e4:	00000000 	nop
    71e8:	00000000 	nop
    71ec:	00000000 	nop
    71f0:	00000000 	nop
    71f4:	00000000 	nop
    71f8:	00000000 	nop
    71fc:	00000000 	nop
    7200:	00000000 	nop
    7204:	00000000 	nop
    7208:	00000000 	nop
    720c:	00000000 	nop
    7210:	00000000 	nop
    7214:	00000000 	nop
    7218:	00000000 	nop
    721c:	00000000 	nop
    7220:	00000000 	nop
    7224:	00000000 	nop
    7228:	00000000 	nop
    722c:	00000000 	nop
    7230:	00000000 	nop
    7234:	00000000 	nop
    7238:	00000000 	nop
    723c:	00000000 	nop
    7240:	00000000 	nop
    7244:	00000000 	nop
    7248:	00000000 	nop
    724c:	00000000 	nop
    7250:	00000000 	nop
    7254:	00000000 	nop
    7258:	00000000 	nop
    725c:	00000000 	nop
    7260:	00000000 	nop
    7264:	00000000 	nop
    7268:	00000000 	nop
    726c:	00000000 	nop
    7270:	00000000 	nop
    7274:	00000000 	nop
    7278:	00000000 	nop
    727c:	00000000 	nop
    7280:	00000000 	nop
    7284:	00000000 	nop
    7288:	00000000 	nop
    728c:	00000000 	nop
    7290:	00000000 	nop
    7294:	00000000 	nop
    7298:	00000000 	nop
    729c:	00000000 	nop
    72a0:	00000000 	nop
    72a4:	00000000 	nop
    72a8:	00000000 	nop
    72ac:	00000000 	nop
    72b0:	00000000 	nop
    72b4:	00000000 	nop
    72b8:	00000000 	nop
    72bc:	00000000 	nop
    72c0:	00000000 	nop
    72c4:	00000000 	nop
    72c8:	00000000 	nop
    72cc:	00000000 	nop
    72d0:	00000000 	nop
    72d4:	00000000 	nop
    72d8:	00000000 	nop
    72dc:	00000000 	nop
    72e0:	00000000 	nop
    72e4:	00000000 	nop
    72e8:	00000000 	nop
    72ec:	00000000 	nop
    72f0:	00000000 	nop
    72f4:	00000000 	nop
    72f8:	00000000 	nop
    72fc:	00000000 	nop
    7300:	00000000 	nop
    7304:	00000000 	nop
    7308:	00000000 	nop
    730c:	00000000 	nop
    7310:	00000000 	nop
    7314:	00000000 	nop
    7318:	00000000 	nop
    731c:	00000000 	nop
    7320:	00000000 	nop
    7324:	00000000 	nop
    7328:	00000000 	nop
    732c:	00000000 	nop
    7330:	00000000 	nop
    7334:	00000000 	nop
    7338:	00000000 	nop
    733c:	00000000 	nop
    7340:	00000000 	nop
    7344:	00000000 	nop
    7348:	00000000 	nop
    734c:	00000000 	nop
    7350:	00000000 	nop
    7354:	00000000 	nop
    7358:	00000000 	nop
    735c:	00000000 	nop
    7360:	00000000 	nop
    7364:	00000000 	nop
    7368:	00000000 	nop
    736c:	00000000 	nop
    7370:	00000000 	nop
    7374:	00000000 	nop
    7378:	00000000 	nop
    737c:	00000000 	nop
    7380:	00000000 	nop
    7384:	00000000 	nop
    7388:	00000000 	nop
    738c:	00000000 	nop
    7390:	00000000 	nop
    7394:	00000000 	nop
    7398:	00000000 	nop
    739c:	00000000 	nop
    73a0:	00000000 	nop
    73a4:	00000000 	nop
    73a8:	00000000 	nop
    73ac:	00000000 	nop
    73b0:	00000000 	nop
    73b4:	00000000 	nop
    73b8:	00000000 	nop
    73bc:	00000000 	nop
    73c0:	00000000 	nop
    73c4:	00000000 	nop
    73c8:	00000000 	nop
    73cc:	00000000 	nop
    73d0:	00000000 	nop
    73d4:	00000000 	nop
    73d8:	00000000 	nop
    73dc:	00000000 	nop
    73e0:	00000000 	nop
    73e4:	00000000 	nop
    73e8:	00000000 	nop
    73ec:	00000000 	nop
    73f0:	00000000 	nop
    73f4:	00000000 	nop
    73f8:	00000000 	nop
    73fc:	00000000 	nop
    7400:	00000000 	nop
    7404:	00000000 	nop
    7408:	00000000 	nop
    740c:	00000000 	nop
    7410:	00000000 	nop
    7414:	00000000 	nop
    7418:	00000000 	nop
    741c:	00000000 	nop
    7420:	00000000 	nop
    7424:	00000000 	nop
    7428:	00000000 	nop
    742c:	00000000 	nop
    7430:	00000000 	nop
    7434:	00000000 	nop
    7438:	00000000 	nop
    743c:	00000000 	nop
    7440:	00000000 	nop
    7444:	00000000 	nop
    7448:	00000000 	nop
    744c:	00000000 	nop
    7450:	00000000 	nop
    7454:	00000000 	nop
    7458:	00000000 	nop
    745c:	00000000 	nop
    7460:	00000000 	nop
    7464:	00000000 	nop
    7468:	00000000 	nop
    746c:	00000000 	nop
    7470:	00000000 	nop
    7474:	00000000 	nop
    7478:	00000000 	nop
    747c:	00000000 	nop
    7480:	00000000 	nop
    7484:	00000000 	nop
    7488:	00000000 	nop
    748c:	00000000 	nop
    7490:	00000000 	nop
    7494:	00000000 	nop
    7498:	00000000 	nop
    749c:	00000000 	nop
    74a0:	00000000 	nop
    74a4:	00000000 	nop
    74a8:	00000000 	nop
    74ac:	00000000 	nop
    74b0:	00000000 	nop
    74b4:	00000000 	nop
    74b8:	00000000 	nop
    74bc:	00000000 	nop
    74c0:	00000000 	nop
    74c4:	00000000 	nop
    74c8:	00000000 	nop
    74cc:	00000000 	nop
    74d0:	00000000 	nop
    74d4:	00000000 	nop
    74d8:	00000000 	nop
    74dc:	00000000 	nop
    74e0:	00000000 	nop
    74e4:	00000000 	nop
    74e8:	00000000 	nop
    74ec:	00000000 	nop
    74f0:	00000000 	nop
    74f4:	00000000 	nop
    74f8:	00000000 	nop
    74fc:	00000000 	nop
    7500:	00000000 	nop
    7504:	00000000 	nop
    7508:	00000000 	nop
    750c:	00000000 	nop
    7510:	00000000 	nop
    7514:	00000000 	nop
    7518:	00000000 	nop
    751c:	00000000 	nop
    7520:	00000000 	nop
    7524:	00000000 	nop
    7528:	00000000 	nop
    752c:	00000000 	nop
    7530:	00000000 	nop
    7534:	00000000 	nop
    7538:	00000000 	nop
    753c:	00000000 	nop
    7540:	00000000 	nop
    7544:	00000000 	nop
    7548:	00000000 	nop
    754c:	00000000 	nop
    7550:	00000000 	nop
    7554:	00000000 	nop
    7558:	00000000 	nop
    755c:	00000000 	nop
    7560:	00000000 	nop
    7564:	00000000 	nop
    7568:	00000000 	nop
    756c:	00000000 	nop
    7570:	00000000 	nop
    7574:	00000000 	nop
    7578:	00000000 	nop
    757c:	00000000 	nop
    7580:	00000000 	nop
    7584:	00000000 	nop
    7588:	00000000 	nop
    758c:	00000000 	nop
    7590:	00000000 	nop
    7594:	00000000 	nop
    7598:	00000000 	nop
    759c:	00000000 	nop
    75a0:	00000000 	nop
    75a4:	00000000 	nop
    75a8:	00000000 	nop
    75ac:	00000000 	nop
    75b0:	00000000 	nop
    75b4:	00000000 	nop
    75b8:	00000000 	nop
    75bc:	00000000 	nop
    75c0:	00000000 	nop
    75c4:	00000000 	nop
    75c8:	00000000 	nop
    75cc:	00000000 	nop
    75d0:	00000000 	nop
    75d4:	00000000 	nop
    75d8:	00000000 	nop
    75dc:	00000000 	nop
    75e0:	00000000 	nop
    75e4:	00000000 	nop
    75e8:	00000000 	nop
    75ec:	00000000 	nop
    75f0:	00000000 	nop
    75f4:	00000000 	nop
    75f8:	00000000 	nop
    75fc:	00000000 	nop
    7600:	00000000 	nop
    7604:	00000000 	nop
    7608:	00000000 	nop
    760c:	00000000 	nop
    7610:	00000000 	nop
    7614:	00000000 	nop
    7618:	00000000 	nop
    761c:	00000000 	nop
    7620:	00000000 	nop
    7624:	00000000 	nop
    7628:	00000000 	nop
    762c:	00000000 	nop
    7630:	00000000 	nop
    7634:	00000000 	nop
    7638:	00000000 	nop
    763c:	00000000 	nop
    7640:	00000000 	nop
    7644:	00000000 	nop
    7648:	00000000 	nop
    764c:	00000000 	nop
    7650:	00000000 	nop
    7654:	00000000 	nop
    7658:	00000000 	nop
    765c:	00000000 	nop
    7660:	00000000 	nop
    7664:	00000000 	nop
    7668:	00000000 	nop
    766c:	00000000 	nop
    7670:	00000000 	nop
    7674:	00000000 	nop
    7678:	00000000 	nop
    767c:	00000000 	nop
    7680:	00000000 	nop
    7684:	00000000 	nop
    7688:	00000000 	nop
    768c:	00000000 	nop
    7690:	00000000 	nop
    7694:	00000000 	nop
    7698:	00000000 	nop
    769c:	00000000 	nop
    76a0:	00000000 	nop
    76a4:	00000000 	nop
    76a8:	00000000 	nop
    76ac:	00000000 	nop
    76b0:	00000000 	nop
    76b4:	00000000 	nop
    76b8:	00000000 	nop
    76bc:	00000000 	nop
    76c0:	00000000 	nop
    76c4:	00000000 	nop
    76c8:	00000000 	nop
    76cc:	00000000 	nop
    76d0:	00000000 	nop
    76d4:	00000000 	nop
    76d8:	00000000 	nop
    76dc:	00000000 	nop
    76e0:	00000000 	nop
    76e4:	00000000 	nop
    76e8:	00000000 	nop
    76ec:	00000000 	nop
    76f0:	00000000 	nop
    76f4:	00000000 	nop
    76f8:	00000000 	nop
    76fc:	00000000 	nop
    7700:	00000000 	nop
    7704:	00000000 	nop
    7708:	00000000 	nop
    770c:	00000000 	nop
    7710:	00000000 	nop
    7714:	00000000 	nop
    7718:	00000000 	nop
    771c:	00000000 	nop
    7720:	00000000 	nop
    7724:	00000000 	nop
    7728:	00000000 	nop
    772c:	00000000 	nop
    7730:	00000000 	nop
    7734:	00000000 	nop
    7738:	00000000 	nop
    773c:	00000000 	nop
    7740:	00000000 	nop
    7744:	00000000 	nop
    7748:	00000000 	nop
    774c:	00000000 	nop
    7750:	00000000 	nop
    7754:	00000000 	nop
    7758:	00000000 	nop
    775c:	00000000 	nop
    7760:	00000000 	nop
    7764:	00000000 	nop
    7768:	00000000 	nop
    776c:	00000000 	nop
    7770:	00000000 	nop
    7774:	00000000 	nop
    7778:	00000000 	nop
    777c:	00000000 	nop
    7780:	00000000 	nop
    7784:	00000000 	nop
    7788:	00000000 	nop
    778c:	00000000 	nop
    7790:	00000000 	nop
    7794:	00000000 	nop
    7798:	00000000 	nop
    779c:	00000000 	nop
    77a0:	00000000 	nop
    77a4:	00000000 	nop
    77a8:	00000000 	nop
    77ac:	00000000 	nop
    77b0:	00000000 	nop
    77b4:	00000000 	nop
    77b8:	00000000 	nop
    77bc:	00000000 	nop
    77c0:	00000000 	nop
    77c4:	00000000 	nop
    77c8:	00000000 	nop
    77cc:	00000000 	nop
    77d0:	00000000 	nop
    77d4:	00000000 	nop
    77d8:	00000000 	nop
    77dc:	00000000 	nop
    77e0:	00000000 	nop
    77e4:	00000000 	nop
    77e8:	00000000 	nop
    77ec:	00000000 	nop
    77f0:	00000000 	nop
    77f4:	00000000 	nop
    77f8:	00000000 	nop
    77fc:	00000000 	nop
    7800:	00000000 	nop
    7804:	00000000 	nop
    7808:	00000000 	nop
    780c:	00000000 	nop
    7810:	00000000 	nop
    7814:	00000000 	nop
    7818:	00000000 	nop
    781c:	00000000 	nop
    7820:	00000000 	nop
    7824:	00000000 	nop
    7828:	00000000 	nop
    782c:	00000000 	nop
    7830:	00000000 	nop
    7834:	00000000 	nop
    7838:	00000000 	nop
    783c:	00000000 	nop
    7840:	00000000 	nop
    7844:	00000000 	nop
    7848:	00000000 	nop
    784c:	00000000 	nop
    7850:	00000000 	nop
    7854:	00000000 	nop
    7858:	00000000 	nop
    785c:	00000000 	nop
    7860:	00000000 	nop
    7864:	00000000 	nop
    7868:	00000000 	nop
    786c:	00000000 	nop
    7870:	00000000 	nop
    7874:	00000000 	nop
    7878:	00000000 	nop
    787c:	00000000 	nop
    7880:	00000000 	nop
    7884:	00000000 	nop
    7888:	00000000 	nop
    788c:	00000000 	nop
    7890:	00000000 	nop
    7894:	00000000 	nop
    7898:	00000000 	nop
    789c:	00000000 	nop
    78a0:	00000000 	nop
    78a4:	00000000 	nop
    78a8:	00000000 	nop
    78ac:	00000000 	nop
    78b0:	00000000 	nop
    78b4:	00000000 	nop
    78b8:	00000000 	nop
    78bc:	00000000 	nop
    78c0:	00000000 	nop
    78c4:	00000000 	nop
    78c8:	00000000 	nop
    78cc:	00000000 	nop
    78d0:	00000000 	nop
    78d4:	00000000 	nop
    78d8:	00000000 	nop
    78dc:	00000000 	nop
    78e0:	00000000 	nop
    78e4:	00000000 	nop
    78e8:	00000000 	nop
    78ec:	00000000 	nop
    78f0:	00000000 	nop
    78f4:	00000000 	nop
    78f8:	00000000 	nop
    78fc:	00000000 	nop
    7900:	00000000 	nop
    7904:	00000000 	nop
    7908:	00000000 	nop
    790c:	00000000 	nop
    7910:	00000000 	nop
    7914:	00000000 	nop
    7918:	00000000 	nop
    791c:	00000000 	nop
    7920:	00000000 	nop
    7924:	00000000 	nop
    7928:	00000000 	nop
    792c:	00000000 	nop
    7930:	00000000 	nop
    7934:	00000000 	nop
    7938:	00000000 	nop
    793c:	00000000 	nop
    7940:	00000000 	nop
    7944:	00000000 	nop
    7948:	00000000 	nop
    794c:	00000000 	nop
    7950:	00000000 	nop
    7954:	00000000 	nop
    7958:	00000000 	nop
    795c:	00000000 	nop
    7960:	00000000 	nop
    7964:	00000000 	nop
    7968:	00000000 	nop
    796c:	00000000 	nop
    7970:	00000000 	nop
    7974:	00000000 	nop
    7978:	00000000 	nop
    797c:	00000000 	nop
    7980:	00000000 	nop
    7984:	00000000 	nop
    7988:	00000000 	nop
    798c:	00000000 	nop
    7990:	00000000 	nop
    7994:	00000000 	nop
    7998:	00000000 	nop
    799c:	00000000 	nop
    79a0:	00000000 	nop
    79a4:	00000000 	nop
    79a8:	00000000 	nop
    79ac:	00000000 	nop
    79b0:	00000000 	nop
    79b4:	00000000 	nop
    79b8:	00000000 	nop
    79bc:	00000000 	nop
    79c0:	00000000 	nop
    79c4:	00000000 	nop
    79c8:	00000000 	nop
    79cc:	00000000 	nop
    79d0:	00000000 	nop
    79d4:	00000000 	nop
    79d8:	00000000 	nop
    79dc:	00000000 	nop
    79e0:	00000000 	nop
    79e4:	00000000 	nop
    79e8:	00000000 	nop
    79ec:	00000000 	nop
    79f0:	00000000 	nop
    79f4:	00000000 	nop
    79f8:	00000000 	nop
    79fc:	00000000 	nop
    7a00:	00000000 	nop
    7a04:	00000000 	nop
    7a08:	00000000 	nop
    7a0c:	00000000 	nop
    7a10:	00000000 	nop
    7a14:	00000000 	nop
    7a18:	00000000 	nop
    7a1c:	00000000 	nop
    7a20:	00000000 	nop
    7a24:	00000000 	nop
    7a28:	00000000 	nop
    7a2c:	00000000 	nop
    7a30:	00000000 	nop
    7a34:	00000000 	nop
    7a38:	00000000 	nop
    7a3c:	00000000 	nop
    7a40:	00000000 	nop
    7a44:	00000000 	nop
    7a48:	00000000 	nop
    7a4c:	00000000 	nop
    7a50:	00000000 	nop
    7a54:	00000000 	nop
    7a58:	00000000 	nop
    7a5c:	00000000 	nop
    7a60:	00000000 	nop
    7a64:	00000000 	nop
    7a68:	00000000 	nop
    7a6c:	00000000 	nop
    7a70:	00000000 	nop
    7a74:	00000000 	nop
    7a78:	00000000 	nop
    7a7c:	00000000 	nop
    7a80:	00000000 	nop
    7a84:	00000000 	nop
    7a88:	00000000 	nop
    7a8c:	00000000 	nop
    7a90:	00000000 	nop
    7a94:	00000000 	nop
    7a98:	00000000 	nop
    7a9c:	00000000 	nop
    7aa0:	00000000 	nop
    7aa4:	00000000 	nop
    7aa8:	00000000 	nop
    7aac:	00000000 	nop
    7ab0:	00000000 	nop
    7ab4:	00000000 	nop
    7ab8:	00000000 	nop
    7abc:	00000000 	nop
    7ac0:	00000000 	nop
    7ac4:	00000000 	nop
    7ac8:	00000000 	nop
    7acc:	00000000 	nop
    7ad0:	00000000 	nop
    7ad4:	00000000 	nop
    7ad8:	00000000 	nop
    7adc:	00000000 	nop
    7ae0:	00000000 	nop
    7ae4:	00000000 	nop
    7ae8:	00000000 	nop
    7aec:	00000000 	nop
    7af0:	00000000 	nop
    7af4:	00000000 	nop
    7af8:	00000000 	nop
    7afc:	00000000 	nop
    7b00:	00000000 	nop
    7b04:	00000000 	nop
    7b08:	00000000 	nop
    7b0c:	00000000 	nop
    7b10:	00000000 	nop
    7b14:	00000000 	nop
    7b18:	00000000 	nop
    7b1c:	00000000 	nop
    7b20:	00000000 	nop
    7b24:	00000000 	nop
    7b28:	00000000 	nop
    7b2c:	00000000 	nop
    7b30:	00000000 	nop
    7b34:	00000000 	nop
    7b38:	00000000 	nop
    7b3c:	00000000 	nop
    7b40:	00000000 	nop
    7b44:	00000000 	nop
    7b48:	00000000 	nop
    7b4c:	00000000 	nop
    7b50:	00000000 	nop
    7b54:	00000000 	nop
    7b58:	00000000 	nop
    7b5c:	00000000 	nop
    7b60:	00000000 	nop
    7b64:	00000000 	nop
    7b68:	00000000 	nop
    7b6c:	00000000 	nop
    7b70:	00000000 	nop
    7b74:	00000000 	nop
    7b78:	00000000 	nop
    7b7c:	00000000 	nop
    7b80:	00000000 	nop
    7b84:	00000000 	nop
    7b88:	00000000 	nop
    7b8c:	00000000 	nop
    7b90:	00000000 	nop
    7b94:	00000000 	nop
    7b98:	00000000 	nop
    7b9c:	00000000 	nop
    7ba0:	00000000 	nop
    7ba4:	00000000 	nop
    7ba8:	00000000 	nop
    7bac:	00000000 	nop
    7bb0:	00000000 	nop
    7bb4:	00000000 	nop
    7bb8:	00000000 	nop
    7bbc:	00000000 	nop
    7bc0:	00000000 	nop
    7bc4:	00000000 	nop
    7bc8:	00000000 	nop
    7bcc:	00000000 	nop
    7bd0:	00000000 	nop
    7bd4:	00000000 	nop
    7bd8:	00000000 	nop
    7bdc:	00000000 	nop
    7be0:	00000000 	nop
    7be4:	00000000 	nop
    7be8:	00000000 	nop
    7bec:	00000000 	nop
    7bf0:	00000000 	nop
    7bf4:	00000000 	nop
    7bf8:	00000000 	nop
    7bfc:	00000000 	nop
    7c00:	00000000 	nop
    7c04:	00000000 	nop
    7c08:	00000000 	nop
    7c0c:	00000000 	nop
    7c10:	00000000 	nop
    7c14:	00000000 	nop
    7c18:	00000000 	nop
    7c1c:	00000000 	nop
    7c20:	00000000 	nop
    7c24:	00000000 	nop
    7c28:	00000000 	nop
    7c2c:	00000000 	nop
    7c30:	00000000 	nop
    7c34:	00000000 	nop
    7c38:	00000000 	nop
    7c3c:	00000000 	nop
    7c40:	00000000 	nop
    7c44:	00000000 	nop
    7c48:	00000000 	nop
    7c4c:	00000000 	nop
    7c50:	00000000 	nop
    7c54:	00000000 	nop
    7c58:	00000000 	nop
    7c5c:	00000000 	nop
    7c60:	00000000 	nop
    7c64:	00000000 	nop
    7c68:	00000000 	nop
    7c6c:	00000000 	nop
    7c70:	00000000 	nop
    7c74:	00000000 	nop
    7c78:	00000000 	nop
    7c7c:	00000000 	nop
    7c80:	00000000 	nop
    7c84:	00000000 	nop
    7c88:	00000000 	nop
    7c8c:	00000000 	nop
    7c90:	00000000 	nop
    7c94:	00000000 	nop
    7c98:	00000000 	nop
    7c9c:	00000000 	nop
    7ca0:	00000000 	nop
    7ca4:	00000000 	nop
    7ca8:	00000000 	nop
    7cac:	00000000 	nop
    7cb0:	00000000 	nop
    7cb4:	00000000 	nop
    7cb8:	00000000 	nop
    7cbc:	00000000 	nop
    7cc0:	00000000 	nop
    7cc4:	00000000 	nop
    7cc8:	00000000 	nop
    7ccc:	00000000 	nop
    7cd0:	00000000 	nop
    7cd4:	00000000 	nop
    7cd8:	00000000 	nop
    7cdc:	00000000 	nop
    7ce0:	00000000 	nop
    7ce4:	00000000 	nop
    7ce8:	00000000 	nop
    7cec:	00000000 	nop
    7cf0:	00000000 	nop
    7cf4:	00000000 	nop
    7cf8:	00000000 	nop
    7cfc:	00000000 	nop
    7d00:	00000000 	nop
    7d04:	00000000 	nop
    7d08:	00000000 	nop
    7d0c:	00000000 	nop
    7d10:	00000000 	nop
    7d14:	00000000 	nop
    7d18:	00000000 	nop
    7d1c:	00000000 	nop
    7d20:	00000000 	nop
    7d24:	00000000 	nop
    7d28:	00000000 	nop
    7d2c:	00000000 	nop
    7d30:	00000000 	nop
    7d34:	00000000 	nop
    7d38:	00000000 	nop
    7d3c:	00000000 	nop
    7d40:	00000000 	nop
    7d44:	00000000 	nop
    7d48:	00000000 	nop
    7d4c:	00000000 	nop
    7d50:	00000000 	nop
    7d54:	00000000 	nop
    7d58:	00000000 	nop
    7d5c:	00000000 	nop
    7d60:	00000000 	nop
    7d64:	00000000 	nop
    7d68:	00000000 	nop
    7d6c:	00000000 	nop
    7d70:	00000000 	nop
    7d74:	00000000 	nop
    7d78:	00000000 	nop
    7d7c:	00000000 	nop
    7d80:	00000000 	nop
    7d84:	00000000 	nop
    7d88:	00000000 	nop
    7d8c:	00000000 	nop
    7d90:	00000000 	nop
    7d94:	00000000 	nop
    7d98:	00000000 	nop
    7d9c:	00000000 	nop
    7da0:	00000000 	nop
    7da4:	00000000 	nop
    7da8:	00000000 	nop
    7dac:	00000000 	nop
    7db0:	00000000 	nop
    7db4:	00000000 	nop
    7db8:	00000000 	nop
    7dbc:	00000000 	nop
    7dc0:	00000000 	nop
    7dc4:	00000000 	nop
    7dc8:	00000000 	nop
    7dcc:	00000000 	nop
    7dd0:	00000000 	nop
    7dd4:	00000000 	nop
    7dd8:	00000000 	nop
    7ddc:	00000000 	nop
    7de0:	00000000 	nop
    7de4:	00000000 	nop
    7de8:	00000000 	nop
    7dec:	00000000 	nop
    7df0:	00000000 	nop
    7df4:	00000000 	nop
    7df8:	00000000 	nop
    7dfc:	00000000 	nop
    7e00:	00000000 	nop
    7e04:	00000000 	nop
    7e08:	00000000 	nop
    7e0c:	00000000 	nop
    7e10:	00000000 	nop
    7e14:	00000000 	nop
    7e18:	00000000 	nop
    7e1c:	00000000 	nop
    7e20:	00000000 	nop
    7e24:	00000000 	nop
    7e28:	00000000 	nop
    7e2c:	00000000 	nop
    7e30:	00000000 	nop
    7e34:	00000000 	nop
    7e38:	00000000 	nop
    7e3c:	00000000 	nop
    7e40:	00000000 	nop
    7e44:	00000000 	nop
    7e48:	00000000 	nop
    7e4c:	00000000 	nop
    7e50:	00000000 	nop
    7e54:	00000000 	nop
    7e58:	00000000 	nop
    7e5c:	00000000 	nop
    7e60:	00000000 	nop
    7e64:	00000000 	nop
    7e68:	00000000 	nop
    7e6c:	00000000 	nop
    7e70:	00000000 	nop
    7e74:	00000000 	nop
    7e78:	00000000 	nop
    7e7c:	00000000 	nop
    7e80:	00000000 	nop
    7e84:	00000000 	nop
    7e88:	00000000 	nop
    7e8c:	00000000 	nop
    7e90:	00000000 	nop
    7e94:	00000000 	nop
    7e98:	00000000 	nop
    7e9c:	00000000 	nop
    7ea0:	00000000 	nop
    7ea4:	00000000 	nop
    7ea8:	00000000 	nop
    7eac:	00000000 	nop
    7eb0:	00000000 	nop
    7eb4:	00000000 	nop
    7eb8:	00000000 	nop
    7ebc:	00000000 	nop
    7ec0:	00000000 	nop
    7ec4:	00000000 	nop
    7ec8:	00000000 	nop
    7ecc:	00000000 	nop
    7ed0:	00000000 	nop
    7ed4:	00000000 	nop
    7ed8:	00000000 	nop
    7edc:	00000000 	nop
    7ee0:	00000000 	nop
    7ee4:	00000000 	nop
    7ee8:	00000000 	nop
    7eec:	00000000 	nop
    7ef0:	00000000 	nop
    7ef4:	00000000 	nop
    7ef8:	00000000 	nop
    7efc:	00000000 	nop
    7f00:	00000000 	nop
    7f04:	00000000 	nop
    7f08:	00000000 	nop
    7f0c:	00000000 	nop
    7f10:	00000000 	nop
    7f14:	00000000 	nop
    7f18:	00000000 	nop
    7f1c:	00000000 	nop
    7f20:	00000000 	nop
    7f24:	00000000 	nop
    7f28:	00000000 	nop
    7f2c:	00000000 	nop
    7f30:	00000000 	nop
    7f34:	00000000 	nop
    7f38:	00000000 	nop
    7f3c:	00000000 	nop
    7f40:	00000000 	nop
    7f44:	00000000 	nop
    7f48:	00000000 	nop
    7f4c:	00000000 	nop
    7f50:	00000000 	nop
    7f54:	00000000 	nop
    7f58:	00000000 	nop
    7f5c:	00000000 	nop
    7f60:	00000000 	nop
    7f64:	00000000 	nop
    7f68:	00000000 	nop
    7f6c:	00000000 	nop
    7f70:	00000000 	nop
    7f74:	00000000 	nop
    7f78:	00000000 	nop
    7f7c:	00000000 	nop
    7f80:	00000000 	nop
    7f84:	00000000 	nop
    7f88:	00000000 	nop
    7f8c:	00000000 	nop
    7f90:	00000000 	nop
    7f94:	00000000 	nop
    7f98:	00000000 	nop
    7f9c:	00000000 	nop
    7fa0:	00000000 	nop
    7fa4:	00000000 	nop
    7fa8:	00000000 	nop
    7fac:	00000000 	nop
    7fb0:	00000000 	nop
    7fb4:	00000000 	nop
    7fb8:	00000000 	nop
    7fbc:	00000000 	nop
    7fc0:	00000000 	nop
    7fc4:	00000000 	nop
    7fc8:	00000000 	nop
    7fcc:	00000000 	nop
    7fd0:	00000000 	nop
    7fd4:	00000000 	nop
    7fd8:	00000000 	nop
    7fdc:	00000000 	nop
    7fe0:	00000000 	nop
    7fe4:	00000000 	nop
    7fe8:	00000000 	nop
    7fec:	00000000 	nop
    7ff0:	00000000 	nop
    7ff4:	00000000 	nop
    7ff8:	00000000 	nop
    7ffc:	00000000 	nop
