
main:     file format elf32-bigmips


Disassembly of section .init:

00000000 <_start>:
   0:	241dffff 	li	sp,-1
   4:	3c028000 	lui	v0,0x8000
   8:	8c420738 	lw	v0,1848(v0)
   c:	00000000 	nop
  10:	0040f809 	jalr	v0
  14:	00000000 	nop
  18:	0c000189 	jal	624 <main>
  1c:	00000000 	nop

Disassembly of section .boot:

00000020 <uart_read_waiting()>:
  20:	0800000b 	j	2c <uart_read_waiting()+0xc>
  24:	00000000 	nop
  28:	00000000 	nop
  2c:	8c020018 	lw	v0,24(zero)
  30:	00000000 	nop
  34:	00021403 	sra	v0,v0,0x10
  38:	1440fffb 	bnez	v0,28 <uart_read_waiting()+0x8>
  3c:	00000000 	nop
  40:	8c020018 	lw	v0,24(zero)
  44:	ac000018 	sw	zero,24(zero)
  48:	00021600 	sll	v0,v0,0x18
  4c:	03e00008 	jr	ra
  50:	00021603 	sra	v0,v0,0x18

00000054 <read_2b()>:
  54:	27bdffe8 	addiu	sp,sp,-24
  58:	afbf0014 	sw	ra,20(sp)
  5c:	0c000008 	jal	20 <uart_read_waiting()>
  60:	afb00010 	sw	s0,16(sp)
  64:	0c000008 	jal	20 <uart_read_waiting()>
  68:	00408021 	move	s0,v0
  6c:	3042ffff 	andi	v0,v0,0xffff
  70:	3210ffff 	andi	s0,s0,0xffff
  74:	8fbf0014 	lw	ra,20(sp)
  78:	00021200 	sll	v0,v0,0x8
  7c:	00501025 	or	v0,v0,s0
  80:	3042ffff 	andi	v0,v0,0xffff
  84:	8fb00010 	lw	s0,16(sp)
  88:	03e00008 	jr	ra
  8c:	27bd0018 	addiu	sp,sp,24

00000090 <uart_write_waiting(char)>:
  90:	08000027 	j	9c <uart_write_waiting(char)+0xc>
  94:	2402001f 	li	v0,31
  98:	00000000 	nop
  9c:	8c030014 	lw	v1,20(zero)
  a0:	00000000 	nop
  a4:	1062fffc 	beq	v1,v0,98 <uart_write_waiting(char)+0x8>
  a8:	00000000 	nop
  ac:	03e00008 	jr	ra
  b0:	ac040014 	sw	a0,20(zero)

000000b4 <uart_write_write_message_response(unsigned short)>:
  b4:	27bdffe8 	addiu	sp,sp,-24
  b8:	afb00010 	sw	s0,16(sp)
  bc:	00808021 	move	s0,a0
  c0:	afbf0014 	sw	ra,20(sp)
  c4:	0c000024 	jal	90 <uart_write_waiting(char)>
  c8:	00002021 	move	a0,zero
  cc:	00102600 	sll	a0,s0,0x18
  d0:	0c000024 	jal	90 <uart_write_waiting(char)>
  d4:	00042603 	sra	a0,a0,0x18
  d8:	00102203 	sra	a0,s0,0x8
  dc:	8fbf0014 	lw	ra,20(sp)
  e0:	8fb00010 	lw	s0,16(sp)
  e4:	00042600 	sll	a0,a0,0x18
  e8:	00042603 	sra	a0,a0,0x18
  ec:	08000024 	j	90 <uart_write_waiting(char)>
  f0:	27bd0018 	addiu	sp,sp,24

000000f4 <crc16(unsigned char*, unsigned short)>:
  f4:	3402ffff 	li	v0,0xffff
  f8:	08000050 	j	140 <crc16(unsigned char*, unsigned short)+0x4c>
  fc:	3407ffff 	li	a3,0xffff
 100:	90830000 	lbu	v1,0(a0)
 104:	24840001 	addiu	a0,a0,1
 108:	00031a00 	sll	v1,v1,0x8
 10c:	00621026 	xor	v0,v1,v0
 110:	24030008 	li	v1,8
 114:	00024400 	sll	t0,v0,0x10
 118:	00023040 	sll	a2,v0,0x1
 11c:	00084403 	sra	t0,t0,0x10
 120:	05010003 	bgez	t0,130 <crc16(unsigned char*, unsigned short)+0x3c>
 124:	30c2ffff 	andi	v0,a2,0xffff
 128:	38c21021 	xori	v0,a2,0x1021
 12c:	3042ffff 	andi	v0,v0,0xffff
 130:	2463ffff 	addiu	v1,v1,-1
 134:	306300ff 	andi	v1,v1,0xff
 138:	1460fff7 	bnez	v1,118 <crc16(unsigned char*, unsigned short)+0x24>
 13c:	00024400 	sll	t0,v0,0x10
 140:	24a5ffff 	addiu	a1,a1,-1
 144:	30a5ffff 	andi	a1,a1,0xffff
 148:	14a7ffed 	bne	a1,a3,100 <crc16(unsigned char*, unsigned short)+0xc>
 14c:	00000000 	nop
 150:	03e00008 	jr	ra
 154:	00000000 	nop

00000158 <bootloader_main>:
 158:	27bdffa0 	addiu	sp,sp,-96
 15c:	afb60054 	sw	s6,84(sp)
 160:	afb50050 	sw	s5,80(sp)
 164:	afb4004c 	sw	s4,76(sp)
 168:	afb30048 	sw	s3,72(sp)
 16c:	afbf005c 	sw	ra,92(sp)
 170:	afb70058 	sw	s7,88(sp)
 174:	afb20044 	sw	s2,68(sp)
 178:	afb10040 	sw	s1,64(sp)
 17c:	afb0003c 	sw	s0,60(sp)
 180:	2414003f 	li	s4,63
 184:	24150002 	li	s5,2
 188:	3c160000 	lui	s6,0x0
 18c:	3c130000 	lui	s3,0x0
 190:	0c000008 	jal	20 <uart_read_waiting()>
 194:	00000000 	nop
 198:	10540087 	beq	v0,s4,3b8 <BOOTLOADER_SIZE+0x8>
 19c:	24040021 	li	a0,33
 1a0:	14550003 	bne	v0,s5,1b0 <bootloader_main+0x58>
 1a4:	00000000 	nop
 1a8:	0c000000 	jal	0 <_start>
 1ac:	00000000 	nop
 1b0:	1440005a 	bnez	v0,31c <bootloader_main+0x1c4>
 1b4:	24030001 	li	v1,1
 1b8:	00008021 	move	s0,zero
 1bc:	24110006 	li	s1,6
 1c0:	0c000008 	jal	20 <uart_read_waiting()>
 1c4:	00000000 	nop
 1c8:	27a40010 	addiu	a0,sp,16
 1cc:	00901821 	addu	v1,a0,s0
 1d0:	26100001 	addiu	s0,s0,1
 1d4:	1611fffa 	bne	s0,s1,1c0 <bootloader_main+0x68>
 1d8:	a0620000 	sb	v0,0(v1)
 1dc:	93b20015 	lbu	s2,21(sp)
 1e0:	93a20014 	lbu	v0,20(sp)
 1e4:	00129200 	sll	s2,s2,0x8
 1e8:	02429025 	or	s2,s2,v0
 1ec:	3252ffff 	andi	s2,s2,0xffff
 1f0:	24100006 	li	s0,6
 1f4:	08000085 	j	214 <bootloader_main+0xbc>
 1f8:	26510006 	addiu	s1,s2,6
 1fc:	0c000008 	jal	20 <uart_read_waiting()>
 200:	00000000 	nop
 204:	27a60010 	addiu	a2,sp,16
 208:	00d01821 	addu	v1,a2,s0
 20c:	a0620000 	sb	v0,0(v1)
 210:	26100001 	addiu	s0,s0,1
 214:	0211102b 	sltu	v0,s0,s1
 218:	1440fff8 	bnez	v0,1fc <bootloader_main+0xa4>
 21c:	00000000 	nop
 220:	0c000015 	jal	54 <read_2b()>
 224:	00000000 	nop
 228:	27a40010 	addiu	a0,sp,16
 22c:	3225ffff 	andi	a1,s1,0xffff
 230:	0c00003d 	jal	f4 <crc16(unsigned char*, unsigned short)>
 234:	00408021 	move	s0,v0
 238:	16020034 	bne	s0,v0,30c <bootloader_main+0x1b4>
 23c:	00002021 	move	a0,zero
 240:	93a30013 	lbu	v1,19(sp)
 244:	93a20010 	lbu	v0,16(sp)
 248:	2c630018 	sltiu	v1,v1,24
 24c:	00621825 	or	v1,v1,v0
 250:	93a20011 	lbu	v0,17(sp)
 254:	8ec40020 	lw	a0,32(s6)
 258:	00021200 	sll	v0,v0,0x8
 25c:	00621825 	or	v1,v1,v0
 260:	93a20012 	lbu	v0,18(sp)
 264:	00000000 	nop
 268:	00021400 	sll	v0,v0,0x10
 26c:	00621825 	or	v1,v1,v0
 270:	0064282b 	sltu	a1,v1,a0
 274:	14a00008 	bnez	a1,298 <bootloader_main+0x140>
 278:	00721021 	addu	v0,v1,s2
 27c:	8e6503d0 	lw	a1,976(s3)
 280:	00000000 	nop
 284:	00a3282b 	sltu	a1,a1,v1
 288:	14a00004 	bnez	a1,29c <bootloader_main+0x144>
 28c:	0044282b 	sltu	a1,v0,a0
 290:	080000c3 	j	30c <bootloader_main+0x1b4>
 294:	00002021 	move	a0,zero
 298:	0044282b 	sltu	a1,v0,a0
 29c:	14a00006 	bnez	a1,2b8 <bootloader_main+0x160>
 2a0:	00000000 	nop
 2a4:	8e6503d0 	lw	a1,976(s3)
 2a8:	00000000 	nop
 2ac:	00a2282b 	sltu	a1,a1,v0
 2b0:	10a0fff7 	beqz	a1,290 <bootloader_main+0x138>
 2b4:	00000000 	nop
 2b8:	0083202b 	sltu	a0,a0,v1
 2bc:	1480000e 	bnez	a0,2f8 <bootloader_main+0x1a0>
 2c0:	00000000 	nop
 2c4:	8e6403d0 	lw	a0,976(s3)
 2c8:	00000000 	nop
 2cc:	0044102b 	sltu	v0,v0,a0
 2d0:	1040ffef 	beqz	v0,290 <bootloader_main+0x138>
 2d4:	24020006 	li	v0,6
 2d8:	080000c0 	j	300 <bootloader_main+0x1a8>
 2dc:	0051202b 	sltu	a0,v0,s1
 2e0:	00c22821 	addu	a1,a2,v0
 2e4:	90a50000 	lbu	a1,0(a1)
 2e8:	00432021 	addu	a0,v0,v1
 2ec:	a085fffa 	sb	a1,-6(a0)
 2f0:	080000bf 	j	2fc <bootloader_main+0x1a4>
 2f4:	24420001 	addiu	v0,v0,1
 2f8:	24020006 	li	v0,6
 2fc:	0051202b 	sltu	a0,v0,s1
 300:	1480fff7 	bnez	a0,2e0 <bootloader_main+0x188>
 304:	27a60010 	addiu	a2,sp,16
 308:	02402021 	move	a0,s2
 30c:	0c00002d 	jal	b4 <uart_write_write_message_response(unsigned short)>
 310:	00000000 	nop
 314:	08000064 	j	190 <bootloader_main+0x38>
 318:	00000000 	nop
 31c:	14430026 	bne	v0,v1,3b8 <BOOTLOADER_SIZE+0x8>
 320:	2404003f 	li	a0,63
 324:	00008021 	move	s0,zero
 328:	00008821 	move	s1,zero
 32c:	24120020 	li	s2,32
 330:	0c000008 	jal	20 <uart_read_waiting()>
 334:	00000000 	nop
 338:	02021004 	sllv	v0,v0,s0
 33c:	26100008 	addiu	s0,s0,8
 340:	1612fffb 	bne	s0,s2,330 <bootloader_main+0x1d8>
 344:	02228825 	or	s1,s1,v0
 348:	0c000015 	jal	54 <read_2b()>
 34c:	00000000 	nop
 350:	00408021 	move	s0,v0
 354:	2c420020 	sltiu	v0,v0,32
 358:	10400002 	beqz	v0,364 <bootloader_main+0x20c>
 35c:	00000000 	nop
 360:	24100020 	li	s0,32
 364:	0c000024 	jal	90 <uart_write_waiting(char)>
 368:	24040001 	li	a0,1
 36c:	02202021 	move	a0,s1
 370:	0c00003d 	jal	f4 <crc16(unsigned char*, unsigned short)>
 374:	02002821 	move	a1,s0
 378:	0040b821 	move	s7,v0
 37c:	00009021 	move	s2,zero
 380:	02511021 	addu	v0,s2,s1
 384:	80440000 	lb	a0,0(v0)
 388:	0c000024 	jal	90 <uart_write_waiting(char)>
 38c:	26520001 	addiu	s2,s2,1
 390:	0250102a 	slt	v0,s2,s0
 394:	1440fffb 	bnez	v0,384 <bootloader_main+0x22c>
 398:	02511021 	addu	v0,s2,s1
 39c:	00172600 	sll	a0,s7,0x18
 3a0:	0c000024 	jal	90 <uart_write_waiting(char)>
 3a4:	00042603 	sra	a0,a0,0x18
 3a8:	00172203 	sra	a0,s7,0x8
 3ac:	00042600 	sll	a0,a0,0x18
 3b0:	080000ee 	j	3b8 <BOOTLOADER_SIZE+0x8>
 3b4:	00042603 	sra	a0,a0,0x18
 3b8:	0c000024 	jal	90 <uart_write_waiting(char)>
 3bc:	00000000 	nop
 3c0:	08000064 	j	190 <bootloader_main+0x38>
 3c4:	00000000 	nop

Disassembly of section .tramp:

000003c8 <bootloader_enter>:
 3c8:	0c000056 	jal	158 <bootloader_main>
 3cc:	241dffff 	li	sp,-1

Disassembly of section .text:

000003d0 <_GLOBAL__sub_I__ZN6System7Tasking4Pool16xbeeReadIdleTaskE.4424.1318>:
     3d0:	27bdffe8 	addiu	sp,sp,-24
     3d4:	3c038000 	lui	v1,0x8000
     3d8:	3c048000 	lui	a0,0x8000
     3dc:	24620564 	addiu	v0,v1,1380
     3e0:	24840340 	addiu	a0,a0,832
     3e4:	afb00010 	sw	s0,16(sp)
     3e8:	3c108000 	lui	s0,0x8000
     3ec:	afbf0014 	sw	ra,20(sp)
     3f0:	ac640564 	sw	a0,1380(v1)
     3f4:	ac400004 	sw	zero,4(v0)
     3f8:	260405b0 	addiu	a0,s0,1456
     3fc:	ac400008 	sw	zero,8(v0)
     400:	ac40000c 	sw	zero,12(v0)
     404:	ac400010 	sw	zero,16(v0)
     408:	ac400014 	sw	zero,20(v0)
     40c:	ac400040 	sw	zero,64(v0)
     410:	a0400044 	sb	zero,68(v0)
     414:	0c0003e5 	jal	f94 <_ZN6System7Tasking14ContinuousTaskC2Ev.local.6>
     418:	ac400048 	sw	zero,72(v0)
     41c:	3c028000 	lui	v0,0x8000
     420:	24420320 	addiu	v0,v0,800
     424:	ae0205b0 	sw	v0,1456(s0)
     428:	3c108000 	lui	s0,0x8000
     42c:	0c0003e5 	jal	f94 <_ZN6System7Tasking14ContinuousTaskC2Ev.local.6>
     430:	260404a8 	addiu	a0,s0,1192
     434:	3c028000 	lui	v0,0x8000
     438:	24420310 	addiu	v0,v0,784
     43c:	0c0003ee 	jal	fb8 <_ZN6System8Registry8instanceEv.local.11>
     440:	ae0204a8 	sw	v0,1192(s0)
     444:	261004a8 	addiu	s0,s0,1192
     448:	244200b8 	addiu	v0,v0,184
     44c:	0c0003ee 	jal	fb8 <_ZN6System8Registry8instanceEv.local.11>
     450:	ae02001c 	sw	v0,28(s0)
     454:	244200bc 	addiu	v0,v0,188
     458:	0c0003ee 	jal	fb8 <_ZN6System8Registry8instanceEv.local.11>
     45c:	ae020020 	sw	v0,32(s0)
     460:	244200c0 	addiu	v0,v0,192
     464:	0c0003ee 	jal	fb8 <_ZN6System8Registry8instanceEv.local.11>
     468:	ae020024 	sw	v0,36(s0)
     46c:	244200c4 	addiu	v0,v0,196
     470:	0c0003ee 	jal	fb8 <_ZN6System8Registry8instanceEv.local.11>
     474:	ae020028 	sw	v0,40(s0)
     478:	244200a8 	addiu	v0,v0,168
     47c:	0c0003ee 	jal	fb8 <_ZN6System8Registry8instanceEv.local.11>
     480:	ae02002c 	sw	v0,44(s0)
     484:	244200b4 	addiu	v0,v0,180
     488:	0c0003ee 	jal	fb8 <_ZN6System8Registry8instanceEv.local.11>
     48c:	ae020030 	sw	v0,48(s0)
     490:	244200b8 	addiu	v0,v0,184
     494:	0c0003ee 	jal	fb8 <_ZN6System8Registry8instanceEv.local.11>
     498:	ae020044 	sw	v0,68(s0)
     49c:	244200bc 	addiu	v0,v0,188
     4a0:	0c0003ee 	jal	fb8 <_ZN6System8Registry8instanceEv.local.11>
     4a4:	ae020048 	sw	v0,72(s0)
     4a8:	244200c0 	addiu	v0,v0,192
     4ac:	0c0003ee 	jal	fb8 <_ZN6System8Registry8instanceEv.local.11>
     4b0:	ae02004c 	sw	v0,76(s0)
     4b4:	244200c4 	addiu	v0,v0,196
     4b8:	0c0003ee 	jal	fb8 <_ZN6System8Registry8instanceEv.local.11>
     4bc:	ae020050 	sw	v0,80(s0)
     4c0:	244200a0 	addiu	v0,v0,160
     4c4:	0c0003ee 	jal	fb8 <_ZN6System8Registry8instanceEv.local.11>
     4c8:	ae020054 	sw	v0,84(s0)
     4cc:	244200ac 	addiu	v0,v0,172
     4d0:	0c0003ee 	jal	fb8 <_ZN6System8Registry8instanceEv.local.11>
     4d4:	ae020058 	sw	v0,88(s0)
     4d8:	244200c8 	addiu	v0,v0,200
     4dc:	0c0003ee 	jal	fb8 <_ZN6System8Registry8instanceEv.local.11>
     4e0:	ae02006c 	sw	v0,108(s0)
     4e4:	244200cc 	addiu	v0,v0,204
     4e8:	0c0003ee 	jal	fb8 <_ZN6System8Registry8instanceEv.local.11>
     4ec:	ae020070 	sw	v0,112(s0)
     4f0:	244200d0 	addiu	v0,v0,208
     4f4:	0c0003ee 	jal	fb8 <_ZN6System8Registry8instanceEv.local.11>
     4f8:	ae020074 	sw	v0,116(s0)
     4fc:	244200d4 	addiu	v0,v0,212
     500:	0c0003ee 	jal	fb8 <_ZN6System8Registry8instanceEv.local.11>
     504:	ae020078 	sw	v0,120(s0)
     508:	244200a4 	addiu	v0,v0,164
     50c:	0c0003ee 	jal	fb8 <_ZN6System8Registry8instanceEv.local.11>
     510:	ae02007c 	sw	v0,124(s0)
     514:	244200b0 	addiu	v0,v0,176
     518:	0c0003ee 	jal	fb8 <_ZN6System8Registry8instanceEv.local.11>
     51c:	ae020080 	sw	v0,128(s0)
     520:	244200d8 	addiu	v0,v0,216
     524:	0c0003ee 	jal	fb8 <_ZN6System8Registry8instanceEv.local.11>
     528:	ae020094 	sw	v0,148(s0)
     52c:	244200dc 	addiu	v0,v0,220
     530:	0c0003ee 	jal	fb8 <_ZN6System8Registry8instanceEv.local.11>
     534:	ae020098 	sw	v0,152(s0)
     538:	244200e0 	addiu	v0,v0,224
     53c:	0c0003ee 	jal	fb8 <_ZN6System8Registry8instanceEv.local.11>
     540:	ae02009c 	sw	v0,156(s0)
     544:	244200e4 	addiu	v0,v0,228
     548:	0c0003ee 	jal	fb8 <_ZN6System8Registry8instanceEv.local.11>
     54c:	ae0200a0 	sw	v0,160(s0)
     550:	24420090 	addiu	v0,v0,144
     554:	0c0003ee 	jal	fb8 <_ZN6System8Registry8instanceEv.local.11>
     558:	ae0200a4 	sw	v0,164(s0)
     55c:	24420098 	addiu	v0,v0,152
     560:	ae0200a8 	sw	v0,168(s0)
     564:	3c108000 	lui	s0,0x8000
     568:	0c0003e5 	jal	f94 <_ZN6System7Tasking14ContinuousTaskC2Ev.local.6>
     56c:	260405cc 	addiu	a0,s0,1484
     570:	3c028000 	lui	v0,0x8000
     574:	24420300 	addiu	v0,v0,768
     578:	ae0205cc 	sw	v0,1484(s0)
     57c:	3c023a83 	lui	v0,0x3a83
     580:	261005cc 	addiu	s0,s0,1484
     584:	2442126f 	addiu	v0,v0,4719
     588:	ae020020 	sw	v0,32(s0)
     58c:	3c023f80 	lui	v0,0x3f80
     590:	ae020048 	sw	v0,72(s0)
     594:	ae020058 	sw	v0,88(s0)
     598:	3c108000 	lui	s0,0x8000
     59c:	0c0003e5 	jal	f94 <_ZN6System7Tasking14ContinuousTaskC2Ev.local.6>
     5a0:	26040638 	addiu	a0,s0,1592
     5a4:	3c028000 	lui	v0,0x8000
     5a8:	244202f0 	addiu	v0,v0,752
     5ac:	26030638 	addiu	v1,s0,1592
     5b0:	ae020638 	sw	v0,1592(s0)
     5b4:	3c028000 	lui	v0,0x8000
     5b8:	ac60001c 	sw	zero,28(v1)
     5bc:	ac6000a0 	sw	zero,160(v1)
     5c0:	ac6000a4 	sw	zero,164(v1)
     5c4:	24420658 	addiu	v0,v0,1624
     5c8:	246300a0 	addiu	v1,v1,160
     5cc:	ac400000 	sw	zero,0(v0)
     5d0:	24420004 	addiu	v0,v0,4
     5d4:	1443fffd 	bne	v0,v1,5cc <_GLOBAL__sub_I__ZN6System7Tasking4Pool16xbeeReadIdleTaskE.4424.1318+0x1fc>
     5d8:	3c108000 	lui	s0,0x8000
     5dc:	0c0003e5 	jal	f94 <_ZN6System7Tasking14ContinuousTaskC2Ev.local.6>
     5e0:	260406e0 	addiu	a0,s0,1760
     5e4:	3c028000 	lui	v0,0x8000
     5e8:	244202e0 	addiu	v0,v0,736
     5ec:	ae0206e0 	sw	v0,1760(s0)
     5f0:	3c108000 	lui	s0,0x8000
     5f4:	0c0003e5 	jal	f94 <_ZN6System7Tasking14ContinuousTaskC2Ev.local.6>
     5f8:	260406fc 	addiu	a0,s0,1788
     5fc:	3c028000 	lui	v0,0x8000
     600:	244202d0 	addiu	v0,v0,720
     604:	8fbf0014 	lw	ra,20(sp)
     608:	ae0206fc 	sw	v0,1788(s0)
     60c:	261006fc 	addiu	s0,s0,1788
     610:	24020001 	li	v0,1
     614:	a2020038 	sb	v0,56(s0)
     618:	8fb00010 	lw	s0,16(sp)
     61c:	03e00008 	jr	ra
     620:	27bd0018 	addiu	sp,sp,24

00000624 <main>:
     624:	27bdffd0 	addiu	sp,sp,-48
     628:	afbf002c 	sw	ra,44(sp)
     62c:	afb30028 	sw	s3,40(sp)
     630:	afb20024 	sw	s2,36(sp)
     634:	afb10020 	sw	s1,32(sp)
     638:	0c000711 	jal	1c44 <System::Bus::I2C::start()>
     63c:	afb0001c 	sw	s0,28(sp)
     640:	0c0006fd 	jal	1bf4 <System::Bus::I2C::write(unsigned char)>
     644:	240400ee 	li	a0,238
     648:	0c0006fd 	jal	1bf4 <System::Bus::I2C::write(unsigned char)>
     64c:	2404001e 	li	a0,30
     650:	0c000708 	jal	1c20 <System::Bus::I2C::stop()>
     654:	00000000 	nop
     658:	3402927c 	li	v0,0x927c
     65c:	2442ffff 	addiu	v0,v0,-1
     660:	1440fffe 	bnez	v0,65c <main+0x38>
     664:	3c118000 	lui	s1,0x8000
     668:	241000a2 	li	s0,162
     66c:	26310490 	addiu	s1,s1,1168
     670:	241200ae 	li	s2,174
     674:	0c000711 	jal	1c44 <System::Bus::I2C::start()>
     678:	00000000 	nop
     67c:	0c0006fd 	jal	1bf4 <System::Bus::I2C::write(unsigned char)>
     680:	240400ee 	li	a0,238
     684:	0c0006fd 	jal	1bf4 <System::Bus::I2C::write(unsigned char)>
     688:	02002021 	move	a0,s0
     68c:	0c000708 	jal	1c20 <System::Bus::I2C::stop()>
     690:	00000000 	nop
     694:	0c000711 	jal	1c44 <System::Bus::I2C::start()>
     698:	00000000 	nop
     69c:	0c0006fd 	jal	1bf4 <System::Bus::I2C::write(unsigned char)>
     6a0:	240400ef 	li	a0,239
     6a4:	0c0003db 	jal	f6c <System::Bus::I2C::read()>
     6a8:	00000000 	nop
     6ac:	00409821 	move	s3,v0
     6b0:	0c0003db 	jal	f6c <System::Bus::I2C::read()>
     6b4:	00139a00 	sll	s3,s3,0x8
     6b8:	00101840 	sll	v1,s0,0x1
     6bc:	02231821 	addu	v1,s1,v1
     6c0:	02621025 	or	v0,s3,v0
     6c4:	ac62febc 	sw	v0,-324(v1)
     6c8:	0c000708 	jal	1c20 <System::Bus::I2C::stop()>
     6cc:	26100002 	addiu	s0,s0,2
     6d0:	1612ffe8 	bne	s0,s2,674 <main+0x50>
     6d4:	2404006b 	li	a0,107
     6d8:	0c000908 	jal	2420 <_ZN7Sensors3IMU7MPU6050L13mpu6050_setupEcc.3551>
     6dc:	2405ff80 	li	a1,-128
     6e0:	3402f424 	li	v0,0xf424
     6e4:	2442ffff 	addiu	v0,v0,-1
     6e8:	1440fffe 	bnez	v0,6e4 <main+0xc0>
     6ec:	2404006b 	li	a0,107
     6f0:	0c000908 	jal	2420 <_ZN7Sensors3IMU7MPU6050L13mpu6050_setupEcc.3551>
     6f4:	00002821 	move	a1,zero
     6f8:	2404001a 	li	a0,26
     6fc:	0c000908 	jal	2420 <_ZN7Sensors3IMU7MPU6050L13mpu6050_setupEcc.3551>
     700:	24050003 	li	a1,3
     704:	2404001b 	li	a0,27
     708:	0c000908 	jal	2420 <_ZN7Sensors3IMU7MPU6050L13mpu6050_setupEcc.3551>
     70c:	24050018 	li	a1,24
     710:	2404001c 	li	a0,28
     714:	0c000908 	jal	2420 <_ZN7Sensors3IMU7MPU6050L13mpu6050_setupEcc.3551>
     718:	24050018 	li	a1,24
     71c:	240230d4 	li	v0,12500
     720:	2442ffff 	addiu	v0,v0,-1
     724:	1440fffe 	bnez	v0,720 <main+0xfc>
     728:	2404006a 	li	a0,106
     72c:	0c000908 	jal	2420 <_ZN7Sensors3IMU7MPU6050L13mpu6050_setupEcc.3551>
     730:	24050002 	li	a1,2
     734:	24040037 	li	a0,55
     738:	0c000908 	jal	2420 <_ZN7Sensors3IMU7MPU6050L13mpu6050_setupEcc.3551>
     73c:	24050002 	li	a1,2
     740:	240230d4 	li	v0,12500
     744:	2442ffff 	addiu	v0,v0,-1
     748:	1440fffe 	bnez	v0,744 <main+0x120>
     74c:	00000000 	nop
     750:	0c0003ee 	jal	fb8 <_ZN6System8Registry8instanceEv.local.11>
     754:	00000000 	nop
     758:	2403ffff 	li	v1,-1
     75c:	0c0003ee 	jal	fb8 <_ZN6System8Registry8instanceEv.local.11>
     760:	ac430058 	sw	v1,88(v0)
     764:	2403ffe7 	li	v1,-25
     768:	0c0003ee 	jal	fb8 <_ZN6System8Registry8instanceEv.local.11>
     76c:	ac43005c 	sw	v1,92(v0)
     770:	2403fff6 	li	v1,-10
     774:	0c000711 	jal	1c44 <System::Bus::I2C::start()>
     778:	ac430060 	sw	v1,96(v0)
     77c:	0c0006fd 	jal	1bf4 <System::Bus::I2C::write(unsigned char)>
     780:	2404003c 	li	a0,60
     784:	0c0006fd 	jal	1bf4 <System::Bus::I2C::write(unsigned char)>
     788:	00002021 	move	a0,zero
     78c:	0c0006fd 	jal	1bf4 <System::Bus::I2C::write(unsigned char)>
     790:	24040078 	li	a0,120
     794:	0c000708 	jal	1c20 <System::Bus::I2C::stop()>
     798:	00000000 	nop
     79c:	0c000711 	jal	1c44 <System::Bus::I2C::start()>
     7a0:	00000000 	nop
     7a4:	0c0006fd 	jal	1bf4 <System::Bus::I2C::write(unsigned char)>
     7a8:	2404003c 	li	a0,60
     7ac:	0c0006fd 	jal	1bf4 <System::Bus::I2C::write(unsigned char)>
     7b0:	24040002 	li	a0,2
     7b4:	0c0006fd 	jal	1bf4 <System::Bus::I2C::write(unsigned char)>
     7b8:	00002021 	move	a0,zero
     7bc:	0c000708 	jal	1c20 <System::Bus::I2C::stop()>
     7c0:	00000000 	nop
     7c4:	3c020001 	lui	v0,0x1
     7c8:	3442e848 	ori	v0,v0,0xe848
     7cc:	2442ffff 	addiu	v0,v0,-1
     7d0:	1440fffe 	bnez	v0,7cc <main+0x1a8>
     7d4:	3c060001 	lui	a2,0x1
     7d8:	24050001 	li	a1,1
     7dc:	34c6e848 	ori	a2,a2,0xe848
     7e0:	24040008 	li	a0,8
     7e4:	00451804 	sllv	v1,a1,v0
     7e8:	306300ff 	andi	v1,v1,0xff
     7ec:	ac030004 	sw	v1,4(zero)
     7f0:	00c01821 	move	v1,a2
     7f4:	2463ffff 	addiu	v1,v1,-1
     7f8:	1460fffe 	bnez	v1,7f4 <main+0x1d0>
     7fc:	00000000 	nop
     800:	24420001 	addiu	v0,v0,1
     804:	1444fff8 	bne	v0,a0,7e8 <main+0x1c4>
     808:	00451804 	sllv	v1,a1,v0
     80c:	3c060001 	lui	a2,0x1
     810:	00001021 	move	v0,zero
     814:	24050080 	li	a1,128
     818:	34c6e848 	ori	a2,a2,0xe848
     81c:	24040009 	li	a0,9
     820:	00451807 	srav	v1,a1,v0
     824:	ac030004 	sw	v1,4(zero)
     828:	00c01821 	move	v1,a2
     82c:	2463ffff 	addiu	v1,v1,-1
     830:	1460fffe 	bnez	v1,82c <main+0x208>
     834:	00000000 	nop
     838:	24420001 	addiu	v0,v0,1
     83c:	1444fff9 	bne	v0,a0,824 <main+0x200>
     840:	00451807 	srav	v1,a1,v0
     844:	0c0006ea 	jal	1ba8 <System::Tasking::TaskScheduler::instance()>
     848:	3c1002fa 	lui	s0,0x2fa
     84c:	3c068000 	lui	a2,0x8000
     850:	00402021 	move	a0,v0
     854:	00402821 	move	a1,v0
     858:	24c60564 	addiu	a2,a2,1380
     85c:	0c0006b1 	jal	1ac4 <System::Tasking::TaskScheduler::addTask(System::Tasking::Task**, System::Tasking::Task*, int)>
     860:	00003821 	move	a3,zero
     864:	0c0006ea 	jal	1ba8 <System::Tasking::TaskScheduler::instance()>
     868:	00000000 	nop
     86c:	3c068000 	lui	a2,0x8000
     870:	3607f080 	ori	a3,s0,0xf080
     874:	00402021 	move	a0,v0
     878:	24450004 	addiu	a1,v0,4
     87c:	0c0006b1 	jal	1ac4 <System::Tasking::TaskScheduler::addTask(System::Tasking::Task**, System::Tasking::Task*, int)>
     880:	24c605b0 	addiu	a2,a2,1456
     884:	0c0006ea 	jal	1ba8 <System::Tasking::TaskScheduler::instance()>
     888:	00000000 	nop
     88c:	3c068000 	lui	a2,0x8000
     890:	00402021 	move	a0,v0
     894:	3607f080 	ori	a3,s0,0xf080
     898:	24450004 	addiu	a1,v0,4
     89c:	0c0006b1 	jal	1ac4 <System::Tasking::TaskScheduler::addTask(System::Tasking::Task**, System::Tasking::Task*, int)>
     8a0:	24c606e0 	addiu	a2,a2,1760
     8a4:	0c0006ea 	jal	1ba8 <System::Tasking::TaskScheduler::instance()>
     8a8:	00000000 	nop
     8ac:	00408021 	move	s0,v0
     8b0:	24420004 	addiu	v0,v0,4
     8b4:	8c110010 	lw	s1,16(zero)
     8b8:	afa20010 	sw	v0,16(sp)
     8bc:	26020008 	addiu	v0,s0,8
     8c0:	afa20014 	sw	v0,20(sp)
     8c4:	00001821 	move	v1,zero
     8c8:	24040008 	li	a0,8
     8cc:	27a50010 	addiu	a1,sp,16
     8d0:	00a31021 	addu	v0,a1,v1
     8d4:	8c420000 	lw	v0,0(v0)
     8d8:	00000000 	nop
     8dc:	8c420000 	lw	v0,0(v0)
     8e0:	00000000 	nop
     8e4:	14400006 	bnez	v0,900 <main+0x2dc>
     8e8:	00000000 	nop
     8ec:	24630004 	addiu	v1,v1,4
     8f0:	1464fff7 	bne	v1,a0,8d0 <main+0x2ac>
     8f4:	27a50010 	addiu	a1,sp,16
     8f8:	08000247 	j	91c <main+0x2f8>
     8fc:	02002021 	move	a0,s0
     900:	8c45000c 	lw	a1,12(v0)
     904:	00000000 	nop
     908:	00b12821 	addu	a1,a1,s1
     90c:	ac450004 	sw	a1,4(v0)
     910:	8c420014 	lw	v0,20(v0)
     914:	08000239 	j	8e4 <main+0x2c0>
     918:	00000000 	nop
     91c:	0c000688 	jal	1a20 <System::Tasking::TaskScheduler::selectNextTask(unsigned int)>
     920:	02202821 	move	a1,s1
     924:	24120001 	li	s2,1
     928:	ae11001c 	sw	s1,28(s0)
     92c:	8c110010 	lw	s1,16(zero)
     930:	8e03001c 	lw	v1,28(s0)
     934:	8e040010 	lw	a0,16(s0)
     938:	00000000 	nop
     93c:	10800028 	beqz	a0,9e0 <main+0x3bc>
     940:	02231823 	subu	v1,s1,v1
     944:	8e020018 	lw	v0,24(s0)
     948:	00000000 	nop
     94c:	0062282b 	sltu	a1,v1,v0
     950:	14a00023 	bnez	a1,9e0 <main+0x3bc>
     954:	00629823 	subu	s3,v1,v0
     958:	8c820004 	lw	v0,4(a0)
     95c:	00000000 	nop
     960:	ae020024 	sw	v0,36(s0)
     964:	8c820000 	lw	v0,0(a0)
     968:	00000000 	nop
     96c:	8c420000 	lw	v0,0(v0)
     970:	00000000 	nop
     974:	0040f809 	jalr	v0
     978:	00000000 	nop
     97c:	8e050010 	lw	a1,16(s0)
     980:	00000000 	nop
     984:	8ca20008 	lw	v0,8(a1)
     988:	acb10008 	sw	s1,8(a1)
     98c:	02221023 	subu	v0,s1,v0
     990:	aca20010 	sw	v0,16(a1)
     994:	8e020014 	lw	v0,20(s0)
     998:	00000000 	nop
     99c:	14520005 	bne	v0,s2,9b4 <main+0x390>
     9a0:	00000000 	nop
     9a4:	0c0006c4 	jal	1b10 <System::Tasking::TaskScheduler::removeTask(System::Tasking::Task*)>
     9a8:	02002021 	move	a0,s0
     9ac:	08000272 	j	9c8 <main+0x3a4>
     9b0:	00000000 	nop
     9b4:	8ca2000c 	lw	v0,12(a1)
     9b8:	00000000 	nop
     9bc:	02228821 	addu	s1,s1,v0
     9c0:	02339823 	subu	s3,s1,s3
     9c4:	acb30004 	sw	s3,4(a1)
     9c8:	8e050024 	lw	a1,36(s0)
     9cc:	0c000688 	jal	1a20 <System::Tasking::TaskScheduler::selectNextTask(unsigned int)>
     9d0:	02002021 	move	a0,s0
     9d4:	8e020024 	lw	v0,36(s0)
     9d8:	0800024b 	j	92c <main+0x308>
     9dc:	ae02001c 	sw	v0,28(s0)
     9e0:	8e020000 	lw	v0,0(s0)
     9e4:	00000000 	nop
     9e8:	1040ffd0 	beqz	v0,92c <main+0x308>
     9ec:	00000000 	nop
     9f0:	8e03000c 	lw	v1,12(s0)
     9f4:	00000000 	nop
     9f8:	10600006 	beqz	v1,a14 <main+0x3f0>
     9fc:	00000000 	nop
     a00:	8c630014 	lw	v1,20(v1)
     a04:	00000000 	nop
     a08:	ae03000c 	sw	v1,12(s0)
     a0c:	8e03000c 	lw	v1,12(s0)
     a10:	00000000 	nop
     a14:	14600002 	bnez	v1,a20 <main+0x3fc>
     a18:	00000000 	nop
     a1c:	ae02000c 	sw	v0,12(s0)
     a20:	8e04000c 	lw	a0,12(s0)
     a24:	00000000 	nop
     a28:	1080ffc0 	beqz	a0,92c <main+0x308>
     a2c:	00000000 	nop
     a30:	8c820000 	lw	v0,0(a0)
     a34:	00000000 	nop
     a38:	8c420000 	lw	v0,0(v0)
     a3c:	00000000 	nop
     a40:	0040f809 	jalr	v0
     a44:	00000000 	nop
     a48:	0800024b 	j	92c <main+0x308>
     a4c:	00000000 	nop

00000a50 <Radio::Digital::XBeeReadIdleTask::start()>:
     a50:	8c020018 	lw	v0,24(zero)
     a54:	00000000 	nop
     a58:	00021403 	sra	v0,v0,0x10
     a5c:	10400049 	beqz	v0,b84 <Radio::Digital::XBeeReadIdleTask::start()+0x134>
     a60:	00000000 	nop
     a64:	8c050018 	lw	a1,24(zero)
     a68:	8c820048 	lw	v0,72(a0)
     a6c:	27bdffe8 	addiu	sp,sp,-24
     a70:	30a300ff 	andi	v1,a1,0xff
     a74:	afb00010 	sw	s0,16(sp)
     a78:	afbf0014 	sw	ra,20(sp)
     a7c:	00808021 	move	s0,a0
     a80:	ac000018 	sw	zero,24(zero)
     a84:	1440000f 	bnez	v0,ac4 <Radio::Digital::XBeeReadIdleTask::start()+0x74>
     a88:	00000000 	nop
     a8c:	30a200ff 	andi	v0,a1,0xff
     a90:	2404003e 	li	a0,62
     a94:	14440005 	bne	v0,a0,aac <Radio::Digital::XBeeReadIdleTask::start()+0x5c>
     a98:	00000000 	nop
     a9c:	3c020000 	lui	v0,0x0
     aa0:	a2000044 	sb	zero,68(s0)
     aa4:	080002d8 	j	b60 <Radio::Digital::XBeeReadIdleTask::start()+0x110>
     aa8:	24422ec0 	addiu	v0,v0,11968
     aac:	10600032 	beqz	v1,b78 <Radio::Digital::XBeeReadIdleTask::start()+0x128>
     ab0:	28430002 	slti	v1,v0,2
     ab4:	10600030 	beqz	v1,b78 <Radio::Digital::XBeeReadIdleTask::start()+0x128>
     ab8:	3c038000 	lui	v1,0x8000
     abc:	080002d3 	j	b4c <Radio::Digital::XBeeReadIdleTask::start()+0xfc>
     ac0:	246301d0 	addiu	v1,v1,464
     ac4:	8c840040 	lw	a0,64(a0)
     ac8:	00000000 	nop
     acc:	2c870020 	sltiu	a3,a0,32
     ad0:	10e00006 	beqz	a3,aec <Radio::Digital::XBeeReadIdleTask::start()+0x9c>
     ad4:	24060001 	li	a2,1
     ad8:	02043021 	addu	a2,s0,a0
     adc:	24840001 	addiu	a0,a0,1
     ae0:	a0c5001c 	sb	a1,28(a2)
     ae4:	ae040040 	sw	a0,64(s0)
     ae8:	00003021 	move	a2,zero
     aec:	3c040000 	lui	a0,0x0
     af0:	24842ec0 	addiu	a0,a0,11968
     af4:	1444000a 	bne	v0,a0,b20 <Radio::Digital::XBeeReadIdleTask::start()+0xd0>
     af8:	2404000d 	li	a0,13
     afc:	10640003 	beq	v1,a0,b0c <Radio::Digital::XBeeReadIdleTask::start()+0xbc>
     b00:	2404000a 	li	a0,10
     b04:	1464000b 	bne	v1,a0,b34 <Radio::Digital::XBeeReadIdleTask::start()+0xe4>
     b08:	00000000 	nop
     b0c:	8e030040 	lw	v1,64(s0)
     b10:	00000000 	nop
     b14:	02031821 	addu	v1,s0,v1
     b18:	080002da 	j	b68 <Radio::Digital::XBeeReadIdleTask::start()+0x118>
     b1c:	a060001c 	sb	zero,28(v1)
     b20:	92030044 	lbu	v1,68(s0)
     b24:	8e040040 	lw	a0,64(s0)
     b28:	00000000 	nop
     b2c:	1083000e 	beq	a0,v1,b68 <Radio::Digital::XBeeReadIdleTask::start()+0x118>
     b30:	00000000 	nop
     b34:	10c00010 	beqz	a2,b78 <Radio::Digital::XBeeReadIdleTask::start()+0x128>
     b38:	00000000 	nop
     b3c:	ae000040 	sw	zero,64(s0)
     b40:	a2000044 	sb	zero,68(s0)
     b44:	080002de 	j	b78 <Radio::Digital::XBeeReadIdleTask::start()+0x128>
     b48:	ae000048 	sw	zero,72(s0)
     b4c:	000210c0 	sll	v0,v0,0x3
     b50:	00621021 	addu	v0,v1,v0
     b54:	90430000 	lbu	v1,0(v0)
     b58:	8c420004 	lw	v0,4(v0)
     b5c:	a2030044 	sb	v1,68(s0)
     b60:	080002de 	j	b78 <Radio::Digital::XBeeReadIdleTask::start()+0x128>
     b64:	ae020048 	sw	v0,72(s0)
     b68:	0040f809 	jalr	v0
     b6c:	2604001c 	addiu	a0,s0,28
     b70:	080002d0 	j	b40 <Radio::Digital::XBeeReadIdleTask::start()+0xf0>
     b74:	ae000040 	sw	zero,64(s0)
     b78:	8fbf0014 	lw	ra,20(sp)
     b7c:	8fb00010 	lw	s0,16(sp)
     b80:	27bd0018 	addiu	sp,sp,24
     b84:	03e00008 	jr	ra
     b88:	00000000 	nop

00000b8c <System::Tasking::Task::start()>:
     b8c:	03e00008 	jr	ra
     b90:	00000000 	nop

00000b94 <_ZN6System7Tasking4Task1_Ev.local.0>:
     b94:	3c028000 	lui	v0,0x8000
     b98:	03e00008 	jr	ra
     b9c:	24420000 	addiu	v0,v0,0

00000ba0 <_ZN7float3219shift32RightJammingEjiPj.1865>:
     ba0:	10a00009 	beqz	a1,bc8 <_ZN7float3219shift32RightJammingEjiPj.1865+0x28>
     ba4:	00801021 	move	v0,a0
     ba8:	28a30020 	slti	v1,a1,32
     bac:	10600006 	beqz	v1,bc8 <_ZN7float3219shift32RightJammingEjiPj.1865+0x28>
     bb0:	0004102b 	sltu	v0,zero,a0
     bb4:	00051023 	negu	v0,a1
     bb8:	00441004 	sllv	v0,a0,v0
     bbc:	0002102b 	sltu	v0,zero,v0
     bc0:	00a42806 	srlv	a1,a0,a1
     bc4:	00451025 	or	v0,v0,a1
     bc8:	03e00008 	jr	ra
     bcc:	acc20000 	sw	v0,0(a2)

00000bd0 <_ZN7float3212roundAndPackEbij.1855>:
     bd0:	30a3ffff 	andi	v1,a1,0xffff
     bd4:	27bdffe8 	addiu	sp,sp,-24
     bd8:	2c6300fd 	sltiu	v1,v1,253
     bdc:	30c2007f 	andi	v0,a2,0x7f
     be0:	afb00010 	sw	s0,16(sp)
     be4:	afbf0014 	sw	ra,20(sp)
     be8:	afa60020 	sw	a2,32(sp)
     bec:	14600015 	bnez	v1,c44 <_ZN7float3212roundAndPackEbij.1855+0x74>
     bf0:	00808021 	move	s0,a0
     bf4:	28a300fe 	slti	v1,a1,254
     bf8:	10600006 	beqz	v1,c14 <_ZN7float3212roundAndPackEbij.1855+0x44>
     bfc:	240300fd 	li	v1,253
     c00:	14a30008 	bne	a1,v1,c24 <_ZN7float3212roundAndPackEbij.1855+0x54>
     c04:	00000000 	nop
     c08:	24c60040 	addiu	a2,a2,64
     c0c:	04c1000d 	bgez	a2,c44 <_ZN7float3212roundAndPackEbij.1855+0x74>
     c10:	00000000 	nop
     c14:	001087c0 	sll	s0,s0,0x1f
     c18:	3c027f80 	lui	v0,0x7f80
     c1c:	0800031f 	j	c7c <_ZN7float3212roundAndPackEbij.1855+0xac>
     c20:	02021021 	addu	v0,s0,v0
     c24:	04a10007 	bgez	a1,c44 <_ZN7float3212roundAndPackEbij.1855+0x74>
     c28:	00c02021 	move	a0,a2
     c2c:	00052823 	negu	a1,a1
     c30:	0c0002e8 	jal	ba0 <_ZN7float3219shift32RightJammingEjiPj.1865>
     c34:	27a60020 	addiu	a2,sp,32
     c38:	8fa20020 	lw	v0,32(sp)
     c3c:	00002821 	move	a1,zero
     c40:	3042007f 	andi	v0,v0,0x7f
     c44:	8fa30020 	lw	v1,32(sp)
     c48:	38420040 	xori	v0,v0,0x40
     c4c:	2c420001 	sltiu	v0,v0,1
     c50:	24630040 	addiu	v1,v1,64
     c54:	000319c2 	srl	v1,v1,0x7
     c58:	00021027 	nor	v0,zero,v0
     c5c:	00431024 	and	v0,v0,v1
     c60:	0002182b 	sltu	v1,zero,v0
     c64:	00031823 	negu	v1,v1
     c68:	00a32824 	and	a1,a1,v1
     c6c:	001087c0 	sll	s0,s0,0x1f
     c70:	00501021 	addu	v0,v0,s0
     c74:	00052dc0 	sll	a1,a1,0x17
     c78:	00451021 	addu	v0,v0,a1
     c7c:	8fbf0014 	lw	ra,20(sp)
     c80:	8fb00010 	lw	s0,16(sp)
     c84:	03e00008 	jr	ra
     c88:	27bd0018 	addiu	sp,sp,24

00000c8c <_ZN7float327addSigsEjjb.1850>:
     c8c:	27bdffd8 	addiu	sp,sp,-40
     c90:	00801021 	move	v0,a0
     c94:	afb00018 	sw	s0,24(sp)
     c98:	000485c2 	srl	s0,a0,0x17
     c9c:	3c04007f 	lui	a0,0x7f
     ca0:	3484ffff 	ori	a0,a0,0xffff
     ca4:	afb1001c 	sw	s1,28(sp)
     ca8:	00058dc2 	srl	s1,a1,0x17
     cac:	321000ff 	andi	s0,s0,0xff
     cb0:	323100ff 	andi	s1,s1,0xff
     cb4:	00443824 	and	a3,v0,a0
     cb8:	00a42824 	and	a1,a1,a0
     cbc:	00073980 	sll	a3,a3,0x6
     cc0:	00052980 	sll	a1,a1,0x6
     cc4:	02111823 	subu	v1,s0,s1
     cc8:	afb20020 	sw	s2,32(sp)
     ccc:	afbf0024 	sw	ra,36(sp)
     cd0:	00c09021 	move	s2,a2
     cd4:	afa70014 	sw	a3,20(sp)
     cd8:	18600010 	blez	v1,d1c <_ZN7float327addSigsEjjb.1850+0x90>
     cdc:	afa50010 	sw	a1,16(sp)
     ce0:	240400ff 	li	a0,255
     ce4:	1204003d 	beq	s0,a0,ddc <_ZN7float327addSigsEjjb.1850+0x150>
     ce8:	00000000 	nop
     cec:	16200003 	bnez	s1,cfc <_ZN7float327addSigsEjjb.1850+0x70>
     cf0:	3c022000 	lui	v0,0x2000
     cf4:	08000341 	j	d04 <_ZN7float327addSigsEjjb.1850+0x78>
     cf8:	2463ffff 	addiu	v1,v1,-1
     cfc:	00a22825 	or	a1,a1,v0
     d00:	afa50010 	sw	a1,16(sp)
     d04:	8fa40010 	lw	a0,16(sp)
     d08:	00602821 	move	a1,v1
     d0c:	0c0002e8 	jal	ba0 <_ZN7float3219shift32RightJammingEjiPj.1865>
     d10:	27a60010 	addiu	a2,sp,16
     d14:	0800036a 	j	da8 <_ZN7float327addSigsEjjb.1850+0x11c>
     d18:	02002821 	move	a1,s0
     d1c:	10600014 	beqz	v1,d70 <_ZN7float327addSigsEjjb.1850+0xe4>
     d20:	00000000 	nop
     d24:	240200ff 	li	v0,255
     d28:	16220004 	bne	s1,v0,d3c <_ZN7float327addSigsEjjb.1850+0xb0>
     d2c:	000617c0 	sll	v0,a2,0x1f
     d30:	3c037f80 	lui	v1,0x7f80
     d34:	08000377 	j	ddc <_ZN7float327addSigsEjjb.1850+0x150>
     d38:	00431021 	addu	v0,v0,v1
     d3c:	16000003 	bnez	s0,d4c <_ZN7float327addSigsEjjb.1850+0xc0>
     d40:	00000000 	nop
     d44:	08000356 	j	d58 <_ZN7float327addSigsEjjb.1850+0xcc>
     d48:	24630001 	addiu	v1,v1,1
     d4c:	3c052000 	lui	a1,0x2000
     d50:	00e53825 	or	a3,a3,a1
     d54:	afa70014 	sw	a3,20(sp)
     d58:	8fa40014 	lw	a0,20(sp)
     d5c:	00032823 	negu	a1,v1
     d60:	0c0002e8 	jal	ba0 <_ZN7float3219shift32RightJammingEjiPj.1865>
     d64:	27a60014 	addiu	a2,sp,20
     d68:	0800036a 	j	da8 <_ZN7float327addSigsEjjb.1850+0x11c>
     d6c:	02202821 	move	a1,s1
     d70:	240300ff 	li	v1,255
     d74:	12030019 	beq	s0,v1,ddc <_ZN7float327addSigsEjjb.1850+0x150>
     d78:	00000000 	nop
     d7c:	16000006 	bnez	s0,d98 <_ZN7float327addSigsEjjb.1850+0x10c>
     d80:	3c034000 	lui	v1,0x4000
     d84:	00a71021 	addu	v0,a1,a3
     d88:	00021182 	srl	v0,v0,0x6
     d8c:	000697c0 	sll	s2,a2,0x1f
     d90:	08000377 	j	ddc <_ZN7float327addSigsEjjb.1850+0x150>
     d94:	00521021 	addu	v0,v0,s2
     d98:	00e31821 	addu	v1,a3,v1
     d9c:	00653021 	addu	a2,v1,a1
     da0:	08000375 	j	dd4 <_ZN7float327addSigsEjjb.1850+0x148>
     da4:	02002821 	move	a1,s0
     da8:	8fa20014 	lw	v0,20(sp)
     dac:	3c032000 	lui	v1,0x2000
     db0:	00621825 	or	v1,v1,v0
     db4:	8fa20010 	lw	v0,16(sp)
     db8:	00000000 	nop
     dbc:	00623021 	addu	a2,v1,v0
     dc0:	00061040 	sll	v0,a2,0x1
     dc4:	04400003 	bltz	v0,dd4 <_ZN7float327addSigsEjjb.1850+0x148>
     dc8:	afa30014 	sw	v1,20(sp)
     dcc:	24a5ffff 	addiu	a1,a1,-1
     dd0:	00403021 	move	a2,v0
     dd4:	0c0002f4 	jal	bd0 <_ZN7float3212roundAndPackEbij.1855>
     dd8:	02402021 	move	a0,s2
     ddc:	8fbf0024 	lw	ra,36(sp)
     de0:	8fb20020 	lw	s2,32(sp)
     de4:	8fb1001c 	lw	s1,28(sp)
     de8:	8fb00018 	lw	s0,24(sp)
     dec:	03e00008 	jr	ra
     df0:	27bd0028 	addiu	sp,sp,40

00000df4 <_ZN7float3219countLeadingZeros32Ej.1870>:
     df4:	3c030001 	lui	v1,0x1
     df8:	0083182b 	sltu	v1,a0,v1
     dfc:	10600003 	beqz	v1,e0c <_ZN7float3219countLeadingZeros32Ej.1870+0x18>
     e00:	00001021 	move	v0,zero
     e04:	00042400 	sll	a0,a0,0x10
     e08:	24020010 	li	v0,16
     e0c:	3c030100 	lui	v1,0x100
     e10:	0083182b 	sltu	v1,a0,v1
     e14:	10600005 	beqz	v1,e2c <_ZN7float3219countLeadingZeros32Ej.1870+0x38>
     e18:	3c038000 	lui	v1,0x8000
     e1c:	24420008 	addiu	v0,v0,8
     e20:	00021600 	sll	v0,v0,0x18
     e24:	00021603 	sra	v0,v0,0x18
     e28:	00042200 	sll	a0,a0,0x8
     e2c:	246300d0 	addiu	v1,v1,208
     e30:	00042602 	srl	a0,a0,0x18
     e34:	00832021 	addu	a0,a0,v1
     e38:	90830000 	lbu	v1,0(a0)
     e3c:	00000000 	nop
     e40:	00621021 	addu	v0,v1,v0
     e44:	00021600 	sll	v0,v0,0x18
     e48:	03e00008 	jr	ra
     e4c:	00021603 	sra	v0,v0,0x18

00000e50 <_ZN7float3218normalizeSubnormalEjPiPj.1860>:
     e50:	27bdffe0 	addiu	sp,sp,-32
     e54:	afbf001c 	sw	ra,28(sp)
     e58:	afb20018 	sw	s2,24(sp)
     e5c:	afb10014 	sw	s1,20(sp)
     e60:	afb00010 	sw	s0,16(sp)
     e64:	00a08821 	move	s1,a1
     e68:	00c09021 	move	s2,a2
     e6c:	0c00037d 	jal	df4 <_ZN7float3219countLeadingZeros32Ej.1870>
     e70:	00808021 	move	s0,a0
     e74:	2442fff8 	addiu	v0,v0,-8
     e78:	00021600 	sll	v0,v0,0x18
     e7c:	00021603 	sra	v0,v0,0x18
     e80:	8fbf001c 	lw	ra,28(sp)
     e84:	24030001 	li	v1,1
     e88:	00508004 	sllv	s0,s0,v0
     e8c:	00621023 	subu	v0,v1,v0
     e90:	ae500000 	sw	s0,0(s2)
     e94:	8fb20018 	lw	s2,24(sp)
     e98:	8fb00010 	lw	s0,16(sp)
     e9c:	ae220000 	sw	v0,0(s1)
     ea0:	8fb10014 	lw	s1,20(sp)
     ea4:	03e00008 	jr	ra
     ea8:	27bd0020 	addiu	sp,sp,32

00000eac <_ZN4MathL6divideEii.3875.1880>:
     eac:	2403001f 	li	v1,31
     eb0:	00001021 	move	v0,zero
     eb4:	00003021 	move	a2,zero
     eb8:	24080001 	li	t0,1
     ebc:	2407ffff 	li	a3,-1
     ec0:	00684804 	sllv	t1,t0,v1
     ec4:	01244824 	and	t1,t1,a0
     ec8:	00694807 	srav	t1,t1,v1
     ecc:	00063040 	sll	a2,a2,0x1
     ed0:	00c93021 	addu	a2,a2,t1
     ed4:	00c5482a 	slt	t1,a2,a1
     ed8:	15200003 	bnez	t1,ee8 <_ZN4MathL6divideEii.3875.1880+0x3c>
     edc:	00021040 	sll	v0,v0,0x1
     ee0:	00c53023 	subu	a2,a2,a1
     ee4:	24420001 	addiu	v0,v0,1
     ee8:	2463ffff 	addiu	v1,v1,-1
     eec:	1467fff5 	bne	v1,a3,ec4 <_ZN4MathL6divideEii.3875.1880+0x18>
     ef0:	00684804 	sllv	t1,t0,v1
     ef4:	03e00008 	jr	ra
     ef8:	00000000 	nop

00000efc <_ZN7Sensors3IMU7MPU605015CalibrationTask1_Ev.local.14>:
     efc:	3c028000 	lui	v0,0x8000
     f00:	03e00008 	jr	ra
     f04:	24420008 	addiu	v0,v0,8

00000f08 <_ZN4MathL11sign_extendEi.3522.1903>:
     f08:	3083ffff 	andi	v1,a0,0xffff
     f0c:	00031bc3 	sra	v1,v1,0xf
     f10:	10600003 	beqz	v1,f20 <_ZN4MathL11sign_extendEi.3522.1903+0x18>
     f14:	00801021 	move	v0,a0
     f18:	3c03ffff 	lui	v1,0xffff
     f1c:	00831025 	or	v0,a0,v1
     f20:	03e00008 	jr	ra
     f24:	00000000 	nop

00000f28 <_ZN5Radio7Digital13TelemetryTask1_Ev.local.17>:
     f28:	3c028000 	lui	v0,0x8000
     f2c:	03e00008 	jr	ra
     f30:	24420014 	addiu	v0,v0,20

00000f34 <_ZN5Radio8Messages14defaultHandlerEPc.1909>:
     f34:	03e00008 	jr	ra
     f38:	00000000 	nop

00000f3c <_ZN7Control32StabilizationAndEngineUpdateTask1_Ev.local.27>:
     f3c:	3c028000 	lui	v0,0x8000
     f40:	03e00008 	jr	ra
     f44:	24420020 	addiu	v0,v0,32

00000f48 <_ZN7Control4MARG1_Ev.local.29>:
     f48:	3c028000 	lui	v0,0x8000
     f4c:	03e00008 	jr	ra
     f50:	24420030 	addiu	v0,v0,48

00000f54 <_ZN7Control16MagnetometerTask1_Ev.local.30>:
     f54:	3c028000 	lui	v0,0x8000
     f58:	03e00008 	jr	ra
     f5c:	24420038 	addiu	v0,v0,56

00000f60 <_ZN7Control12AltitudeTask1_Ev.local.34>:
     f60:	3c028000 	lui	v0,0x8000
     f64:	03e00008 	jr	ra
     f68:	24420048 	addiu	v0,v0,72

00000f6c <System::Bus::I2C::read()>:
     f6c:	3c020002 	lui	v0,0x2
     f70:	244200ff 	addiu	v0,v0,255
     f74:	ac02000c 	sw	v0,12(zero)
     f78:	8c02000c 	lw	v0,12(zero)
     f7c:	00000000 	nop
     f80:	0440fffd 	bltz	v0,f78 <System::Bus::I2C::read()+0xc>
     f84:	00000000 	nop
     f88:	8c02000c 	lw	v0,12(zero)
     f8c:	03e00008 	jr	ra
     f90:	304200ff 	andi	v0,v0,0xff

00000f94 <_ZN6System7Tasking14ContinuousTaskC2Ev.local.6>:
     f94:	3c028000 	lui	v0,0x8000
     f98:	244200c8 	addiu	v0,v0,200
     f9c:	ac800004 	sw	zero,4(a0)
     fa0:	ac800008 	sw	zero,8(a0)
     fa4:	ac80000c 	sw	zero,12(a0)
     fa8:	ac800010 	sw	zero,16(a0)
     fac:	ac800014 	sw	zero,20(a0)
     fb0:	03e00008 	jr	ra
     fb4:	ac820000 	sw	v0,0(a0)

00000fb8 <_ZN6System8Registry8instanceEv.local.11>:
     fb8:	3c028000 	lui	v0,0x8000
     fbc:	80430348 	lb	v1,840(v0)
     fc0:	00402021 	move	a0,v0
     fc4:	14600012 	bnez	v1,1010 <_ZN6System8Registry8instanceEv.local.11+0x58>
     fc8:	3c028000 	lui	v0,0x8000
     fcc:	3c038000 	lui	v1,0x8000
     fd0:	24450350 	addiu	a1,v0,848
     fd4:	24630378 	addiu	v1,v1,888
     fd8:	24a500f4 	addiu	a1,a1,244
     fdc:	ac600000 	sw	zero,0(v1)
     fe0:	24630004 	addiu	v1,v1,4
     fe4:	1465fffd 	bne	v1,a1,fdc <_ZN6System8Registry8instanceEv.local.11+0x24>
     fe8:	24470350 	addiu	a3,v0,848
     fec:	00001821 	move	v1,zero
     ff0:	2405000a 	li	a1,10
     ff4:	00033080 	sll	a2,v1,0x2
     ff8:	00e63021 	addu	a2,a3,a2
     ffc:	24630001 	addiu	v1,v1,1
    1000:	1465fffc 	bne	v1,a1,ff4 <_ZN6System8Registry8instanceEv.local.11+0x3c>
    1004:	acc00000 	sw	zero,0(a2)
    1008:	24030001 	li	v1,1
    100c:	a0830348 	sb	v1,840(a0)
    1010:	03e00008 	jr	ra
    1014:	24420350 	addiu	v0,v0,848

00001018 <Control::StabilizationAndEngineUpdateTask::start()>:
    1018:	27bdffd0 	addiu	sp,sp,-48
    101c:	afb0001c 	sw	s0,28(sp)
    1020:	00808021 	move	s0,a0
    1024:	8e020030 	lw	v0,48(s0)
    1028:	8c84002c 	lw	a0,44(a0)
    102c:	8c420000 	lw	v0,0(v0)
    1030:	8c830000 	lw	v1,0(a0)
    1034:	afbf002c 	sw	ra,44(sp)
    1038:	00621823 	subu	v1,v1,v0
    103c:	8e02003c 	lw	v0,60(s0)
    1040:	afb30028 	sw	s3,40(sp)
    1044:	00621021 	addu	v0,v1,v0
    1048:	afb20024 	sw	s2,36(sp)
    104c:	afb10020 	sw	s1,32(sp)
    1050:	ae02003c 	sw	v0,60(s0)
    1054:	8c850000 	lw	a1,0(a0)
    1058:	8e040034 	lw	a0,52(s0)
    105c:	00000000 	nop
    1060:	00a42026 	xor	a0,a1,a0
    1064:	04810003 	bgez	a0,1074 <Control::StabilizationAndEngineUpdateTask::start()+0x5c>
    1068:	000227c3 	sra	a0,v0,0x1f
    106c:	08000427 	j	109c <Control::StabilizationAndEngineUpdateTask::start()+0x84>
    1070:	ae00003c 	sw	zero,60(s0)
    1074:	00822826 	xor	a1,a0,v0
    1078:	00a42023 	subu	a0,a1,a0
    107c:	8e050028 	lw	a1,40(s0)
    1080:	00000000 	nop
    1084:	8ca50000 	lw	a1,0(a1)
    1088:	00000000 	nop
    108c:	0085202b 	sltu	a0,a0,a1
    1090:	10800002 	beqz	a0,109c <Control::StabilizationAndEngineUpdateTask::start()+0x84>
    1094:	00431021 	addu	v0,v0,v1
    1098:	ae02003c 	sw	v0,60(s0)
    109c:	8e02001c 	lw	v0,28(s0)
    10a0:	00000000 	nop
    10a4:	8c420000 	lw	v0,0(v0)
    10a8:	00000000 	nop
    10ac:	00620018 	mult	v1,v0
    10b0:	8e020020 	lw	v0,32(s0)
    10b4:	00000000 	nop
    10b8:	8c430000 	lw	v1,0(v0)
    10bc:	8e02003c 	lw	v0,60(s0)
    10c0:	00002012 	mflo	a0
    10c4:	00048a03 	sra	s1,a0,0x8
    10c8:	00000000 	nop
    10cc:	00620018 	mult	v1,v0
    10d0:	00002012 	mflo	a0
    10d4:	00041203 	sra	v0,a0,0x8
    10d8:	02228821 	addu	s1,s1,v0
    10dc:	8e020024 	lw	v0,36(s0)
    10e0:	00000000 	nop
    10e4:	8c520000 	lw	s2,0(v0)
    10e8:	0c0003ee 	jal	fb8 <_ZN6System8Registry8instanceEv.local.11>
    10ec:	00000000 	nop
    10f0:	8c42004c 	lw	v0,76(v0)
    10f4:	00000000 	nop
    10f8:	02420018 	mult	s2,v0
    10fc:	00001812 	mflo	v1
    1100:	00031203 	sra	v0,v1,0x8
    1104:	02228821 	addu	s1,s1,v0
    1108:	8e02002c 	lw	v0,44(s0)
    110c:	ae110038 	sw	s1,56(s0)
    1110:	8c420000 	lw	v0,0(v0)
    1114:	0c0003ee 	jal	fb8 <_ZN6System8Registry8instanceEv.local.11>
    1118:	ae020034 	sw	v0,52(s0)
    111c:	ac5100e8 	sw	s1,232(v0)
    1120:	8e040054 	lw	a0,84(s0)
    1124:	8e020058 	lw	v0,88(s0)
    1128:	8c830000 	lw	v1,0(a0)
    112c:	8c420000 	lw	v0,0(v0)
    1130:	00000000 	nop
    1134:	00621823 	subu	v1,v1,v0
    1138:	8e020064 	lw	v0,100(s0)
    113c:	00000000 	nop
    1140:	00621021 	addu	v0,v1,v0
    1144:	ae020064 	sw	v0,100(s0)
    1148:	8c850000 	lw	a1,0(a0)
    114c:	8e04005c 	lw	a0,92(s0)
    1150:	00000000 	nop
    1154:	00a42026 	xor	a0,a1,a0
    1158:	04810003 	bgez	a0,1168 <Control::StabilizationAndEngineUpdateTask::start()+0x150>
    115c:	000227c3 	sra	a0,v0,0x1f
    1160:	08000464 	j	1190 <Control::StabilizationAndEngineUpdateTask::start()+0x178>
    1164:	ae000064 	sw	zero,100(s0)
    1168:	00822826 	xor	a1,a0,v0
    116c:	00a42023 	subu	a0,a1,a0
    1170:	8e050050 	lw	a1,80(s0)
    1174:	00000000 	nop
    1178:	8ca50000 	lw	a1,0(a1)
    117c:	00000000 	nop
    1180:	0085202b 	sltu	a0,a0,a1
    1184:	10800002 	beqz	a0,1190 <Control::StabilizationAndEngineUpdateTask::start()+0x178>
    1188:	00431021 	addu	v0,v0,v1
    118c:	ae020064 	sw	v0,100(s0)
    1190:	8e020044 	lw	v0,68(s0)
    1194:	00000000 	nop
    1198:	8c420000 	lw	v0,0(v0)
    119c:	00000000 	nop
    11a0:	00620018 	mult	v1,v0
    11a4:	8e020048 	lw	v0,72(s0)
    11a8:	00000000 	nop
    11ac:	8c430000 	lw	v1,0(v0)
    11b0:	8e020064 	lw	v0,100(s0)
    11b4:	00002012 	mflo	a0
    11b8:	00048a03 	sra	s1,a0,0x8
    11bc:	00000000 	nop
    11c0:	00620018 	mult	v1,v0
    11c4:	00002012 	mflo	a0
    11c8:	00041203 	sra	v0,a0,0x8
    11cc:	02228821 	addu	s1,s1,v0
    11d0:	8e02004c 	lw	v0,76(s0)
    11d4:	00000000 	nop
    11d8:	8c520000 	lw	s2,0(v0)
    11dc:	0c0003ee 	jal	fb8 <_ZN6System8Registry8instanceEv.local.11>
    11e0:	00000000 	nop
    11e4:	8c420050 	lw	v0,80(v0)
    11e8:	00000000 	nop
    11ec:	02420018 	mult	s2,v0
    11f0:	00001812 	mflo	v1
    11f4:	00031203 	sra	v0,v1,0x8
    11f8:	02228821 	addu	s1,s1,v0
    11fc:	8e020054 	lw	v0,84(s0)
    1200:	ae110060 	sw	s1,96(s0)
    1204:	8c420000 	lw	v0,0(v0)
    1208:	0c0003ee 	jal	fb8 <_ZN6System8Registry8instanceEv.local.11>
    120c:	ae02005c 	sw	v0,92(s0)
    1210:	0c0003ee 	jal	fb8 <_ZN6System8Registry8instanceEv.local.11>
    1214:	ac5100ec 	sw	s1,236(v0)
    1218:	8c50009c 	lw	s0,156(v0)
    121c:	00000000 	nop
    1220:	2e0200c9 	sltiu	v0,s0,201
    1224:	14400011 	bnez	v0,126c <Control::StabilizationAndEngineUpdateTask::start()+0x254>
    1228:	00000000 	nop
    122c:	0c0003ee 	jal	fb8 <_ZN6System8Registry8instanceEv.local.11>
    1230:	00000000 	nop
    1234:	8c5300e8 	lw	s3,232(v0)
    1238:	0c0003ee 	jal	fb8 <_ZN6System8Registry8instanceEv.local.11>
    123c:	02139821 	addu	s3,s0,s3
    1240:	8c5100ec 	lw	s1,236(v0)
    1244:	0c0003ee 	jal	fb8 <_ZN6System8Registry8instanceEv.local.11>
    1248:	02118823 	subu	s1,s0,s1
    124c:	8c5200e8 	lw	s2,232(v0)
    1250:	0c0003ee 	jal	fb8 <_ZN6System8Registry8instanceEv.local.11>
    1254:	02129023 	subu	s2,s0,s2
    1258:	8c4200ec 	lw	v0,236(v0)
    125c:	00000000 	nop
    1260:	02021021 	addu	v0,s0,v0
    1264:	0800049e 	j	1278 <Control::StabilizationAndEngineUpdateTask::start()+0x260>
    1268:	02608021 	move	s0,s3
    126c:	02001021 	move	v0,s0
    1270:	02009021 	move	s2,s0
    1274:	02008821 	move	s1,s0
    1278:	00108400 	sll	s0,s0,0x10
    127c:	00118c00 	sll	s1,s1,0x10
    1280:	8fbf002c 	lw	ra,44(sp)
    1284:	02129025 	or	s2,s0,s2
    1288:	02221025 	or	v0,s1,v0
    128c:	ac12001c 	sw	s2,28(zero)
    1290:	8fb30028 	lw	s3,40(sp)
    1294:	8fb20024 	lw	s2,36(sp)
    1298:	8fb10020 	lw	s1,32(sp)
    129c:	8fb0001c 	lw	s0,28(sp)
    12a0:	ac020020 	sw	v0,32(zero)
    12a4:	03e00008 	jr	ra
    12a8:	27bd0030 	addiu	sp,sp,48

000012ac <_ZN4MathL6divideEii.1342.constprop.59>:
    12ac:	00001021 	move	v0,zero
    12b0:	2403001f 	li	v1,31
    12b4:	00002821 	move	a1,zero
    12b8:	24070001 	li	a3,1
    12bc:	2406ffff 	li	a2,-1
    12c0:	00674004 	sllv	t0,a3,v1
    12c4:	01044024 	and	t0,t0,a0
    12c8:	00684007 	srav	t0,t0,v1
    12cc:	00052840 	sll	a1,a1,0x1
    12d0:	00a82821 	addu	a1,a1,t0
    12d4:	28a8000a 	slti	t0,a1,10
    12d8:	15000003 	bnez	t0,12e8 <_ZN4MathL6divideEii.1342.constprop.59+0x3c>
    12dc:	00021040 	sll	v0,v0,0x1
    12e0:	24a5fff6 	addiu	a1,a1,-10
    12e4:	24420001 	addiu	v0,v0,1
    12e8:	2463ffff 	addiu	v1,v1,-1
    12ec:	1466fff4 	bne	v1,a2,12c0 <_ZN4MathL6divideEii.1342.constprop.59+0x14>
    12f0:	00000000 	nop
    12f4:	03e00008 	jr	ra
    12f8:	00000000 	nop

000012fc <_Z8b32todeci.1680>:
    12fc:	27bdffc0 	addiu	sp,sp,-64
    1300:	000417c3 	sra	v0,a0,0x1f
    1304:	afb40028 	sw	s4,40(sp)
    1308:	0044a026 	xor	s4,v0,a0
    130c:	0282a023 	subu	s4,s4,v0
    1310:	3c020098 	lui	v0,0x98
    1314:	34429680 	ori	v0,v0,0x9680
    1318:	0282102a 	slt	v0,s4,v0
    131c:	afb5002c 	sw	s5,44(sp)
    1320:	afbf003c 	sw	ra,60(sp)
    1324:	afbe0038 	sw	s8,56(sp)
    1328:	afb70034 	sw	s7,52(sp)
    132c:	afb60030 	sw	s6,48(sp)
    1330:	afb30024 	sw	s3,36(sp)
    1334:	afb20020 	sw	s2,32(sp)
    1338:	afb1001c 	sw	s1,28(sp)
    133c:	afb00018 	sw	s0,24(sp)
    1340:	10400029 	beqz	v0,13e8 <_Z8b32todeci.1680+0xec>
    1344:	0080a821 	move	s5,a0
    1348:	3c132020 	lui	s3,0x2020
    134c:	3c122020 	lui	s2,0x2020
    1350:	36732030 	ori	s3,s3,0x2030
    1354:	1280002d 	beqz	s4,140c <_Z8b32todeci.1680+0x110>
    1358:	36522020 	ori	s2,s2,0x2020
    135c:	3c112020 	lui	s1,0x2020
    1360:	3c102020 	lui	s0,0x2020
    1364:	36312020 	ori	s1,s1,0x2020
    1368:	36102020 	ori	s0,s0,0x2020
    136c:	0000b021 	move	s6,zero
    1370:	241efff6 	li	s8,-10
    1374:	0c0004ab 	jal	12ac <_ZN4MathL6divideEii.1342.constprop.59>
    1378:	02802021 	move	a0,s4
    137c:	005e0018 	mult	v0,s8
    1380:	0040b821 	move	s7,v0
    1384:	26850030 	addiu	a1,s4,48
    1388:	001630c0 	sll	a2,s6,0x3
    138c:	02e0a021 	move	s4,s7
    1390:	26d60001 	addiu	s6,s6,1
    1394:	00001012 	mflo	v0
    1398:	00a22821 	addu	a1,a1,v0
    139c:	00052e00 	sll	a1,a1,0x18
    13a0:	00052e03 	sra	a1,a1,0x18
    13a4:	0c001302 	jal	4c08 <__ashldi3>
    13a8:	000527c3 	sra	a0,a1,0x1f
    13ac:	00501025 	or	v0,v0,s0
    13b0:	02231825 	or	v1,s1,v1
    13b4:	00408021 	move	s0,v0
    13b8:	16e0ffee 	bnez	s7,1374 <_Z8b32todeci.1680+0x78>
    13bc:	00608821 	move	s1,v1
    13c0:	2405002b 	li	a1,43
    13c4:	06a10003 	bgez	s5,13d4 <_Z8b32todeci.1680+0xd8>
    13c8:	00002021 	move	a0,zero
    13cc:	2405002d 	li	a1,45
    13d0:	00002021 	move	a0,zero
    13d4:	0c001302 	jal	4c08 <__ashldi3>
    13d8:	001630c0 	sll	a2,s6,0x3
    13dc:	00509025 	or	s2,v0,s0
    13e0:	08000503 	j	140c <_Z8b32todeci.1680+0x110>
    13e4:	00719825 	or	s3,v1,s1
    13e8:	3c134f42 	lui	s3,0x4f42
    13ec:	3c122020 	lui	s2,0x2020
    13f0:	36734947 	ori	s3,s3,0x4947
    13f4:	04810005 	bgez	a0,140c <_Z8b32todeci.1680+0x110>
    13f8:	36522b54 	ori	s2,s2,0x2b54
    13fc:	3c134f42 	lui	s3,0x4f42
    1400:	3c122020 	lui	s2,0x2020
    1404:	36734947 	ori	s3,s3,0x4947
    1408:	36522d54 	ori	s2,s2,0x2d54
    140c:	8fbf003c 	lw	ra,60(sp)
    1410:	02401021 	move	v0,s2
    1414:	02601821 	move	v1,s3
    1418:	8fbe0038 	lw	s8,56(sp)
    141c:	8fb70034 	lw	s7,52(sp)
    1420:	8fb60030 	lw	s6,48(sp)
    1424:	8fb5002c 	lw	s5,44(sp)
    1428:	8fb40028 	lw	s4,40(sp)
    142c:	8fb30024 	lw	s3,36(sp)
    1430:	8fb20020 	lw	s2,32(sp)
    1434:	8fb1001c 	lw	s1,28(sp)
    1438:	8fb00018 	lw	s0,24(sp)
    143c:	03e00008 	jr	ra
    1440:	27bd0040 	addiu	sp,sp,64

00001444 <float32::operator/(float32 const&) const>:
    1444:	27bdffb8 	addiu	sp,sp,-72
    1448:	8ca50000 	lw	a1,0(a1)
    144c:	afb2002c 	sw	s2,44(sp)
    1450:	8cd20000 	lw	s2,0(a2)
    1454:	afb00024 	sw	s0,36(sp)
    1458:	00808021 	move	s0,a0
    145c:	3c04007f 	lui	a0,0x7f
    1460:	3484ffff 	ori	a0,a0,0xffff
    1464:	000515c2 	srl	v0,a1,0x17
    1468:	00121dc2 	srl	v1,s2,0x17
    146c:	00a43024 	and	a2,a1,a0
    1470:	304200ff 	andi	v0,v0,0xff
    1474:	02442024 	and	a0,s2,a0
    1478:	306300ff 	andi	v1,v1,0xff
    147c:	00b29026 	xor	s2,a1,s2
    1480:	240500ff 	li	a1,255
    1484:	afbf0044 	sw	ra,68(sp)
    1488:	afb70040 	sw	s7,64(sp)
    148c:	afb6003c 	sw	s6,60(sp)
    1490:	afb50038 	sw	s5,56(sp)
    1494:	afb40034 	sw	s4,52(sp)
    1498:	afb30030 	sw	s3,48(sp)
    149c:	afb10028 	sw	s1,40(sp)
    14a0:	afa6001c 	sw	a2,28(sp)
    14a4:	afa20014 	sw	v0,20(sp)
    14a8:	afa40018 	sw	a0,24(sp)
    14ac:	afa30010 	sw	v1,16(sp)
    14b0:	14450005 	bne	v0,a1,14c8 <float32::operator/(float32 const&) const+0x84>
    14b4:	001297c2 	srl	s2,s2,0x1f
    14b8:	1462000f 	bne	v1,v0,14f8 <float32::operator/(float32 const&) const+0xb4>
    14bc:	001297c0 	sll	s2,s2,0x1f
    14c0:	080005a8 	j	16a0 <float32::operator/(float32 const&) const+0x25c>
    14c4:	2402ffff 	li	v0,-1
    14c8:	14650003 	bne	v1,a1,14d8 <float32::operator/(float32 const&) const+0x94>
    14cc:	00000000 	nop
    14d0:	0800054d 	j	1534 <float32::operator/(float32 const&) const+0xf0>
    14d4:	001297c0 	sll	s2,s2,0x1f
    14d8:	1460000d 	bnez	v1,1510 <float32::operator/(float32 const&) const+0xcc>
    14dc:	00000000 	nop
    14e0:	14800008 	bnez	a0,1504 <float32::operator/(float32 const&) const+0xc0>
    14e4:	00461025 	or	v0,v0,a2
    14e8:	14400003 	bnez	v0,14f8 <float32::operator/(float32 const&) const+0xb4>
    14ec:	001297c0 	sll	s2,s2,0x1f
    14f0:	080005a8 	j	16a0 <float32::operator/(float32 const&) const+0x25c>
    14f4:	2402ffff 	li	v0,-1
    14f8:	3c027f80 	lui	v0,0x7f80
    14fc:	0800054d 	j	1534 <float32::operator/(float32 const&) const+0xf0>
    1500:	02429021 	addu	s2,s2,v0
    1504:	27a50010 	addiu	a1,sp,16
    1508:	0c000394 	jal	e50 <_ZN7float3218normalizeSubnormalEjPiPj.1860>
    150c:	27a60018 	addiu	a2,sp,24
    1510:	8fa20014 	lw	v0,20(sp)
    1514:	00000000 	nop
    1518:	1440000b 	bnez	v0,1548 <float32::operator/(float32 const&) const+0x104>
    151c:	00000000 	nop
    1520:	8fa4001c 	lw	a0,28(sp)
    1524:	00000000 	nop
    1528:	14800004 	bnez	a0,153c <float32::operator/(float32 const&) const+0xf8>
    152c:	00000000 	nop
    1530:	001297c0 	sll	s2,s2,0x1f
    1534:	080005a9 	j	16a4 <float32::operator/(float32 const&) const+0x260>
    1538:	ae120000 	sw	s2,0(s0)
    153c:	27a50014 	addiu	a1,sp,20
    1540:	0c000394 	jal	e50 <_ZN7float3218normalizeSubnormalEjPiPj.1860>
    1544:	27a6001c 	addiu	a2,sp,28
    1548:	8fa3001c 	lw	v1,28(sp)
    154c:	8fb10018 	lw	s1,24(sp)
    1550:	8fa20010 	lw	v0,16(sp)
    1554:	3c040080 	lui	a0,0x80
    1558:	8fb50014 	lw	s5,20(sp)
    155c:	00831825 	or	v1,a0,v1
    1560:	00918825 	or	s1,a0,s1
    1564:	00118a00 	sll	s1,s1,0x8
    1568:	02a2a823 	subu	s5,s5,v0
    156c:	000311c0 	sll	v0,v1,0x7
    1570:	00031a00 	sll	v1,v1,0x8
    1574:	0071182b 	sltu	v1,v1,s1
    1578:	afa2001c 	sw	v0,28(sp)
    157c:	10600003 	beqz	v1,158c <float32::operator/(float32 const&) const+0x148>
    1580:	afb10018 	sw	s1,24(sp)
    1584:	08000566 	j	1598 <float32::operator/(float32 const&) const+0x154>
    1588:	26b5007d 	addiu	s5,s5,125
    158c:	00021042 	srl	v0,v0,0x1
    1590:	afa2001c 	sw	v0,28(sp)
    1594:	26b5007e 	addiu	s5,s5,126
    1598:	8fb3001c 	lw	s3,28(sp)
    159c:	00000000 	nop
    15a0:	0271102b 	sltu	v0,s3,s1
    15a4:	10400026 	beqz	v0,1640 <float32::operator/(float32 const&) const+0x1fc>
    15a8:	2406ffff 	li	a2,-1
    15ac:	0011b402 	srl	s6,s1,0x10
    15b0:	0016bc00 	sll	s7,s6,0x10
    15b4:	0277102b 	sltu	v0,s3,s7
    15b8:	10400005 	beqz	v0,15d0 <float32::operator/(float32 const&) const+0x18c>
    15bc:	3c14ffff 	lui	s4,0xffff
    15c0:	02602021 	move	a0,s3
    15c4:	0c0003ab 	jal	eac <_ZN4MathL6divideEii.3875.1880>
    15c8:	02c02821 	move	a1,s6
    15cc:	0002a400 	sll	s4,v0,0x10
    15d0:	02910019 	multu	s4,s1
    15d4:	00112400 	sll	a0,s1,0x10
    15d8:	3c05ffff 	lui	a1,0xffff
    15dc:	00005812 	mflo	t3
    15e0:	000b1023 	negu	v0,t3
    15e4:	0002182b 	sltu	v1,zero,v0
    15e8:	00005010 	mfhi	t2
    15ec:	026a5023 	subu	t2,s3,t2
    15f0:	01435023 	subu	t2,t2,v1
    15f4:	08000585 	j	1614 <float32::operator/(float32 const&) const+0x1d0>
    15f8:	00401821 	move	v1,v0
    15fc:	00441821 	addu	v1,v0,a0
    1600:	0062102b 	sltu	v0,v1,v0
    1604:	01565021 	addu	t2,t2,s6
    1608:	004a5021 	addu	t2,v0,t2
    160c:	0285a021 	addu	s4,s4,a1
    1610:	00601021 	move	v0,v1
    1614:	0540fff9 	bltz	t2,15fc <float32::operator/(float32 const&) const+0x1b8>
    1618:	00000000 	nop
    161c:	000a5400 	sll	t2,t2,0x10
    1620:	00032402 	srl	a0,v1,0x10
    1624:	008a2025 	or	a0,a0,t2
    1628:	0097b82b 	sltu	s7,a0,s7
    162c:	12e00003 	beqz	s7,163c <float32::operator/(float32 const&) const+0x1f8>
    1630:	3402ffff 	li	v0,0xffff
    1634:	0c0003ab 	jal	eac <_ZN4MathL6divideEii.3875.1880>
    1638:	02c02821 	move	a1,s6
    163c:	00543025 	or	a2,v0,s4
    1640:	30c2003f 	andi	v0,a2,0x3f
    1644:	2c420003 	sltiu	v0,v0,3
    1648:	10400013 	beqz	v0,1698 <float32::operator/(float32 const&) const+0x254>
    164c:	02402021 	move	a0,s2
    1650:	00d10019 	multu	a2,s1
    1654:	00004812 	mflo	t1
    1658:	00091023 	negu	v0,t1
    165c:	0002182b 	sltu	v1,zero,v0
    1660:	00004010 	mfhi	t0
    1664:	02684023 	subu	t0,s3,t0
    1668:	01034023 	subu	t0,t0,v1
    166c:	080005a2 	j	1688 <float32::operator/(float32 const&) const+0x244>
    1670:	00401821 	move	v1,v0
    1674:	00511821 	addu	v1,v0,s1
    1678:	0062102b 	sltu	v0,v1,v0
    167c:	00484021 	addu	t0,v0,t0
    1680:	24c6ffff 	addiu	a2,a2,-1
    1684:	00601021 	move	v0,v1
    1688:	0500fffa 	bltz	t0,1674 <float32::operator/(float32 const&) const+0x230>
    168c:	0003182b 	sltu	v1,zero,v1
    1690:	00c33025 	or	a2,a2,v1
    1694:	02402021 	move	a0,s2
    1698:	0c0002f4 	jal	bd0 <_ZN7float3212roundAndPackEbij.1855>
    169c:	02a02821 	move	a1,s5
    16a0:	ae020000 	sw	v0,0(s0)
    16a4:	8fbf0044 	lw	ra,68(sp)
    16a8:	02001021 	move	v0,s0
    16ac:	8fb70040 	lw	s7,64(sp)
    16b0:	8fb6003c 	lw	s6,60(sp)
    16b4:	8fb50038 	lw	s5,56(sp)
    16b8:	8fb40034 	lw	s4,52(sp)
    16bc:	8fb30030 	lw	s3,48(sp)
    16c0:	8fb2002c 	lw	s2,44(sp)
    16c4:	8fb10028 	lw	s1,40(sp)
    16c8:	8fb00024 	lw	s0,36(sp)
    16cc:	03e00008 	jr	ra
    16d0:	27bd0048 	addiu	sp,sp,72

000016d4 <_ZN6System3Bus4UART13write_waitingEPKcj.constprop.49>:
    16d4:	080005b8 	j	16e0 <_ZN6System3Bus4UART13write_waitingEPKcj.constprop.49+0xc>
    16d8:	00801021 	move	v0,a0
    16dc:	24420001 	addiu	v0,v0,1
    16e0:	80450000 	lb	a1,0(v0)
    16e4:	00000000 	nop
    16e8:	14a0fffc 	bnez	a1,16dc <_ZN6System3Bus4UART13write_waitingEPKcj.constprop.49+0x8>
    16ec:	00441823 	subu	v1,v0,a0
    16f0:	080005bf 	j	16fc <_ZN6System3Bus4UART13write_waitingEPKcj.constprop.49+0x28>
    16f4:	2405001f 	li	a1,31
    16f8:	00000000 	nop
    16fc:	8c020014 	lw	v0,20(zero)
    1700:	00000000 	nop
    1704:	00a21023 	subu	v0,a1,v0
    1708:	0043102b 	sltu	v0,v0,v1
    170c:	1440fffa 	bnez	v0,16f8 <_ZN6System3Bus4UART13write_waitingEPKcj.constprop.49+0x24>
    1710:	00000000 	nop
    1714:	2405001f 	li	a1,31
    1718:	00821821 	addu	v1,a0,v0
    171c:	80630000 	lb	v1,0(v1)
    1720:	00000000 	nop
    1724:	10600004 	beqz	v1,1738 <_ZN6System3Bus4UART13write_waitingEPKcj.constprop.49+0x64>
    1728:	00000000 	nop
    172c:	24420001 	addiu	v0,v0,1
    1730:	1445fff9 	bne	v0,a1,1718 <_ZN6System3Bus4UART13write_waitingEPKcj.constprop.49+0x44>
    1734:	ac030014 	sw	v1,20(zero)
    1738:	03e00008 	jr	ra
    173c:	00000000 	nop

00001740 <_ZL4failv.2601>:
    1740:	3c048000 	lui	a0,0x8000
    1744:	080005b5 	j	16d4 <_ZN6System3Bus4UART13write_waitingEPKcj.constprop.49>
    1748:	24840054 	addiu	a0,a0,84

0000174c <_ZL7set_decji.2630>:
    174c:	27bdffe0 	addiu	sp,sp,-32
    1750:	28820033 	slti	v0,a0,51
    1754:	afb00014 	sw	s0,20(sp)
    1758:	afbf001c 	sw	ra,28(sp)
    175c:	afb10018 	sw	s1,24(sp)
    1760:	1040000e 	beqz	v0,179c <_ZL7set_decji.2630+0x50>
    1764:	00808021 	move	s0,a0
    1768:	2610000a 	addiu	s0,s0,10
    176c:	00a08821 	move	s1,a1
    1770:	0c0003ee 	jal	fb8 <_ZN6System8Registry8instanceEv.local.11>
    1774:	00108080 	sll	s0,s0,0x2
    1778:	00501021 	addu	v0,v0,s0
    177c:	ac510000 	sw	s1,0(v0)
    1780:	8fbf001c 	lw	ra,28(sp)
    1784:	8fb10018 	lw	s1,24(sp)
    1788:	8fb00014 	lw	s0,20(sp)
    178c:	3c048000 	lui	a0,0x8000
    1790:	24840058 	addiu	a0,a0,88
    1794:	080005b5 	j	16d4 <_ZN6System3Bus4UART13write_waitingEPKcj.constprop.49>
    1798:	27bd0020 	addiu	sp,sp,32
    179c:	8fbf001c 	lw	ra,28(sp)
    17a0:	8fb10018 	lw	s1,24(sp)
    17a4:	8fb00014 	lw	s0,20(sp)
    17a8:	080005d0 	j	1740 <_ZL4failv.2601>
    17ac:	27bd0020 	addiu	sp,sp,32

000017b0 <System::Bus::UART::write_waiting(char)>:
    17b0:	080005ef 	j	17bc <System::Bus::UART::write_waiting(char)+0xc>
    17b4:	2402001f 	li	v0,31
    17b8:	00000000 	nop
    17bc:	8c030014 	lw	v1,20(zero)
    17c0:	00000000 	nop
    17c4:	1062fffc 	beq	v1,v0,17b8 <System::Bus::UART::write_waiting(char)+0x8>
    17c8:	00000000 	nop
    17cc:	03e00008 	jr	ra
    17d0:	ac040014 	sw	a0,20(zero)

000017d4 <System::Bus::UART::write_waiting(long long)>:
    17d4:	27bdffe0 	addiu	sp,sp,-32
    17d8:	afb20018 	sw	s2,24(sp)
    17dc:	afb10014 	sw	s1,20(sp)
    17e0:	afb00010 	sw	s0,16(sp)
    17e4:	afbf001c 	sw	ra,28(sp)
    17e8:	00808021 	move	s0,a0
    17ec:	00a09021 	move	s2,a1
    17f0:	24110008 	li	s1,8
    17f4:	00102603 	sra	a0,s0,0x18
    17f8:	10800008 	beqz	a0,181c <System::Bus::UART::write_waiting(long long)+0x48>
    17fc:	00000000 	nop
    1800:	0c0005ec 	jal	17b0 <System::Bus::UART::write_waiting(char)>
    1804:	00108200 	sll	s0,s0,0x8
    1808:	00121602 	srl	v0,s2,0x18
    180c:	2631ffff 	addiu	s1,s1,-1
    1810:	00508025 	or	s0,v0,s0
    1814:	1620fff7 	bnez	s1,17f4 <System::Bus::UART::write_waiting(long long)+0x20>
    1818:	00129200 	sll	s2,s2,0x8
    181c:	8fbf001c 	lw	ra,28(sp)
    1820:	8fb20018 	lw	s2,24(sp)
    1824:	8fb10014 	lw	s1,20(sp)
    1828:	8fb00010 	lw	s0,16(sp)
    182c:	03e00008 	jr	ra
    1830:	27bd0020 	addiu	sp,sp,32

00001834 <_ZL3hexj.2621>:
    1834:	27bdffd0 	addiu	sp,sp,-48
    1838:	28820033 	slti	v0,a0,51
    183c:	afb00014 	sw	s0,20(sp)
    1840:	afbf002c 	sw	ra,44(sp)
    1844:	afb50028 	sw	s5,40(sp)
    1848:	afb40024 	sw	s4,36(sp)
    184c:	afb30020 	sw	s3,32(sp)
    1850:	afb2001c 	sw	s2,28(sp)
    1854:	afb10018 	sw	s1,24(sp)
    1858:	10400027 	beqz	v0,18f8 <_ZL3hexj.2621+0xc4>
    185c:	00808021 	move	s0,a0
    1860:	0c0003ee 	jal	fb8 <_ZN6System8Registry8instanceEv.local.11>
    1864:	2610000a 	addiu	s0,s0,10
    1868:	00108080 	sll	s0,s0,0x2
    186c:	00501021 	addu	v0,v0,s0
    1870:	3c158000 	lui	s5,0x8000
    1874:	8c530000 	lw	s3,0(v0)
    1878:	24120038 	li	s2,56
    187c:	00008821 	move	s1,zero
    1880:	00008021 	move	s0,zero
    1884:	26b5005c 	addiu	s5,s5,92
    1888:	2414fff8 	li	s4,-8
    188c:	00131702 	srl	v0,s3,0x1c
    1890:	02a21021 	addu	v0,s5,v0
    1894:	80450000 	lb	a1,0(v0)
    1898:	02403021 	move	a2,s2
    189c:	0c001302 	jal	4c08 <__ashldi3>
    18a0:	000527c3 	sra	a0,a1,0x1f
    18a4:	00501025 	or	v0,v0,s0
    18a8:	02231825 	or	v1,s1,v1
    18ac:	2652fff8 	addiu	s2,s2,-8
    18b0:	00408021 	move	s0,v0
    18b4:	00608821 	move	s1,v1
    18b8:	1654fff4 	bne	s2,s4,188c <_ZL3hexj.2621+0x58>
    18bc:	00139900 	sll	s3,s3,0x4
    18c0:	00402021 	move	a0,v0
    18c4:	0c0005f5 	jal	17d4 <System::Bus::UART::write_waiting(long long)>
    18c8:	00602821 	move	a1,v1
    18cc:	8fbf002c 	lw	ra,44(sp)
    18d0:	8fb50028 	lw	s5,40(sp)
    18d4:	8fb40024 	lw	s4,36(sp)
    18d8:	8fb30020 	lw	s3,32(sp)
    18dc:	8fb2001c 	lw	s2,28(sp)
    18e0:	8fb10018 	lw	s1,24(sp)
    18e4:	8fb00014 	lw	s0,20(sp)
    18e8:	3c048000 	lui	a0,0x8000
    18ec:	24840070 	addiu	a0,a0,112
    18f0:	080005b5 	j	16d4 <_ZN6System3Bus4UART13write_waitingEPKcj.constprop.49>
    18f4:	27bd0030 	addiu	sp,sp,48
    18f8:	8fbf002c 	lw	ra,44(sp)
    18fc:	8fb50028 	lw	s5,40(sp)
    1900:	8fb40024 	lw	s4,36(sp)
    1904:	8fb30020 	lw	s3,32(sp)
    1908:	8fb2001c 	lw	s2,28(sp)
    190c:	8fb10018 	lw	s1,24(sp)
    1910:	8fb00014 	lw	s0,20(sp)
    1914:	080005d0 	j	1740 <_ZL4failv.2601>
    1918:	27bd0030 	addiu	sp,sp,48

0000191c <_ZL3decj.2624>:
    191c:	27bdffe8 	addiu	sp,sp,-24
    1920:	28820033 	slti	v0,a0,51
    1924:	afb00010 	sw	s0,16(sp)
    1928:	afbf0014 	sw	ra,20(sp)
    192c:	10400011 	beqz	v0,1974 <_ZL3decj.2624+0x58>
    1930:	00808021 	move	s0,a0
    1934:	0c0003ee 	jal	fb8 <_ZN6System8Registry8instanceEv.local.11>
    1938:	2610000a 	addiu	s0,s0,10
    193c:	00108080 	sll	s0,s0,0x2
    1940:	00501021 	addu	v0,v0,s0
    1944:	8c440000 	lw	a0,0(v0)
    1948:	0c0004bf 	jal	12fc <_Z8b32todeci.1680>
    194c:	00000000 	nop
    1950:	00402021 	move	a0,v0
    1954:	0c0005f5 	jal	17d4 <System::Bus::UART::write_waiting(long long)>
    1958:	00602821 	move	a1,v1
    195c:	8fbf0014 	lw	ra,20(sp)
    1960:	8fb00010 	lw	s0,16(sp)
    1964:	3c048000 	lui	a0,0x8000
    1968:	24840070 	addiu	a0,a0,112
    196c:	080005b5 	j	16d4 <_ZN6System3Bus4UART13write_waitingEPKcj.constprop.49>
    1970:	27bd0018 	addiu	sp,sp,24
    1974:	8fbf0014 	lw	ra,20(sp)
    1978:	8fb00010 	lw	s0,16(sp)
    197c:	080005d0 	j	1740 <_ZL4failv.2601>
    1980:	27bd0018 	addiu	sp,sp,24

00001984 <Radio::Digital::TelemetryTask::start()>:
    1984:	27bdffe8 	addiu	sp,sp,-24
    1988:	2404003c 	li	a0,60
    198c:	afbf0014 	sw	ra,20(sp)
    1990:	0c0005ec 	jal	17b0 <System::Bus::UART::write_waiting(char)>
    1994:	afb00010 	sw	s0,16(sp)
    1998:	0c0003ee 	jal	fb8 <_ZN6System8Registry8instanceEv.local.11>
    199c:	3c108000 	lui	s0,0x8000
    19a0:	8c440064 	lw	a0,100(v0)
    19a4:	0c0004bf 	jal	12fc <_Z8b32todeci.1680>
    19a8:	00000000 	nop
    19ac:	00602821 	move	a1,v1
    19b0:	0c0005f5 	jal	17d4 <System::Bus::UART::write_waiting(long long)>
    19b4:	00402021 	move	a0,v0
    19b8:	0c0005b5 	jal	16d4 <_ZN6System3Bus4UART13write_waitingEPKcj.constprop.49>
    19bc:	26040090 	addiu	a0,s0,144
    19c0:	0c0003ee 	jal	fb8 <_ZN6System8Registry8instanceEv.local.11>
    19c4:	00000000 	nop
    19c8:	8c440068 	lw	a0,104(v0)
    19cc:	0c0004bf 	jal	12fc <_Z8b32todeci.1680>
    19d0:	00000000 	nop
    19d4:	00602821 	move	a1,v1
    19d8:	0c0005f5 	jal	17d4 <System::Bus::UART::write_waiting(long long)>
    19dc:	00402021 	move	a0,v0
    19e0:	0c0005b5 	jal	16d4 <_ZN6System3Bus4UART13write_waitingEPKcj.constprop.49>
    19e4:	26040090 	addiu	a0,s0,144
    19e8:	0c0003ee 	jal	fb8 <_ZN6System8Registry8instanceEv.local.11>
    19ec:	00000000 	nop
    19f0:	8c44006c 	lw	a0,108(v0)
    19f4:	0c0004bf 	jal	12fc <_Z8b32todeci.1680>
    19f8:	00000000 	nop
    19fc:	00402021 	move	a0,v0
    1a00:	0c0005f5 	jal	17d4 <System::Bus::UART::write_waiting(long long)>
    1a04:	00602821 	move	a1,v1
    1a08:	8fbf0014 	lw	ra,20(sp)
    1a0c:	8fb00010 	lw	s0,16(sp)
    1a10:	3c048000 	lui	a0,0x8000
    1a14:	24840070 	addiu	a0,a0,112
    1a18:	080005b5 	j	16d4 <_ZN6System3Bus4UART13write_waitingEPKcj.constprop.49>
    1a1c:	27bd0018 	addiu	sp,sp,24

00001a20 <System::Tasking::TaskScheduler::selectNextTask(unsigned int)>:
    1a20:	27bdfff8 	addiu	sp,sp,-8
    1a24:	24820004 	addiu	v0,a0,4
    1a28:	afa20000 	sw	v0,0(sp)
    1a2c:	24820008 	addiu	v0,a0,8
    1a30:	afa20004 	sw	v0,4(sp)
    1a34:	2402ffff 	li	v0,-1
    1a38:	ac820018 	sw	v0,24(a0)
    1a3c:	00001821 	move	v1,zero
    1a40:	24080008 	li	t0,8
    1a44:	03a31021 	addu	v0,sp,v1
    1a48:	8c420000 	lw	v0,0(v0)
    1a4c:	00000000 	nop
    1a50:	8c460000 	lw	a2,0(v0)
    1a54:	00000000 	nop
    1a58:	14c00006 	bnez	a2,1a74 <System::Tasking::TaskScheduler::selectNextTask(unsigned int)+0x54>
    1a5c:	00c01021 	move	v0,a2
    1a60:	24630004 	addiu	v1,v1,4
    1a64:	1468fff7 	bne	v1,t0,1a44 <System::Tasking::TaskScheduler::selectNextTask(unsigned int)+0x24>
    1a68:	00000000 	nop
    1a6c:	080006af 	j	1abc <System::Tasking::TaskScheduler::selectNextTask(unsigned int)+0x9c>
    1a70:	27bd0008 	addiu	sp,sp,8
    1a74:	8c470004 	lw	a3,4(v0)
    1a78:	8c890018 	lw	t1,24(a0)
    1a7c:	00e53823 	subu	a3,a3,a1
    1a80:	00e9482b 	sltu	t1,a3,t1
    1a84:	11200007 	beqz	t1,1aa4 <System::Tasking::TaskScheduler::selectNextTask(unsigned int)+0x84>
    1a88:	00000000 	nop
    1a8c:	8c890004 	lw	t1,4(a0)
    1a90:	ac820010 	sw	v0,16(a0)
    1a94:	00c94826 	xor	t1,a2,t1
    1a98:	0009482b 	sltu	t1,zero,t1
    1a9c:	ac890014 	sw	t1,20(a0)
    1aa0:	ac870018 	sw	a3,24(a0)
    1aa4:	8c420014 	lw	v0,20(v0)
    1aa8:	00000000 	nop
    1aac:	1440fff1 	bnez	v0,1a74 <System::Tasking::TaskScheduler::selectNextTask(unsigned int)+0x54>
    1ab0:	00000000 	nop
    1ab4:	08000699 	j	1a64 <System::Tasking::TaskScheduler::selectNextTask(unsigned int)+0x44>
    1ab8:	24630004 	addiu	v1,v1,4
    1abc:	03e00008 	jr	ra
    1ac0:	00000000 	nop

00001ac4 <System::Tasking::TaskScheduler::addTask(System::Tasking::Task**, System::Tasking::Task*, int)>:
    1ac4:	acc7000c 	sw	a3,12(a2)
    1ac8:	8c020010 	lw	v0,16(zero)
    1acc:	acc40018 	sw	a0,24(a2)
    1ad0:	00e23821 	addu	a3,a3,v0
    1ad4:	8ca20000 	lw	v0,0(a1)
    1ad8:	00000000 	nop
    1adc:	14400004 	bnez	v0,1af0 <System::Tasking::TaskScheduler::addTask(System::Tasking::Task**, System::Tasking::Task*, int)+0x2c>
    1ae0:	acc70004 	sw	a3,4(a2)
    1ae4:	080006c1 	j	1b04 <System::Tasking::TaskScheduler::addTask(System::Tasking::Task**, System::Tasking::Task*, int)+0x40>
    1ae8:	aca60000 	sw	a2,0(a1)
    1aec:	00601021 	move	v0,v1
    1af0:	8c430014 	lw	v1,20(v0)
    1af4:	00000000 	nop
    1af8:	1460fffc 	bnez	v1,1aec <System::Tasking::TaskScheduler::addTask(System::Tasking::Task**, System::Tasking::Task*, int)+0x28>
    1afc:	00000000 	nop
    1b00:	ac460014 	sw	a2,20(v0)
    1b04:	8c850024 	lw	a1,36(a0)
    1b08:	08000688 	j	1a20 <System::Tasking::TaskScheduler::selectNextTask(unsigned int)>
    1b0c:	00000000 	nop

00001b10 <System::Tasking::TaskScheduler::removeTask(System::Tasking::Task*)>:
    1b10:	27bdfff0 	addiu	sp,sp,-16
    1b14:	24820004 	addiu	v0,a0,4
    1b18:	afa40000 	sw	a0,0(sp)
    1b1c:	24840008 	addiu	a0,a0,8
    1b20:	afa20004 	sw	v0,4(sp)
    1b24:	afa40008 	sw	a0,8(sp)
    1b28:	00001021 	move	v0,zero
    1b2c:	2406000c 	li	a2,12
    1b30:	03a21821 	addu	v1,sp,v0
    1b34:	8c640000 	lw	a0,0(v1)
    1b38:	00000000 	nop
    1b3c:	8c830000 	lw	v1,0(a0)
    1b40:	00000000 	nop
    1b44:	10600012 	beqz	v1,1b90 <System::Tasking::TaskScheduler::removeTask(System::Tasking::Task*)+0x80>
    1b48:	00000000 	nop
    1b4c:	14650005 	bne	v1,a1,1b64 <System::Tasking::TaskScheduler::removeTask(System::Tasking::Task*)+0x54>
    1b50:	00000000 	nop
    1b54:	8ca20014 	lw	v0,20(a1)
    1b58:	080006e7 	j	1b9c <System::Tasking::TaskScheduler::removeTask(System::Tasking::Task*)+0x8c>
    1b5c:	ac820000 	sw	v0,0(a0)
    1b60:	00801821 	move	v1,a0
    1b64:	8c640014 	lw	a0,20(v1)
    1b68:	00000000 	nop
    1b6c:	10800006 	beqz	a0,1b88 <System::Tasking::TaskScheduler::removeTask(System::Tasking::Task*)+0x78>
    1b70:	00000000 	nop
    1b74:	1485fffa 	bne	a0,a1,1b60 <System::Tasking::TaskScheduler::removeTask(System::Tasking::Task*)+0x50>
    1b78:	00000000 	nop
    1b7c:	8ca20014 	lw	v0,20(a1)
    1b80:	080006e7 	j	1b9c <System::Tasking::TaskScheduler::removeTask(System::Tasking::Task*)+0x8c>
    1b84:	ac620014 	sw	v0,20(v1)
    1b88:	10a0fffc 	beqz	a1,1b7c <System::Tasking::TaskScheduler::removeTask(System::Tasking::Task*)+0x6c>
    1b8c:	00000000 	nop
    1b90:	24420004 	addiu	v0,v0,4
    1b94:	1446ffe6 	bne	v0,a2,1b30 <System::Tasking::TaskScheduler::removeTask(System::Tasking::Task*)+0x20>
    1b98:	00000000 	nop
    1b9c:	aca00018 	sw	zero,24(a1)
    1ba0:	03e00008 	jr	ra
    1ba4:	27bd0010 	addiu	sp,sp,16

00001ba8 <System::Tasking::TaskScheduler::instance()>:
    1ba8:	3c048000 	lui	a0,0x8000
    1bac:	80830448 	lb	v1,1096(a0)
    1bb0:	00000000 	nop
    1bb4:	1460000d 	bnez	v1,1bec <System::Tasking::TaskScheduler::instance()+0x44>
    1bb8:	3c028000 	lui	v0,0x8000
    1bbc:	24430450 	addiu	v1,v0,1104
    1bc0:	ac600004 	sw	zero,4(v1)
    1bc4:	ac600008 	sw	zero,8(v1)
    1bc8:	ac60000c 	sw	zero,12(v1)
    1bcc:	ac600010 	sw	zero,16(v1)
    1bd0:	ac600014 	sw	zero,20(v1)
    1bd4:	ac600018 	sw	zero,24(v1)
    1bd8:	ac60001c 	sw	zero,28(v1)
    1bdc:	ac600024 	sw	zero,36(v1)
    1be0:	24030001 	li	v1,1
    1be4:	ac400450 	sw	zero,1104(v0)
    1be8:	a0830448 	sb	v1,1096(a0)
    1bec:	03e00008 	jr	ra
    1bf0:	24420450 	addiu	v0,v0,1104

00001bf4 <System::Bus::I2C::write(unsigned char)>:
    1bf4:	3c020002 	lui	v0,0x2
    1bf8:	24420100 	addiu	v0,v0,256
    1bfc:	00822025 	or	a0,a0,v0
    1c00:	ac04000c 	sw	a0,12(zero)
    1c04:	8c02000c 	lw	v0,12(zero)
    1c08:	00000000 	nop
    1c0c:	0440fffd 	bltz	v0,1c04 <System::Bus::I2C::write(unsigned char)+0x10>
    1c10:	00000000 	nop
    1c14:	8c02000c 	lw	v0,12(zero)
    1c18:	03e00008 	jr	ra
    1c1c:	304200ff 	andi	v0,v0,0xff

00001c20 <System::Bus::I2C::stop()>:
    1c20:	3c020001 	lui	v0,0x1
    1c24:	244200ff 	addiu	v0,v0,255
    1c28:	ac02000c 	sw	v0,12(zero)
    1c2c:	8c02000c 	lw	v0,12(zero)
    1c30:	00000000 	nop
    1c34:	0440fffd 	bltz	v0,1c2c <System::Bus::I2C::stop()+0xc>
    1c38:	00000000 	nop
    1c3c:	03e00008 	jr	ra
    1c40:	00000000 	nop

00001c44 <System::Bus::I2C::start()>:
    1c44:	3c020004 	lui	v0,0x4
    1c48:	244200ff 	addiu	v0,v0,255
    1c4c:	ac02000c 	sw	v0,12(zero)
    1c50:	8c02000c 	lw	v0,12(zero)
    1c54:	00000000 	nop
    1c58:	0440fffd 	bltz	v0,1c50 <System::Bus::I2C::start()+0xc>
    1c5c:	00000000 	nop
    1c60:	03e00008 	jr	ra
    1c64:	00000000 	nop

00001c68 <_ZN7Sensors4BaroL11updateValueEv.3301>:
    1c68:	27bdffe8 	addiu	sp,sp,-24
    1c6c:	afbf0014 	sw	ra,20(sp)
    1c70:	0c000711 	jal	1c44 <System::Bus::I2C::start()>
    1c74:	afb00010 	sw	s0,16(sp)
    1c78:	0c0006fd 	jal	1bf4 <System::Bus::I2C::write(unsigned char)>
    1c7c:	240400ee 	li	a0,238
    1c80:	0c0006fd 	jal	1bf4 <System::Bus::I2C::write(unsigned char)>
    1c84:	00002021 	move	a0,zero
    1c88:	0c000708 	jal	1c20 <System::Bus::I2C::stop()>
    1c8c:	00000000 	nop
    1c90:	0c000711 	jal	1c44 <System::Bus::I2C::start()>
    1c94:	00000000 	nop
    1c98:	0c0006fd 	jal	1bf4 <System::Bus::I2C::write(unsigned char)>
    1c9c:	240400ef 	li	a0,239
    1ca0:	0c0003db 	jal	f6c <System::Bus::I2C::read()>
    1ca4:	00000000 	nop
    1ca8:	0c0003db 	jal	f6c <System::Bus::I2C::read()>
    1cac:	00408021 	move	s0,v0
    1cb0:	00021200 	sll	v0,v0,0x8
    1cb4:	240400ff 	li	a0,255
    1cb8:	00108400 	sll	s0,s0,0x10
    1cbc:	0c0006fd 	jal	1bf4 <System::Bus::I2C::write(unsigned char)>
    1cc0:	02028025 	or	s0,s0,v0
    1cc4:	0c000708 	jal	1c20 <System::Bus::I2C::stop()>
    1cc8:	02028025 	or	s0,s0,v0
    1ccc:	8fbf0014 	lw	ra,20(sp)
    1cd0:	02001021 	move	v0,s0
    1cd4:	8fb00010 	lw	s0,16(sp)
    1cd8:	03e00008 	jr	ra
    1cdc:	27bd0018 	addiu	sp,sp,24

00001ce0 <Sensors::Baro::updateTemperature()>:
    1ce0:	27bdffe0 	addiu	sp,sp,-32
    1ce4:	afbf001c 	sw	ra,28(sp)
    1ce8:	0c00071a 	jal	1c68 <_ZN7Sensors4BaroL11updateValueEv.3301>
    1cec:	afb00018 	sw	s0,24(sp)
    1cf0:	3c058000 	lui	a1,0x8000
    1cf4:	24a50490 	addiu	a1,a1,1168
    1cf8:	8ca40010 	lw	a0,16(a1)
    1cfc:	8ca60014 	lw	a2,20(a1)
    1d00:	00042200 	sll	a0,a0,0x8
    1d04:	00442023 	subu	a0,v0,a0
    1d08:	0044182b 	sltu	v1,v0,a0
    1d0c:	00031823 	negu	v1,v1
    1d10:	00660018 	mult	v1,a2
    1d14:	3c028000 	lui	v0,0x8000
    1d18:	ac430488 	sw	v1,1160(v0)
    1d1c:	ac44048c 	sw	a0,1164(v0)
    1d20:	00001012 	mflo	v0
    1d24:	00000000 	nop
    1d28:	00000000 	nop
    1d2c:	00860019 	multu	a0,a2
    1d30:	00003010 	mfhi	a2
    1d34:	00462821 	addu	a1,v0,a2
    1d38:	3c02007f 	lui	v0,0x7f
    1d3c:	000537c3 	sra	a2,a1,0x1f
    1d40:	3442ffff 	ori	v0,v0,0xffff
    1d44:	00c21024 	and	v0,a2,v0
    1d48:	00003812 	mflo	a3
    1d4c:	00474021 	addu	t0,v0,a3
    1d50:	0102102b 	sltu	v0,t0,v0
    1d54:	00451021 	addu	v0,v0,a1
    1d58:	00022a40 	sll	a1,v0,0x9
    1d5c:	000845c2 	srl	t0,t0,0x17
    1d60:	00a84025 	or	t0,a1,t0
    1d64:	250907d0 	addiu	t1,t0,2000
    1d68:	000215c3 	sra	v0,v0,0x17
    1d6c:	0128502b 	sltu	t2,t1,t0
    1d70:	01425021 	addu	t2,t2,v0
    1d74:	3c078000 	lui	a3,0x8000
    1d78:	0461001d 	bgez	v1,1df0 <Sensors::Baro::updateTemperature()+0x110>
    1d7c:	3c068000 	lui	a2,0x8000
    1d80:	00640018 	mult	v1,a0
    1d84:	ace00480 	sw	zero,1152(a3)
    1d88:	acc00478 	sw	zero,1144(a2)
    1d8c:	00001012 	mflo	v0
    1d90:	00021040 	sll	v0,v0,0x1
    1d94:	00000000 	nop
    1d98:	00840019 	multu	a0,a0
    1d9c:	00002812 	mflo	a1
    1da0:	00051fc2 	srl	v1,a1,0x1f
    1da4:	00002010 	mfhi	a0
    1da8:	00442021 	addu	a0,v0,a0
    1dac:	00045840 	sll	t3,a0,0x1
    1db0:	01080018 	mult	t0,t0
    1db4:	000417c3 	sra	v0,a0,0x1f
    1db8:	00082042 	srl	a0,t0,0x1
    1dbc:	ace40484 	sw	a0,1156(a3)
    1dc0:	01631825 	or	v1,t3,v1
    1dc4:	00002012 	mflo	a0
    1dc8:	afa40010 	sw	a0,16(sp)
    1dcc:	24040005 	li	a0,5
    1dd0:	00002812 	mflo	a1
    1dd4:	00000000 	nop
    1dd8:	00000000 	nop
    1ddc:	00a40018 	mult	a1,a0
    1de0:	00002812 	mflo	a1
    1de4:	00052082 	srl	a0,a1,0x2
    1de8:	08000782 	j	1e08 <Sensors::Baro::updateTemperature()+0x128>
    1dec:	acc4047c 	sw	a0,1148(a2)
    1df0:	00001821 	move	v1,zero
    1df4:	00001021 	move	v0,zero
    1df8:	ace30484 	sw	v1,1156(a3)
    1dfc:	ace20480 	sw	v0,1152(a3)
    1e00:	acc3047c 	sw	v1,1148(a2)
    1e04:	acc20478 	sw	v0,1144(a2)
    1e08:	01238023 	subu	s0,t1,v1
    1e0c:	0130482b 	sltu	t1,t1,s0
    1e10:	01421023 	subu	v0,t2,v0
    1e14:	00491023 	subu	v0,v0,t1
    1e18:	2843ffff 	slti	v1,v0,-1
    1e1c:	14600005 	bnez	v1,1e34 <Sensors::Baro::updateTemperature()+0x154>
    1e20:	2403ffff 	li	v1,-1
    1e24:	1443001f 	bne	v0,v1,1ea4 <Sensors::Baro::updateTemperature()+0x1c4>
    1e28:	2e02fa24 	sltiu	v0,s0,-1500
    1e2c:	1040001d 	beqz	v0,1ea4 <Sensors::Baro::updateTemperature()+0x1c4>
    1e30:	00000000 	nop
    1e34:	260205dc 	addiu	v0,s0,1500
    1e38:	00420018 	mult	v0,v0
    1e3c:	24030007 	li	v1,7
    1e40:	8ce50480 	lw	a1,1152(a3)
    1e44:	00001012 	mflo	v0
    1e48:	00000000 	nop
    1e4c:	00000000 	nop
    1e50:	00430018 	mult	v0,v1
    1e54:	00002012 	mflo	a0
    1e58:	afa40010 	sw	a0,16(sp)
    1e5c:	8ce40484 	lw	a0,1156(a3)
    1e60:	00004012 	mflo	t0
    1e64:	00881821 	addu	v1,a0,t0
    1e68:	0064202b 	sltu	a0,v1,a0
    1e6c:	ace30484 	sw	v1,1156(a3)
    1e70:	2403000b 	li	v1,11
    1e74:	00430018 	mult	v0,v1
    1e78:	00852021 	addu	a0,a0,a1
    1e7c:	8cc3047c 	lw	v1,1148(a2)
    1e80:	ace40480 	sw	a0,1152(a3)
    1e84:	00002012 	mflo	a0
    1e88:	00041042 	srl	v0,a0,0x1
    1e8c:	00621021 	addu	v0,v1,v0
    1e90:	8cc40478 	lw	a0,1144(a2)
    1e94:	0043182b 	sltu	v1,v0,v1
    1e98:	00641821 	addu	v1,v1,a0
    1e9c:	acc30478 	sw	v1,1144(a2)
    1ea0:	acc2047c 	sw	v0,1148(a2)
    1ea4:	0c0003ee 	jal	fb8 <_ZN6System8Registry8instanceEv.local.11>
    1ea8:	00000000 	nop
    1eac:	8fbf001c 	lw	ra,28(sp)
    1eb0:	ac500080 	sw	s0,128(v0)
    1eb4:	8fb00018 	lw	s0,24(sp)
    1eb8:	03e00008 	jr	ra
    1ebc:	27bd0020 	addiu	sp,sp,32

00001ec0 <Sensors::IMU::MPU6050::update()>:
    1ec0:	27bdffb0 	addiu	sp,sp,-80
    1ec4:	afbf004c 	sw	ra,76(sp)
    1ec8:	afbe0048 	sw	s8,72(sp)
    1ecc:	afb70044 	sw	s7,68(sp)
    1ed0:	afb60040 	sw	s6,64(sp)
    1ed4:	afb5003c 	sw	s5,60(sp)
    1ed8:	afb40038 	sw	s4,56(sp)
    1edc:	afb30034 	sw	s3,52(sp)
    1ee0:	afb20030 	sw	s2,48(sp)
    1ee4:	afb1002c 	sw	s1,44(sp)
    1ee8:	0c000711 	jal	1c44 <System::Bus::I2C::start()>
    1eec:	afb00028 	sw	s0,40(sp)
    1ef0:	0c0006fd 	jal	1bf4 <System::Bus::I2C::write(unsigned char)>
    1ef4:	240400d0 	li	a0,208
    1ef8:	0c0006fd 	jal	1bf4 <System::Bus::I2C::write(unsigned char)>
    1efc:	2404003b 	li	a0,59
    1f00:	0c000708 	jal	1c20 <System::Bus::I2C::stop()>
    1f04:	00000000 	nop
    1f08:	0c000711 	jal	1c44 <System::Bus::I2C::start()>
    1f0c:	00000000 	nop
    1f10:	0c0006fd 	jal	1bf4 <System::Bus::I2C::write(unsigned char)>
    1f14:	240400d1 	li	a0,209
    1f18:	0c0003db 	jal	f6c <System::Bus::I2C::read()>
    1f1c:	00000000 	nop
    1f20:	0c0003db 	jal	f6c <System::Bus::I2C::read()>
    1f24:	afa20024 	sw	v0,36(sp)
    1f28:	0c0003db 	jal	f6c <System::Bus::I2C::read()>
    1f2c:	0040b021 	move	s6,v0
    1f30:	0c0003db 	jal	f6c <System::Bus::I2C::read()>
    1f34:	afa20020 	sw	v0,32(sp)
    1f38:	0c0003db 	jal	f6c <System::Bus::I2C::read()>
    1f3c:	0040a821 	move	s5,v0
    1f40:	0c0003db 	jal	f6c <System::Bus::I2C::read()>
    1f44:	afa2001c 	sw	v0,28(sp)
    1f48:	0c0003db 	jal	f6c <System::Bus::I2C::read()>
    1f4c:	0040a021 	move	s4,v0
    1f50:	0c0003db 	jal	f6c <System::Bus::I2C::read()>
    1f54:	0040b821 	move	s7,v0
    1f58:	0c0003db 	jal	f6c <System::Bus::I2C::read()>
    1f5c:	00408021 	move	s0,v0
    1f60:	0c0003db 	jal	f6c <System::Bus::I2C::read()>
    1f64:	afa20018 	sw	v0,24(sp)
    1f68:	0c0003db 	jal	f6c <System::Bus::I2C::read()>
    1f6c:	00409821 	move	s3,v0
    1f70:	0c0003db 	jal	f6c <System::Bus::I2C::read()>
    1f74:	afa20014 	sw	v0,20(sp)
    1f78:	0c0003db 	jal	f6c <System::Bus::I2C::read()>
    1f7c:	00409021 	move	s2,v0
    1f80:	240400ff 	li	a0,255
    1f84:	0c0006fd 	jal	1bf4 <System::Bus::I2C::write(unsigned char)>
    1f88:	0040f021 	move	s8,v0
    1f8c:	0c000708 	jal	1c20 <System::Bus::I2C::stop()>
    1f90:	00408821 	move	s1,v0
    1f94:	8fa80024 	lw	t0,36(sp)
    1f98:	00000000 	nop
    1f9c:	00082200 	sll	a0,t0,0x8
    1fa0:	0c0003c2 	jal	f08 <_ZN4MathL11sign_extendEi.3522.1903>
    1fa4:	00962025 	or	a0,a0,s6
    1fa8:	8fa70020 	lw	a3,32(sp)
    1fac:	0040b021 	move	s6,v0
    1fb0:	00072200 	sll	a0,a3,0x8
    1fb4:	0c0003c2 	jal	f08 <_ZN4MathL11sign_extendEi.3522.1903>
    1fb8:	00952025 	or	a0,a0,s5
    1fbc:	8fa6001c 	lw	a2,28(sp)
    1fc0:	0040a821 	move	s5,v0
    1fc4:	00062200 	sll	a0,a2,0x8
    1fc8:	0c0003c2 	jal	f08 <_ZN4MathL11sign_extendEi.3522.1903>
    1fcc:	00942025 	or	a0,a0,s4
    1fd0:	8fa50018 	lw	a1,24(sp)
    1fd4:	0040a021 	move	s4,v0
    1fd8:	00052200 	sll	a0,a1,0x8
    1fdc:	0c0003c2 	jal	f08 <_ZN4MathL11sign_extendEi.3522.1903>
    1fe0:	00932025 	or	a0,a0,s3
    1fe4:	8fa30014 	lw	v1,20(sp)
    1fe8:	00409821 	move	s3,v0
    1fec:	00032200 	sll	a0,v1,0x8
    1ff0:	0c0003c2 	jal	f08 <_ZN4MathL11sign_extendEi.3522.1903>
    1ff4:	00922025 	or	a0,a0,s2
    1ff8:	001e2200 	sll	a0,s8,0x8
    1ffc:	00912025 	or	a0,a0,s1
    2000:	0c0003c2 	jal	f08 <_ZN4MathL11sign_extendEi.3522.1903>
    2004:	00409021 	move	s2,v0
    2008:	00172200 	sll	a0,s7,0x8
    200c:	00902025 	or	a0,a0,s0
    2010:	0c0003c2 	jal	f08 <_ZN4MathL11sign_extendEi.3522.1903>
    2014:	00408821 	move	s1,v0
    2018:	00022fc2 	srl	a1,v0,0x1f
    201c:	10a00002 	beqz	a1,2028 <Sensors::IMU::MPU6050::update()+0x168>
    2020:	24030064 	li	v1,100
    2024:	00021023 	negu	v0,v0
    2028:	00430018 	mult	v0,v1
    202c:	00008021 	move	s0,zero
    2030:	2403001f 	li	v1,31
    2034:	24060001 	li	a2,1
    2038:	2402ffff 	li	v0,-1
    203c:	00002012 	mflo	a0
    2040:	afa40010 	sw	a0,16(sp)
    2044:	00002021 	move	a0,zero
    2048:	8fa80010 	lw	t0,16(sp)
    204c:	00663804 	sllv	a3,a2,v1
    2050:	00e83824 	and	a3,a3,t0
    2054:	00673807 	srav	a3,a3,v1
    2058:	00042040 	sll	a0,a0,0x1
    205c:	00872021 	addu	a0,a0,a3
    2060:	28870154 	slti	a3,a0,340
    2064:	14e00003 	bnez	a3,2074 <Sensors::IMU::MPU6050::update()+0x1b4>
    2068:	00108040 	sll	s0,s0,0x1
    206c:	2484feac 	addiu	a0,a0,-340
    2070:	26100001 	addiu	s0,s0,1
    2074:	2463ffff 	addiu	v1,v1,-1
    2078:	1462fff3 	bne	v1,v0,2048 <Sensors::IMU::MPU6050::update()+0x188>
    207c:	00000000 	nop
    2080:	10a00002 	beqz	a1,208c <Sensors::IMU::MPU6050::update()+0x1cc>
    2084:	00000000 	nop
    2088:	00108023 	negu	s0,s0
    208c:	0c0003ee 	jal	fb8 <_ZN6System8Registry8instanceEv.local.11>
    2090:	26100e45 	addiu	s0,s0,3653
    2094:	0c0003ee 	jal	fb8 <_ZN6System8Registry8instanceEv.local.11>
    2098:	ac50007c 	sw	s0,124(v0)
    209c:	0c0003ee 	jal	fb8 <_ZN6System8Registry8instanceEv.local.11>
    20a0:	ac560028 	sw	s6,40(v0)
    20a4:	0c0003ee 	jal	fb8 <_ZN6System8Registry8instanceEv.local.11>
    20a8:	ac55002c 	sw	s5,44(v0)
    20ac:	0c0003ee 	jal	fb8 <_ZN6System8Registry8instanceEv.local.11>
    20b0:	ac540030 	sw	s4,48(v0)
    20b4:	8c420058 	lw	v0,88(v0)
    20b8:	0c0003ee 	jal	fb8 <_ZN6System8Registry8instanceEv.local.11>
    20bc:	02629823 	subu	s3,s3,v0
    20c0:	0c0003ee 	jal	fb8 <_ZN6System8Registry8instanceEv.local.11>
    20c4:	ac53004c 	sw	s3,76(v0)
    20c8:	8c42005c 	lw	v0,92(v0)
    20cc:	0c0003ee 	jal	fb8 <_ZN6System8Registry8instanceEv.local.11>
    20d0:	02429023 	subu	s2,s2,v0
    20d4:	0c0003ee 	jal	fb8 <_ZN6System8Registry8instanceEv.local.11>
    20d8:	ac520050 	sw	s2,80(v0)
    20dc:	8c420060 	lw	v0,96(v0)
    20e0:	0c0003ee 	jal	fb8 <_ZN6System8Registry8instanceEv.local.11>
    20e4:	02228823 	subu	s1,s1,v0
    20e8:	8fbf004c 	lw	ra,76(sp)
    20ec:	ac510054 	sw	s1,84(v0)
    20f0:	8fbe0048 	lw	s8,72(sp)
    20f4:	8fb70044 	lw	s7,68(sp)
    20f8:	8fb60040 	lw	s6,64(sp)
    20fc:	8fb5003c 	lw	s5,60(sp)
    2100:	8fb40038 	lw	s4,56(sp)
    2104:	8fb30034 	lw	s3,52(sp)
    2108:	8fb20030 	lw	s2,48(sp)
    210c:	8fb1002c 	lw	s1,44(sp)
    2110:	8fb00028 	lw	s0,40(sp)
    2114:	03e00008 	jr	ra
    2118:	27bd0050 	addiu	sp,sp,80

0000211c <Sensors::IMU::MPU6050::CalibrationTask::start()>:
    211c:	90820038 	lbu	v0,56(a0)
    2120:	27bdffe0 	addiu	sp,sp,-32
    2124:	afb00014 	sw	s0,20(sp)
    2128:	afbf001c 	sw	ra,28(sp)
    212c:	afb10018 	sw	s1,24(sp)
    2130:	1040000c 	beqz	v0,2164 <Sensors::IMU::MPU6050::CalibrationTask::start()+0x48>
    2134:	00808021 	move	s0,a0
    2138:	ac800034 	sw	zero,52(a0)
    213c:	ac800030 	sw	zero,48(a0)
    2140:	ac80002c 	sw	zero,44(a0)
    2144:	ac800028 	sw	zero,40(a0)
    2148:	ac800024 	sw	zero,36(a0)
    214c:	ac800020 	sw	zero,32(a0)
    2150:	ac80001c 	sw	zero,28(a0)
    2154:	3c048000 	lui	a0,0x8000
    2158:	0c0005b5 	jal	16d4 <_ZN6System3Bus4UART13write_waitingEPKcj.constprop.49>
    215c:	24840074 	addiu	a0,a0,116
    2160:	a2000038 	sb	zero,56(s0)
    2164:	0c0007b0 	jal	1ec0 <Sensors::IMU::MPU6050::update()>
    2168:	00000000 	nop
    216c:	0c0003ee 	jal	fb8 <_ZN6System8Registry8instanceEv.local.11>
    2170:	00000000 	nop
    2174:	8c42004c 	lw	v0,76(v0)
    2178:	8e030028 	lw	v1,40(s0)
    217c:	00000000 	nop
    2180:	00621821 	addu	v1,v1,v0
    2184:	0c0003ee 	jal	fb8 <_ZN6System8Registry8instanceEv.local.11>
    2188:	ae030028 	sw	v1,40(s0)
    218c:	8c420050 	lw	v0,80(v0)
    2190:	8e03002c 	lw	v1,44(s0)
    2194:	00000000 	nop
    2198:	00621821 	addu	v1,v1,v0
    219c:	0c0003ee 	jal	fb8 <_ZN6System8Registry8instanceEv.local.11>
    21a0:	ae03002c 	sw	v1,44(s0)
    21a4:	8c420054 	lw	v0,84(v0)
    21a8:	8e030030 	lw	v1,48(s0)
    21ac:	00000000 	nop
    21b0:	00621821 	addu	v1,v1,v0
    21b4:	8e020034 	lw	v0,52(s0)
    21b8:	ae030030 	sw	v1,48(s0)
    21bc:	2c432000 	sltiu	v1,v0,8192
    21c0:	1460004a 	bnez	v1,22ec <Sensors::IMU::MPU6050::CalibrationTask::start()+0x1d0>
    21c4:	24420001 	addiu	v0,v0,1
    21c8:	00001021 	move	v0,zero
    21cc:	2406000c 	li	a2,12
    21d0:	02022021 	addu	a0,s0,v0
    21d4:	8c830028 	lw	v1,40(a0)
    21d8:	00000000 	nop
    21dc:	04610003 	bgez	v1,21ec <Sensors::IMU::MPU6050::CalibrationTask::start()+0xd0>
    21e0:	00002821 	move	a1,zero
    21e4:	00031823 	negu	v1,v1
    21e8:	24050001 	li	a1,1
    21ec:	10a00002 	beqz	a1,21f8 <Sensors::IMU::MPU6050::CalibrationTask::start()+0xdc>
    21f0:	00031b43 	sra	v1,v1,0xd
    21f4:	00031823 	negu	v1,v1
    21f8:	24420004 	addiu	v0,v0,4
    21fc:	1446fff4 	bne	v0,a2,21d0 <Sensors::IMU::MPU6050::CalibrationTask::start()+0xb4>
    2200:	ac830028 	sw	v1,40(a0)
    2204:	8e110028 	lw	s1,40(s0)
    2208:	0c0003ee 	jal	fb8 <_ZN6System8Registry8instanceEv.local.11>
    220c:	00000000 	nop
    2210:	ac510058 	sw	s1,88(v0)
    2214:	8e11002c 	lw	s1,44(s0)
    2218:	0c0003ee 	jal	fb8 <_ZN6System8Registry8instanceEv.local.11>
    221c:	00000000 	nop
    2220:	ac51005c 	sw	s1,92(v0)
    2224:	8e110030 	lw	s1,48(s0)
    2228:	0c0003ee 	jal	fb8 <_ZN6System8Registry8instanceEv.local.11>
    222c:	00000000 	nop
    2230:	3c048000 	lui	a0,0x8000
    2234:	ac510060 	sw	s1,96(v0)
    2238:	0c0005b5 	jal	16d4 <_ZN6System3Bus4UART13write_waitingEPKcj.constprop.49>
    223c:	2484008c 	addiu	a0,a0,140
    2240:	8e040028 	lw	a0,40(s0)
    2244:	0c0004bf 	jal	12fc <_Z8b32todeci.1680>
    2248:	00000000 	nop
    224c:	00602821 	move	a1,v1
    2250:	0c0005f5 	jal	17d4 <System::Bus::UART::write_waiting(long long)>
    2254:	00402021 	move	a0,v0
    2258:	0c0005ec 	jal	17b0 <System::Bus::UART::write_waiting(char)>
    225c:	2404000a 	li	a0,10
    2260:	3c048000 	lui	a0,0x8000
    2264:	0c0005b5 	jal	16d4 <_ZN6System3Bus4UART13write_waitingEPKcj.constprop.49>
    2268:	24840094 	addiu	a0,a0,148
    226c:	8e04002c 	lw	a0,44(s0)
    2270:	0c0004bf 	jal	12fc <_Z8b32todeci.1680>
    2274:	00000000 	nop
    2278:	00602821 	move	a1,v1
    227c:	0c0005f5 	jal	17d4 <System::Bus::UART::write_waiting(long long)>
    2280:	00402021 	move	a0,v0
    2284:	0c0005ec 	jal	17b0 <System::Bus::UART::write_waiting(char)>
    2288:	2404000a 	li	a0,10
    228c:	3c048000 	lui	a0,0x8000
    2290:	0c0005b5 	jal	16d4 <_ZN6System3Bus4UART13write_waitingEPKcj.constprop.49>
    2294:	2484009c 	addiu	a0,a0,156
    2298:	8e040030 	lw	a0,48(s0)
    229c:	0c0004bf 	jal	12fc <_Z8b32todeci.1680>
    22a0:	00000000 	nop
    22a4:	00602821 	move	a1,v1
    22a8:	0c0005f5 	jal	17d4 <System::Bus::UART::write_waiting(long long)>
    22ac:	00402021 	move	a0,v0
    22b0:	0c0005ec 	jal	17b0 <System::Bus::UART::write_waiting(char)>
    22b4:	2404000a 	li	a0,10
    22b8:	3c048000 	lui	a0,0x8000
    22bc:	0c0005b5 	jal	16d4 <_ZN6System3Bus4UART13write_waitingEPKcj.constprop.49>
    22c0:	248400a4 	addiu	a0,a0,164
    22c4:	24020001 	li	v0,1
    22c8:	0c0006ea 	jal	1ba8 <System::Tasking::TaskScheduler::instance()>
    22cc:	a2020038 	sb	v0,56(s0)
    22d0:	8fbf001c 	lw	ra,28(sp)
    22d4:	8fb10018 	lw	s1,24(sp)
    22d8:	02002821 	move	a1,s0
    22dc:	8fb00014 	lw	s0,20(sp)
    22e0:	00402021 	move	a0,v0
    22e4:	080006c4 	j	1b10 <System::Tasking::TaskScheduler::removeTask(System::Tasking::Task*)>
    22e8:	27bd0020 	addiu	sp,sp,32
    22ec:	8fbf001c 	lw	ra,28(sp)
    22f0:	8fb10018 	lw	s1,24(sp)
    22f4:	ae020034 	sw	v0,52(s0)
    22f8:	8fb00014 	lw	s0,20(sp)
    22fc:	03e00008 	jr	ra
    2300:	27bd0020 	addiu	sp,sp,32

00002304 <Control::MagnetometerTask::start()>:
    2304:	27bdffd0 	addiu	sp,sp,-48
    2308:	afbf002c 	sw	ra,44(sp)
    230c:	afb50028 	sw	s5,40(sp)
    2310:	afb40024 	sw	s4,36(sp)
    2314:	afb30020 	sw	s3,32(sp)
    2318:	afb2001c 	sw	s2,28(sp)
    231c:	afb00014 	sw	s0,20(sp)
    2320:	0c000711 	jal	1c44 <System::Bus::I2C::start()>
    2324:	afb10018 	sw	s1,24(sp)
    2328:	0c0006fd 	jal	1bf4 <System::Bus::I2C::write(unsigned char)>
    232c:	2404003c 	li	a0,60
    2330:	0c0006fd 	jal	1bf4 <System::Bus::I2C::write(unsigned char)>
    2334:	24040003 	li	a0,3
    2338:	0c000708 	jal	1c20 <System::Bus::I2C::stop()>
    233c:	00000000 	nop
    2340:	0c000711 	jal	1c44 <System::Bus::I2C::start()>
    2344:	00000000 	nop
    2348:	0c0006fd 	jal	1bf4 <System::Bus::I2C::write(unsigned char)>
    234c:	2404003d 	li	a0,61
    2350:	0c0003db 	jal	f6c <System::Bus::I2C::read()>
    2354:	00000000 	nop
    2358:	0c0003db 	jal	f6c <System::Bus::I2C::read()>
    235c:	00409021 	move	s2,v0
    2360:	0c0003db 	jal	f6c <System::Bus::I2C::read()>
    2364:	0040a821 	move	s5,v0
    2368:	00408021 	move	s0,v0
    236c:	0c0003db 	jal	f6c <System::Bus::I2C::read()>
    2370:	00129200 	sll	s2,s2,0x8
    2374:	00409821 	move	s3,v0
    2378:	0c0003db 	jal	f6c <System::Bus::I2C::read()>
    237c:	02559025 	or	s2,s2,s5
    2380:	240400ff 	li	a0,255
    2384:	0c0006fd 	jal	1bf4 <System::Bus::I2C::write(unsigned char)>
    2388:	0040a021 	move	s4,v0
    238c:	3243ffff 	andi	v1,s2,0xffff
    2390:	00031bc3 	sra	v1,v1,0xf
    2394:	10600002 	beqz	v1,23a0 <Control::MagnetometerTask::start()+0x9c>
    2398:	3c03ffff 	lui	v1,0xffff
    239c:	02439025 	or	s2,s2,v1
    23a0:	00148a00 	sll	s1,s4,0x8
    23a4:	02228825 	or	s1,s1,v0
    23a8:	3222ffff 	andi	v0,s1,0xffff
    23ac:	000213c3 	sra	v0,v0,0xf
    23b0:	10400002 	beqz	v0,23bc <Control::MagnetometerTask::start()+0xb8>
    23b4:	3c02ffff 	lui	v0,0xffff
    23b8:	02228825 	or	s1,s1,v0
    23bc:	00108200 	sll	s0,s0,0x8
    23c0:	02138025 	or	s0,s0,s3
    23c4:	3202ffff 	andi	v0,s0,0xffff
    23c8:	000213c3 	sra	v0,v0,0xf
    23cc:	10400002 	beqz	v0,23d8 <Control::MagnetometerTask::start()+0xd4>
    23d0:	3c02ffff 	lui	v0,0xffff
    23d4:	02028025 	or	s0,s0,v0
    23d8:	0c000708 	jal	1c20 <System::Bus::I2C::stop()>
    23dc:	00000000 	nop
    23e0:	0c0003ee 	jal	fb8 <_ZN6System8Registry8instanceEv.local.11>
    23e4:	00000000 	nop
    23e8:	0c0003ee 	jal	fb8 <_ZN6System8Registry8instanceEv.local.11>
    23ec:	ac520064 	sw	s2,100(v0)
    23f0:	0c0003ee 	jal	fb8 <_ZN6System8Registry8instanceEv.local.11>
    23f4:	ac510068 	sw	s1,104(v0)
    23f8:	8fbf002c 	lw	ra,44(sp)
    23fc:	ac50006c 	sw	s0,108(v0)
    2400:	8fb50028 	lw	s5,40(sp)
    2404:	8fb40024 	lw	s4,36(sp)
    2408:	8fb30020 	lw	s3,32(sp)
    240c:	8fb2001c 	lw	s2,28(sp)
    2410:	8fb10018 	lw	s1,24(sp)
    2414:	8fb00014 	lw	s0,20(sp)
    2418:	03e00008 	jr	ra
    241c:	27bd0030 	addiu	sp,sp,48

00002420 <_ZN7Sensors3IMU7MPU6050L13mpu6050_setupEcc.3551>:
    2420:	27bdffe0 	addiu	sp,sp,-32
    2424:	afbf001c 	sw	ra,28(sp)
    2428:	afb10018 	sw	s1,24(sp)
    242c:	afb00014 	sw	s0,20(sp)
    2430:	00a08821 	move	s1,a1
    2434:	0c000711 	jal	1c44 <System::Bus::I2C::start()>
    2438:	00808021 	move	s0,a0
    243c:	0c0006fd 	jal	1bf4 <System::Bus::I2C::write(unsigned char)>
    2440:	240400d0 	li	a0,208
    2444:	0c0006fd 	jal	1bf4 <System::Bus::I2C::write(unsigned char)>
    2448:	320400ff 	andi	a0,s0,0xff
    244c:	0c0006fd 	jal	1bf4 <System::Bus::I2C::write(unsigned char)>
    2450:	322400ff 	andi	a0,s1,0xff
    2454:	8fbf001c 	lw	ra,28(sp)
    2458:	8fb10018 	lw	s1,24(sp)
    245c:	8fb00014 	lw	s0,20(sp)
    2460:	08000708 	j	1c20 <System::Bus::I2C::stop()>
    2464:	27bd0020 	addiu	sp,sp,32

00002468 <float32::normalizeRoundAndPack(bool, int, unsigned int)>:
    2468:	27bdffe0 	addiu	sp,sp,-32
    246c:	afb20018 	sw	s2,24(sp)
    2470:	00809021 	move	s2,a0
    2474:	00c02021 	move	a0,a2
    2478:	afbf001c 	sw	ra,28(sp)
    247c:	afb10014 	sw	s1,20(sp)
    2480:	afb00010 	sw	s0,16(sp)
    2484:	00a08821 	move	s1,a1
    2488:	0c00037d 	jal	df4 <_ZN7float3219countLeadingZeros32Ej.1870>
    248c:	00c08021 	move	s0,a2
    2490:	2442ffff 	addiu	v0,v0,-1
    2494:	00023600 	sll	a2,v0,0x18
    2498:	00063603 	sra	a2,a2,0x18
    249c:	02262823 	subu	a1,s1,a2
    24a0:	8fbf001c 	lw	ra,28(sp)
    24a4:	8fb10014 	lw	s1,20(sp)
    24a8:	02402021 	move	a0,s2
    24ac:	00d03004 	sllv	a2,s0,a2
    24b0:	8fb20018 	lw	s2,24(sp)
    24b4:	8fb00010 	lw	s0,16(sp)
    24b8:	080002f4 	j	bd0 <_ZN7float3212roundAndPackEbij.1855>
    24bc:	27bd0020 	addiu	sp,sp,32

000024c0 <float32::float32(int)>:
    24c0:	27bdffe8 	addiu	sp,sp,-24
    24c4:	afb00010 	sw	s0,16(sp)
    24c8:	afbf0014 	sw	ra,20(sp)
    24cc:	14a00003 	bnez	a1,24dc <float32::float32(int)+0x1c>
    24d0:	00808021 	move	s0,a0
    24d4:	08000942 	j	2508 <float32::float32(int)+0x48>
    24d8:	ac800000 	sw	zero,0(a0)
    24dc:	3c028000 	lui	v0,0x8000
    24e0:	14a20003 	bne	a1,v0,24f0 <float32::float32(int)+0x30>
    24e4:	000527c2 	srl	a0,a1,0x1f
    24e8:	08000941 	j	2504 <float32::float32(int)+0x44>
    24ec:	3c02cf00 	lui	v0,0xcf00
    24f0:	10800002 	beqz	a0,24fc <float32::float32(int)+0x3c>
    24f4:	00a03021 	move	a2,a1
    24f8:	00053023 	negu	a2,a1
    24fc:	0c00091a 	jal	2468 <float32::normalizeRoundAndPack(bool, int, unsigned int)>
    2500:	2405009c 	li	a1,156
    2504:	ae020000 	sw	v0,0(s0)
    2508:	8fbf0014 	lw	ra,20(sp)
    250c:	8fb00010 	lw	s0,16(sp)
    2510:	03e00008 	jr	ra
    2514:	27bd0018 	addiu	sp,sp,24

00002518 <_ZN7float32C2Ej.part.0.4035>:
    2518:	27bdffe8 	addiu	sp,sp,-24
    251c:	00a03021 	move	a2,a1
    2520:	2405009c 	li	a1,156
    2524:	afb00010 	sw	s0,16(sp)
    2528:	00808021 	move	s0,a0
    252c:	afbf0014 	sw	ra,20(sp)
    2530:	0c00091a 	jal	2468 <float32::normalizeRoundAndPack(bool, int, unsigned int)>
    2534:	00002021 	move	a0,zero
    2538:	8fbf0014 	lw	ra,20(sp)
    253c:	ae020000 	sw	v0,0(s0)
    2540:	8fb00010 	lw	s0,16(sp)
    2544:	03e00008 	jr	ra
    2548:	27bd0018 	addiu	sp,sp,24

0000254c <_ZN7float327subSigsEjjb.1832>:
    254c:	27bdffd8 	addiu	sp,sp,-40
    2550:	3c03007f 	lui	v1,0x7f
    2554:	00a03821 	move	a3,a1
    2558:	3463ffff 	ori	v1,v1,0xffff
    255c:	afb1001c 	sw	s1,28(sp)
    2560:	afb00018 	sw	s0,24(sp)
    2564:	00058dc2 	srl	s1,a1,0x17
    2568:	000485c2 	srl	s0,a0,0x17
    256c:	00801021 	move	v0,a0
    2570:	321000ff 	andi	s0,s0,0xff
    2574:	00832024 	and	a0,a0,v1
    2578:	323100ff 	andi	s1,s1,0xff
    257c:	00e31824 	and	v1,a3,v1
    2580:	000421c0 	sll	a0,a0,0x7
    2584:	000319c0 	sll	v1,v1,0x7
    2588:	02112823 	subu	a1,s0,s1
    258c:	afb20020 	sw	s2,32(sp)
    2590:	afbf0024 	sw	ra,36(sp)
    2594:	00c09021 	move	s2,a2
    2598:	afa40014 	sw	a0,20(sp)
    259c:	1ca0002b 	bgtz	a1,264c <_ZN7float327subSigsEjjb.1832+0x100>
    25a0:	afa30010 	sw	v1,16(sp)
    25a4:	14a0000e 	bnez	a1,25e0 <_ZN7float327subSigsEjjb.1832+0x94>
    25a8:	00000000 	nop
    25ac:	240500ff 	li	a1,255
    25b0:	1205003d 	beq	s0,a1,26a8 <_ZN7float327subSigsEjjb.1832+0x15c>
    25b4:	2402ffff 	li	v0,-1
    25b8:	16000003 	bnez	s0,25c8 <_ZN7float327subSigsEjjb.1832+0x7c>
    25bc:	0064102b 	sltu	v0,v1,a0
    25c0:	24110001 	li	s1,1
    25c4:	24100001 	li	s0,1
    25c8:	14400030 	bnez	v0,268c <_ZN7float327subSigsEjjb.1832+0x140>
    25cc:	0083182b 	sltu	v1,a0,v1
    25d0:	10600035 	beqz	v1,26a8 <_ZN7float327subSigsEjjb.1832+0x15c>
    25d4:	00001021 	move	v0,zero
    25d8:	0800098d 	j	2634 <_ZN7float327subSigsEjjb.1832+0xe8>
    25dc:	00000000 	nop
    25e0:	240200ff 	li	v0,255
    25e4:	16220005 	bne	s1,v0,25fc <_ZN7float327subSigsEjjb.1832+0xb0>
    25e8:	38c20001 	xori	v0,a2,0x1
    25ec:	000217c0 	sll	v0,v0,0x1f
    25f0:	3c037f80 	lui	v1,0x7f80
    25f4:	080009aa 	j	26a8 <_ZN7float327subSigsEjjb.1832+0x15c>
    25f8:	00431021 	addu	v0,v0,v1
    25fc:	16000003 	bnez	s0,260c <_ZN7float327subSigsEjjb.1832+0xc0>
    2600:	3c034000 	lui	v1,0x4000
    2604:	08000985 	j	2614 <_ZN7float327subSigsEjjb.1832+0xc8>
    2608:	24a50001 	addiu	a1,a1,1
    260c:	00832025 	or	a0,a0,v1
    2610:	afa40014 	sw	a0,20(sp)
    2614:	8fa40014 	lw	a0,20(sp)
    2618:	00052823 	negu	a1,a1
    261c:	0c0002e8 	jal	ba0 <_ZN7float3219shift32RightJammingEjiPj.1865>
    2620:	27a60014 	addiu	a2,sp,20
    2624:	8fa30010 	lw	v1,16(sp)
    2628:	3c024000 	lui	v0,0x4000
    262c:	00621025 	or	v0,v1,v0
    2630:	afa20010 	sw	v0,16(sp)
    2634:	8fa20014 	lw	v0,20(sp)
    2638:	8fa60010 	lw	a2,16(sp)
    263c:	3a520001 	xori	s2,s2,0x1
    2640:	00c23023 	subu	a2,a2,v0
    2644:	080009a7 	j	269c <_ZN7float327subSigsEjjb.1832+0x150>
    2648:	02202821 	move	a1,s1
    264c:	240400ff 	li	a0,255
    2650:	12040015 	beq	s0,a0,26a8 <_ZN7float327subSigsEjjb.1832+0x15c>
    2654:	00000000 	nop
    2658:	16200003 	bnez	s1,2668 <_ZN7float327subSigsEjjb.1832+0x11c>
    265c:	3c024000 	lui	v0,0x4000
    2660:	0800099c 	j	2670 <_ZN7float327subSigsEjjb.1832+0x124>
    2664:	24a5ffff 	addiu	a1,a1,-1
    2668:	00621825 	or	v1,v1,v0
    266c:	afa30010 	sw	v1,16(sp)
    2670:	8fa40010 	lw	a0,16(sp)
    2674:	0c0002e8 	jal	ba0 <_ZN7float3219shift32RightJammingEjiPj.1865>
    2678:	27a60010 	addiu	a2,sp,16
    267c:	8fa30014 	lw	v1,20(sp)
    2680:	3c024000 	lui	v0,0x4000
    2684:	00621025 	or	v0,v1,v0
    2688:	afa20014 	sw	v0,20(sp)
    268c:	8fa20010 	lw	v0,16(sp)
    2690:	8fa60014 	lw	a2,20(sp)
    2694:	02002821 	move	a1,s0
    2698:	00c23023 	subu	a2,a2,v0
    269c:	02402021 	move	a0,s2
    26a0:	0c00091a 	jal	2468 <float32::normalizeRoundAndPack(bool, int, unsigned int)>
    26a4:	24a5ffff 	addiu	a1,a1,-1
    26a8:	8fbf0024 	lw	ra,36(sp)
    26ac:	8fb20020 	lw	s2,32(sp)
    26b0:	8fb1001c 	lw	s1,28(sp)
    26b4:	8fb00018 	lw	s0,24(sp)
    26b8:	03e00008 	jr	ra
    26bc:	27bd0028 	addiu	sp,sp,40

000026c0 <float32::operator+(float32 const&) const>:
    26c0:	27bdffe8 	addiu	sp,sp,-24
    26c4:	afb00010 	sw	s0,16(sp)
    26c8:	00808021 	move	s0,a0
    26cc:	8ca40000 	lw	a0,0(a1)
    26d0:	8cc50000 	lw	a1,0(a2)
    26d4:	000417c2 	srl	v0,a0,0x1f
    26d8:	00051fc2 	srl	v1,a1,0x1f
    26dc:	afbf0014 	sw	ra,20(sp)
    26e0:	14430005 	bne	v0,v1,26f8 <float32::operator+(float32 const&) const+0x38>
    26e4:	00403021 	move	a2,v0
    26e8:	0c000323 	jal	c8c <_ZN7float327addSigsEjjb.1850>
    26ec:	00000000 	nop
    26f0:	080009c0 	j	2700 <float32::operator+(float32 const&) const+0x40>
    26f4:	00000000 	nop
    26f8:	0c000953 	jal	254c <_ZN7float327subSigsEjjb.1832>
    26fc:	00000000 	nop
    2700:	8fbf0014 	lw	ra,20(sp)
    2704:	ae020000 	sw	v0,0(s0)
    2708:	02001021 	move	v0,s0
    270c:	8fb00010 	lw	s0,16(sp)
    2710:	03e00008 	jr	ra
    2714:	27bd0018 	addiu	sp,sp,24

00002718 <float32::operator+=(float32 const&)>:
    2718:	27bdffe0 	addiu	sp,sp,-32
    271c:	afb00018 	sw	s0,24(sp)
    2720:	00808021 	move	s0,a0
    2724:	00a03021 	move	a2,a1
    2728:	27a40010 	addiu	a0,sp,16
    272c:	afbf001c 	sw	ra,28(sp)
    2730:	0c0009b0 	jal	26c0 <float32::operator+(float32 const&) const>
    2734:	02002821 	move	a1,s0
    2738:	8fa20010 	lw	v0,16(sp)
    273c:	8fbf001c 	lw	ra,28(sp)
    2740:	ae020000 	sw	v0,0(s0)
    2744:	02001021 	move	v0,s0
    2748:	8fb00018 	lw	s0,24(sp)
    274c:	03e00008 	jr	ra
    2750:	27bd0020 	addiu	sp,sp,32

00002754 <float32::operator-(float32 const&) const>:
    2754:	27bdffe8 	addiu	sp,sp,-24
    2758:	afb00010 	sw	s0,16(sp)
    275c:	00808021 	move	s0,a0
    2760:	8ca40000 	lw	a0,0(a1)
    2764:	8cc50000 	lw	a1,0(a2)
    2768:	000437c2 	srl	a2,a0,0x1f
    276c:	000517c2 	srl	v0,a1,0x1f
    2770:	14c20005 	bne	a2,v0,2788 <float32::operator-(float32 const&) const+0x34>
    2774:	afbf0014 	sw	ra,20(sp)
    2778:	0c000953 	jal	254c <_ZN7float327subSigsEjjb.1832>
    277c:	00000000 	nop
    2780:	080009e4 	j	2790 <float32::operator-(float32 const&) const+0x3c>
    2784:	00000000 	nop
    2788:	0c000323 	jal	c8c <_ZN7float327addSigsEjjb.1850>
    278c:	00000000 	nop
    2790:	8fbf0014 	lw	ra,20(sp)
    2794:	ae020000 	sw	v0,0(s0)
    2798:	02001021 	move	v0,s0
    279c:	8fb00010 	lw	s0,16(sp)
    27a0:	03e00008 	jr	ra
    27a4:	27bd0018 	addiu	sp,sp,24

000027a8 <float32::operator-=(float32 const&)>:
    27a8:	27bdffe0 	addiu	sp,sp,-32
    27ac:	afb00018 	sw	s0,24(sp)
    27b0:	00808021 	move	s0,a0
    27b4:	00a03021 	move	a2,a1
    27b8:	27a40010 	addiu	a0,sp,16
    27bc:	afbf001c 	sw	ra,28(sp)
    27c0:	0c0009d5 	jal	2754 <float32::operator-(float32 const&) const>
    27c4:	02002821 	move	a1,s0
    27c8:	8fa20010 	lw	v0,16(sp)
    27cc:	8fbf001c 	lw	ra,28(sp)
    27d0:	ae020000 	sw	v0,0(s0)
    27d4:	02001021 	move	v0,s0
    27d8:	8fb00018 	lw	s0,24(sp)
    27dc:	03e00008 	jr	ra
    27e0:	27bd0020 	addiu	sp,sp,32

000027e4 <float32::operator*(float32 const&) const>:
    27e4:	27bdffd0 	addiu	sp,sp,-48
    27e8:	8ca20000 	lw	v0,0(a1)
    27ec:	afb10028 	sw	s1,40(sp)
    27f0:	8cd10000 	lw	s1,0(a2)
    27f4:	3c06007f 	lui	a2,0x7f
    27f8:	34c6ffff 	ori	a2,a2,0xffff
    27fc:	00021dc2 	srl	v1,v0,0x17
    2800:	00112dc2 	srl	a1,s1,0x17
    2804:	afb00024 	sw	s0,36(sp)
    2808:	306300ff 	andi	v1,v1,0xff
    280c:	00808021 	move	s0,a0
    2810:	30a500ff 	andi	a1,a1,0xff
    2814:	00462024 	and	a0,v0,a2
    2818:	02263024 	and	a2,s1,a2
    281c:	00518826 	xor	s1,v0,s1
    2820:	240200ff 	li	v0,255
    2824:	afbf002c 	sw	ra,44(sp)
    2828:	afa4001c 	sw	a0,28(sp)
    282c:	afa30014 	sw	v1,20(sp)
    2830:	afa60018 	sw	a2,24(sp)
    2834:	afa50010 	sw	a1,16(sp)
    2838:	14620006 	bne	v1,v0,2854 <float32::operator*(float32 const&) const+0x70>
    283c:	00118fc2 	srl	s1,s1,0x1f
    2840:	00a62825 	or	a1,a1,a2
    2844:	10a00036 	beqz	a1,2920 <float32::operator*(float32 const&) const+0x13c>
    2848:	2402ffff 	li	v0,-1
    284c:	08000a18 	j	2860 <float32::operator*(float32 const&) const+0x7c>
    2850:	00118fc0 	sll	s1,s1,0x1f
    2854:	14a20005 	bne	a1,v0,286c <float32::operator*(float32 const&) const+0x88>
    2858:	00000000 	nop
    285c:	00118fc0 	sll	s1,s1,0x1f
    2860:	3c027f80 	lui	v0,0x7f80
    2864:	08000a2c 	j	28b0 <float32::operator*(float32 const&) const+0xcc>
    2868:	02228821 	addu	s1,s1,v0
    286c:	14600007 	bnez	v1,288c <float32::operator*(float32 const&) const+0xa8>
    2870:	00000000 	nop
    2874:	14800003 	bnez	a0,2884 <float32::operator*(float32 const&) const+0xa0>
    2878:	27a50014 	addiu	a1,sp,20
    287c:	08000a2c 	j	28b0 <float32::operator*(float32 const&) const+0xcc>
    2880:	00118fc0 	sll	s1,s1,0x1f
    2884:	0c000394 	jal	e50 <_ZN7float3218normalizeSubnormalEjPiPj.1860>
    2888:	27a6001c 	addiu	a2,sp,28
    288c:	8fa20010 	lw	v0,16(sp)
    2890:	00000000 	nop
    2894:	1440000b 	bnez	v0,28c4 <float32::operator*(float32 const&) const+0xe0>
    2898:	00000000 	nop
    289c:	8fa40018 	lw	a0,24(sp)
    28a0:	00000000 	nop
    28a4:	14800004 	bnez	a0,28b8 <float32::operator*(float32 const&) const+0xd4>
    28a8:	27a50010 	addiu	a1,sp,16
    28ac:	00118fc0 	sll	s1,s1,0x1f
    28b0:	08000a49 	j	2924 <float32::operator*(float32 const&) const+0x140>
    28b4:	ae110000 	sw	s1,0(s0)
    28b8:	0c000394 	jal	e50 <_ZN7float3218normalizeSubnormalEjPiPj.1860>
    28bc:	27a60018 	addiu	a2,sp,24
    28c0:	8fa20010 	lw	v0,16(sp)
    28c4:	8fa30014 	lw	v1,20(sp)
    28c8:	8fa60018 	lw	a2,24(sp)
    28cc:	00621821 	addu	v1,v1,v0
    28d0:	8fa2001c 	lw	v0,28(sp)
    28d4:	3c040080 	lui	a0,0x80
    28d8:	00821025 	or	v0,a0,v0
    28dc:	00863025 	or	a2,a0,a2
    28e0:	000211c0 	sll	v0,v0,0x7
    28e4:	00063200 	sll	a2,a2,0x8
    28e8:	00c20019 	multu	a2,v0
    28ec:	afa2001c 	sw	v0,28(sp)
    28f0:	afa60018 	sw	a2,24(sp)
    28f4:	00003812 	mflo	a3
    28f8:	0007102b 	sltu	v0,zero,a3
    28fc:	00003010 	mfhi	a2
    2900:	00461025 	or	v0,v0,a2
    2904:	00023040 	sll	a2,v0,0x1
    2908:	04c10003 	bgez	a2,2918 <float32::operator*(float32 const&) const+0x134>
    290c:	2465ff80 	addiu	a1,v1,-128
    2910:	2465ff81 	addiu	a1,v1,-127
    2914:	00403021 	move	a2,v0
    2918:	0c0002f4 	jal	bd0 <_ZN7float3212roundAndPackEbij.1855>
    291c:	02202021 	move	a0,s1
    2920:	ae020000 	sw	v0,0(s0)
    2924:	8fbf002c 	lw	ra,44(sp)
    2928:	02001021 	move	v0,s0
    292c:	8fb10028 	lw	s1,40(sp)
    2930:	8fb00024 	lw	s0,36(sp)
    2934:	03e00008 	jr	ra
    2938:	27bd0030 	addiu	sp,sp,48

0000293c <f32::rsqrt(float32 const&)>:
    293c:	8ca20000 	lw	v0,0(a1)
    2940:	27bdffc8 	addiu	sp,sp,-56
    2944:	afbf0034 	sw	ra,52(sp)
    2948:	afb00030 	sw	s0,48(sp)
    294c:	00808021 	move	s0,a0
    2950:	ac820000 	sw	v0,0(a0)
    2954:	3c023fc0 	lui	v0,0x3fc0
    2958:	afa20018 	sw	v0,24(sp)
    295c:	27a40010 	addiu	a0,sp,16
    2960:	3c023f00 	lui	v0,0x3f00
    2964:	27a50014 	addiu	a1,sp,20
    2968:	02003021 	move	a2,s0
    296c:	0c0009f9 	jal	27e4 <float32::operator*(float32 const&) const>
    2970:	afa20014 	sw	v0,20(sp)
    2974:	8e030000 	lw	v1,0(s0)
    2978:	3c025f37 	lui	v0,0x5f37
    297c:	00031843 	sra	v1,v1,0x1
    2980:	24425a86 	addiu	v0,v0,23174
    2984:	00431023 	subu	v0,v0,v1
    2988:	ae020000 	sw	v0,0(s0)
    298c:	27a4001c 	addiu	a0,sp,28
    2990:	27a50010 	addiu	a1,sp,16
    2994:	0c0009f9 	jal	27e4 <float32::operator*(float32 const&) const>
    2998:	02003021 	move	a2,s0
    299c:	27a40020 	addiu	a0,sp,32
    29a0:	27a5001c 	addiu	a1,sp,28
    29a4:	0c0009f9 	jal	27e4 <float32::operator*(float32 const&) const>
    29a8:	02003021 	move	a2,s0
    29ac:	27a40024 	addiu	a0,sp,36
    29b0:	27a50018 	addiu	a1,sp,24
    29b4:	0c0009d5 	jal	2754 <float32::operator-(float32 const&) const>
    29b8:	27a60020 	addiu	a2,sp,32
    29bc:	27a40028 	addiu	a0,sp,40
    29c0:	02002821 	move	a1,s0
    29c4:	0c0009f9 	jal	27e4 <float32::operator*(float32 const&) const>
    29c8:	27a60024 	addiu	a2,sp,36
    29cc:	8fa20028 	lw	v0,40(sp)
    29d0:	8fbf0034 	lw	ra,52(sp)
    29d4:	ae020000 	sw	v0,0(s0)
    29d8:	02001021 	move	v0,s0
    29dc:	8fb00030 	lw	s0,48(sp)
    29e0:	03e00008 	jr	ra
    29e4:	27bd0038 	addiu	sp,sp,56

000029e8 <float32::operator*=(float32 const&)>:
    29e8:	27bdffe0 	addiu	sp,sp,-32
    29ec:	afb00018 	sw	s0,24(sp)
    29f0:	00808021 	move	s0,a0
    29f4:	00a03021 	move	a2,a1
    29f8:	27a40010 	addiu	a0,sp,16
    29fc:	afbf001c 	sw	ra,28(sp)
    2a00:	0c0009f9 	jal	27e4 <float32::operator*(float32 const&) const>
    2a04:	02002821 	move	a1,s0
    2a08:	8fa20010 	lw	v0,16(sp)
    2a0c:	8fbf001c 	lw	ra,28(sp)
    2a10:	ae020000 	sw	v0,0(s0)
    2a14:	02001021 	move	v0,s0
    2a18:	8fb00018 	lw	s0,24(sp)
    2a1c:	03e00008 	jr	ra
    2a20:	27bd0020 	addiu	sp,sp,32

00002a24 <float32::operator int() const>:
    2a24:	8c850000 	lw	a1,0(a0)
    2a28:	3c02007f 	lui	v0,0x7f
    2a2c:	00051dc2 	srl	v1,a1,0x17
    2a30:	306300ff 	andi	v1,v1,0xff
    2a34:	3442ffff 	ori	v0,v0,0xffff
    2a38:	2464ff6a 	addiu	a0,v1,-150
    2a3c:	00a21024 	and	v0,a1,v0
    2a40:	04800013 	bltz	a0,2a90 <float32::operator int() const+0x6c>
    2a44:	000537c2 	srl	a2,a1,0x1f
    2a48:	2867009e 	slti	a3,v1,158
    2a4c:	14e0000c 	bnez	a3,2a80 <float32::operator int() const+0x5c>
    2a50:	00000000 	nop
    2a54:	3c04cf00 	lui	a0,0xcf00
    2a58:	10a40024 	beq	a1,a0,2aec <float32::operator int() const+0xc8>
    2a5c:	00000000 	nop
    2a60:	10c0001f 	beqz	a2,2ae0 <float32::operator int() const+0xbc>
    2a64:	240400ff 	li	a0,255
    2a68:	14640020 	bne	v1,a0,2aec <float32::operator int() const+0xc8>
    2a6c:	00000000 	nop
    2a70:	1040001e 	beqz	v0,2aec <float32::operator int() const+0xc8>
    2a74:	00000000 	nop
    2a78:	08000ab9 	j	2ae4 <float32::operator int() const+0xc0>
    2a7c:	3c027fff 	lui	v0,0x7fff
    2a80:	3c030080 	lui	v1,0x80
    2a84:	00431025 	or	v0,v0,v1
    2a88:	08000ab4 	j	2ad0 <float32::operator int() const+0xac>
    2a8c:	00821004 	sllv	v0,v0,a0
    2a90:	2865007e 	slti	a1,v1,126
    2a94:	10a00003 	beqz	a1,2aa4 <float32::operator int() const+0x80>
    2a98:	00621825 	or	v1,v1,v0
    2a9c:	08000aae 	j	2ab8 <float32::operator int() const+0x94>
    2aa0:	00001021 	move	v0,zero
    2aa4:	3c030080 	lui	v1,0x80
    2aa8:	00431025 	or	v0,v0,v1
    2aac:	00821804 	sllv	v1,v0,a0
    2ab0:	00042023 	negu	a0,a0
    2ab4:	00821006 	srlv	v0,v0,a0
    2ab8:	04610005 	bgez	v1,2ad0 <float32::operator int() const+0xac>
    2abc:	00031840 	sll	v1,v1,0x1
    2ac0:	14600003 	bnez	v1,2ad0 <float32::operator int() const+0xac>
    2ac4:	24420001 	addiu	v0,v0,1
    2ac8:	2403fffe 	li	v1,-2
    2acc:	00431024 	and	v0,v0,v1
    2ad0:	10c00007 	beqz	a2,2af0 <float32::operator int() const+0xcc>
    2ad4:	00000000 	nop
    2ad8:	03e00008 	jr	ra
    2adc:	00021023 	negu	v0,v0
    2ae0:	3c027fff 	lui	v0,0x7fff
    2ae4:	03e00008 	jr	ra
    2ae8:	3442ffff 	ori	v0,v0,0xffff
    2aec:	3c028000 	lui	v0,0x8000
    2af0:	03e00008 	jr	ra
    2af4:	00000000 	nop

00002af8 <float32::operator<(float32 const&) const>:
    2af8:	8c830000 	lw	v1,0(a0)
    2afc:	8ca40000 	lw	a0,0(a1)
    2b00:	00032dc2 	srl	a1,v1,0x17
    2b04:	30a500ff 	andi	a1,a1,0xff
    2b08:	240200ff 	li	v0,255
    2b0c:	14a20007 	bne	a1,v0,2b2c <float32::operator<(float32 const&) const+0x34>
    2b10:	00042dc2 	srl	a1,a0,0x17
    2b14:	3c05007f 	lui	a1,0x7f
    2b18:	34a5ffff 	ori	a1,a1,0xffff
    2b1c:	00652824 	and	a1,v1,a1
    2b20:	14a00021 	bnez	a1,2ba8 <float32::operator<(float32 const&) const+0xb0>
    2b24:	00001021 	move	v0,zero
    2b28:	00042dc2 	srl	a1,a0,0x17
    2b2c:	30a500ff 	andi	a1,a1,0xff
    2b30:	240200ff 	li	v0,255
    2b34:	14a20017 	bne	a1,v0,2b94 <float32::operator<(float32 const&) const+0x9c>
    2b38:	00032fc2 	srl	a1,v1,0x1f
    2b3c:	3c05007f 	lui	a1,0x7f
    2b40:	34a5ffff 	ori	a1,a1,0xffff
    2b44:	00852824 	and	a1,a0,a1
    2b48:	14a00017 	bnez	a1,2ba8 <float32::operator<(float32 const&) const+0xb0>
    2b4c:	00001021 	move	v0,zero
    2b50:	08000ae5 	j	2b94 <float32::operator<(float32 const&) const+0x9c>
    2b54:	00032fc2 	srl	a1,v1,0x1f
    2b58:	10a00013 	beqz	a1,2ba8 <float32::operator<(float32 const&) const+0xb0>
    2b5c:	00001021 	move	v0,zero
    2b60:	00831825 	or	v1,a0,v1
    2b64:	00031840 	sll	v1,v1,0x1
    2b68:	1060000f 	beqz	v1,2ba8 <float32::operator<(float32 const&) const+0xb0>
    2b6c:	00000000 	nop
    2b70:	03e00008 	jr	ra
    2b74:	24020001 	li	v0,1
    2b78:	10640004 	beq	v1,a0,2b8c <float32::operator<(float32 const&) const+0x94>
    2b7c:	00000000 	nop
    2b80:	0064182b 	sltu	v1,v1,a0
    2b84:	14a3fffa 	bne	a1,v1,2b70 <float32::operator<(float32 const&) const+0x78>
    2b88:	00000000 	nop
    2b8c:	03e00008 	jr	ra
    2b90:	00001021 	move	v0,zero
    2b94:	000417c2 	srl	v0,a0,0x1f
    2b98:	14a2ffef 	bne	a1,v0,2b58 <float32::operator<(float32 const&) const+0x60>
    2b9c:	00000000 	nop
    2ba0:	08000ade 	j	2b78 <float32::operator<(float32 const&) const+0x80>
    2ba4:	00000000 	nop
    2ba8:	03e00008 	jr	ra
    2bac:	00000000 	nop

00002bb0 <_Z8f32todecRK7float32.1477>:
    2bb0:	27bdffa8 	addiu	sp,sp,-88
    2bb4:	3c02447a 	lui	v0,0x447a
    2bb8:	8c830000 	lw	v1,0(a0)
    2bbc:	afa20014 	sw	v0,20(sp)
    2bc0:	3c027fff 	lui	v0,0x7fff
    2bc4:	3442ffff 	ori	v0,v0,0xffff
    2bc8:	00621024 	and	v0,v1,v0
    2bcc:	afb7004c 	sw	s7,76(sp)
    2bd0:	00022dc2 	srl	a1,v0,0x17
    2bd4:	0080b821 	move	s7,a0
    2bd8:	240400ff 	li	a0,255
    2bdc:	afbf0054 	sw	ra,84(sp)
    2be0:	afbe0050 	sw	s8,80(sp)
    2be4:	afb60048 	sw	s6,72(sp)
    2be8:	afb50044 	sw	s5,68(sp)
    2bec:	afb40040 	sw	s4,64(sp)
    2bf0:	afb3003c 	sw	s3,60(sp)
    2bf4:	afb20038 	sw	s2,56(sp)
    2bf8:	afb10034 	sw	s1,52(sp)
    2bfc:	afb00030 	sw	s0,48(sp)
    2c00:	14a4006e 	bne	a1,a0,2dbc <_Z8f32todecRK7float32.1477+0x20c>
    2c04:	afa20010 	sw	v0,16(sp)
    2c08:	3c04007f 	lui	a0,0x7f
    2c0c:	3484ffff 	ori	a0,a0,0xffff
    2c10:	3c134f42 	lui	s3,0x4f42
    2c14:	3c122020 	lui	s2,0x2020
    2c18:	00641824 	and	v1,v1,a0
    2c1c:	36734947 	ori	s3,s3,0x4947
    2c20:	14600081 	bnez	v1,2e28 <_Z8f32todecRK7float32.1477+0x278>
    2c24:	36522054 	ori	s2,s2,0x2054
    2c28:	08000b70 	j	2dc0 <_Z8f32todecRK7float32.1477+0x210>
    2c2c:	3c03447a 	lui	v1,0x447a
    2c30:	14400065 	bnez	v0,2dc8 <_Z8f32todecRK7float32.1477+0x218>
    2c34:	3c134f42 	lui	s3,0x4f42
    2c38:	3c122020 	lui	s2,0x2020
    2c3c:	36734947 	ori	s3,s3,0x4947
    2c40:	08000b8a 	j	2e28 <_Z8f32todecRK7float32.1477+0x278>
    2c44:	36522054 	ori	s2,s2,0x2054
    2c48:	27a40020 	addiu	a0,sp,32
    2c4c:	27a50010 	addiu	a1,sp,16
    2c50:	0c0009f9 	jal	27e4 <float32::operator*(float32 const&) const>
    2c54:	2694ffff 	addiu	s4,s4,-1
    2c58:	27a40018 	addiu	a0,sp,24
    2c5c:	0c000930 	jal	24c0 <float32::float32(int)>
    2c60:	02802821 	move	a1,s4
    2c64:	27a4001c 	addiu	a0,sp,28
    2c68:	27a50018 	addiu	a1,sp,24
    2c6c:	0c0009f9 	jal	27e4 <float32::operator*(float32 const&) const>
    2c70:	27a60014 	addiu	a2,sp,20
    2c74:	27a40024 	addiu	a0,sp,36
    2c78:	27a50020 	addiu	a1,sp,32
    2c7c:	0c0009d5 	jal	2754 <float32::operator-(float32 const&) const>
    2c80:	27a6001c 	addiu	a2,sp,28
    2c84:	0c000a89 	jal	2a24 <float32::operator int() const>
    2c88:	27a40024 	addiu	a0,sp,36
    2c8c:	0040a821 	move	s5,v0
    2c90:	3c132e20 	lui	s3,0x2e20
    2c94:	3c122020 	lui	s2,0x2020
    2c98:	02b41025 	or	v0,s5,s4
    2c9c:	36732030 	ori	s3,s3,0x2030
    2ca0:	10400061 	beqz	v0,2e28 <_Z8f32todecRK7float32.1477+0x278>
    2ca4:	36522020 	ori	s2,s2,0x2020
    2ca8:	3c112e20 	lui	s1,0x2e20
    2cac:	3c102020 	lui	s0,0x2020
    2cb0:	0000b021 	move	s6,zero
    2cb4:	36312020 	ori	s1,s1,0x2020
    2cb8:	36102020 	ori	s0,s0,0x2020
    2cbc:	241e0018 	li	s8,24
    2cc0:	0c0004ab 	jal	12ac <_ZN4MathL6divideEii.1342.constprop.59>
    2cc4:	02a02021 	move	a0,s5
    2cc8:	00403821 	move	a3,v0
    2ccc:	2402fff6 	li	v0,-10
    2cd0:	00e20018 	mult	a3,v0
    2cd4:	00002812 	mflo	a1
    2cd8:	02a51021 	addu	v0,s5,a1
    2cdc:	04400006 	bltz	v0,2cf8 <_Z8f32todecRK7float32.1477+0x148>
    2ce0:	00000000 	nop
    2ce4:	26b50030 	addiu	s5,s5,48
    2ce8:	02a52821 	addu	a1,s5,a1
    2cec:	00052e00 	sll	a1,a1,0x18
    2cf0:	08000b3f 	j	2cfc <_Z8f32todecRK7float32.1477+0x14c>
    2cf4:	00052e03 	sra	a1,a1,0x18
    2cf8:	24050030 	li	a1,48
    2cfc:	02c03021 	move	a2,s6
    2d00:	000527c3 	sra	a0,a1,0x1f
    2d04:	0c001302 	jal	4c08 <__ashldi3>
    2d08:	afa7002c 	sw	a3,44(sp)
    2d0c:	8fa7002c 	lw	a3,44(sp)
    2d10:	00501025 	or	v0,v0,s0
    2d14:	02231825 	or	v1,s1,v1
    2d18:	26d60008 	addiu	s6,s6,8
    2d1c:	00408021 	move	s0,v0
    2d20:	00608821 	move	s1,v1
    2d24:	16deffe6 	bne	s6,s8,2cc0 <_Z8f32todecRK7float32.1477+0x110>
    2d28:	00e0a821 	move	s5,a3
    2d2c:	24150004 	li	s5,4
    2d30:	08000b60 	j	2d80 <_Z8f32todecRK7float32.1477+0x1d0>
    2d34:	241efff6 	li	s8,-10
    2d38:	0c0004ab 	jal	12ac <_ZN4MathL6divideEii.1342.constprop.59>
    2d3c:	02802021 	move	a0,s4
    2d40:	005e0018 	mult	v0,s8
    2d44:	0040b021 	move	s6,v0
    2d48:	26850030 	addiu	a1,s4,48
    2d4c:	001530c0 	sll	a2,s5,0x3
    2d50:	02c0a021 	move	s4,s6
    2d54:	26b50001 	addiu	s5,s5,1
    2d58:	00001012 	mflo	v0
    2d5c:	00a22821 	addu	a1,a1,v0
    2d60:	00052e00 	sll	a1,a1,0x18
    2d64:	00052e03 	sra	a1,a1,0x18
    2d68:	0c001302 	jal	4c08 <__ashldi3>
    2d6c:	000527c3 	sra	a0,a1,0x1f
    2d70:	00501025 	or	v0,v0,s0
    2d74:	02231825 	or	v1,s1,v1
    2d78:	00408021 	move	s0,v0
    2d7c:	00608821 	move	s1,v1
    2d80:	1680ffed 	bnez	s4,2d38 <_Z8f32todecRK7float32.1477+0x188>
    2d84:	27a50018 	addiu	a1,sp,24
    2d88:	02e02021 	move	a0,s7
    2d8c:	0c000abe 	jal	2af8 <float32::operator<(float32 const&) const>
    2d90:	afa00018 	sw	zero,24(sp)
    2d94:	2405002b 	li	a1,43
    2d98:	10400003 	beqz	v0,2da8 <_Z8f32todecRK7float32.1477+0x1f8>
    2d9c:	00002021 	move	a0,zero
    2da0:	2405002d 	li	a1,45
    2da4:	00002021 	move	a0,zero
    2da8:	0c001302 	jal	4c08 <__ashldi3>
    2dac:	001530c0 	sll	a2,s5,0x3
    2db0:	00509025 	or	s2,v0,s0
    2db4:	08000b8a 	j	2e28 <_Z8f32todecRK7float32.1477+0x278>
    2db8:	00719825 	or	s3,v1,s1
    2dbc:	3c03447a 	lui	v1,0x447a
    2dc0:	1443ff9b 	bne	v0,v1,2c30 <_Z8f32todecRK7float32.1477+0x80>
    2dc4:	0043102b 	sltu	v0,v0,v1
    2dc8:	0c000a89 	jal	2a24 <float32::operator int() const>
    2dcc:	27a40010 	addiu	a0,sp,16
    2dd0:	0040a021 	move	s4,v0
    2dd4:	27a60014 	addiu	a2,sp,20
    2dd8:	27a40020 	addiu	a0,sp,32
    2ddc:	0c0009f9 	jal	27e4 <float32::operator*(float32 const&) const>
    2de0:	27a50010 	addiu	a1,sp,16
    2de4:	27a40018 	addiu	a0,sp,24
    2de8:	0c000930 	jal	24c0 <float32::float32(int)>
    2dec:	02802821 	move	a1,s4
    2df0:	27a4001c 	addiu	a0,sp,28
    2df4:	27a50018 	addiu	a1,sp,24
    2df8:	0c0009f9 	jal	27e4 <float32::operator*(float32 const&) const>
    2dfc:	27a60014 	addiu	a2,sp,20
    2e00:	27a40024 	addiu	a0,sp,36
    2e04:	27a50020 	addiu	a1,sp,32
    2e08:	0c0009d5 	jal	2754 <float32::operator-(float32 const&) const>
    2e0c:	27a6001c 	addiu	a2,sp,28
    2e10:	0c000a89 	jal	2a24 <float32::operator int() const>
    2e14:	27a40024 	addiu	a0,sp,36
    2e18:	0441ff9d 	bgez	v0,2c90 <_Z8f32todecRK7float32.1477+0xe0>
    2e1c:	0040a821 	move	s5,v0
    2e20:	08000b12 	j	2c48 <_Z8f32todecRK7float32.1477+0x98>
    2e24:	27a60014 	addiu	a2,sp,20
    2e28:	8fbf0054 	lw	ra,84(sp)
    2e2c:	02401021 	move	v0,s2
    2e30:	02601821 	move	v1,s3
    2e34:	8fbe0050 	lw	s8,80(sp)
    2e38:	8fb7004c 	lw	s7,76(sp)
    2e3c:	8fb60048 	lw	s6,72(sp)
    2e40:	8fb50044 	lw	s5,68(sp)
    2e44:	8fb40040 	lw	s4,64(sp)
    2e48:	8fb3003c 	lw	s3,60(sp)
    2e4c:	8fb20038 	lw	s2,56(sp)
    2e50:	8fb10034 	lw	s1,52(sp)
    2e54:	8fb00030 	lw	s0,48(sp)
    2e58:	03e00008 	jr	ra
    2e5c:	27bd0058 	addiu	sp,sp,88

00002e60 <_ZL4fl32j.2627.1474>:
    2e60:	27bdffe8 	addiu	sp,sp,-24
    2e64:	2882000a 	slti	v0,a0,10
    2e68:	afb00010 	sw	s0,16(sp)
    2e6c:	afbf0014 	sw	ra,20(sp)
    2e70:	1040000f 	beqz	v0,2eb0 <_ZL4fl32j.2627.1474+0x50>
    2e74:	00808021 	move	s0,a0
    2e78:	0c0003ee 	jal	fb8 <_ZN6System8Registry8instanceEv.local.11>
    2e7c:	00000000 	nop
    2e80:	00102080 	sll	a0,s0,0x2
    2e84:	0c000aec 	jal	2bb0 <_Z8f32todecRK7float32.1477>
    2e88:	00442021 	addu	a0,v0,a0
    2e8c:	00402021 	move	a0,v0
    2e90:	0c0005f5 	jal	17d4 <System::Bus::UART::write_waiting(long long)>
    2e94:	00602821 	move	a1,v1
    2e98:	8fbf0014 	lw	ra,20(sp)
    2e9c:	8fb00010 	lw	s0,16(sp)
    2ea0:	3c048000 	lui	a0,0x8000
    2ea4:	24840070 	addiu	a0,a0,112
    2ea8:	080005b5 	j	16d4 <_ZN6System3Bus4UART13write_waitingEPKcj.constprop.49>
    2eac:	27bd0018 	addiu	sp,sp,24
    2eb0:	8fbf0014 	lw	ra,20(sp)
    2eb4:	8fb00010 	lw	s0,16(sp)
    2eb8:	080005d0 	j	1740 <_ZL4failv.2601>
    2ebc:	27bd0018 	addiu	sp,sp,24

00002ec0 <Radio::Messages::consoleHandler(char*)>:
    2ec0:	27bdffa0 	addiu	sp,sp,-96
    2ec4:	afb70054 	sw	s7,84(sp)
    2ec8:	3c178000 	lui	s7,0x8000
    2ecc:	afb60050 	sw	s6,80(sp)
    2ed0:	afb40048 	sw	s4,72(sp)
    2ed4:	afb30044 	sw	s3,68(sp)
    2ed8:	afb20040 	sw	s2,64(sp)
    2edc:	afbf005c 	sw	ra,92(sp)
    2ee0:	afbe0058 	sw	s8,88(sp)
    2ee4:	afb5004c 	sw	s5,76(sp)
    2ee8:	afb1003c 	sw	s1,60(sp)
    2eec:	afb00038 	sw	s0,56(sp)
    2ef0:	00809021 	move	s2,a0
    2ef4:	afa00018 	sw	zero,24(sp)
    2ef8:	afa0001c 	sw	zero,28(sp)
    2efc:	24020001 	li	v0,1
    2f00:	2414002b 	li	s4,43
    2f04:	00009821 	move	s3,zero
    2f08:	3c168000 	lui	s6,0x8000
    2f0c:	26f701e0 	addiu	s7,s7,480
    2f10:	2443ffff 	addiu	v1,v0,-1
    2f14:	2c64002c 	sltiu	a0,v1,44
    2f18:	108002fd 	beqz	a0,3b10 <Radio::Messages::consoleHandler(char*)+0xc50>
    2f1c:	3c048000 	lui	a0,0x8000
    2f20:	3c048000 	lui	a0,0x8000
    2f24:	00031880 	sll	v1,v1,0x2
    2f28:	248401f0 	addiu	a0,a0,496
    2f2c:	00831821 	addu	v1,a0,v1
    2f30:	8c630000 	lw	v1,0(v1)
    2f34:	00000000 	nop
    2f38:	00600008 	jr	v1
    2f3c:	00000000 	nop
    2f40:	82430000 	lb	v1,0(s2)
    2f44:	24040068 	li	a0,104
    2f48:	1064022c 	beq	v1,a0,37fc <Radio::Messages::consoleHandler(char*)+0x93c>
    2f4c:	28640069 	slti	a0,v1,105
    2f50:	10800011 	beqz	a0,2f98 <Radio::Messages::consoleHandler(char*)+0xd8>
    2f54:	24040063 	li	a0,99
    2f58:	10640222 	beq	v1,a0,37e4 <Radio::Messages::consoleHandler(char*)+0x924>
    2f5c:	28640064 	slti	a0,v1,100
    2f60:	10800008 	beqz	a0,2f84 <Radio::Messages::consoleHandler(char*)+0xc4>
    2f64:	24040020 	li	a0,32
    2f68:	106402e6 	beq	v1,a0,3b04 <Radio::Messages::consoleHandler(char*)+0xc44>
    2f6c:	00000000 	nop
    2f70:	24020062 	li	v0,98
    2f74:	146202e6 	bne	v1,v0,3b10 <Radio::Messages::consoleHandler(char*)+0xc50>
    2f78:	3c048000 	lui	a0,0x8000
    2f7c:	08000e8b 	j	3a2c <Radio::Messages::consoleHandler(char*)+0xb6c>
    2f80:	24020002 	li	v0,2
    2f84:	24020067 	li	v0,103
    2f88:	146202e1 	bne	v1,v0,3b10 <Radio::Messages::consoleHandler(char*)+0xc50>
    2f8c:	3c048000 	lui	a0,0x8000
    2f90:	08000dfb 	j	37ec <Radio::Messages::consoleHandler(char*)+0x92c>
    2f94:	24020008 	li	v0,8
    2f98:	24020073 	li	v0,115
    2f9c:	106202d9 	beq	v1,v0,3b04 <Radio::Messages::consoleHandler(char*)+0xc44>
    2fa0:	2402001e 	li	v0,30
    2fa4:	24020074 	li	v0,116
    2fa8:	106202d6 	beq	v1,v0,3b04 <Radio::Messages::consoleHandler(char*)+0xc44>
    2fac:	2402002a 	li	v0,42
    2fb0:	24020070 	li	v0,112
    2fb4:	146202d6 	bne	v1,v0,3b10 <Radio::Messages::consoleHandler(char*)+0xc50>
    2fb8:	3c048000 	lui	a0,0x8000
    2fbc:	08000e01 	j	3804 <Radio::Messages::consoleHandler(char*)+0x944>
    2fc0:	2402001d 	li	v0,29
    2fc4:	82430000 	lb	v1,0(s2)
    2fc8:	2402006f 	li	v0,111
    2fcc:	146202d0 	bne	v1,v0,3b10 <Radio::Messages::consoleHandler(char*)+0xc50>
    2fd0:	3c048000 	lui	a0,0x8000
    2fd4:	08000e8d 	j	3a34 <Radio::Messages::consoleHandler(char*)+0xb74>
    2fd8:	24020003 	li	v0,3
    2fdc:	82430000 	lb	v1,0(s2)
    2fe0:	2402006f 	li	v0,111
    2fe4:	146202ca 	bne	v1,v0,3b10 <Radio::Messages::consoleHandler(char*)+0xc50>
    2fe8:	3c048000 	lui	a0,0x8000
    2fec:	08000e8f 	j	3a3c <Radio::Messages::consoleHandler(char*)+0xb7c>
    2ff0:	24020004 	li	v0,4
    2ff4:	82430000 	lb	v1,0(s2)
    2ff8:	24020074 	li	v0,116
    2ffc:	146202c4 	bne	v1,v0,3b10 <Radio::Messages::consoleHandler(char*)+0xc50>
    3000:	3c048000 	lui	a0,0x8000
    3004:	08000d4d 	j	3534 <Radio::Messages::consoleHandler(char*)+0x674>
    3008:	00000000 	nop
    300c:	82430000 	lb	v1,0(s2)
    3010:	2404000a 	li	a0,10
    3014:	106402c0 	beq	v1,a0,3b18 <Radio::Messages::consoleHandler(char*)+0xc58>
    3018:	00000000 	nop
    301c:	2864000b 	slti	a0,v1,11
    3020:	10800005 	beqz	a0,3038 <Radio::Messages::consoleHandler(char*)+0x178>
    3024:	2404000d 	li	a0,13
    3028:	106002bb 	beqz	v1,3b18 <Radio::Messages::consoleHandler(char*)+0xc58>
    302c:	00000000 	nop
    3030:	08000ec4 	j	3b10 <Radio::Messages::consoleHandler(char*)+0xc50>
    3034:	3c048000 	lui	a0,0x8000
    3038:	106402b7 	beq	v1,a0,3b18 <Radio::Messages::consoleHandler(char*)+0xc58>
    303c:	00000000 	nop
    3040:	24040020 	li	a0,32
    3044:	146402b2 	bne	v1,a0,3b10 <Radio::Messages::consoleHandler(char*)+0xc50>
    3048:	3c048000 	lui	a0,0x8000
    304c:	08000bc4 	j	2f10 <Radio::Messages::consoleHandler(char*)+0x50>
    3050:	26520001 	addiu	s2,s2,1
    3054:	82430000 	lb	v1,0(s2)
    3058:	24020061 	li	v0,97
    305c:	146202ac 	bne	v1,v0,3b10 <Radio::Messages::consoleHandler(char*)+0xc50>
    3060:	3c048000 	lui	a0,0x8000
    3064:	08000e91 	j	3a44 <Radio::Messages::consoleHandler(char*)+0xb84>
    3068:	24020007 	li	v0,7
    306c:	82430000 	lb	v1,0(s2)
    3070:	2402006c 	li	v0,108
    3074:	146202a6 	bne	v1,v0,3b10 <Radio::Messages::consoleHandler(char*)+0xc50>
    3078:	3c048000 	lui	a0,0x8000
    307c:	08000d4f 	j	353c <Radio::Messages::consoleHandler(char*)+0x67c>
    3080:	00000000 	nop
    3084:	82430000 	lb	v1,0(s2)
    3088:	24020065 	li	v0,101
    308c:	146202a0 	bne	v1,v0,3b10 <Radio::Messages::consoleHandler(char*)+0xc50>
    3090:	3c048000 	lui	a0,0x8000
    3094:	08000e93 	j	3a4c <Radio::Messages::consoleHandler(char*)+0xb8c>
    3098:	24020009 	li	v0,9
    309c:	82430000 	lb	v1,0(s2)
    30a0:	24020074 	li	v0,116
    30a4:	1462029a 	bne	v1,v0,3b10 <Radio::Messages::consoleHandler(char*)+0xc50>
    30a8:	3c048000 	lui	a0,0x8000
    30ac:	08000e95 	j	3a54 <Radio::Messages::consoleHandler(char*)+0xb94>
    30b0:	2402000a 	li	v0,10
    30b4:	82430000 	lb	v1,0(s2)
    30b8:	2402005f 	li	v0,95
    30bc:	14620294 	bne	v1,v0,3b10 <Radio::Messages::consoleHandler(char*)+0xc50>
    30c0:	3c048000 	lui	a0,0x8000
    30c4:	08000e97 	j	3a5c <Radio::Messages::consoleHandler(char*)+0xb9c>
    30c8:	2402000b 	li	v0,11
    30cc:	82420000 	lb	v0,0(s2)
    30d0:	24030066 	li	v1,102
    30d4:	10430263 	beq	v0,v1,3a64 <Radio::Messages::consoleHandler(char*)+0xba4>
    30d8:	24030068 	li	v1,104
    30dc:	104301c5 	beq	v0,v1,37f4 <Radio::Messages::consoleHandler(char*)+0x934>
    30e0:	24030064 	li	v1,100
    30e4:	1443028a 	bne	v0,v1,3b10 <Radio::Messages::consoleHandler(char*)+0xc50>
    30e8:	3c048000 	lui	a0,0x8000
    30ec:	08000ec1 	j	3b04 <Radio::Messages::consoleHandler(char*)+0xc44>
    30f0:	2402000c 	li	v0,12
    30f4:	82430000 	lb	v1,0(s2)
    30f8:	24020065 	li	v0,101
    30fc:	14620284 	bne	v1,v0,3b10 <Radio::Messages::consoleHandler(char*)+0xc50>
    3100:	3c048000 	lui	a0,0x8000
    3104:	08000e9b 	j	3a6c <Radio::Messages::consoleHandler(char*)+0xbac>
    3108:	2402000d 	li	v0,13
    310c:	82430000 	lb	v1,0(s2)
    3110:	24020063 	li	v0,99
    3114:	1462027e 	bne	v1,v0,3b10 <Radio::Messages::consoleHandler(char*)+0xc50>
    3118:	3c048000 	lui	a0,0x8000
    311c:	08000e9d 	j	3a74 <Radio::Messages::consoleHandler(char*)+0xbb4>
    3120:	2402000e 	li	v0,14
    3124:	82430000 	lb	v1,0(s2)
    3128:	24020020 	li	v0,32
    312c:	14620278 	bne	v1,v0,3b10 <Radio::Messages::consoleHandler(char*)+0xc50>
    3130:	3c048000 	lui	a0,0x8000
    3134:	08000e9f 	j	3a7c <Radio::Messages::consoleHandler(char*)+0xbbc>
    3138:	2402000f 	li	v0,15
    313c:	82430000 	lb	v1,0(s2)
    3140:	24040020 	li	a0,32
    3144:	1064026f 	beq	v1,a0,3b04 <Radio::Messages::consoleHandler(char*)+0xc44>
    3148:	2463ffd0 	addiu	v1,v1,-48
    314c:	306300ff 	andi	v1,v1,0xff
    3150:	2c63000a 	sltiu	v1,v1,10
    3154:	146001cb 	bnez	v1,3884 <Radio::Messages::consoleHandler(char*)+0x9c4>
    3158:	24020010 	li	v0,16
    315c:	08000ec4 	j	3b10 <Radio::Messages::consoleHandler(char*)+0xc50>
    3160:	3c048000 	lui	a0,0x8000
    3164:	82430000 	lb	v1,0(s2)
    3168:	2404000a 	li	a0,10
    316c:	106401b1 	beq	v1,a0,3834 <Radio::Messages::consoleHandler(char*)+0x974>
    3170:	2864000b 	slti	a0,v1,11
    3174:	10800005 	beqz	a0,318c <Radio::Messages::consoleHandler(char*)+0x2cc>
    3178:	00000000 	nop
    317c:	106001ad 	beqz	v1,3834 <Radio::Messages::consoleHandler(char*)+0x974>
    3180:	2463ffd0 	addiu	v1,v1,-48
    3184:	08000d32 	j	34c8 <Radio::Messages::consoleHandler(char*)+0x608>
    3188:	306300ff 	andi	v1,v1,0xff
    318c:	2404000d 	li	a0,13
    3190:	106401a8 	beq	v1,a0,3834 <Radio::Messages::consoleHandler(char*)+0x974>
    3194:	24040020 	li	a0,32
    3198:	106400f2 	beq	v1,a0,3564 <Radio::Messages::consoleHandler(char*)+0x6a4>
    319c:	2463ffd0 	addiu	v1,v1,-48
    31a0:	08000d32 	j	34c8 <Radio::Messages::consoleHandler(char*)+0x608>
    31a4:	306300ff 	andi	v1,v1,0xff
    31a8:	82430000 	lb	v1,0(s2)
    31ac:	24020033 	li	v0,51
    31b0:	14620257 	bne	v1,v0,3b10 <Radio::Messages::consoleHandler(char*)+0xc50>
    31b4:	3c048000 	lui	a0,0x8000
    31b8:	08000ea1 	j	3a84 <Radio::Messages::consoleHandler(char*)+0xbc4>
    31bc:	24020012 	li	v0,18
    31c0:	82430000 	lb	v1,0(s2)
    31c4:	24020032 	li	v0,50
    31c8:	14620251 	bne	v1,v0,3b10 <Radio::Messages::consoleHandler(char*)+0xc50>
    31cc:	3c048000 	lui	a0,0x8000
    31d0:	08000ea3 	j	3a8c <Radio::Messages::consoleHandler(char*)+0xbcc>
    31d4:	24020013 	li	v0,19
    31d8:	82430000 	lb	v1,0(s2)
    31dc:	24020020 	li	v0,32
    31e0:	1462024b 	bne	v1,v0,3b10 <Radio::Messages::consoleHandler(char*)+0xc50>
    31e4:	3c048000 	lui	a0,0x8000
    31e8:	08000ea5 	j	3a94 <Radio::Messages::consoleHandler(char*)+0xbd4>
    31ec:	24020014 	li	v0,20
    31f0:	82430000 	lb	v1,0(s2)
    31f4:	24040020 	li	a0,32
    31f8:	10640242 	beq	v1,a0,3b04 <Radio::Messages::consoleHandler(char*)+0xc44>
    31fc:	2463ffd0 	addiu	v1,v1,-48
    3200:	306300ff 	andi	v1,v1,0xff
    3204:	2c63000a 	sltiu	v1,v1,10
    3208:	1460019e 	bnez	v1,3884 <Radio::Messages::consoleHandler(char*)+0x9c4>
    320c:	24020015 	li	v0,21
    3210:	08000ec4 	j	3b10 <Radio::Messages::consoleHandler(char*)+0xc50>
    3214:	3c048000 	lui	a0,0x8000
    3218:	82430000 	lb	v1,0(s2)
    321c:	2404000a 	li	a0,10
    3220:	10640189 	beq	v1,a0,3848 <Radio::Messages::consoleHandler(char*)+0x988>
    3224:	2864000b 	slti	a0,v1,11
    3228:	10800005 	beqz	a0,3240 <Radio::Messages::consoleHandler(char*)+0x380>
    322c:	00000000 	nop
    3230:	10600185 	beqz	v1,3848 <Radio::Messages::consoleHandler(char*)+0x988>
    3234:	2463ffd0 	addiu	v1,v1,-48
    3238:	08000d32 	j	34c8 <Radio::Messages::consoleHandler(char*)+0x608>
    323c:	306300ff 	andi	v1,v1,0xff
    3240:	2404000d 	li	a0,13
    3244:	10640180 	beq	v1,a0,3848 <Radio::Messages::consoleHandler(char*)+0x988>
    3248:	24040020 	li	a0,32
    324c:	106400ca 	beq	v1,a0,3578 <Radio::Messages::consoleHandler(char*)+0x6b8>
    3250:	2463ffd0 	addiu	v1,v1,-48
    3254:	08000d32 	j	34c8 <Radio::Messages::consoleHandler(char*)+0x608>
    3258:	306300ff 	andi	v1,v1,0xff
    325c:	82430000 	lb	v1,0(s2)
    3260:	24020065 	li	v0,101
    3264:	1462022a 	bne	v1,v0,3b10 <Radio::Messages::consoleHandler(char*)+0xc50>
    3268:	3c048000 	lui	a0,0x8000
    326c:	08000ea7 	j	3a9c <Radio::Messages::consoleHandler(char*)+0xbdc>
    3270:	24020017 	li	v0,23
    3274:	82430000 	lb	v1,0(s2)
    3278:	24020078 	li	v0,120
    327c:	14620224 	bne	v1,v0,3b10 <Radio::Messages::consoleHandler(char*)+0xc50>
    3280:	3c048000 	lui	a0,0x8000
    3284:	08000ea9 	j	3aa4 <Radio::Messages::consoleHandler(char*)+0xbe4>
    3288:	24020018 	li	v0,24
    328c:	82430000 	lb	v1,0(s2)
    3290:	24020020 	li	v0,32
    3294:	1462021e 	bne	v1,v0,3b10 <Radio::Messages::consoleHandler(char*)+0xc50>
    3298:	3c048000 	lui	a0,0x8000
    329c:	08000eab 	j	3aac <Radio::Messages::consoleHandler(char*)+0xbec>
    32a0:	24020019 	li	v0,25
    32a4:	82430000 	lb	v1,0(s2)
    32a8:	24040020 	li	a0,32
    32ac:	10640215 	beq	v1,a0,3b04 <Radio::Messages::consoleHandler(char*)+0xc44>
    32b0:	2463ffd0 	addiu	v1,v1,-48
    32b4:	306300ff 	andi	v1,v1,0xff
    32b8:	2c63000a 	sltiu	v1,v1,10
    32bc:	14600171 	bnez	v1,3884 <Radio::Messages::consoleHandler(char*)+0x9c4>
    32c0:	2402001a 	li	v0,26
    32c4:	08000ec4 	j	3b10 <Radio::Messages::consoleHandler(char*)+0xc50>
    32c8:	3c048000 	lui	a0,0x8000
    32cc:	82430000 	lb	v1,0(s2)
    32d0:	2404000a 	li	a0,10
    32d4:	10640161 	beq	v1,a0,385c <Radio::Messages::consoleHandler(char*)+0x99c>
    32d8:	2864000b 	slti	a0,v1,11
    32dc:	10800005 	beqz	a0,32f4 <Radio::Messages::consoleHandler(char*)+0x434>
    32e0:	00000000 	nop
    32e4:	1060015d 	beqz	v1,385c <Radio::Messages::consoleHandler(char*)+0x99c>
    32e8:	2463ffd0 	addiu	v1,v1,-48
    32ec:	08000d32 	j	34c8 <Radio::Messages::consoleHandler(char*)+0x608>
    32f0:	306300ff 	andi	v1,v1,0xff
    32f4:	2404000d 	li	a0,13
    32f8:	10640158 	beq	v1,a0,385c <Radio::Messages::consoleHandler(char*)+0x99c>
    32fc:	24040020 	li	a0,32
    3300:	106400a2 	beq	v1,a0,358c <Radio::Messages::consoleHandler(char*)+0x6cc>
    3304:	2463ffd0 	addiu	v1,v1,-48
    3308:	08000d32 	j	34c8 <Radio::Messages::consoleHandler(char*)+0x608>
    330c:	306300ff 	andi	v1,v1,0xff
    3310:	82430000 	lb	v1,0(s2)
    3314:	24020065 	li	v0,101
    3318:	146201fd 	bne	v1,v0,3b10 <Radio::Messages::consoleHandler(char*)+0xc50>
    331c:	3c048000 	lui	a0,0x8000
    3320:	08000ead 	j	3ab4 <Radio::Messages::consoleHandler(char*)+0xbf4>
    3324:	2402001c 	li	v0,28
    3328:	82430000 	lb	v1,0(s2)
    332c:	24020079 	li	v0,121
    3330:	146201f6 	bne	v1,v0,3b0c <Radio::Messages::consoleHandler(char*)+0xc4c>
    3334:	00000000 	nop
    3338:	08000d68 	j	35a0 <Radio::Messages::consoleHandler(char*)+0x6e0>
    333c:	3c048000 	lui	a0,0x8000
    3340:	82430000 	lb	v1,0(s2)
    3344:	24020073 	li	v0,115
    3348:	146201f0 	bne	v1,v0,3b0c <Radio::Messages::consoleHandler(char*)+0xc4c>
    334c:	00000000 	nop
    3350:	08000d6d 	j	35b4 <Radio::Messages::consoleHandler(char*)+0x6f4>
    3354:	00000000 	nop
    3358:	82430000 	lb	v1,0(s2)
    335c:	24020065 	li	v0,101
    3360:	146201eb 	bne	v1,v0,3b10 <Radio::Messages::consoleHandler(char*)+0xc50>
    3364:	3c048000 	lui	a0,0x8000
    3368:	08000eaf 	j	3abc <Radio::Messages::consoleHandler(char*)+0xbfc>
    336c:	2402001f 	li	v0,31
    3370:	82430000 	lb	v1,0(s2)
    3374:	24020074 	li	v0,116
    3378:	146201e5 	bne	v1,v0,3b10 <Radio::Messages::consoleHandler(char*)+0xc50>
    337c:	3c048000 	lui	a0,0x8000
    3380:	08000eb1 	j	3ac4 <Radio::Messages::consoleHandler(char*)+0xc04>
    3384:	24020020 	li	v0,32
    3388:	82430000 	lb	v1,0(s2)
    338c:	2402005f 	li	v0,95
    3390:	146201df 	bne	v1,v0,3b10 <Radio::Messages::consoleHandler(char*)+0xc50>
    3394:	3c048000 	lui	a0,0x8000
    3398:	08000eb3 	j	3acc <Radio::Messages::consoleHandler(char*)+0xc0c>
    339c:	24020021 	li	v0,33
    33a0:	82430000 	lb	v1,0(s2)
    33a4:	24020064 	li	v0,100
    33a8:	146201d9 	bne	v1,v0,3b10 <Radio::Messages::consoleHandler(char*)+0xc50>
    33ac:	3c048000 	lui	a0,0x8000
    33b0:	08000eb5 	j	3ad4 <Radio::Messages::consoleHandler(char*)+0xc14>
    33b4:	24020022 	li	v0,34
    33b8:	82430000 	lb	v1,0(s2)
    33bc:	24020065 	li	v0,101
    33c0:	146201d3 	bne	v1,v0,3b10 <Radio::Messages::consoleHandler(char*)+0xc50>
    33c4:	3c048000 	lui	a0,0x8000
    33c8:	08000eb7 	j	3adc <Radio::Messages::consoleHandler(char*)+0xc1c>
    33cc:	24020023 	li	v0,35
    33d0:	82430000 	lb	v1,0(s2)
    33d4:	24020063 	li	v0,99
    33d8:	146201cd 	bne	v1,v0,3b10 <Radio::Messages::consoleHandler(char*)+0xc50>
    33dc:	3c048000 	lui	a0,0x8000
    33e0:	08000eb9 	j	3ae4 <Radio::Messages::consoleHandler(char*)+0xc24>
    33e4:	24020024 	li	v0,36
    33e8:	82430000 	lb	v1,0(s2)
    33ec:	24020020 	li	v0,32
    33f0:	146201c7 	bne	v1,v0,3b10 <Radio::Messages::consoleHandler(char*)+0xc50>
    33f4:	3c048000 	lui	a0,0x8000
    33f8:	08000ebb 	j	3aec <Radio::Messages::consoleHandler(char*)+0xc2c>
    33fc:	24020025 	li	v0,37
    3400:	82430000 	lb	v1,0(s2)
    3404:	24040020 	li	a0,32
    3408:	106401be 	beq	v1,a0,3b04 <Radio::Messages::consoleHandler(char*)+0xc44>
    340c:	2463ffd0 	addiu	v1,v1,-48
    3410:	306300ff 	andi	v1,v1,0xff
    3414:	2c63000a 	sltiu	v1,v1,10
    3418:	1460011a 	bnez	v1,3884 <Radio::Messages::consoleHandler(char*)+0x9c4>
    341c:	24020026 	li	v0,38
    3420:	08000ec4 	j	3b10 <Radio::Messages::consoleHandler(char*)+0xc50>
    3424:	3c048000 	lui	a0,0x8000
    3428:	82430000 	lb	v1,0(s2)
    342c:	24040020 	li	a0,32
    3430:	106400f6 	beq	v1,a0,380c <Radio::Messages::consoleHandler(char*)+0x94c>
    3434:	2463ffd0 	addiu	v1,v1,-48
    3438:	08000d32 	j	34c8 <Radio::Messages::consoleHandler(char*)+0x608>
    343c:	306300ff 	andi	v1,v1,0xff
    3440:	82430000 	lb	v1,0(s2)
    3444:	2404002b 	li	a0,43
    3448:	106400f5 	beq	v1,a0,3820 <Radio::Messages::consoleHandler(char*)+0x960>
    344c:	2404002d 	li	a0,45
    3450:	106400f3 	beq	v1,a0,3820 <Radio::Messages::consoleHandler(char*)+0x960>
    3454:	24040020 	li	a0,32
    3458:	08000d1a 	j	3468 <Radio::Messages::consoleHandler(char*)+0x5a8>
    345c:	00000000 	nop
    3460:	82430000 	lb	v1,0(s2)
    3464:	24040020 	li	a0,32
    3468:	106401a6 	beq	v1,a0,3b04 <Radio::Messages::consoleHandler(char*)+0xc44>
    346c:	2463ffd0 	addiu	v1,v1,-48
    3470:	306300ff 	andi	v1,v1,0xff
    3474:	2c63000a 	sltiu	v1,v1,10
    3478:	14600102 	bnez	v1,3884 <Radio::Messages::consoleHandler(char*)+0x9c4>
    347c:	24020029 	li	v0,41
    3480:	08000ec4 	j	3b10 <Radio::Messages::consoleHandler(char*)+0xc50>
    3484:	3c048000 	lui	a0,0x8000
    3488:	82430000 	lb	v1,0(s2)
    348c:	2404000a 	li	a0,10
    3490:	106400f7 	beq	v1,a0,3870 <Radio::Messages::consoleHandler(char*)+0x9b0>
    3494:	2864000b 	slti	a0,v1,11
    3498:	10800005 	beqz	a0,34b0 <Radio::Messages::consoleHandler(char*)+0x5f0>
    349c:	00000000 	nop
    34a0:	106000f3 	beqz	v1,3870 <Radio::Messages::consoleHandler(char*)+0x9b0>
    34a4:	2463ffd0 	addiu	v1,v1,-48
    34a8:	08000d32 	j	34c8 <Radio::Messages::consoleHandler(char*)+0x608>
    34ac:	306300ff 	andi	v1,v1,0xff
    34b0:	2404000d 	li	a0,13
    34b4:	106400ee 	beq	v1,a0,3870 <Radio::Messages::consoleHandler(char*)+0x9b0>
    34b8:	24040020 	li	a0,32
    34bc:	10640076 	beq	v1,a0,3698 <Radio::Messages::consoleHandler(char*)+0x7d8>
    34c0:	2463ffd0 	addiu	v1,v1,-48
    34c4:	306300ff 	andi	v1,v1,0xff
    34c8:	2c63000a 	sltiu	v1,v1,10
    34cc:	146000ed 	bnez	v1,3884 <Radio::Messages::consoleHandler(char*)+0x9c4>
    34d0:	3c048000 	lui	a0,0x8000
    34d4:	08000ec4 	j	3b10 <Radio::Messages::consoleHandler(char*)+0xc50>
    34d8:	00000000 	nop
    34dc:	82420000 	lb	v0,0(s2)
    34e0:	2403006f 	li	v1,111
    34e4:	10430005 	beq	v0,v1,34fc <Radio::Messages::consoleHandler(char*)+0x63c>
    34e8:	24030074 	li	v1,116
    34ec:	14430188 	bne	v0,v1,3b10 <Radio::Messages::consoleHandler(char*)+0xc50>
    34f0:	3c048000 	lui	a0,0x8000
    34f4:	08000ebd 	j	3af4 <Radio::Messages::consoleHandler(char*)+0xc34>
    34f8:	2402002c 	li	v0,44
    34fc:	08000ec1 	j	3b04 <Radio::Messages::consoleHandler(char*)+0xc44>
    3500:	2402002b 	li	v0,43
    3504:	82430000 	lb	v1,0(s2)
    3508:	24020070 	li	v0,112
    350c:	14620180 	bne	v1,v0,3b10 <Radio::Messages::consoleHandler(char*)+0xc50>
    3510:	3c048000 	lui	a0,0x8000
    3514:	08000dab 	j	36ac <Radio::Messages::consoleHandler(char*)+0x7ec>
    3518:	00000000 	nop
    351c:	82430000 	lb	v1,0(s2)
    3520:	24020077 	li	v0,119
    3524:	1462017a 	bne	v1,v0,3b10 <Radio::Messages::consoleHandler(char*)+0xc50>
    3528:	3c048000 	lui	a0,0x8000
    352c:	08000dc4 	j	3710 <Radio::Messages::consoleHandler(char*)+0x850>
    3530:	00000000 	nop
    3534:	0c0000f2 	jal	3c8 <BOOTLOADER_MAIN_ENDS>
    3538:	00000000 	nop
    353c:	0c0006ea 	jal	1ba8 <System::Tasking::TaskScheduler::instance()>
    3540:	00000000 	nop
    3544:	3c068000 	lui	a2,0x8000
    3548:	00402021 	move	a0,v0
    354c:	24450004 	addiu	a1,v0,4
    3550:	24c606fc 	addiu	a2,a2,1788
    3554:	0c0006b1 	jal	1ac4 <System::Tasking::TaskScheduler::addTask(System::Tasking::Task**, System::Tasking::Task*, int)>
    3558:	3407c350 	li	a3,0xc350
    355c:	08000ec1 	j	3b04 <Radio::Messages::consoleHandler(char*)+0xc44>
    3560:	24020005 	li	v0,5
    3564:	2402002d 	li	v0,45
    3568:	168200ec 	bne	s4,v0,391c <Radio::Messages::consoleHandler(char*)+0xa5c>
    356c:	00000000 	nop
    3570:	08000e41 	j	3904 <Radio::Messages::consoleHandler(char*)+0xa44>
    3574:	00131080 	sll	v0,s3,0x2
    3578:	2402002d 	li	v0,45
    357c:	168200fd 	bne	s4,v0,3974 <Radio::Messages::consoleHandler(char*)+0xab4>
    3580:	27a30010 	addiu	v1,sp,16
    3584:	08000e58 	j	3960 <Radio::Messages::consoleHandler(char*)+0xaa0>
    3588:	00131080 	sll	v0,s3,0x2
    358c:	2402002d 	li	v0,45
    3590:	168200d7 	bne	s4,v0,38f0 <Radio::Messages::consoleHandler(char*)+0xa30>
    3594:	00000000 	nop
    3598:	08000e36 	j	38d8 <Radio::Messages::consoleHandler(char*)+0xa18>
    359c:	00131080 	sll	v0,s3,0x2
    35a0:	24840058 	addiu	a0,a0,88
    35a4:	0c0005b5 	jal	16d4 <_ZN6System3Bus4UART13write_waitingEPKcj.constprop.49>
    35a8:	00000000 	nop
    35ac:	08000ec1 	j	3b04 <Radio::Messages::consoleHandler(char*)+0xc44>
    35b0:	24020005 	li	v0,5
    35b4:	0c0006ea 	jal	1ba8 <System::Tasking::TaskScheduler::instance()>
    35b8:	3c1e8000 	lui	s8,0x8000
    35bc:	24430004 	addiu	v1,v0,4
    35c0:	24420008 	addiu	v0,v0,8
    35c4:	afa30010 	sw	v1,16(sp)
    35c8:	afa20014 	sw	v0,20(sp)
    35cc:	00008821 	move	s1,zero
    35d0:	27de01e4 	addiu	s8,s8,484
    35d4:	27a50010 	addiu	a1,sp,16
    35d8:	00b11021 	addu	v0,a1,s1
    35dc:	8c420000 	lw	v0,0(v0)
    35e0:	00000000 	nop
    35e4:	8c500000 	lw	s0,0(v0)
    35e8:	08000d9f 	j	367c <Radio::Messages::consoleHandler(char*)+0x7bc>
    35ec:	00000000 	nop
    35f0:	8e020000 	lw	v0,0(s0)
    35f4:	00000000 	nop
    35f8:	8c420004 	lw	v0,4(v0)
    35fc:	00000000 	nop
    3600:	0040f809 	jalr	v0
    3604:	02002021 	move	a0,s0
    3608:	0c0005b5 	jal	16d4 <_ZN6System3Bus4UART13write_waitingEPKcj.constprop.49>
    360c:	00402021 	move	a0,v0
    3610:	0c0005b5 	jal	16d4 <_ZN6System3Bus4UART13write_waitingEPKcj.constprop.49>
    3614:	02e02021 	move	a0,s7
    3618:	3c0502fa 	lui	a1,0x2fa
    361c:	34a5f080 	ori	a1,a1,0xf080
    3620:	0c000946 	jal	2518 <_ZN7float32C2Ej.part.0.4035>
    3624:	27a40024 	addiu	a0,sp,36
    3628:	8e050010 	lw	a1,16(s0)
    362c:	00000000 	nop
    3630:	14a00003 	bnez	a1,3640 <Radio::Messages::consoleHandler(char*)+0x780>
    3634:	00000000 	nop
    3638:	08000d92 	j	3648 <Radio::Messages::consoleHandler(char*)+0x788>
    363c:	afa00028 	sw	zero,40(sp)
    3640:	0c000946 	jal	2518 <_ZN7float32C2Ej.part.0.4035>
    3644:	27a40028 	addiu	a0,sp,40
    3648:	27a60028 	addiu	a2,sp,40
    364c:	27a50024 	addiu	a1,sp,36
    3650:	0c000511 	jal	1444 <float32::operator/(float32 const&) const>
    3654:	27a40020 	addiu	a0,sp,32
    3658:	0c000aec 	jal	2bb0 <_Z8f32todecRK7float32.1477>
    365c:	27a40020 	addiu	a0,sp,32
    3660:	00402021 	move	a0,v0
    3664:	0c0005f5 	jal	17d4 <System::Bus::UART::write_waiting(long long)>
    3668:	00602821 	move	a1,v1
    366c:	0c0005b5 	jal	16d4 <_ZN6System3Bus4UART13write_waitingEPKcj.constprop.49>
    3670:	03c02021 	move	a0,s8
    3674:	8e100014 	lw	s0,20(s0)
    3678:	00000000 	nop
    367c:	1600ffdc 	bnez	s0,35f0 <Radio::Messages::consoleHandler(char*)+0x730>
    3680:	24020008 	li	v0,8
    3684:	26310004 	addiu	s1,s1,4
    3688:	1622ffd2 	bne	s1,v0,35d4 <Radio::Messages::consoleHandler(char*)+0x714>
    368c:	24020005 	li	v0,5
    3690:	08000bc4 	j	2f10 <Radio::Messages::consoleHandler(char*)+0x50>
    3694:	26520001 	addiu	s2,s2,1
    3698:	2402002d 	li	v0,45
    369c:	168200aa 	bne	s4,v0,3948 <Radio::Messages::consoleHandler(char*)+0xa88>
    36a0:	00000000 	nop
    36a4:	08000e4c 	j	3930 <Radio::Messages::consoleHandler(char*)+0xa70>
    36a8:	00131080 	sll	v0,s3,0x2
    36ac:	0c0006ea 	jal	1ba8 <System::Tasking::TaskScheduler::instance()>
    36b0:	00000000 	nop
    36b4:	8c450020 	lw	a1,32(v0)
    36b8:	00000000 	nop
    36bc:	14a00003 	bnez	a1,36cc <Radio::Messages::consoleHandler(char*)+0x80c>
    36c0:	00000000 	nop
    36c4:	08000db5 	j	36d4 <Radio::Messages::consoleHandler(char*)+0x814>
    36c8:	afa00024 	sw	zero,36(sp)
    36cc:	0c000946 	jal	2518 <_ZN7float32C2Ej.part.0.4035>
    36d0:	27a40024 	addiu	a0,sp,36
    36d4:	3c0502fa 	lui	a1,0x2fa
    36d8:	27a40028 	addiu	a0,sp,40
    36dc:	0c000946 	jal	2518 <_ZN7float32C2Ej.part.0.4035>
    36e0:	34a5f080 	ori	a1,a1,0xf080
    36e4:	27a50024 	addiu	a1,sp,36
    36e8:	27a60028 	addiu	a2,sp,40
    36ec:	0c000511 	jal	1444 <float32::operator/(float32 const&) const>
    36f0:	27a40020 	addiu	a0,sp,32
    36f4:	0c000aec 	jal	2bb0 <_Z8f32todecRK7float32.1477>
    36f8:	27a40020 	addiu	a0,sp,32
    36fc:	00402021 	move	a0,v0
    3700:	0c0005f5 	jal	17d4 <System::Bus::UART::write_waiting(long long)>
    3704:	00602821 	move	a1,v1
    3708:	08000d69 	j	35a4 <Radio::Messages::consoleHandler(char*)+0x6e4>
    370c:	26c401e8 	addiu	a0,s6,488
    3710:	0c0006ea 	jal	1ba8 <System::Tasking::TaskScheduler::instance()>
    3714:	3c114f42 	lui	s1,0x4f42
    3718:	8c5e0018 	lw	s8,24(v0)
    371c:	00000000 	nop
    3720:	001e17c3 	sra	v0,s8,0x1f
    3724:	005ef026 	xor	s8,v0,s8
    3728:	03c2f023 	subu	s8,s8,v0
    372c:	3c0205f5 	lui	v0,0x5f5
    3730:	3442e100 	ori	v0,v0,0xe100
    3734:	3c102020 	lui	s0,0x2020
    3738:	03c2102a 	slt	v0,s8,v0
    373c:	36314947 	ori	s1,s1,0x4947
    3740:	10400021 	beqz	v0,37c8 <Radio::Messages::consoleHandler(char*)+0x908>
    3744:	36102054 	ori	s0,s0,0x2054
    3748:	3c112020 	lui	s1,0x2020
    374c:	3c102020 	lui	s0,0x2020
    3750:	36312030 	ori	s1,s1,0x2030
    3754:	13c0001c 	beqz	s8,37c8 <Radio::Messages::consoleHandler(char*)+0x908>
    3758:	36102020 	ori	s0,s0,0x2020
    375c:	3c112020 	lui	s1,0x2020
    3760:	3c102020 	lui	s0,0x2020
    3764:	0000a821 	move	s5,zero
    3768:	36312020 	ori	s1,s1,0x2020
    376c:	36102020 	ori	s0,s0,0x2020
    3770:	0c0004ab 	jal	12ac <_ZN4MathL6divideEii.1342.constprop.59>
    3774:	03c02021 	move	a0,s8
    3778:	00404021 	move	t0,v0
    377c:	2402fff6 	li	v0,-10
    3780:	01020018 	mult	t0,v0
    3784:	27c50030 	addiu	a1,s8,48
    3788:	02a03021 	move	a2,s5
    378c:	afa80034 	sw	t0,52(sp)
    3790:	26b50008 	addiu	s5,s5,8
    3794:	00001012 	mflo	v0
    3798:	00a22821 	addu	a1,a1,v0
    379c:	00052e00 	sll	a1,a1,0x18
    37a0:	00052e03 	sra	a1,a1,0x18
    37a4:	0c001302 	jal	4c08 <__ashldi3>
    37a8:	000527c3 	sra	a0,a1,0x1f
    37ac:	8fa80034 	lw	t0,52(sp)
    37b0:	00501025 	or	v0,v0,s0
    37b4:	02231825 	or	v1,s1,v1
    37b8:	00408021 	move	s0,v0
    37bc:	00608821 	move	s1,v1
    37c0:	1500ffeb 	bnez	t0,3770 <Radio::Messages::consoleHandler(char*)+0x8b0>
    37c4:	0100f021 	move	s8,t0
    37c8:	02002021 	move	a0,s0
    37cc:	0c0005f5 	jal	17d4 <System::Bus::UART::write_waiting(long long)>
    37d0:	02202821 	move	a1,s1
    37d4:	0c0005ec 	jal	17b0 <System::Bus::UART::write_waiting(char)>
    37d8:	2404000a 	li	a0,10
    37dc:	08000ec1 	j	3b04 <Radio::Messages::consoleHandler(char*)+0xc44>
    37e0:	24020005 	li	v0,5
    37e4:	08000ec1 	j	3b04 <Radio::Messages::consoleHandler(char*)+0xc44>
    37e8:	24020006 	li	v0,6
    37ec:	08000bc4 	j	2f10 <Radio::Messages::consoleHandler(char*)+0x50>
    37f0:	26520001 	addiu	s2,s2,1
    37f4:	08000ec1 	j	3b04 <Radio::Messages::consoleHandler(char*)+0xc44>
    37f8:	24020016 	li	v0,22
    37fc:	08000ec1 	j	3b04 <Radio::Messages::consoleHandler(char*)+0xc44>
    3800:	2402001b 	li	v0,27
    3804:	08000bc4 	j	2f10 <Radio::Messages::consoleHandler(char*)+0x50>
    3808:	26520001 	addiu	s2,s2,1
    380c:	2402002d 	li	v0,45
    3810:	1682002e 	bne	s4,v0,38cc <Radio::Messages::consoleHandler(char*)+0xa0c>
    3814:	27a30010 	addiu	v1,sp,16
    3818:	08000e2e 	j	38b8 <Radio::Messages::consoleHandler(char*)+0x9f8>
    381c:	00131080 	sll	v0,s3,0x2
    3820:	2402002d 	li	v0,45
    3824:	106200b5 	beq	v1,v0,3afc <Radio::Messages::consoleHandler(char*)+0xc3c>
    3828:	00000000 	nop
    382c:	08000ec1 	j	3b04 <Radio::Messages::consoleHandler(char*)+0xc44>
    3830:	24020028 	li	v0,40
    3834:	2402002d 	li	v0,45
    3838:	16820062 	bne	s4,v0,39c4 <Radio::Messages::consoleHandler(char*)+0xb04>
    383c:	00139880 	sll	s3,s3,0x2
    3840:	08000e6c 	j	39b0 <Radio::Messages::consoleHandler(char*)+0xaf0>
    3844:	27a50010 	addiu	a1,sp,16
    3848:	2402002d 	li	v0,45
    384c:	16820072 	bne	s4,v0,3a18 <Radio::Messages::consoleHandler(char*)+0xb58>
    3850:	27a20010 	addiu	v0,sp,16
    3854:	08000e81 	j	3a04 <Radio::Messages::consoleHandler(char*)+0xb44>
    3858:	00139880 	sll	s3,s3,0x2
    385c:	2402002d 	li	v0,45
    3860:	1682004e 	bne	s4,v0,399c <Radio::Messages::consoleHandler(char*)+0xadc>
    3864:	00139880 	sll	s3,s3,0x2
    3868:	08000e62 	j	3988 <Radio::Messages::consoleHandler(char*)+0xac8>
    386c:	27a40010 	addiu	a0,sp,16
    3870:	2402002d 	li	v0,45
    3874:	1682005d 	bne	s4,v0,39ec <Radio::Messages::consoleHandler(char*)+0xb2c>
    3878:	00139880 	sll	s3,s3,0x2
    387c:	08000e76 	j	39d8 <Radio::Messages::consoleHandler(char*)+0xb18>
    3880:	27a60010 	addiu	a2,sp,16
    3884:	27a40010 	addiu	a0,sp,16
    3888:	00131880 	sll	v1,s3,0x2
    388c:	00831821 	addu	v1,a0,v1
    3890:	8c640008 	lw	a0,8(v1)
    3894:	2405000a 	li	a1,10
    3898:	00a40018 	mult	a1,a0
    389c:	82440000 	lb	a0,0(s2)
    38a0:	00000000 	nop
    38a4:	2484ffd0 	addiu	a0,a0,-48
    38a8:	00003012 	mflo	a2
    38ac:	00c42021 	addu	a0,a2,a0
    38b0:	08000ec1 	j	3b04 <Radio::Messages::consoleHandler(char*)+0xc44>
    38b4:	ac640008 	sw	a0,8(v1)
    38b8:	00621021 	addu	v0,v1,v0
    38bc:	8c430008 	lw	v1,8(v0)
    38c0:	2414002b 	li	s4,43
    38c4:	00031823 	negu	v1,v1
    38c8:	ac430008 	sw	v1,8(v0)
    38cc:	26730001 	addiu	s3,s3,1
    38d0:	08000ec1 	j	3b04 <Radio::Messages::consoleHandler(char*)+0xc44>
    38d4:	24020027 	li	v0,39
    38d8:	27a40010 	addiu	a0,sp,16
    38dc:	00821021 	addu	v0,a0,v0
    38e0:	8c430008 	lw	v1,8(v0)
    38e4:	2414002b 	li	s4,43
    38e8:	00031823 	negu	v1,v1
    38ec:	ac430008 	sw	v1,8(v0)
    38f0:	8fa40018 	lw	a0,24(sp)
    38f4:	0c00060d 	jal	1834 <_ZL3hexj.2621>
    38f8:	26730001 	addiu	s3,s3,1
    38fc:	08000ec1 	j	3b04 <Radio::Messages::consoleHandler(char*)+0xc44>
    3900:	24020005 	li	v0,5
    3904:	27a50010 	addiu	a1,sp,16
    3908:	00a21021 	addu	v0,a1,v0
    390c:	8c430008 	lw	v1,8(v0)
    3910:	2414002b 	li	s4,43
    3914:	00031823 	negu	v1,v1
    3918:	ac430008 	sw	v1,8(v0)
    391c:	8fa40018 	lw	a0,24(sp)
    3920:	0c000647 	jal	191c <_ZL3decj.2624>
    3924:	26730001 	addiu	s3,s3,1
    3928:	08000ec1 	j	3b04 <Radio::Messages::consoleHandler(char*)+0xc44>
    392c:	24020005 	li	v0,5
    3930:	27a60010 	addiu	a2,sp,16
    3934:	00c21021 	addu	v0,a2,v0
    3938:	8c430008 	lw	v1,8(v0)
    393c:	2414002b 	li	s4,43
    3940:	00031823 	negu	v1,v1
    3944:	ac430008 	sw	v1,8(v0)
    3948:	8fa40018 	lw	a0,24(sp)
    394c:	8fa5001c 	lw	a1,28(sp)
    3950:	0c0005d3 	jal	174c <_ZL7set_decji.2630>
    3954:	26730001 	addiu	s3,s3,1
    3958:	08000ec1 	j	3b04 <Radio::Messages::consoleHandler(char*)+0xc44>
    395c:	24020005 	li	v0,5
    3960:	00621021 	addu	v0,v1,v0
    3964:	8c430008 	lw	v1,8(v0)
    3968:	2414002b 	li	s4,43
    396c:	00031823 	negu	v1,v1
    3970:	ac430008 	sw	v1,8(v0)
    3974:	8fa40018 	lw	a0,24(sp)
    3978:	0c000b98 	jal	2e60 <_ZL4fl32j.2627.1474>
    397c:	26730001 	addiu	s3,s3,1
    3980:	08000ec1 	j	3b04 <Radio::Messages::consoleHandler(char*)+0xc44>
    3984:	24020005 	li	v0,5
    3988:	00939821 	addu	s3,a0,s3
    398c:	8e620008 	lw	v0,8(s3)
    3990:	00000000 	nop
    3994:	00021023 	negu	v0,v0
    3998:	ae620008 	sw	v0,8(s3)
    399c:	8fa40018 	lw	a0,24(sp)
    39a0:	0c00060d 	jal	1834 <_ZL3hexj.2621>
    39a4:	00000000 	nop
    39a8:	08000ec6 	j	3b18 <Radio::Messages::consoleHandler(char*)+0xc58>
    39ac:	00000000 	nop
    39b0:	00b39821 	addu	s3,a1,s3
    39b4:	8e620008 	lw	v0,8(s3)
    39b8:	00000000 	nop
    39bc:	00021023 	negu	v0,v0
    39c0:	ae620008 	sw	v0,8(s3)
    39c4:	8fa40018 	lw	a0,24(sp)
    39c8:	0c000647 	jal	191c <_ZL3decj.2624>
    39cc:	00000000 	nop
    39d0:	08000ec6 	j	3b18 <Radio::Messages::consoleHandler(char*)+0xc58>
    39d4:	00000000 	nop
    39d8:	00d39821 	addu	s3,a2,s3
    39dc:	8e620008 	lw	v0,8(s3)
    39e0:	00000000 	nop
    39e4:	00021023 	negu	v0,v0
    39e8:	ae620008 	sw	v0,8(s3)
    39ec:	8fa40018 	lw	a0,24(sp)
    39f0:	8fa5001c 	lw	a1,28(sp)
    39f4:	0c0005d3 	jal	174c <_ZL7set_decji.2630>
    39f8:	00000000 	nop
    39fc:	08000ec6 	j	3b18 <Radio::Messages::consoleHandler(char*)+0xc58>
    3a00:	00000000 	nop
    3a04:	00539821 	addu	s3,v0,s3
    3a08:	8e620008 	lw	v0,8(s3)
    3a0c:	00000000 	nop
    3a10:	00021023 	negu	v0,v0
    3a14:	ae620008 	sw	v0,8(s3)
    3a18:	8fa40018 	lw	a0,24(sp)
    3a1c:	0c000b98 	jal	2e60 <_ZL4fl32j.2627.1474>
    3a20:	00000000 	nop
    3a24:	08000ec6 	j	3b18 <Radio::Messages::consoleHandler(char*)+0xc58>
    3a28:	00000000 	nop
    3a2c:	08000bc4 	j	2f10 <Radio::Messages::consoleHandler(char*)+0x50>
    3a30:	26520001 	addiu	s2,s2,1
    3a34:	08000bc4 	j	2f10 <Radio::Messages::consoleHandler(char*)+0x50>
    3a38:	26520001 	addiu	s2,s2,1
    3a3c:	08000bc4 	j	2f10 <Radio::Messages::consoleHandler(char*)+0x50>
    3a40:	26520001 	addiu	s2,s2,1
    3a44:	08000bc4 	j	2f10 <Radio::Messages::consoleHandler(char*)+0x50>
    3a48:	26520001 	addiu	s2,s2,1
    3a4c:	08000bc4 	j	2f10 <Radio::Messages::consoleHandler(char*)+0x50>
    3a50:	26520001 	addiu	s2,s2,1
    3a54:	08000bc4 	j	2f10 <Radio::Messages::consoleHandler(char*)+0x50>
    3a58:	26520001 	addiu	s2,s2,1
    3a5c:	08000bc4 	j	2f10 <Radio::Messages::consoleHandler(char*)+0x50>
    3a60:	26520001 	addiu	s2,s2,1
    3a64:	08000ec1 	j	3b04 <Radio::Messages::consoleHandler(char*)+0xc44>
    3a68:	24020011 	li	v0,17
    3a6c:	08000bc4 	j	2f10 <Radio::Messages::consoleHandler(char*)+0x50>
    3a70:	26520001 	addiu	s2,s2,1
    3a74:	08000bc4 	j	2f10 <Radio::Messages::consoleHandler(char*)+0x50>
    3a78:	26520001 	addiu	s2,s2,1
    3a7c:	08000bc4 	j	2f10 <Radio::Messages::consoleHandler(char*)+0x50>
    3a80:	26520001 	addiu	s2,s2,1
    3a84:	08000bc4 	j	2f10 <Radio::Messages::consoleHandler(char*)+0x50>
    3a88:	26520001 	addiu	s2,s2,1
    3a8c:	08000bc4 	j	2f10 <Radio::Messages::consoleHandler(char*)+0x50>
    3a90:	26520001 	addiu	s2,s2,1
    3a94:	08000bc4 	j	2f10 <Radio::Messages::consoleHandler(char*)+0x50>
    3a98:	26520001 	addiu	s2,s2,1
    3a9c:	08000bc4 	j	2f10 <Radio::Messages::consoleHandler(char*)+0x50>
    3aa0:	26520001 	addiu	s2,s2,1
    3aa4:	08000bc4 	j	2f10 <Radio::Messages::consoleHandler(char*)+0x50>
    3aa8:	26520001 	addiu	s2,s2,1
    3aac:	08000bc4 	j	2f10 <Radio::Messages::consoleHandler(char*)+0x50>
    3ab0:	26520001 	addiu	s2,s2,1
    3ab4:	08000bc4 	j	2f10 <Radio::Messages::consoleHandler(char*)+0x50>
    3ab8:	26520001 	addiu	s2,s2,1
    3abc:	08000bc4 	j	2f10 <Radio::Messages::consoleHandler(char*)+0x50>
    3ac0:	26520001 	addiu	s2,s2,1
    3ac4:	08000bc4 	j	2f10 <Radio::Messages::consoleHandler(char*)+0x50>
    3ac8:	26520001 	addiu	s2,s2,1
    3acc:	08000bc4 	j	2f10 <Radio::Messages::consoleHandler(char*)+0x50>
    3ad0:	26520001 	addiu	s2,s2,1
    3ad4:	08000bc4 	j	2f10 <Radio::Messages::consoleHandler(char*)+0x50>
    3ad8:	26520001 	addiu	s2,s2,1
    3adc:	08000bc4 	j	2f10 <Radio::Messages::consoleHandler(char*)+0x50>
    3ae0:	26520001 	addiu	s2,s2,1
    3ae4:	08000bc4 	j	2f10 <Radio::Messages::consoleHandler(char*)+0x50>
    3ae8:	26520001 	addiu	s2,s2,1
    3aec:	08000bc4 	j	2f10 <Radio::Messages::consoleHandler(char*)+0x50>
    3af0:	26520001 	addiu	s2,s2,1
    3af4:	08000bc4 	j	2f10 <Radio::Messages::consoleHandler(char*)+0x50>
    3af8:	26520001 	addiu	s2,s2,1
    3afc:	24020028 	li	v0,40
    3b00:	2414002d 	li	s4,45
    3b04:	08000bc4 	j	2f10 <Radio::Messages::consoleHandler(char*)+0x50>
    3b08:	26520001 	addiu	s2,s2,1
    3b0c:	3c048000 	lui	a0,0x8000
    3b10:	0c0005b5 	jal	16d4 <_ZN6System3Bus4UART13write_waitingEPKcj.constprop.49>
    3b14:	248401ec 	addiu	a0,a0,492
    3b18:	8fbf005c 	lw	ra,92(sp)
    3b1c:	8fbe0058 	lw	s8,88(sp)
    3b20:	8fb70054 	lw	s7,84(sp)
    3b24:	8fb60050 	lw	s6,80(sp)
    3b28:	8fb5004c 	lw	s5,76(sp)
    3b2c:	8fb40048 	lw	s4,72(sp)
    3b30:	8fb30044 	lw	s3,68(sp)
    3b34:	8fb20040 	lw	s2,64(sp)
    3b38:	8fb1003c 	lw	s1,60(sp)
    3b3c:	8fb00038 	lw	s0,56(sp)
    3b40:	03e00008 	jr	ra
    3b44:	27bd0060 	addiu	sp,sp,96

00003b48 <Control::AltitudeTask::start()>:
    3b48:	8c82001c 	lw	v0,28(a0)
    3b4c:	27bdff88 	addiu	sp,sp,-120
    3b50:	afb0006c 	sw	s0,108(sp)
    3b54:	afbf0074 	sw	ra,116(sp)
    3b58:	afb10070 	sw	s1,112(sp)
    3b5c:	14400063 	bnez	v0,3cec <Control::AltitudeTask::start()+0x1a4>
    3b60:	00808021 	move	s0,a0
    3b64:	0c00071a 	jal	1c68 <_ZN7Sensors4BaroL11updateValueEv.3301>
    3b68:	00000000 	nop
    3b6c:	3c038000 	lui	v1,0x8000
    3b70:	3c058000 	lui	a1,0x8000
    3b74:	8c6a0488 	lw	t2,1160(v1)
    3b78:	8c67048c 	lw	a3,1164(v1)
    3b7c:	8ca30490 	lw	v1,1168(a1)
    3b80:	24a50490 	addiu	a1,a1,1168
    3b84:	8ca80008 	lw	t0,8(a1)
    3b88:	00033442 	srl	a2,v1,0x11
    3b8c:	01480018 	mult	t2,t0
    3b90:	00031bc0 	sll	v1,v1,0xf
    3b94:	00002012 	mflo	a0
    3b98:	00000000 	nop
    3b9c:	00000000 	nop
    3ba0:	01070019 	multu	t0,a3
    3ba4:	00004010 	mfhi	t0
    3ba8:	00884021 	addu	t0,a0,t0
    3bac:	00085e00 	sll	t3,t0,0x18
    3bb0:	00004812 	mflo	t1
    3bb4:	00092202 	srl	a0,t1,0x8
    3bb8:	01642025 	or	a0,t3,a0
    3bbc:	00642021 	addu	a0,v1,a0
    3bc0:	00084203 	sra	t0,t0,0x8
    3bc4:	0083182b 	sltu	v1,a0,v1
    3bc8:	00c84021 	addu	t0,a2,t0
    3bcc:	00684021 	addu	t0,v1,t0
    3bd0:	3c038000 	lui	v1,0x8000
    3bd4:	8c660478 	lw	a2,1144(v1)
    3bd8:	8c63047c 	lw	v1,1148(v1)
    3bdc:	01064023 	subu	t0,t0,a2
    3be0:	00831823 	subu	v1,a0,v1
    3be4:	0083202b 	sltu	a0,a0,v1
    3be8:	01042023 	subu	a0,t0,a0
    3bec:	00820018 	mult	a0,v0
    3bf0:	000237c3 	sra	a2,v0,0x1f
    3bf4:	00004012 	mflo	t0
    3bf8:	00000000 	nop
    3bfc:	00000000 	nop
    3c00:	00c30018 	mult	a2,v1
    3c04:	8ca6000c 	lw	a2,12(a1)
    3c08:	00002012 	mflo	a0
    3c0c:	afa40064 	sw	a0,100(sp)
    3c10:	01042021 	addu	a0,t0,a0
    3c14:	00620019 	multu	v1,v0
    3c18:	8ca80004 	lw	t0,4(a1)
    3c1c:	00000000 	nop
    3c20:	00084c02 	srl	t1,t0,0x10
    3c24:	00084400 	sll	t0,t0,0x10
    3c28:	00001010 	mfhi	v0
    3c2c:	00821021 	addu	v0,a0,v0
    3c30:	000222c0 	sll	a0,v0,0xb
    3c34:	00001812 	mflo	v1
    3c38:	00031d42 	srl	v1,v1,0x15
    3c3c:	00831825 	or	v1,a0,v1
    3c40:	01460018 	mult	t2,a2
    3c44:	00021543 	sra	v0,v0,0x15
    3c48:	00002012 	mflo	a0
    3c4c:	00000000 	nop
    3c50:	00000000 	nop
    3c54:	00c70019 	multu	a2,a3
    3c58:	00003010 	mfhi	a2
    3c5c:	00863021 	addu	a2,a0,a2
    3c60:	00062e40 	sll	a1,a2,0x19
    3c64:	00003812 	mflo	a3
    3c68:	000721c2 	srl	a0,a3,0x7
    3c6c:	00a42025 	or	a0,a1,a0
    3c70:	3c058000 	lui	a1,0x8000
    3c74:	8cb10484 	lw	s1,1156(a1)
    3c78:	01042021 	addu	a0,t0,a0
    3c7c:	000631c3 	sra	a2,a2,0x7
    3c80:	01263021 	addu	a2,t1,a2
    3c84:	8ca70480 	lw	a3,1152(a1)
    3c88:	0088402b 	sltu	t0,a0,t0
    3c8c:	01064021 	addu	t0,t0,a2
    3c90:	00918823 	subu	s1,a0,s1
    3c94:	01074023 	subu	t0,t0,a3
    3c98:	0091202b 	sltu	a0,a0,s1
    3c9c:	01042023 	subu	a0,t0,a0
    3ca0:	00718823 	subu	s1,v1,s1
    3ca4:	00441023 	subu	v0,v0,a0
    3ca8:	0071182b 	sltu	v1,v1,s1
    3cac:	00431823 	subu	v1,v0,v1
    3cb0:	00031c40 	sll	v1,v1,0x11
    3cb4:	00118bc2 	srl	s1,s1,0xf
    3cb8:	0c0003ee 	jal	fb8 <_ZN6System8Registry8instanceEv.local.11>
    3cbc:	00718825 	or	s1,v1,s1
    3cc0:	0c000711 	jal	1c44 <System::Bus::I2C::start()>
    3cc4:	ac510088 	sw	s1,136(v0)
    3cc8:	0c0006fd 	jal	1bf4 <System::Bus::I2C::write(unsigned char)>
    3ccc:	240400ee 	li	a0,238
    3cd0:	0c0006fd 	jal	1bf4 <System::Bus::I2C::write(unsigned char)>
    3cd4:	24040050 	li	a0,80
    3cd8:	0c000708 	jal	1c20 <System::Bus::I2C::stop()>
    3cdc:	00000000 	nop
    3ce0:	24020001 	li	v0,1
    3ce4:	08000f49 	j	3d24 <Control::AltitudeTask::start()+0x1dc>
    3ce8:	ae02001c 	sw	v0,28(s0)
    3cec:	24030001 	li	v1,1
    3cf0:	1443000c 	bne	v0,v1,3d24 <Control::AltitudeTask::start()+0x1dc>
    3cf4:	00000000 	nop
    3cf8:	0c000738 	jal	1ce0 <Sensors::Baro::updateTemperature()>
    3cfc:	00000000 	nop
    3d00:	0c000711 	jal	1c44 <System::Bus::I2C::start()>
    3d04:	00000000 	nop
    3d08:	0c0006fd 	jal	1bf4 <System::Bus::I2C::write(unsigned char)>
    3d0c:	240400ee 	li	a0,238
    3d10:	0c0006fd 	jal	1bf4 <System::Bus::I2C::write(unsigned char)>
    3d14:	24040040 	li	a0,64
    3d18:	0c000708 	jal	1c20 <System::Bus::I2C::stop()>
    3d1c:	00000000 	nop
    3d20:	ae00001c 	sw	zero,28(s0)
    3d24:	0c0003ee 	jal	fb8 <_ZN6System8Registry8instanceEv.local.11>
    3d28:	00000000 	nop
    3d2c:	8c450088 	lw	a1,136(v0)
    3d30:	0c000930 	jal	24c0 <float32::float32(int)>
    3d34:	27a40058 	addiu	a0,sp,88
    3d38:	0c0003ee 	jal	fb8 <_ZN6System8Registry8instanceEv.local.11>
    3d3c:	00000000 	nop
    3d40:	8c450080 	lw	a1,128(v0)
    3d44:	0c000930 	jal	24c0 <float32::float32(int)>
    3d48:	27a40054 	addiu	a0,sp,84
    3d4c:	3c0247c5 	lui	v0,0x47c5
    3d50:	3442e680 	ori	v0,v0,0xe680
    3d54:	27a4005c 	addiu	a0,sp,92
    3d58:	27a50050 	addiu	a1,sp,80
    3d5c:	27a60058 	addiu	a2,sp,88
    3d60:	0c000511 	jal	1444 <float32::operator/(float32 const&) const>
    3d64:	afa20050 	sw	v0,80(sp)
    3d68:	3c02bc2c 	lui	v0,0xbc2c
    3d6c:	24420831 	addiu	v0,v0,2097
    3d70:	afa20010 	sw	v0,16(sp)
    3d74:	3c023d9f 	lui	v0,0x3d9f
    3d78:	3442be77 	ori	v0,v0,0xbe77
    3d7c:	afa20014 	sw	v0,20(sp)
    3d80:	3c02be7c 	lui	v0,0xbe7c
    3d84:	244201a3 	addiu	v0,v0,419
    3d88:	afa20018 	sw	v0,24(sp)
    3d8c:	3c023efb 	lui	v0,0x3efb
    3d90:	2442089a 	addiu	v0,v0,2202
    3d94:	27a5005c 	addiu	a1,sp,92
    3d98:	afa2001c 	sw	v0,28(sp)
    3d9c:	3c023f30 	lui	v0,0x3f30
    3da0:	2442346e 	addiu	v0,v0,13422
    3da4:	00a03021 	move	a2,a1
    3da8:	27a40048 	addiu	a0,sp,72
    3dac:	0c0009f9 	jal	27e4 <float32::operator*(float32 const&) const>
    3db0:	afa20020 	sw	v0,32(sp)
    3db4:	27a40034 	addiu	a0,sp,52
    3db8:	27a50010 	addiu	a1,sp,16
    3dbc:	0c0009f9 	jal	27e4 <float32::operator*(float32 const&) const>
    3dc0:	27a60048 	addiu	a2,sp,72
    3dc4:	27a40030 	addiu	a0,sp,48
    3dc8:	27a50034 	addiu	a1,sp,52
    3dcc:	0c0009f9 	jal	27e4 <float32::operator*(float32 const&) const>
    3dd0:	27a60048 	addiu	a2,sp,72
    3dd4:	27a4003c 	addiu	a0,sp,60
    3dd8:	27a50014 	addiu	a1,sp,20
    3ddc:	0c0009f9 	jal	27e4 <float32::operator*(float32 const&) const>
    3de0:	27a60048 	addiu	a2,sp,72
    3de4:	27a40038 	addiu	a0,sp,56
    3de8:	27a5003c 	addiu	a1,sp,60
    3dec:	0c0009f9 	jal	27e4 <float32::operator*(float32 const&) const>
    3df0:	27a6005c 	addiu	a2,sp,92
    3df4:	27a4002c 	addiu	a0,sp,44
    3df8:	27a50030 	addiu	a1,sp,48
    3dfc:	0c0009b0 	jal	26c0 <float32::operator+(float32 const&) const>
    3e00:	27a60038 	addiu	a2,sp,56
    3e04:	27a40040 	addiu	a0,sp,64
    3e08:	27a50018 	addiu	a1,sp,24
    3e0c:	0c0009f9 	jal	27e4 <float32::operator*(float32 const&) const>
    3e10:	27a60048 	addiu	a2,sp,72
    3e14:	27a40028 	addiu	a0,sp,40
    3e18:	27a5002c 	addiu	a1,sp,44
    3e1c:	0c0009b0 	jal	26c0 <float32::operator+(float32 const&) const>
    3e20:	27a60040 	addiu	a2,sp,64
    3e24:	27a40044 	addiu	a0,sp,68
    3e28:	27a5001c 	addiu	a1,sp,28
    3e2c:	0c0009f9 	jal	27e4 <float32::operator*(float32 const&) const>
    3e30:	27a6005c 	addiu	a2,sp,92
    3e34:	27a40024 	addiu	a0,sp,36
    3e38:	27a50028 	addiu	a1,sp,40
    3e3c:	0c0009b0 	jal	26c0 <float32::operator+(float32 const&) const>
    3e40:	27a60044 	addiu	a2,sp,68
    3e44:	27a4004c 	addiu	a0,sp,76
    3e48:	27a50024 	addiu	a1,sp,36
    3e4c:	0c0009b0 	jal	26c0 <float32::operator+(float32 const&) const>
    3e50:	27a60020 	addiu	a2,sp,32
    3e54:	3c023f80 	lui	v0,0x3f80
    3e58:	27a40034 	addiu	a0,sp,52
    3e5c:	27a5004c 	addiu	a1,sp,76
    3e60:	27a60030 	addiu	a2,sp,48
    3e64:	0c0009d5 	jal	2754 <float32::operator-(float32 const&) const>
    3e68:	afa20030 	sw	v0,48(sp)
    3e6c:	3c0246d5 	lui	v0,0x46d5
    3e70:	24426600 	addiu	v0,v0,26112
    3e74:	27a4002c 	addiu	a0,sp,44
    3e78:	27a50054 	addiu	a1,sp,84
    3e7c:	27a60028 	addiu	a2,sp,40
    3e80:	0c0009b0 	jal	26c0 <float32::operator+(float32 const&) const>
    3e84:	afa20028 	sw	v0,40(sp)
    3e88:	27a40038 	addiu	a0,sp,56
    3e8c:	27a50034 	addiu	a1,sp,52
    3e90:	0c0009f9 	jal	27e4 <float32::operator*(float32 const&) const>
    3e94:	27a6002c 	addiu	a2,sp,44
    3e98:	3c023bd4 	lui	v0,0x3bd4
    3e9c:	3442fdf4 	ori	v0,v0,0xfdf4
    3ea0:	27a50038 	addiu	a1,sp,56
    3ea4:	27a40010 	addiu	a0,sp,16
    3ea8:	27a60024 	addiu	a2,sp,36
    3eac:	0c000511 	jal	1444 <float32::operator/(float32 const&) const>
    3eb0:	afa20024 	sw	v0,36(sp)
    3eb4:	0c000a89 	jal	2a24 <float32::operator int() const>
    3eb8:	27a40010 	addiu	a0,sp,16
    3ebc:	8e0300a0 	lw	v1,160(s0)
    3ec0:	24050020 	li	a1,32
    3ec4:	24640001 	addiu	a0,v1,1
    3ec8:	10850003 	beq	a0,a1,3ed8 <Control::AltitudeTask::start()+0x390>
    3ecc:	00000000 	nop
    3ed0:	08000fb7 	j	3edc <Control::AltitudeTask::start()+0x394>
    3ed4:	ae0400a0 	sw	a0,160(s0)
    3ed8:	ae0000a0 	sw	zero,160(s0)
    3edc:	00031880 	sll	v1,v1,0x2
    3ee0:	02031821 	addu	v1,s0,v1
    3ee4:	8c710020 	lw	s1,32(v1)
    3ee8:	8e0400a4 	lw	a0,164(s0)
    3eec:	00518823 	subu	s1,v0,s1
    3ef0:	02248821 	addu	s1,s1,a0
    3ef4:	ae1100a4 	sw	s1,164(s0)
    3ef8:	0c0003ee 	jal	fb8 <_ZN6System8Registry8instanceEv.local.11>
    3efc:	ac620020 	sw	v0,32(v1)
    3f00:	8fbf0074 	lw	ra,116(sp)
    3f04:	00118943 	sra	s1,s1,0x5
    3f08:	ac510090 	sw	s1,144(v0)
    3f0c:	8fb0006c 	lw	s0,108(sp)
    3f10:	8fb10070 	lw	s1,112(sp)
    3f14:	03e00008 	jr	ra
    3f18:	27bd0078 	addiu	sp,sp,120

00003f1c <f32::atan2(float32 const&, float32 const&)>:
    3f1c:	3c023f49 	lui	v0,0x3f49
    3f20:	27bdffc0 	addiu	sp,sp,-64
    3f24:	24420fdb 	addiu	v0,v0,4059
    3f28:	afa2001c 	sw	v0,28(sp)
    3f2c:	3c024016 	lui	v0,0x4016
    3f30:	3442cbe4 	ori	v0,v0,0xcbe4
    3f34:	8ca30000 	lw	v1,0(a1)
    3f38:	afa20018 	sw	v0,24(sp)
    3f3c:	3c027fff 	lui	v0,0x7fff
    3f40:	3442ffff 	ori	v0,v0,0xffff
    3f44:	00621024 	and	v0,v1,v0
    3f48:	afa20020 	sw	v0,32(sp)
    3f4c:	3c022edb 	lui	v0,0x2edb
    3f50:	3442e6ff 	ori	v0,v0,0xe6ff
    3f54:	afb20038 	sw	s2,56(sp)
    3f58:	afb10034 	sw	s1,52(sp)
    3f5c:	afb00030 	sw	s0,48(sp)
    3f60:	00808821 	move	s1,a0
    3f64:	00c08021 	move	s0,a2
    3f68:	27a40014 	addiu	a0,sp,20
    3f6c:	27a60010 	addiu	a2,sp,16
    3f70:	00a09021 	move	s2,a1
    3f74:	27a50020 	addiu	a1,sp,32
    3f78:	afbf003c 	sw	ra,60(sp)
    3f7c:	0c0009b0 	jal	26c0 <float32::operator+(float32 const&) const>
    3f80:	afa20010 	sw	v0,16(sp)
    3f84:	02002021 	move	a0,s0
    3f88:	27a50010 	addiu	a1,sp,16
    3f8c:	0c000abe 	jal	2af8 <float32::operator<(float32 const&) const>
    3f90:	afa00010 	sw	zero,16(sp)
    3f94:	27a40024 	addiu	a0,sp,36
    3f98:	02002821 	move	a1,s0
    3f9c:	14400012 	bnez	v0,3fe8 <f32::atan2(float32 const&, float32 const&)+0xcc>
    3fa0:	27a60014 	addiu	a2,sp,20
    3fa4:	0c0009d5 	jal	2754 <float32::operator-(float32 const&) const>
    3fa8:	00000000 	nop
    3fac:	27a40020 	addiu	a0,sp,32
    3fb0:	02002821 	move	a1,s0
    3fb4:	0c0009b0 	jal	26c0 <float32::operator+(float32 const&) const>
    3fb8:	27a60014 	addiu	a2,sp,20
    3fbc:	27a40010 	addiu	a0,sp,16
    3fc0:	27a50024 	addiu	a1,sp,36
    3fc4:	0c000511 	jal	1444 <float32::operator/(float32 const&) const>
    3fc8:	27a60020 	addiu	a2,sp,32
    3fcc:	27a40024 	addiu	a0,sp,36
    3fd0:	27a5001c 	addiu	a1,sp,28
    3fd4:	0c0009f9 	jal	27e4 <float32::operator*(float32 const&) const>
    3fd8:	27a60010 	addiu	a2,sp,16
    3fdc:	27a40028 	addiu	a0,sp,40
    3fe0:	0800100a 	j	4028 <f32::atan2(float32 const&, float32 const&)+0x10c>
    3fe4:	27a5001c 	addiu	a1,sp,28
    3fe8:	0c0009b0 	jal	26c0 <float32::operator+(float32 const&) const>
    3fec:	00000000 	nop
    3ff0:	27a40020 	addiu	a0,sp,32
    3ff4:	27a50014 	addiu	a1,sp,20
    3ff8:	0c0009d5 	jal	2754 <float32::operator-(float32 const&) const>
    3ffc:	02003021 	move	a2,s0
    4000:	27a40010 	addiu	a0,sp,16
    4004:	27a50024 	addiu	a1,sp,36
    4008:	0c000511 	jal	1444 <float32::operator/(float32 const&) const>
    400c:	27a60020 	addiu	a2,sp,32
    4010:	27a40024 	addiu	a0,sp,36
    4014:	27a5001c 	addiu	a1,sp,28
    4018:	0c0009f9 	jal	27e4 <float32::operator*(float32 const&) const>
    401c:	27a60010 	addiu	a2,sp,16
    4020:	27a40028 	addiu	a0,sp,40
    4024:	27a50018 	addiu	a1,sp,24
    4028:	0c0009d5 	jal	2754 <float32::operator-(float32 const&) const>
    402c:	27a60024 	addiu	a2,sp,36
    4030:	8fa20028 	lw	v0,40(sp)
    4034:	02402021 	move	a0,s2
    4038:	27a50010 	addiu	a1,sp,16
    403c:	afa20020 	sw	v0,32(sp)
    4040:	0c000abe 	jal	2af8 <float32::operator<(float32 const&) const>
    4044:	afa00010 	sw	zero,16(sp)
    4048:	10400007 	beqz	v0,4068 <f32::atan2(float32 const&, float32 const&)+0x14c>
    404c:	02202021 	move	a0,s1
    4050:	27a50010 	addiu	a1,sp,16
    4054:	27a60020 	addiu	a2,sp,32
    4058:	0c0009d5 	jal	2754 <float32::operator-(float32 const&) const>
    405c:	afa00010 	sw	zero,16(sp)
    4060:	0800101d 	j	4074 <f32::atan2(float32 const&, float32 const&)+0x158>
    4064:	00000000 	nop
    4068:	8fa20020 	lw	v0,32(sp)
    406c:	00000000 	nop
    4070:	ae220000 	sw	v0,0(s1)
    4074:	8fbf003c 	lw	ra,60(sp)
    4078:	02201021 	move	v0,s1
    407c:	8fb20038 	lw	s2,56(sp)
    4080:	8fb10034 	lw	s1,52(sp)
    4084:	8fb00030 	lw	s0,48(sp)
    4088:	03e00008 	jr	ra
    408c:	27bd0040 	addiu	sp,sp,64

00004090 <Control::MARG::start()>:
    4090:	27bdff08 	addiu	sp,sp,-248
    4094:	afb100dc 	sw	s1,220(sp)
    4098:	afb000d8 	sw	s0,216(sp)
    409c:	afbf00f4 	sw	ra,244(sp)
    40a0:	00808021 	move	s0,a0
    40a4:	afb600f0 	sw	s6,240(sp)
    40a8:	afb500ec 	sw	s5,236(sp)
    40ac:	afb400e8 	sw	s4,232(sp)
    40b0:	afb300e4 	sw	s3,228(sp)
    40b4:	0c0007b0 	jal	1ec0 <Sensors::IMU::MPU6050::update()>
    40b8:	afb200e0 	sw	s2,224(sp)
    40bc:	3c023a8b 	lui	v0,0x3a8b
    40c0:	3442a050 	ori	v0,v0,0xa050
    40c4:	afa200b4 	sw	v0,180(sp)
    40c8:	3c023b9c 	lui	v0,0x3b9c
    40cc:	3442e80a 	ori	v0,v0,0xe80a
    40d0:	afa200b0 	sw	v0,176(sp)
    40d4:	3c023a70 	lui	v0,0x3a70
    40d8:	24427fc4 	addiu	v0,v0,32708
    40dc:	afa200ac 	sw	v0,172(sp)
    40e0:	3c0232ab 	lui	v0,0x32ab
    40e4:	3442cc77 	ori	v0,v0,0xcc77
    40e8:	afa200a8 	sw	v0,168(sp)
    40ec:	8c110010 	lw	s1,16(zero)
    40f0:	8e05001c 	lw	a1,28(s0)
    40f4:	00000000 	nop
    40f8:	02252823 	subu	a1,s1,a1
    40fc:	14a00003 	bnez	a1,410c <Control::MARG::start()+0x7c>
    4100:	00000000 	nop
    4104:	08001045 	j	4114 <Control::MARG::start()+0x84>
    4108:	afa00010 	sw	zero,16(sp)
    410c:	0c000946 	jal	2518 <_ZN7float32C2Ej.part.0.4035>
    4110:	27a40010 	addiu	a0,sp,16
    4114:	27a600a8 	addiu	a2,sp,168
    4118:	27a40014 	addiu	a0,sp,20
    411c:	0c0009f9 	jal	27e4 <float32::operator*(float32 const&) const>
    4120:	27a50010 	addiu	a1,sp,16
    4124:	8fa20014 	lw	v0,20(sp)
    4128:	ae11001c 	sw	s1,28(s0)
    412c:	0c0003ee 	jal	fb8 <_ZN6System8Registry8instanceEv.local.11>
    4130:	ae020020 	sw	v0,32(s0)
    4134:	8c45004c 	lw	a1,76(v0)
    4138:	0c000930 	jal	24c0 <float32::float32(int)>
    413c:	27a40010 	addiu	a0,sp,16
    4140:	27a600b4 	addiu	a2,sp,180
    4144:	27a400a4 	addiu	a0,sp,164
    4148:	0c0009f9 	jal	27e4 <float32::operator*(float32 const&) const>
    414c:	27a50010 	addiu	a1,sp,16
    4150:	0c0003ee 	jal	fb8 <_ZN6System8Registry8instanceEv.local.11>
    4154:	26140048 	addiu	s4,s0,72
    4158:	8c450050 	lw	a1,80(v0)
    415c:	0c000930 	jal	24c0 <float32::float32(int)>
    4160:	27a40010 	addiu	a0,sp,16
    4164:	27a600b4 	addiu	a2,sp,180
    4168:	27a400a0 	addiu	a0,sp,160
    416c:	0c0009f9 	jal	27e4 <float32::operator*(float32 const&) const>
    4170:	27a50010 	addiu	a1,sp,16
    4174:	0c0003ee 	jal	fb8 <_ZN6System8Registry8instanceEv.local.11>
    4178:	2612004c 	addiu	s2,s0,76
    417c:	8c450054 	lw	a1,84(v0)
    4180:	0c000930 	jal	24c0 <float32::float32(int)>
    4184:	27a40010 	addiu	a0,sp,16
    4188:	27a600b4 	addiu	a2,sp,180
    418c:	27a4009c 	addiu	a0,sp,156
    4190:	0c0009f9 	jal	27e4 <float32::operator*(float32 const&) const>
    4194:	27a50010 	addiu	a1,sp,16
    4198:	0c0003ee 	jal	fb8 <_ZN6System8Registry8instanceEv.local.11>
    419c:	3c164000 	lui	s6,0x4000
    41a0:	8c450028 	lw	a1,40(v0)
    41a4:	0c000930 	jal	24c0 <float32::float32(int)>
    41a8:	27a40010 	addiu	a0,sp,16
    41ac:	27a600b0 	addiu	a2,sp,176
    41b0:	27a40098 	addiu	a0,sp,152
    41b4:	0c0009f9 	jal	27e4 <float32::operator*(float32 const&) const>
    41b8:	27a50010 	addiu	a1,sp,16
    41bc:	0c0003ee 	jal	fb8 <_ZN6System8Registry8instanceEv.local.11>
    41c0:	26110050 	addiu	s1,s0,80
    41c4:	8c45002c 	lw	a1,44(v0)
    41c8:	0c000930 	jal	24c0 <float32::float32(int)>
    41cc:	27a40010 	addiu	a0,sp,16
    41d0:	27a600b0 	addiu	a2,sp,176
    41d4:	27a40094 	addiu	a0,sp,148
    41d8:	0c0009f9 	jal	27e4 <float32::operator*(float32 const&) const>
    41dc:	27a50010 	addiu	a1,sp,16
    41e0:	0c0003ee 	jal	fb8 <_ZN6System8Registry8instanceEv.local.11>
    41e4:	26130054 	addiu	s3,s0,84
    41e8:	8c450030 	lw	a1,48(v0)
    41ec:	0c000930 	jal	24c0 <float32::float32(int)>
    41f0:	27a40010 	addiu	a0,sp,16
    41f4:	27a600b0 	addiu	a2,sp,176
    41f8:	27a40090 	addiu	a0,sp,144
    41fc:	0c0009f9 	jal	27e4 <float32::operator*(float32 const&) const>
    4200:	27a50010 	addiu	a1,sp,16
    4204:	0c0003ee 	jal	fb8 <_ZN6System8Registry8instanceEv.local.11>
    4208:	26150020 	addiu	s5,s0,32
    420c:	8c450064 	lw	a1,100(v0)
    4210:	0c000930 	jal	24c0 <float32::float32(int)>
    4214:	27a40018 	addiu	a0,sp,24
    4218:	27a600ac 	addiu	a2,sp,172
    421c:	27a4001c 	addiu	a0,sp,28
    4220:	0c0009f9 	jal	27e4 <float32::operator*(float32 const&) const>
    4224:	27a50018 	addiu	a1,sp,24
    4228:	8fa2001c 	lw	v0,28(sp)
    422c:	0c0003ee 	jal	fb8 <_ZN6System8Registry8instanceEv.local.11>
    4230:	ae02003c 	sw	v0,60(s0)
    4234:	8c450068 	lw	a1,104(v0)
    4238:	0c000930 	jal	24c0 <float32::float32(int)>
    423c:	27a40010 	addiu	a0,sp,16
    4240:	27a40014 	addiu	a0,sp,20
    4244:	27a50010 	addiu	a1,sp,16
    4248:	0c0009f9 	jal	27e4 <float32::operator*(float32 const&) const>
    424c:	27a600ac 	addiu	a2,sp,172
    4250:	8fa20014 	lw	v0,20(sp)
    4254:	00000000 	nop
    4258:	ae020040 	sw	v0,64(s0)
    425c:	8fa200a4 	lw	v0,164(sp)
    4260:	00000000 	nop
    4264:	afa200cc 	sw	v0,204(sp)
    4268:	8fa200a0 	lw	v0,160(sp)
    426c:	27a40038 	addiu	a0,sp,56
    4270:	afa200c8 	sw	v0,200(sp)
    4274:	8fa2009c 	lw	v0,156(sp)
    4278:	27a50040 	addiu	a1,sp,64
    427c:	afa200c4 	sw	v0,196(sp)
    4280:	8fa20098 	lw	v0,152(sp)
    4284:	02803021 	move	a2,s4
    4288:	afa200c0 	sw	v0,192(sp)
    428c:	8fa20094 	lw	v0,148(sp)
    4290:	ae000044 	sw	zero,68(s0)
    4294:	afa200bc 	sw	v0,188(sp)
    4298:	8fa20090 	lw	v0,144(sp)
    429c:	00000000 	nop
    42a0:	afa200b8 	sw	v0,184(sp)
    42a4:	3c023d9a 	lui	v0,0x3d9a
    42a8:	3442c70d 	ori	v0,v0,0xc70d
    42ac:	afa2008c 	sw	v0,140(sp)
    42b0:	3c023f00 	lui	v0,0x3f00
    42b4:	afa20040 	sw	v0,64(sp)
    42b8:	0c0009f9 	jal	27e4 <float32::operator*(float32 const&) const>
    42bc:	afb6003c 	sw	s6,60(sp)
    42c0:	27a40034 	addiu	a0,sp,52
    42c4:	27a50040 	addiu	a1,sp,64
    42c8:	0c0009f9 	jal	27e4 <float32::operator*(float32 const&) const>
    42cc:	02403021 	move	a2,s2
    42d0:	27a40030 	addiu	a0,sp,48
    42d4:	27a50040 	addiu	a1,sp,64
    42d8:	0c0009f9 	jal	27e4 <float32::operator*(float32 const&) const>
    42dc:	02203021 	move	a2,s1
    42e0:	27a4002c 	addiu	a0,sp,44
    42e4:	27a50040 	addiu	a1,sp,64
    42e8:	0c0009f9 	jal	27e4 <float32::operator*(float32 const&) const>
    42ec:	02603021 	move	a2,s3
    42f0:	27a40028 	addiu	a0,sp,40
    42f4:	27a5003c 	addiu	a1,sp,60
    42f8:	0c0009f9 	jal	27e4 <float32::operator*(float32 const&) const>
    42fc:	02803021 	move	a2,s4
    4300:	27a40024 	addiu	a0,sp,36
    4304:	27a5003c 	addiu	a1,sp,60
    4308:	0c0009f9 	jal	27e4 <float32::operator*(float32 const&) const>
    430c:	02403021 	move	a2,s2
    4310:	27a40020 	addiu	a0,sp,32
    4314:	27a5003c 	addiu	a1,sp,60
    4318:	0c0009f9 	jal	27e4 <float32::operator*(float32 const&) const>
    431c:	02203021 	move	a2,s1
    4320:	27a500c0 	addiu	a1,sp,192
    4324:	27a4001c 	addiu	a0,sp,28
    4328:	0c0009f9 	jal	27e4 <float32::operator*(float32 const&) const>
    432c:	00a03021 	move	a2,a1
    4330:	27a500bc 	addiu	a1,sp,188
    4334:	00a03021 	move	a2,a1
    4338:	0c0009f9 	jal	27e4 <float32::operator*(float32 const&) const>
    433c:	27a40010 	addiu	a0,sp,16
    4340:	27a4001c 	addiu	a0,sp,28
    4344:	0c0009c6 	jal	2718 <float32::operator+=(float32 const&)>
    4348:	27a50010 	addiu	a1,sp,16
    434c:	27a500b8 	addiu	a1,sp,184
    4350:	00a03021 	move	a2,a1
    4354:	0c0009f9 	jal	27e4 <float32::operator*(float32 const&) const>
    4358:	27a40010 	addiu	a0,sp,16
    435c:	27a4001c 	addiu	a0,sp,28
    4360:	0c0009c6 	jal	2718 <float32::operator+=(float32 const&)>
    4364:	27a50010 	addiu	a1,sp,16
    4368:	27a40010 	addiu	a0,sp,16
    436c:	0c000a4f 	jal	293c <f32::rsqrt(float32 const&)>
    4370:	27a5001c 	addiu	a1,sp,28
    4374:	8fa20010 	lw	v0,16(sp)
    4378:	27a400c0 	addiu	a0,sp,192
    437c:	27a50088 	addiu	a1,sp,136
    4380:	0c000a7a 	jal	29e8 <float32::operator*=(float32 const&)>
    4384:	afa20088 	sw	v0,136(sp)
    4388:	27a400bc 	addiu	a0,sp,188
    438c:	0c000a7a 	jal	29e8 <float32::operator*=(float32 const&)>
    4390:	27a50088 	addiu	a1,sp,136
    4394:	27a400b8 	addiu	a0,sp,184
    4398:	0c000a7a 	jal	29e8 <float32::operator*=(float32 const&)>
    439c:	27a50088 	addiu	a1,sp,136
    43a0:	27a40010 	addiu	a0,sp,16
    43a4:	27a50024 	addiu	a1,sp,36
    43a8:	0c0009f9 	jal	27e4 <float32::operator*(float32 const&) const>
    43ac:	02603021 	move	a2,s3
    43b0:	8fa20010 	lw	v0,16(sp)
    43b4:	02203021 	move	a2,s1
    43b8:	27a40010 	addiu	a0,sp,16
    43bc:	27a50028 	addiu	a1,sp,40
    43c0:	0c0009f9 	jal	27e4 <float32::operator*(float32 const&) const>
    43c4:	afa20074 	sw	v0,116(sp)
    43c8:	27a40074 	addiu	a0,sp,116
    43cc:	0c0009ea 	jal	27a8 <float32::operator-=(float32 const&)>
    43d0:	27a50010 	addiu	a1,sp,16
    43d4:	27a40074 	addiu	a0,sp,116
    43d8:	0c0009ea 	jal	27a8 <float32::operator-=(float32 const&)>
    43dc:	27a500c0 	addiu	a1,sp,192
    43e0:	27a40010 	addiu	a0,sp,16
    43e4:	27a50028 	addiu	a1,sp,40
    43e8:	0c0009f9 	jal	27e4 <float32::operator*(float32 const&) const>
    43ec:	02403021 	move	a2,s2
    43f0:	8fa20010 	lw	v0,16(sp)
    43f4:	02603021 	move	a2,s3
    43f8:	27a40010 	addiu	a0,sp,16
    43fc:	27a50020 	addiu	a1,sp,32
    4400:	0c0009f9 	jal	27e4 <float32::operator*(float32 const&) const>
    4404:	afa20070 	sw	v0,112(sp)
    4408:	27a40070 	addiu	a0,sp,112
    440c:	0c0009c6 	jal	2718 <float32::operator+=(float32 const&)>
    4410:	27a50010 	addiu	a1,sp,16
    4414:	27a40070 	addiu	a0,sp,112
    4418:	0c0009ea 	jal	27a8 <float32::operator-=(float32 const&)>
    441c:	27a500bc 	addiu	a1,sp,188
    4420:	02403021 	move	a2,s2
    4424:	3c023f80 	lui	v0,0x3f80
    4428:	27a40010 	addiu	a0,sp,16
    442c:	27a50024 	addiu	a1,sp,36
    4430:	0c0009f9 	jal	27e4 <float32::operator*(float32 const&) const>
    4434:	afa2006c 	sw	v0,108(sp)
    4438:	27a4006c 	addiu	a0,sp,108
    443c:	0c0009ea 	jal	27a8 <float32::operator-=(float32 const&)>
    4440:	27a50010 	addiu	a1,sp,16
    4444:	02203021 	move	a2,s1
    4448:	27a40010 	addiu	a0,sp,16
    444c:	0c0009f9 	jal	27e4 <float32::operator*(float32 const&) const>
    4450:	27a50020 	addiu	a1,sp,32
    4454:	27a4006c 	addiu	a0,sp,108
    4458:	0c0009ea 	jal	27a8 <float32::operator-=(float32 const&)>
    445c:	27a50010 	addiu	a1,sp,16
    4460:	27a4006c 	addiu	a0,sp,108
    4464:	0c0009ea 	jal	27a8 <float32::operator-=(float32 const&)>
    4468:	27a500b8 	addiu	a1,sp,184
    446c:	8fa20020 	lw	v0,32(sp)
    4470:	27a40010 	addiu	a0,sp,16
    4474:	27a5003c 	addiu	a1,sp,60
    4478:	02603021 	move	a2,s3
    447c:	0c0009f9 	jal	27e4 <float32::operator*(float32 const&) const>
    4480:	afa20068 	sw	v0,104(sp)
    4484:	8fa20010 	lw	v0,16(sp)
    4488:	27a40010 	addiu	a0,sp,16
    448c:	afa20064 	sw	v0,100(sp)
    4490:	8fa20028 	lw	v0,40(sp)
    4494:	27a5003c 	addiu	a1,sp,60
    4498:	afa20060 	sw	v0,96(sp)
    449c:	8fa20024 	lw	v0,36(sp)
    44a0:	27a6005c 	addiu	a2,sp,92
    44a4:	0c0009f9 	jal	27e4 <float32::operator*(float32 const&) const>
    44a8:	afa2005c 	sw	v0,92(sp)
    44ac:	8fa20010 	lw	v0,16(sp)
    44b0:	27a40010 	addiu	a0,sp,16
    44b4:	27a5003c 	addiu	a1,sp,60
    44b8:	27a60068 	addiu	a2,sp,104
    44bc:	0c0009f9 	jal	27e4 <float32::operator*(float32 const&) const>
    44c0:	afa20058 	sw	v0,88(sp)
    44c4:	8fa20010 	lw	v0,16(sp)
    44c8:	27a40010 	addiu	a0,sp,16
    44cc:	27a5005c 	addiu	a1,sp,92
    44d0:	27a60070 	addiu	a2,sp,112
    44d4:	0c0009f9 	jal	27e4 <float32::operator*(float32 const&) const>
    44d8:	afa20054 	sw	v0,84(sp)
    44dc:	8fa20010 	lw	v0,16(sp)
    44e0:	27a60074 	addiu	a2,sp,116
    44e4:	27a40010 	addiu	a0,sp,16
    44e8:	27a50068 	addiu	a1,sp,104
    44ec:	0c0009f9 	jal	27e4 <float32::operator*(float32 const&) const>
    44f0:	afa20050 	sw	v0,80(sp)
    44f4:	27a40050 	addiu	a0,sp,80
    44f8:	0c0009ea 	jal	27a8 <float32::operator-=(float32 const&)>
    44fc:	27a50010 	addiu	a1,sp,16
    4500:	27a40010 	addiu	a0,sp,16
    4504:	27a50064 	addiu	a1,sp,100
    4508:	0c0009f9 	jal	27e4 <float32::operator*(float32 const&) const>
    450c:	27a60074 	addiu	a2,sp,116
    4510:	8fa20010 	lw	v0,16(sp)
    4514:	27a60070 	addiu	a2,sp,112
    4518:	27a40010 	addiu	a0,sp,16
    451c:	27a50060 	addiu	a1,sp,96
    4520:	0c0009f9 	jal	27e4 <float32::operator*(float32 const&) const>
    4524:	afa2004c 	sw	v0,76(sp)
    4528:	27a4004c 	addiu	a0,sp,76
    452c:	0c0009c6 	jal	2718 <float32::operator+=(float32 const&)>
    4530:	27a50010 	addiu	a1,sp,16
    4534:	27a6006c 	addiu	a2,sp,108
    4538:	27a40010 	addiu	a0,sp,16
    453c:	0c0009f9 	jal	27e4 <float32::operator*(float32 const&) const>
    4540:	27a50058 	addiu	a1,sp,88
    4544:	27a4004c 	addiu	a0,sp,76
    4548:	0c0009ea 	jal	27a8 <float32::operator-=(float32 const&)>
    454c:	27a50010 	addiu	a1,sp,16
    4550:	27a40010 	addiu	a0,sp,16
    4554:	27a50064 	addiu	a1,sp,100
    4558:	0c0009f9 	jal	27e4 <float32::operator*(float32 const&) const>
    455c:	27a60070 	addiu	a2,sp,112
    4560:	8fa20010 	lw	v0,16(sp)
    4564:	27a6006c 	addiu	a2,sp,108
    4568:	27a40010 	addiu	a0,sp,16
    456c:	27a50054 	addiu	a1,sp,84
    4570:	0c0009f9 	jal	27e4 <float32::operator*(float32 const&) const>
    4574:	afa20048 	sw	v0,72(sp)
    4578:	27a40048 	addiu	a0,sp,72
    457c:	0c0009ea 	jal	27a8 <float32::operator-=(float32 const&)>
    4580:	27a50010 	addiu	a1,sp,16
    4584:	27a60074 	addiu	a2,sp,116
    4588:	27a40010 	addiu	a0,sp,16
    458c:	0c0009f9 	jal	27e4 <float32::operator*(float32 const&) const>
    4590:	27a50060 	addiu	a1,sp,96
    4594:	27a40048 	addiu	a0,sp,72
    4598:	0c0009ea 	jal	27a8 <float32::operator-=(float32 const&)>
    459c:	27a50010 	addiu	a1,sp,16
    45a0:	27a40010 	addiu	a0,sp,16
    45a4:	27a5005c 	addiu	a1,sp,92
    45a8:	0c0009f9 	jal	27e4 <float32::operator*(float32 const&) const>
    45ac:	27a60074 	addiu	a2,sp,116
    45b0:	8fa20010 	lw	v0,16(sp)
    45b4:	27a40010 	addiu	a0,sp,16
    45b8:	27a50068 	addiu	a1,sp,104
    45bc:	27a60070 	addiu	a2,sp,112
    45c0:	0c0009f9 	jal	27e4 <float32::operator*(float32 const&) const>
    45c4:	afa20044 	sw	v0,68(sp)
    45c8:	27a400d0 	addiu	a0,sp,208
    45cc:	27a50044 	addiu	a1,sp,68
    45d0:	0c0009b0 	jal	26c0 <float32::operator+(float32 const&) const>
    45d4:	27a60010 	addiu	a2,sp,16
    45d8:	27a50050 	addiu	a1,sp,80
    45dc:	27a40010 	addiu	a0,sp,16
    45e0:	0c0009f9 	jal	27e4 <float32::operator*(float32 const&) const>
    45e4:	00a03021 	move	a2,a1
    45e8:	8fa20010 	lw	v0,16(sp)
    45ec:	27a5004c 	addiu	a1,sp,76
    45f0:	00a03021 	move	a2,a1
    45f4:	27a40010 	addiu	a0,sp,16
    45f8:	0c0009f9 	jal	27e4 <float32::operator*(float32 const&) const>
    45fc:	afa2001c 	sw	v0,28(sp)
    4600:	27a4001c 	addiu	a0,sp,28
    4604:	0c0009c6 	jal	2718 <float32::operator+=(float32 const&)>
    4608:	27a50010 	addiu	a1,sp,16
    460c:	27a50048 	addiu	a1,sp,72
    4610:	00a03021 	move	a2,a1
    4614:	0c0009f9 	jal	27e4 <float32::operator*(float32 const&) const>
    4618:	27a40010 	addiu	a0,sp,16
    461c:	27a4001c 	addiu	a0,sp,28
    4620:	0c0009c6 	jal	2718 <float32::operator+=(float32 const&)>
    4624:	27a50010 	addiu	a1,sp,16
    4628:	27a50044 	addiu	a1,sp,68
    462c:	00a03021 	move	a2,a1
    4630:	0c0009f9 	jal	27e4 <float32::operator*(float32 const&) const>
    4634:	27a40010 	addiu	a0,sp,16
    4638:	27a4001c 	addiu	a0,sp,28
    463c:	0c0009c6 	jal	2718 <float32::operator+=(float32 const&)>
    4640:	27a50010 	addiu	a1,sp,16
    4644:	27a40010 	addiu	a0,sp,16
    4648:	0c000a4f 	jal	293c <f32::rsqrt(float32 const&)>
    464c:	27a5001c 	addiu	a1,sp,28
    4650:	8fa20010 	lw	v0,16(sp)
    4654:	27a40050 	addiu	a0,sp,80
    4658:	27a50088 	addiu	a1,sp,136
    465c:	0c000a7a 	jal	29e8 <float32::operator*=(float32 const&)>
    4660:	afa20088 	sw	v0,136(sp)
    4664:	27a4004c 	addiu	a0,sp,76
    4668:	0c000a7a 	jal	29e8 <float32::operator*=(float32 const&)>
    466c:	27a50088 	addiu	a1,sp,136
    4670:	27a40048 	addiu	a0,sp,72
    4674:	0c000a7a 	jal	29e8 <float32::operator*=(float32 const&)>
    4678:	27a50088 	addiu	a1,sp,136
    467c:	27a40044 	addiu	a0,sp,68
    4680:	0c000a7a 	jal	29e8 <float32::operator*=(float32 const&)>
    4684:	27a50088 	addiu	a1,sp,136
    4688:	27a600cc 	addiu	a2,sp,204
    468c:	27a40010 	addiu	a0,sp,16
    4690:	27a50034 	addiu	a1,sp,52
    4694:	0c0009f9 	jal	27e4 <float32::operator*(float32 const&) const>
    4698:	afa00084 	sw	zero,132(sp)
    469c:	27a40084 	addiu	a0,sp,132
    46a0:	0c0009ea 	jal	27a8 <float32::operator-=(float32 const&)>
    46a4:	27a50010 	addiu	a1,sp,16
    46a8:	27a600c8 	addiu	a2,sp,200
    46ac:	27a40010 	addiu	a0,sp,16
    46b0:	0c0009f9 	jal	27e4 <float32::operator*(float32 const&) const>
    46b4:	27a50030 	addiu	a1,sp,48
    46b8:	27a40084 	addiu	a0,sp,132
    46bc:	0c0009ea 	jal	27a8 <float32::operator-=(float32 const&)>
    46c0:	27a50010 	addiu	a1,sp,16
    46c4:	27a600c4 	addiu	a2,sp,196
    46c8:	27a40010 	addiu	a0,sp,16
    46cc:	0c0009f9 	jal	27e4 <float32::operator*(float32 const&) const>
    46d0:	27a5002c 	addiu	a1,sp,44
    46d4:	27a40084 	addiu	a0,sp,132
    46d8:	0c0009ea 	jal	27a8 <float32::operator-=(float32 const&)>
    46dc:	27a50010 	addiu	a1,sp,16
    46e0:	27a40010 	addiu	a0,sp,16
    46e4:	27a50038 	addiu	a1,sp,56
    46e8:	0c0009f9 	jal	27e4 <float32::operator*(float32 const&) const>
    46ec:	27a600cc 	addiu	a2,sp,204
    46f0:	8fa20010 	lw	v0,16(sp)
    46f4:	27a600c4 	addiu	a2,sp,196
    46f8:	27a40010 	addiu	a0,sp,16
    46fc:	27a50030 	addiu	a1,sp,48
    4700:	0c0009f9 	jal	27e4 <float32::operator*(float32 const&) const>
    4704:	afa20080 	sw	v0,128(sp)
    4708:	27a40080 	addiu	a0,sp,128
    470c:	0c0009c6 	jal	2718 <float32::operator+=(float32 const&)>
    4710:	27a50010 	addiu	a1,sp,16
    4714:	27a600c8 	addiu	a2,sp,200
    4718:	27a40010 	addiu	a0,sp,16
    471c:	0c0009f9 	jal	27e4 <float32::operator*(float32 const&) const>
    4720:	27a5002c 	addiu	a1,sp,44
    4724:	27a40080 	addiu	a0,sp,128
    4728:	0c0009ea 	jal	27a8 <float32::operator-=(float32 const&)>
    472c:	27a50010 	addiu	a1,sp,16
    4730:	27a40010 	addiu	a0,sp,16
    4734:	27a50038 	addiu	a1,sp,56
    4738:	0c0009f9 	jal	27e4 <float32::operator*(float32 const&) const>
    473c:	27a600c8 	addiu	a2,sp,200
    4740:	8fa20010 	lw	v0,16(sp)
    4744:	27a600c4 	addiu	a2,sp,196
    4748:	27a40010 	addiu	a0,sp,16
    474c:	27a50034 	addiu	a1,sp,52
    4750:	0c0009f9 	jal	27e4 <float32::operator*(float32 const&) const>
    4754:	afa2007c 	sw	v0,124(sp)
    4758:	27a4007c 	addiu	a0,sp,124
    475c:	0c0009ea 	jal	27a8 <float32::operator-=(float32 const&)>
    4760:	27a50010 	addiu	a1,sp,16
    4764:	27a600cc 	addiu	a2,sp,204
    4768:	27a40010 	addiu	a0,sp,16
    476c:	0c0009f9 	jal	27e4 <float32::operator*(float32 const&) const>
    4770:	27a5002c 	addiu	a1,sp,44
    4774:	27a4007c 	addiu	a0,sp,124
    4778:	0c0009c6 	jal	2718 <float32::operator+=(float32 const&)>
    477c:	27a50010 	addiu	a1,sp,16
    4780:	27a40010 	addiu	a0,sp,16
    4784:	27a50038 	addiu	a1,sp,56
    4788:	0c0009f9 	jal	27e4 <float32::operator*(float32 const&) const>
    478c:	27a600c4 	addiu	a2,sp,196
    4790:	8fa20010 	lw	v0,16(sp)
    4794:	27a600c8 	addiu	a2,sp,200
    4798:	27a40010 	addiu	a0,sp,16
    479c:	27a50034 	addiu	a1,sp,52
    47a0:	0c0009f9 	jal	27e4 <float32::operator*(float32 const&) const>
    47a4:	afa20078 	sw	v0,120(sp)
    47a8:	27a40078 	addiu	a0,sp,120
    47ac:	0c0009c6 	jal	2718 <float32::operator+=(float32 const&)>
    47b0:	27a50010 	addiu	a1,sp,16
    47b4:	27a600cc 	addiu	a2,sp,204
    47b8:	27a40010 	addiu	a0,sp,16
    47bc:	0c0009f9 	jal	27e4 <float32::operator*(float32 const&) const>
    47c0:	27a50030 	addiu	a1,sp,48
    47c4:	27a40078 	addiu	a0,sp,120
    47c8:	0c0009ea 	jal	27a8 <float32::operator-=(float32 const&)>
    47cc:	27a50010 	addiu	a1,sp,16
    47d0:	27a40018 	addiu	a0,sp,24
    47d4:	27a5008c 	addiu	a1,sp,140
    47d8:	0c0009f9 	jal	27e4 <float32::operator*(float32 const&) const>
    47dc:	27a60050 	addiu	a2,sp,80
    47e0:	27a40014 	addiu	a0,sp,20
    47e4:	27a50084 	addiu	a1,sp,132
    47e8:	0c0009d5 	jal	2754 <float32::operator-(float32 const&) const>
    47ec:	27a60018 	addiu	a2,sp,24
    47f0:	02a03021 	move	a2,s5
    47f4:	27a40010 	addiu	a0,sp,16
    47f8:	0c0009f9 	jal	27e4 <float32::operator*(float32 const&) const>
    47fc:	27a50014 	addiu	a1,sp,20
    4800:	02802021 	move	a0,s4
    4804:	0c0009c6 	jal	2718 <float32::operator+=(float32 const&)>
    4808:	27a50010 	addiu	a1,sp,16
    480c:	27a40018 	addiu	a0,sp,24
    4810:	27a5008c 	addiu	a1,sp,140
    4814:	0c0009f9 	jal	27e4 <float32::operator*(float32 const&) const>
    4818:	27a6004c 	addiu	a2,sp,76
    481c:	27a40014 	addiu	a0,sp,20
    4820:	27a50080 	addiu	a1,sp,128
    4824:	0c0009d5 	jal	2754 <float32::operator-(float32 const&) const>
    4828:	27a60018 	addiu	a2,sp,24
    482c:	02a03021 	move	a2,s5
    4830:	27a40010 	addiu	a0,sp,16
    4834:	0c0009f9 	jal	27e4 <float32::operator*(float32 const&) const>
    4838:	27a50014 	addiu	a1,sp,20
    483c:	02402021 	move	a0,s2
    4840:	0c0009c6 	jal	2718 <float32::operator+=(float32 const&)>
    4844:	27a50010 	addiu	a1,sp,16
    4848:	27a40018 	addiu	a0,sp,24
    484c:	27a5008c 	addiu	a1,sp,140
    4850:	0c0009f9 	jal	27e4 <float32::operator*(float32 const&) const>
    4854:	27a60048 	addiu	a2,sp,72
    4858:	27a40014 	addiu	a0,sp,20
    485c:	27a5007c 	addiu	a1,sp,124
    4860:	0c0009d5 	jal	2754 <float32::operator-(float32 const&) const>
    4864:	27a60018 	addiu	a2,sp,24
    4868:	02a03021 	move	a2,s5
    486c:	27a40010 	addiu	a0,sp,16
    4870:	0c0009f9 	jal	27e4 <float32::operator*(float32 const&) const>
    4874:	27a50014 	addiu	a1,sp,20
    4878:	02202021 	move	a0,s1
    487c:	0c0009c6 	jal	2718 <float32::operator+=(float32 const&)>
    4880:	27a50010 	addiu	a1,sp,16
    4884:	27a40018 	addiu	a0,sp,24
    4888:	27a5008c 	addiu	a1,sp,140
    488c:	0c0009f9 	jal	27e4 <float32::operator*(float32 const&) const>
    4890:	27a60044 	addiu	a2,sp,68
    4894:	27a40014 	addiu	a0,sp,20
    4898:	27a50078 	addiu	a1,sp,120
    489c:	0c0009d5 	jal	2754 <float32::operator-(float32 const&) const>
    48a0:	27a60018 	addiu	a2,sp,24
    48a4:	02a03021 	move	a2,s5
    48a8:	27a40010 	addiu	a0,sp,16
    48ac:	0c0009f9 	jal	27e4 <float32::operator*(float32 const&) const>
    48b0:	27a50014 	addiu	a1,sp,20
    48b4:	02602021 	move	a0,s3
    48b8:	0c0009c6 	jal	2718 <float32::operator+=(float32 const&)>
    48bc:	27a50010 	addiu	a1,sp,16
    48c0:	27a40010 	addiu	a0,sp,16
    48c4:	02802821 	move	a1,s4
    48c8:	0c0009f9 	jal	27e4 <float32::operator*(float32 const&) const>
    48cc:	02803021 	move	a2,s4
    48d0:	8fa20010 	lw	v0,16(sp)
    48d4:	02403021 	move	a2,s2
    48d8:	27a40010 	addiu	a0,sp,16
    48dc:	02402821 	move	a1,s2
    48e0:	0c0009f9 	jal	27e4 <float32::operator*(float32 const&) const>
    48e4:	afa2001c 	sw	v0,28(sp)
    48e8:	27a4001c 	addiu	a0,sp,28
    48ec:	0c0009c6 	jal	2718 <float32::operator+=(float32 const&)>
    48f0:	27a50010 	addiu	a1,sp,16
    48f4:	02203021 	move	a2,s1
    48f8:	27a40010 	addiu	a0,sp,16
    48fc:	0c0009f9 	jal	27e4 <float32::operator*(float32 const&) const>
    4900:	02202821 	move	a1,s1
    4904:	27a4001c 	addiu	a0,sp,28
    4908:	0c0009c6 	jal	2718 <float32::operator+=(float32 const&)>
    490c:	27a50010 	addiu	a1,sp,16
    4910:	02603021 	move	a2,s3
    4914:	27a40010 	addiu	a0,sp,16
    4918:	0c0009f9 	jal	27e4 <float32::operator*(float32 const&) const>
    491c:	02602821 	move	a1,s3
    4920:	27a4001c 	addiu	a0,sp,28
    4924:	0c0009c6 	jal	2718 <float32::operator+=(float32 const&)>
    4928:	27a50010 	addiu	a1,sp,16
    492c:	27a40010 	addiu	a0,sp,16
    4930:	0c000a4f 	jal	293c <f32::rsqrt(float32 const&)>
    4934:	27a5001c 	addiu	a1,sp,28
    4938:	8fa20010 	lw	v0,16(sp)
    493c:	02802021 	move	a0,s4
    4940:	27a50088 	addiu	a1,sp,136
    4944:	0c000a7a 	jal	29e8 <float32::operator*=(float32 const&)>
    4948:	afa20088 	sw	v0,136(sp)
    494c:	02402021 	move	a0,s2
    4950:	0c000a7a 	jal	29e8 <float32::operator*=(float32 const&)>
    4954:	27a50088 	addiu	a1,sp,136
    4958:	02202021 	move	a0,s1
    495c:	0c000a7a 	jal	29e8 <float32::operator*=(float32 const&)>
    4960:	27a50088 	addiu	a1,sp,136
    4964:	02602021 	move	a0,s3
    4968:	0c000a7a 	jal	29e8 <float32::operator*=(float32 const&)>
    496c:	27a50088 	addiu	a1,sp,136
    4970:	0c0003ee 	jal	fb8 <_ZN6System8Registry8instanceEv.local.11>
    4974:	00000000 	nop
    4978:	8e030048 	lw	v1,72(s0)
    497c:	0c0003ee 	jal	fb8 <_ZN6System8Registry8instanceEv.local.11>
    4980:	ac430000 	sw	v1,0(v0)
    4984:	8e03004c 	lw	v1,76(s0)
    4988:	0c0003ee 	jal	fb8 <_ZN6System8Registry8instanceEv.local.11>
    498c:	ac430004 	sw	v1,4(v0)
    4990:	8e030050 	lw	v1,80(s0)
    4994:	0c0003ee 	jal	fb8 <_ZN6System8Registry8instanceEv.local.11>
    4998:	ac430008 	sw	v1,8(v0)
    499c:	8e030054 	lw	v1,84(s0)
    49a0:	27a4002c 	addiu	a0,sp,44
    49a4:	ac43000c 	sw	v1,12(v0)
    49a8:	3c024265 	lui	v0,0x4265
    49ac:	24422ee1 	addiu	v0,v0,12001
    49b0:	02802821 	move	a1,s4
    49b4:	02803021 	move	a2,s4
    49b8:	afa20034 	sw	v0,52(sp)
    49bc:	0c0009f9 	jal	27e4 <float32::operator*(float32 const&) const>
    49c0:	afb60030 	sw	s6,48(sp)
    49c4:	27a40028 	addiu	a0,sp,40
    49c8:	02402821 	move	a1,s2
    49cc:	0c0009f9 	jal	27e4 <float32::operator*(float32 const&) const>
    49d0:	02403021 	move	a2,s2
    49d4:	27a40024 	addiu	a0,sp,36
    49d8:	02202821 	move	a1,s1
    49dc:	0c0009f9 	jal	27e4 <float32::operator*(float32 const&) const>
    49e0:	02203021 	move	a2,s1
    49e4:	27a40020 	addiu	a0,sp,32
    49e8:	02602821 	move	a1,s3
    49ec:	0c0009f9 	jal	27e4 <float32::operator*(float32 const&) const>
    49f0:	02603021 	move	a2,s3
    49f4:	27a4003c 	addiu	a0,sp,60
    49f8:	02802821 	move	a1,s4
    49fc:	0c0009f9 	jal	27e4 <float32::operator*(float32 const&) const>
    4a00:	02403021 	move	a2,s2
    4a04:	27a40038 	addiu	a0,sp,56
    4a08:	02202821 	move	a1,s1
    4a0c:	0c0009f9 	jal	27e4 <float32::operator*(float32 const&) const>
    4a10:	02603021 	move	a2,s3
    4a14:	27a40040 	addiu	a0,sp,64
    4a18:	27a5003c 	addiu	a1,sp,60
    4a1c:	0c0009b0 	jal	26c0 <float32::operator+(float32 const&) const>
    4a20:	27a60038 	addiu	a2,sp,56
    4a24:	27a40044 	addiu	a0,sp,68
    4a28:	27a50030 	addiu	a1,sp,48
    4a2c:	0c0009f9 	jal	27e4 <float32::operator*(float32 const&) const>
    4a30:	27a60040 	addiu	a2,sp,64
    4a34:	27a40010 	addiu	a0,sp,16
    4a38:	27a5002c 	addiu	a1,sp,44
    4a3c:	0c0009d5 	jal	2754 <float32::operator-(float32 const&) const>
    4a40:	27a60028 	addiu	a2,sp,40
    4a44:	27a40014 	addiu	a0,sp,20
    4a48:	27a50010 	addiu	a1,sp,16
    4a4c:	0c0009d5 	jal	2754 <float32::operator-(float32 const&) const>
    4a50:	27a60024 	addiu	a2,sp,36
    4a54:	27a40018 	addiu	a0,sp,24
    4a58:	27a50014 	addiu	a1,sp,20
    4a5c:	0c0009b0 	jal	26c0 <float32::operator+(float32 const&) const>
    4a60:	27a60020 	addiu	a2,sp,32
    4a64:	27a40048 	addiu	a0,sp,72
    4a68:	27a50044 	addiu	a1,sp,68
    4a6c:	0c000fc7 	jal	3f1c <f32::atan2(float32 const&, float32 const&)>
    4a70:	27a60018 	addiu	a2,sp,24
    4a74:	27a4001c 	addiu	a0,sp,28
    4a78:	27a50048 	addiu	a1,sp,72
    4a7c:	0c0009f9 	jal	27e4 <float32::operator*(float32 const&) const>
    4a80:	27a60034 	addiu	a2,sp,52
    4a84:	27a4003c 	addiu	a0,sp,60
    4a88:	02802821 	move	a1,s4
    4a8c:	0c0009f9 	jal	27e4 <float32::operator*(float32 const&) const>
    4a90:	02203021 	move	a2,s1
    4a94:	27a40038 	addiu	a0,sp,56
    4a98:	02602821 	move	a1,s3
    4a9c:	0c0009f9 	jal	27e4 <float32::operator*(float32 const&) const>
    4aa0:	02403021 	move	a2,s2
    4aa4:	27a40040 	addiu	a0,sp,64
    4aa8:	27a5003c 	addiu	a1,sp,60
    4aac:	0c0009d5 	jal	2754 <float32::operator-(float32 const&) const>
    4ab0:	27a60038 	addiu	a2,sp,56
    4ab4:	27a40044 	addiu	a0,sp,68
    4ab8:	27a50030 	addiu	a1,sp,48
    4abc:	0c0009f9 	jal	27e4 <float32::operator*(float32 const&) const>
    4ac0:	27a60040 	addiu	a2,sp,64
    4ac4:	27a50044 	addiu	a1,sp,68
    4ac8:	3c023ec8 	lui	v0,0x3ec8
    4acc:	00a03021 	move	a2,a1
    4ad0:	24423127 	addiu	v0,v0,12583
    4ad4:	27a40014 	addiu	a0,sp,20
    4ad8:	0c0009f9 	jal	27e4 <float32::operator*(float32 const&) const>
    4adc:	afa20018 	sw	v0,24(sp)
    4ae0:	27a40014 	addiu	a0,sp,20
    4ae4:	0c000a7a 	jal	29e8 <float32::operator*=(float32 const&)>
    4ae8:	00802821 	move	a1,a0
    4aec:	27a40014 	addiu	a0,sp,20
    4af0:	0c000a7a 	jal	29e8 <float32::operator*=(float32 const&)>
    4af4:	27a50044 	addiu	a1,sp,68
    4af8:	27a40010 	addiu	a0,sp,16
    4afc:	27a50018 	addiu	a1,sp,24
    4b00:	0c0009f9 	jal	27e4 <float32::operator*(float32 const&) const>
    4b04:	27a60014 	addiu	a2,sp,20
    4b08:	27a40048 	addiu	a0,sp,72
    4b0c:	27a50044 	addiu	a1,sp,68
    4b10:	0c0009b0 	jal	26c0 <float32::operator+(float32 const&) const>
    4b14:	27a60010 	addiu	a2,sp,16
    4b18:	27a40014 	addiu	a0,sp,20
    4b1c:	27a50048 	addiu	a1,sp,72
    4b20:	0c0009f9 	jal	27e4 <float32::operator*(float32 const&) const>
    4b24:	27a60034 	addiu	a2,sp,52
    4b28:	27a40044 	addiu	a0,sp,68
    4b2c:	02802821 	move	a1,s4
    4b30:	0c0009f9 	jal	27e4 <float32::operator*(float32 const&) const>
    4b34:	02603021 	move	a2,s3
    4b38:	27a40040 	addiu	a0,sp,64
    4b3c:	02402821 	move	a1,s2
    4b40:	0c0009f9 	jal	27e4 <float32::operator*(float32 const&) const>
    4b44:	02203021 	move	a2,s1
    4b48:	27a40048 	addiu	a0,sp,72
    4b4c:	27a50044 	addiu	a1,sp,68
    4b50:	0c0009b0 	jal	26c0 <float32::operator+(float32 const&) const>
    4b54:	27a60040 	addiu	a2,sp,64
    4b58:	27a4004c 	addiu	a0,sp,76
    4b5c:	27a50030 	addiu	a1,sp,48
    4b60:	0c0009f9 	jal	27e4 <float32::operator*(float32 const&) const>
    4b64:	27a60048 	addiu	a2,sp,72
    4b68:	27a40018 	addiu	a0,sp,24
    4b6c:	27a5002c 	addiu	a1,sp,44
    4b70:	0c0009b0 	jal	26c0 <float32::operator+(float32 const&) const>
    4b74:	27a60028 	addiu	a2,sp,40
    4b78:	27a40038 	addiu	a0,sp,56
    4b7c:	27a50018 	addiu	a1,sp,24
    4b80:	0c0009d5 	jal	2754 <float32::operator-(float32 const&) const>
    4b84:	27a60024 	addiu	a2,sp,36
    4b88:	27a4003c 	addiu	a0,sp,60
    4b8c:	27a50038 	addiu	a1,sp,56
    4b90:	0c0009d5 	jal	2754 <float32::operator-(float32 const&) const>
    4b94:	27a60020 	addiu	a2,sp,32
    4b98:	27a40050 	addiu	a0,sp,80
    4b9c:	27a5004c 	addiu	a1,sp,76
    4ba0:	0c000fc7 	jal	3f1c <f32::atan2(float32 const&, float32 const&)>
    4ba4:	27a6003c 	addiu	a2,sp,60
    4ba8:	27a40010 	addiu	a0,sp,16
    4bac:	27a50050 	addiu	a1,sp,80
    4bb0:	0c0009f9 	jal	27e4 <float32::operator*(float32 const&) const>
    4bb4:	27a60034 	addiu	a2,sp,52
    4bb8:	0c0003ee 	jal	fb8 <_ZN6System8Registry8instanceEv.local.11>
    4bbc:	00000000 	nop
    4bc0:	8fa3001c 	lw	v1,28(sp)
    4bc4:	0c0003ee 	jal	fb8 <_ZN6System8Registry8instanceEv.local.11>
    4bc8:	ac430010 	sw	v1,16(v0)
    4bcc:	8fa30014 	lw	v1,20(sp)
    4bd0:	0c0003ee 	jal	fb8 <_ZN6System8Registry8instanceEv.local.11>
    4bd4:	ac430014 	sw	v1,20(v0)
    4bd8:	8fa30010 	lw	v1,16(sp)
    4bdc:	8fbf00f4 	lw	ra,244(sp)
    4be0:	8fb600f0 	lw	s6,240(sp)
    4be4:	8fb500ec 	lw	s5,236(sp)
    4be8:	8fb400e8 	lw	s4,232(sp)
    4bec:	8fb300e4 	lw	s3,228(sp)
    4bf0:	8fb200e0 	lw	s2,224(sp)
    4bf4:	8fb100dc 	lw	s1,220(sp)
    4bf8:	8fb000d8 	lw	s0,216(sp)
    4bfc:	ac430018 	sw	v1,24(v0)
    4c00:	03e00008 	jr	ra
    4c04:	27bd00f8 	addiu	sp,sp,248

00004c08 <__ashldi3>:

#ifdef L_ashldi3
DWtype
__ashldi3 (DWtype u, shift_count_type b)
{
  if (b == 0)
    4c08:	10c0000a 	beqz	a2,4c34 <__ashldi3+0x2c>
    4c0c:	00801021 	move	v0,a0
    return u;

  const DWunion uu = {.ll = u};
  const shift_count_type bm = W_TYPE_SIZE - b;
    4c10:	24030020 	li	v1,32
    4c14:	00661823 	subu	v1,v1,a2
  DWunion w;

  if (bm <= 0)
    4c18:	18600008 	blez	v1,4c3c <__ashldi3+0x34>
    4c1c:	00000000 	nop
      w.s.low = 0;
      w.s.high = (UWtype) uu.s.low << -bm;
    }
  else
    {
      const UWtype carries = (UWtype) uu.s.low >> bm;
    4c20:	00651806 	srlv	v1,a1,v1

      w.s.low = (UWtype) uu.s.low << b;
      w.s.high = ((UWtype) uu.s.high << b) | carries;
    4c24:	00c41004 	sllv	v0,a0,a2
    }
  else
    {
      const UWtype carries = (UWtype) uu.s.low >> bm;

      w.s.low = (UWtype) uu.s.low << b;
    4c28:	00c53004 	sllv	a2,a1,a2
      w.s.high = ((UWtype) uu.s.high << b) | carries;
    4c2c:	00621025 	or	v0,v1,v0
    }

  return w.ll;
    4c30:	00c02821 	move	a1,a2
}
    4c34:	03e00008 	jr	ra
    4c38:	00a01821 	move	v1,a1
  DWunion w;

  if (bm <= 0)
    {
      w.s.low = 0;
      w.s.high = (UWtype) uu.s.low << -bm;
    4c3c:	00031023 	negu	v0,v1
  const shift_count_type bm = W_TYPE_SIZE - b;
  DWunion w;

  if (bm <= 0)
    {
      w.s.low = 0;
    4c40:	00003021 	move	a2,zero
      w.s.high = (UWtype) uu.s.low << -bm;
    4c44:	00451004 	sllv	v0,a1,v0

      w.s.low = (UWtype) uu.s.low << b;
      w.s.high = ((UWtype) uu.s.high << b) | carries;
    }

  return w.ll;
    4c48:	0800130d 	j	4c34 <__ashldi3+0x2c>
    4c4c:	00c02821 	move	a1,a2

00004c50 <CODE_ENDS>:
    4c50:	00000000 	nop
    4c54:	00000000 	nop
    4c58:	00000000 	nop
    4c5c:	00000000 	nop
    4c60:	00000000 	nop
    4c64:	00000000 	nop
    4c68:	00000000 	nop
    4c6c:	00000000 	nop
    4c70:	00000000 	nop
    4c74:	00000000 	nop
    4c78:	00000000 	nop
    4c7c:	00000000 	nop
    4c80:	00000000 	nop
    4c84:	00000000 	nop
    4c88:	00000000 	nop
    4c8c:	00000000 	nop
    4c90:	00000000 	nop
    4c94:	00000000 	nop
    4c98:	00000000 	nop
    4c9c:	00000000 	nop
    4ca0:	00000000 	nop
    4ca4:	00000000 	nop
    4ca8:	00000000 	nop
    4cac:	00000000 	nop
    4cb0:	00000000 	nop
    4cb4:	00000000 	nop
    4cb8:	00000000 	nop
    4cbc:	00000000 	nop
    4cc0:	00000000 	nop
    4cc4:	00000000 	nop
    4cc8:	00000000 	nop
    4ccc:	00000000 	nop
    4cd0:	00000000 	nop
    4cd4:	00000000 	nop
    4cd8:	00000000 	nop
    4cdc:	00000000 	nop
    4ce0:	00000000 	nop
    4ce4:	00000000 	nop
    4ce8:	00000000 	nop
    4cec:	00000000 	nop
    4cf0:	00000000 	nop
    4cf4:	00000000 	nop
    4cf8:	00000000 	nop
    4cfc:	00000000 	nop
    4d00:	00000000 	nop
    4d04:	00000000 	nop
    4d08:	00000000 	nop
    4d0c:	00000000 	nop
    4d10:	00000000 	nop
    4d14:	00000000 	nop
    4d18:	00000000 	nop
    4d1c:	00000000 	nop
    4d20:	00000000 	nop
    4d24:	00000000 	nop
    4d28:	00000000 	nop
    4d2c:	00000000 	nop
    4d30:	00000000 	nop
    4d34:	00000000 	nop
    4d38:	00000000 	nop
    4d3c:	00000000 	nop
    4d40:	00000000 	nop
    4d44:	00000000 	nop
    4d48:	00000000 	nop
    4d4c:	00000000 	nop
    4d50:	00000000 	nop
    4d54:	00000000 	nop
    4d58:	00000000 	nop
    4d5c:	00000000 	nop
    4d60:	00000000 	nop
    4d64:	00000000 	nop
    4d68:	00000000 	nop
    4d6c:	00000000 	nop
    4d70:	00000000 	nop
    4d74:	00000000 	nop
    4d78:	00000000 	nop
    4d7c:	00000000 	nop
    4d80:	00000000 	nop
    4d84:	00000000 	nop
    4d88:	00000000 	nop
    4d8c:	00000000 	nop
    4d90:	00000000 	nop
    4d94:	00000000 	nop
    4d98:	00000000 	nop
    4d9c:	00000000 	nop
    4da0:	00000000 	nop
    4da4:	00000000 	nop
    4da8:	00000000 	nop
    4dac:	00000000 	nop
    4db0:	00000000 	nop
    4db4:	00000000 	nop
    4db8:	00000000 	nop
    4dbc:	00000000 	nop
    4dc0:	00000000 	nop
    4dc4:	00000000 	nop
    4dc8:	00000000 	nop
    4dcc:	00000000 	nop
    4dd0:	00000000 	nop
    4dd4:	00000000 	nop
    4dd8:	00000000 	nop
    4ddc:	00000000 	nop
    4de0:	00000000 	nop
    4de4:	00000000 	nop
    4de8:	00000000 	nop
    4dec:	00000000 	nop
    4df0:	00000000 	nop
    4df4:	00000000 	nop
    4df8:	00000000 	nop
    4dfc:	00000000 	nop
    4e00:	00000000 	nop
    4e04:	00000000 	nop
    4e08:	00000000 	nop
    4e0c:	00000000 	nop
    4e10:	00000000 	nop
    4e14:	00000000 	nop
    4e18:	00000000 	nop
    4e1c:	00000000 	nop
    4e20:	00000000 	nop
    4e24:	00000000 	nop
    4e28:	00000000 	nop
    4e2c:	00000000 	nop
    4e30:	00000000 	nop
    4e34:	00000000 	nop
    4e38:	00000000 	nop
    4e3c:	00000000 	nop
    4e40:	00000000 	nop
    4e44:	00000000 	nop
    4e48:	00000000 	nop
    4e4c:	00000000 	nop
    4e50:	00000000 	nop
    4e54:	00000000 	nop
    4e58:	00000000 	nop
    4e5c:	00000000 	nop
    4e60:	00000000 	nop
    4e64:	00000000 	nop
    4e68:	00000000 	nop
    4e6c:	00000000 	nop
    4e70:	00000000 	nop
    4e74:	00000000 	nop
    4e78:	00000000 	nop
    4e7c:	00000000 	nop
    4e80:	00000000 	nop
    4e84:	00000000 	nop
    4e88:	00000000 	nop
    4e8c:	00000000 	nop
    4e90:	00000000 	nop
    4e94:	00000000 	nop
    4e98:	00000000 	nop
    4e9c:	00000000 	nop
    4ea0:	00000000 	nop
    4ea4:	00000000 	nop
    4ea8:	00000000 	nop
    4eac:	00000000 	nop
    4eb0:	00000000 	nop
    4eb4:	00000000 	nop
    4eb8:	00000000 	nop
    4ebc:	00000000 	nop
    4ec0:	00000000 	nop
    4ec4:	00000000 	nop
    4ec8:	00000000 	nop
    4ecc:	00000000 	nop
    4ed0:	00000000 	nop
    4ed4:	00000000 	nop
    4ed8:	00000000 	nop
    4edc:	00000000 	nop
    4ee0:	00000000 	nop
    4ee4:	00000000 	nop
    4ee8:	00000000 	nop
    4eec:	00000000 	nop
    4ef0:	00000000 	nop
    4ef4:	00000000 	nop
    4ef8:	00000000 	nop
    4efc:	00000000 	nop
    4f00:	00000000 	nop
    4f04:	00000000 	nop
    4f08:	00000000 	nop
    4f0c:	00000000 	nop
    4f10:	00000000 	nop
    4f14:	00000000 	nop
    4f18:	00000000 	nop
    4f1c:	00000000 	nop
    4f20:	00000000 	nop
    4f24:	00000000 	nop
    4f28:	00000000 	nop
    4f2c:	00000000 	nop
    4f30:	00000000 	nop
    4f34:	00000000 	nop
    4f38:	00000000 	nop
    4f3c:	00000000 	nop
    4f40:	00000000 	nop
    4f44:	00000000 	nop
    4f48:	00000000 	nop
    4f4c:	00000000 	nop
    4f50:	00000000 	nop
    4f54:	00000000 	nop
    4f58:	00000000 	nop
    4f5c:	00000000 	nop
    4f60:	00000000 	nop
    4f64:	00000000 	nop
    4f68:	00000000 	nop
    4f6c:	00000000 	nop
    4f70:	00000000 	nop
    4f74:	00000000 	nop
    4f78:	00000000 	nop
    4f7c:	00000000 	nop
    4f80:	00000000 	nop
    4f84:	00000000 	nop
    4f88:	00000000 	nop
    4f8c:	00000000 	nop
    4f90:	00000000 	nop
    4f94:	00000000 	nop
    4f98:	00000000 	nop
    4f9c:	00000000 	nop
    4fa0:	00000000 	nop
    4fa4:	00000000 	nop
    4fa8:	00000000 	nop
    4fac:	00000000 	nop
    4fb0:	00000000 	nop
    4fb4:	00000000 	nop
    4fb8:	00000000 	nop
    4fbc:	00000000 	nop
    4fc0:	00000000 	nop
    4fc4:	00000000 	nop
    4fc8:	00000000 	nop
    4fcc:	00000000 	nop
    4fd0:	00000000 	nop
    4fd4:	00000000 	nop
    4fd8:	00000000 	nop
    4fdc:	00000000 	nop
    4fe0:	00000000 	nop
    4fe4:	00000000 	nop
    4fe8:	00000000 	nop
    4fec:	00000000 	nop
    4ff0:	00000000 	nop
    4ff4:	00000000 	nop
    4ff8:	00000000 	nop
    4ffc:	00000000 	nop
    5000:	00000000 	nop
    5004:	00000000 	nop
    5008:	00000000 	nop
    500c:	00000000 	nop
    5010:	00000000 	nop
    5014:	00000000 	nop
    5018:	00000000 	nop
    501c:	00000000 	nop
    5020:	00000000 	nop
    5024:	00000000 	nop
    5028:	00000000 	nop
    502c:	00000000 	nop
    5030:	00000000 	nop
    5034:	00000000 	nop
    5038:	00000000 	nop
    503c:	00000000 	nop
    5040:	00000000 	nop
    5044:	00000000 	nop
    5048:	00000000 	nop
    504c:	00000000 	nop
    5050:	00000000 	nop
    5054:	00000000 	nop
    5058:	00000000 	nop
    505c:	00000000 	nop
    5060:	00000000 	nop
    5064:	00000000 	nop
    5068:	00000000 	nop
    506c:	00000000 	nop
    5070:	00000000 	nop
    5074:	00000000 	nop
    5078:	00000000 	nop
    507c:	00000000 	nop
    5080:	00000000 	nop
    5084:	00000000 	nop
    5088:	00000000 	nop
    508c:	00000000 	nop
    5090:	00000000 	nop
    5094:	00000000 	nop
    5098:	00000000 	nop
    509c:	00000000 	nop
    50a0:	00000000 	nop
    50a4:	00000000 	nop
    50a8:	00000000 	nop
    50ac:	00000000 	nop
    50b0:	00000000 	nop
    50b4:	00000000 	nop
    50b8:	00000000 	nop
    50bc:	00000000 	nop
    50c0:	00000000 	nop
    50c4:	00000000 	nop
    50c8:	00000000 	nop
    50cc:	00000000 	nop
    50d0:	00000000 	nop
    50d4:	00000000 	nop
    50d8:	00000000 	nop
    50dc:	00000000 	nop
    50e0:	00000000 	nop
    50e4:	00000000 	nop
    50e8:	00000000 	nop
    50ec:	00000000 	nop
    50f0:	00000000 	nop
    50f4:	00000000 	nop
    50f8:	00000000 	nop
    50fc:	00000000 	nop
    5100:	00000000 	nop
    5104:	00000000 	nop
    5108:	00000000 	nop
    510c:	00000000 	nop
    5110:	00000000 	nop
    5114:	00000000 	nop
    5118:	00000000 	nop
    511c:	00000000 	nop
    5120:	00000000 	nop
    5124:	00000000 	nop
    5128:	00000000 	nop
    512c:	00000000 	nop
    5130:	00000000 	nop
    5134:	00000000 	nop
    5138:	00000000 	nop
    513c:	00000000 	nop
    5140:	00000000 	nop
    5144:	00000000 	nop
    5148:	00000000 	nop
    514c:	00000000 	nop
    5150:	00000000 	nop
    5154:	00000000 	nop
    5158:	00000000 	nop
    515c:	00000000 	nop
    5160:	00000000 	nop
    5164:	00000000 	nop
    5168:	00000000 	nop
    516c:	00000000 	nop
    5170:	00000000 	nop
    5174:	00000000 	nop
    5178:	00000000 	nop
    517c:	00000000 	nop
    5180:	00000000 	nop
    5184:	00000000 	nop
    5188:	00000000 	nop
    518c:	00000000 	nop
    5190:	00000000 	nop
    5194:	00000000 	nop
    5198:	00000000 	nop
    519c:	00000000 	nop
    51a0:	00000000 	nop
    51a4:	00000000 	nop
    51a8:	00000000 	nop
    51ac:	00000000 	nop
    51b0:	00000000 	nop
    51b4:	00000000 	nop
    51b8:	00000000 	nop
    51bc:	00000000 	nop
    51c0:	00000000 	nop
    51c4:	00000000 	nop
    51c8:	00000000 	nop
    51cc:	00000000 	nop
    51d0:	00000000 	nop
    51d4:	00000000 	nop
    51d8:	00000000 	nop
    51dc:	00000000 	nop
    51e0:	00000000 	nop
    51e4:	00000000 	nop
    51e8:	00000000 	nop
    51ec:	00000000 	nop
    51f0:	00000000 	nop
    51f4:	00000000 	nop
    51f8:	00000000 	nop
    51fc:	00000000 	nop
    5200:	00000000 	nop
    5204:	00000000 	nop
    5208:	00000000 	nop
    520c:	00000000 	nop
    5210:	00000000 	nop
    5214:	00000000 	nop
    5218:	00000000 	nop
    521c:	00000000 	nop
    5220:	00000000 	nop
    5224:	00000000 	nop
    5228:	00000000 	nop
    522c:	00000000 	nop
    5230:	00000000 	nop
    5234:	00000000 	nop
    5238:	00000000 	nop
    523c:	00000000 	nop
    5240:	00000000 	nop
    5244:	00000000 	nop
    5248:	00000000 	nop
    524c:	00000000 	nop
    5250:	00000000 	nop
    5254:	00000000 	nop
    5258:	00000000 	nop
    525c:	00000000 	nop
    5260:	00000000 	nop
    5264:	00000000 	nop
    5268:	00000000 	nop
    526c:	00000000 	nop
    5270:	00000000 	nop
    5274:	00000000 	nop
    5278:	00000000 	nop
    527c:	00000000 	nop
    5280:	00000000 	nop
    5284:	00000000 	nop
    5288:	00000000 	nop
    528c:	00000000 	nop
    5290:	00000000 	nop
    5294:	00000000 	nop
    5298:	00000000 	nop
    529c:	00000000 	nop
    52a0:	00000000 	nop
    52a4:	00000000 	nop
    52a8:	00000000 	nop
    52ac:	00000000 	nop
    52b0:	00000000 	nop
    52b4:	00000000 	nop
    52b8:	00000000 	nop
    52bc:	00000000 	nop
    52c0:	00000000 	nop
    52c4:	00000000 	nop
    52c8:	00000000 	nop
    52cc:	00000000 	nop
    52d0:	00000000 	nop
    52d4:	00000000 	nop
    52d8:	00000000 	nop
    52dc:	00000000 	nop
    52e0:	00000000 	nop
    52e4:	00000000 	nop
    52e8:	00000000 	nop
    52ec:	00000000 	nop
    52f0:	00000000 	nop
    52f4:	00000000 	nop
    52f8:	00000000 	nop
    52fc:	00000000 	nop
    5300:	00000000 	nop
    5304:	00000000 	nop
    5308:	00000000 	nop
    530c:	00000000 	nop
    5310:	00000000 	nop
    5314:	00000000 	nop
    5318:	00000000 	nop
    531c:	00000000 	nop
    5320:	00000000 	nop
    5324:	00000000 	nop
    5328:	00000000 	nop
    532c:	00000000 	nop
    5330:	00000000 	nop
    5334:	00000000 	nop
    5338:	00000000 	nop
    533c:	00000000 	nop
    5340:	00000000 	nop
    5344:	00000000 	nop
    5348:	00000000 	nop
    534c:	00000000 	nop
    5350:	00000000 	nop
    5354:	00000000 	nop
    5358:	00000000 	nop
    535c:	00000000 	nop
    5360:	00000000 	nop
    5364:	00000000 	nop
    5368:	00000000 	nop
    536c:	00000000 	nop
    5370:	00000000 	nop
    5374:	00000000 	nop
    5378:	00000000 	nop
    537c:	00000000 	nop
    5380:	00000000 	nop
    5384:	00000000 	nop
    5388:	00000000 	nop
    538c:	00000000 	nop
    5390:	00000000 	nop
    5394:	00000000 	nop
    5398:	00000000 	nop
    539c:	00000000 	nop
    53a0:	00000000 	nop
    53a4:	00000000 	nop
    53a8:	00000000 	nop
    53ac:	00000000 	nop
    53b0:	00000000 	nop
    53b4:	00000000 	nop
    53b8:	00000000 	nop
    53bc:	00000000 	nop
    53c0:	00000000 	nop
    53c4:	00000000 	nop
    53c8:	00000000 	nop
    53cc:	00000000 	nop
    53d0:	00000000 	nop
    53d4:	00000000 	nop
    53d8:	00000000 	nop
    53dc:	00000000 	nop
    53e0:	00000000 	nop
    53e4:	00000000 	nop
    53e8:	00000000 	nop
    53ec:	00000000 	nop
    53f0:	00000000 	nop
    53f4:	00000000 	nop
    53f8:	00000000 	nop
    53fc:	00000000 	nop
    5400:	00000000 	nop
    5404:	00000000 	nop
    5408:	00000000 	nop
    540c:	00000000 	nop
    5410:	00000000 	nop
    5414:	00000000 	nop
    5418:	00000000 	nop
    541c:	00000000 	nop
    5420:	00000000 	nop
    5424:	00000000 	nop
    5428:	00000000 	nop
    542c:	00000000 	nop
    5430:	00000000 	nop
    5434:	00000000 	nop
    5438:	00000000 	nop
    543c:	00000000 	nop
    5440:	00000000 	nop
    5444:	00000000 	nop
    5448:	00000000 	nop
    544c:	00000000 	nop
    5450:	00000000 	nop
    5454:	00000000 	nop
    5458:	00000000 	nop
    545c:	00000000 	nop
    5460:	00000000 	nop
    5464:	00000000 	nop
    5468:	00000000 	nop
    546c:	00000000 	nop
    5470:	00000000 	nop
    5474:	00000000 	nop
    5478:	00000000 	nop
    547c:	00000000 	nop
    5480:	00000000 	nop
    5484:	00000000 	nop
    5488:	00000000 	nop
    548c:	00000000 	nop
    5490:	00000000 	nop
    5494:	00000000 	nop
    5498:	00000000 	nop
    549c:	00000000 	nop
    54a0:	00000000 	nop
    54a4:	00000000 	nop
    54a8:	00000000 	nop
    54ac:	00000000 	nop
    54b0:	00000000 	nop
    54b4:	00000000 	nop
    54b8:	00000000 	nop
    54bc:	00000000 	nop
    54c0:	00000000 	nop
    54c4:	00000000 	nop
    54c8:	00000000 	nop
    54cc:	00000000 	nop
    54d0:	00000000 	nop
    54d4:	00000000 	nop
    54d8:	00000000 	nop
    54dc:	00000000 	nop
    54e0:	00000000 	nop
    54e4:	00000000 	nop
    54e8:	00000000 	nop
    54ec:	00000000 	nop
    54f0:	00000000 	nop
    54f4:	00000000 	nop
    54f8:	00000000 	nop
    54fc:	00000000 	nop
    5500:	00000000 	nop
    5504:	00000000 	nop
    5508:	00000000 	nop
    550c:	00000000 	nop
    5510:	00000000 	nop
    5514:	00000000 	nop
    5518:	00000000 	nop
    551c:	00000000 	nop
    5520:	00000000 	nop
    5524:	00000000 	nop
    5528:	00000000 	nop
    552c:	00000000 	nop
    5530:	00000000 	nop
    5534:	00000000 	nop
    5538:	00000000 	nop
    553c:	00000000 	nop
    5540:	00000000 	nop
    5544:	00000000 	nop
    5548:	00000000 	nop
    554c:	00000000 	nop
    5550:	00000000 	nop
    5554:	00000000 	nop
    5558:	00000000 	nop
    555c:	00000000 	nop
    5560:	00000000 	nop
    5564:	00000000 	nop
    5568:	00000000 	nop
    556c:	00000000 	nop
    5570:	00000000 	nop
    5574:	00000000 	nop
    5578:	00000000 	nop
    557c:	00000000 	nop
    5580:	00000000 	nop
    5584:	00000000 	nop
    5588:	00000000 	nop
    558c:	00000000 	nop
    5590:	00000000 	nop
    5594:	00000000 	nop
    5598:	00000000 	nop
    559c:	00000000 	nop
    55a0:	00000000 	nop
    55a4:	00000000 	nop
    55a8:	00000000 	nop
    55ac:	00000000 	nop
    55b0:	00000000 	nop
    55b4:	00000000 	nop
    55b8:	00000000 	nop
    55bc:	00000000 	nop
    55c0:	00000000 	nop
    55c4:	00000000 	nop
    55c8:	00000000 	nop
    55cc:	00000000 	nop
    55d0:	00000000 	nop
    55d4:	00000000 	nop
    55d8:	00000000 	nop
    55dc:	00000000 	nop
    55e0:	00000000 	nop
    55e4:	00000000 	nop
    55e8:	00000000 	nop
    55ec:	00000000 	nop
    55f0:	00000000 	nop
    55f4:	00000000 	nop
    55f8:	00000000 	nop
    55fc:	00000000 	nop
    5600:	00000000 	nop
    5604:	00000000 	nop
    5608:	00000000 	nop
    560c:	00000000 	nop
    5610:	00000000 	nop
    5614:	00000000 	nop
    5618:	00000000 	nop
    561c:	00000000 	nop
    5620:	00000000 	nop
    5624:	00000000 	nop
    5628:	00000000 	nop
    562c:	00000000 	nop
    5630:	00000000 	nop
    5634:	00000000 	nop
    5638:	00000000 	nop
    563c:	00000000 	nop
    5640:	00000000 	nop
    5644:	00000000 	nop
    5648:	00000000 	nop
    564c:	00000000 	nop
    5650:	00000000 	nop
    5654:	00000000 	nop
    5658:	00000000 	nop
    565c:	00000000 	nop
    5660:	00000000 	nop
    5664:	00000000 	nop
    5668:	00000000 	nop
    566c:	00000000 	nop
    5670:	00000000 	nop
    5674:	00000000 	nop
    5678:	00000000 	nop
    567c:	00000000 	nop
    5680:	00000000 	nop
    5684:	00000000 	nop
    5688:	00000000 	nop
    568c:	00000000 	nop
    5690:	00000000 	nop
    5694:	00000000 	nop
    5698:	00000000 	nop
    569c:	00000000 	nop
    56a0:	00000000 	nop
    56a4:	00000000 	nop
    56a8:	00000000 	nop
    56ac:	00000000 	nop
    56b0:	00000000 	nop
    56b4:	00000000 	nop
    56b8:	00000000 	nop
    56bc:	00000000 	nop
    56c0:	00000000 	nop
    56c4:	00000000 	nop
    56c8:	00000000 	nop
    56cc:	00000000 	nop
    56d0:	00000000 	nop
    56d4:	00000000 	nop
    56d8:	00000000 	nop
    56dc:	00000000 	nop
    56e0:	00000000 	nop
    56e4:	00000000 	nop
    56e8:	00000000 	nop
    56ec:	00000000 	nop
    56f0:	00000000 	nop
    56f4:	00000000 	nop
    56f8:	00000000 	nop
    56fc:	00000000 	nop
    5700:	00000000 	nop
    5704:	00000000 	nop
    5708:	00000000 	nop
    570c:	00000000 	nop
    5710:	00000000 	nop
    5714:	00000000 	nop
    5718:	00000000 	nop
    571c:	00000000 	nop
    5720:	00000000 	nop
    5724:	00000000 	nop
    5728:	00000000 	nop
    572c:	00000000 	nop
    5730:	00000000 	nop
    5734:	00000000 	nop
    5738:	00000000 	nop
    573c:	00000000 	nop
    5740:	00000000 	nop
    5744:	00000000 	nop
    5748:	00000000 	nop
    574c:	00000000 	nop
    5750:	00000000 	nop
    5754:	00000000 	nop
    5758:	00000000 	nop
    575c:	00000000 	nop
    5760:	00000000 	nop
    5764:	00000000 	nop
    5768:	00000000 	nop
    576c:	00000000 	nop
    5770:	00000000 	nop
    5774:	00000000 	nop
    5778:	00000000 	nop
    577c:	00000000 	nop
    5780:	00000000 	nop
    5784:	00000000 	nop
    5788:	00000000 	nop
    578c:	00000000 	nop
    5790:	00000000 	nop
    5794:	00000000 	nop
    5798:	00000000 	nop
    579c:	00000000 	nop
    57a0:	00000000 	nop
    57a4:	00000000 	nop
    57a8:	00000000 	nop
    57ac:	00000000 	nop
    57b0:	00000000 	nop
    57b4:	00000000 	nop
    57b8:	00000000 	nop
    57bc:	00000000 	nop
    57c0:	00000000 	nop
    57c4:	00000000 	nop
    57c8:	00000000 	nop
    57cc:	00000000 	nop
    57d0:	00000000 	nop
    57d4:	00000000 	nop
    57d8:	00000000 	nop
    57dc:	00000000 	nop
    57e0:	00000000 	nop
    57e4:	00000000 	nop
    57e8:	00000000 	nop
    57ec:	00000000 	nop
    57f0:	00000000 	nop
    57f4:	00000000 	nop
    57f8:	00000000 	nop
    57fc:	00000000 	nop
    5800:	00000000 	nop
    5804:	00000000 	nop
    5808:	00000000 	nop
    580c:	00000000 	nop
    5810:	00000000 	nop
    5814:	00000000 	nop
    5818:	00000000 	nop
    581c:	00000000 	nop
    5820:	00000000 	nop
    5824:	00000000 	nop
    5828:	00000000 	nop
    582c:	00000000 	nop
    5830:	00000000 	nop
    5834:	00000000 	nop
    5838:	00000000 	nop
    583c:	00000000 	nop
    5840:	00000000 	nop
    5844:	00000000 	nop
    5848:	00000000 	nop
    584c:	00000000 	nop
    5850:	00000000 	nop
    5854:	00000000 	nop
    5858:	00000000 	nop
    585c:	00000000 	nop
    5860:	00000000 	nop
    5864:	00000000 	nop
    5868:	00000000 	nop
    586c:	00000000 	nop
    5870:	00000000 	nop
    5874:	00000000 	nop
    5878:	00000000 	nop
    587c:	00000000 	nop
    5880:	00000000 	nop
    5884:	00000000 	nop
    5888:	00000000 	nop
    588c:	00000000 	nop
    5890:	00000000 	nop
    5894:	00000000 	nop
    5898:	00000000 	nop
    589c:	00000000 	nop
    58a0:	00000000 	nop
    58a4:	00000000 	nop
    58a8:	00000000 	nop
    58ac:	00000000 	nop
    58b0:	00000000 	nop
    58b4:	00000000 	nop
    58b8:	00000000 	nop
    58bc:	00000000 	nop
    58c0:	00000000 	nop
    58c4:	00000000 	nop
    58c8:	00000000 	nop
    58cc:	00000000 	nop
    58d0:	00000000 	nop
    58d4:	00000000 	nop
    58d8:	00000000 	nop
    58dc:	00000000 	nop
    58e0:	00000000 	nop
    58e4:	00000000 	nop
    58e8:	00000000 	nop
    58ec:	00000000 	nop
    58f0:	00000000 	nop
    58f4:	00000000 	nop
    58f8:	00000000 	nop
    58fc:	00000000 	nop
    5900:	00000000 	nop
    5904:	00000000 	nop
    5908:	00000000 	nop
    590c:	00000000 	nop
    5910:	00000000 	nop
    5914:	00000000 	nop
    5918:	00000000 	nop
    591c:	00000000 	nop
    5920:	00000000 	nop
    5924:	00000000 	nop
    5928:	00000000 	nop
    592c:	00000000 	nop
    5930:	00000000 	nop
    5934:	00000000 	nop
    5938:	00000000 	nop
    593c:	00000000 	nop
    5940:	00000000 	nop
    5944:	00000000 	nop
    5948:	00000000 	nop
    594c:	00000000 	nop
    5950:	00000000 	nop
    5954:	00000000 	nop
    5958:	00000000 	nop
    595c:	00000000 	nop
    5960:	00000000 	nop
    5964:	00000000 	nop
    5968:	00000000 	nop
    596c:	00000000 	nop
    5970:	00000000 	nop
    5974:	00000000 	nop
    5978:	00000000 	nop
    597c:	00000000 	nop
    5980:	00000000 	nop
    5984:	00000000 	nop
    5988:	00000000 	nop
    598c:	00000000 	nop
    5990:	00000000 	nop
    5994:	00000000 	nop
    5998:	00000000 	nop
    599c:	00000000 	nop
    59a0:	00000000 	nop
    59a4:	00000000 	nop
    59a8:	00000000 	nop
    59ac:	00000000 	nop
    59b0:	00000000 	nop
    59b4:	00000000 	nop
    59b8:	00000000 	nop
    59bc:	00000000 	nop
    59c0:	00000000 	nop
    59c4:	00000000 	nop
    59c8:	00000000 	nop
    59cc:	00000000 	nop
    59d0:	00000000 	nop
    59d4:	00000000 	nop
    59d8:	00000000 	nop
    59dc:	00000000 	nop
    59e0:	00000000 	nop
    59e4:	00000000 	nop
    59e8:	00000000 	nop
    59ec:	00000000 	nop
    59f0:	00000000 	nop
    59f4:	00000000 	nop
    59f8:	00000000 	nop
    59fc:	00000000 	nop
    5a00:	00000000 	nop
    5a04:	00000000 	nop
    5a08:	00000000 	nop
    5a0c:	00000000 	nop
    5a10:	00000000 	nop
    5a14:	00000000 	nop
    5a18:	00000000 	nop
    5a1c:	00000000 	nop
    5a20:	00000000 	nop
    5a24:	00000000 	nop
    5a28:	00000000 	nop
    5a2c:	00000000 	nop
    5a30:	00000000 	nop
    5a34:	00000000 	nop
    5a38:	00000000 	nop
    5a3c:	00000000 	nop
    5a40:	00000000 	nop
    5a44:	00000000 	nop
    5a48:	00000000 	nop
    5a4c:	00000000 	nop
    5a50:	00000000 	nop
    5a54:	00000000 	nop
    5a58:	00000000 	nop
    5a5c:	00000000 	nop
    5a60:	00000000 	nop
    5a64:	00000000 	nop
    5a68:	00000000 	nop
    5a6c:	00000000 	nop
    5a70:	00000000 	nop
    5a74:	00000000 	nop
    5a78:	00000000 	nop
    5a7c:	00000000 	nop
    5a80:	00000000 	nop
    5a84:	00000000 	nop
    5a88:	00000000 	nop
    5a8c:	00000000 	nop
    5a90:	00000000 	nop
    5a94:	00000000 	nop
    5a98:	00000000 	nop
    5a9c:	00000000 	nop
    5aa0:	00000000 	nop
    5aa4:	00000000 	nop
    5aa8:	00000000 	nop
    5aac:	00000000 	nop
    5ab0:	00000000 	nop
    5ab4:	00000000 	nop
    5ab8:	00000000 	nop
    5abc:	00000000 	nop
    5ac0:	00000000 	nop
    5ac4:	00000000 	nop
    5ac8:	00000000 	nop
    5acc:	00000000 	nop
    5ad0:	00000000 	nop
    5ad4:	00000000 	nop
    5ad8:	00000000 	nop
    5adc:	00000000 	nop
    5ae0:	00000000 	nop
    5ae4:	00000000 	nop
    5ae8:	00000000 	nop
    5aec:	00000000 	nop
    5af0:	00000000 	nop
    5af4:	00000000 	nop
    5af8:	00000000 	nop
    5afc:	00000000 	nop
    5b00:	00000000 	nop
    5b04:	00000000 	nop
    5b08:	00000000 	nop
    5b0c:	00000000 	nop
    5b10:	00000000 	nop
    5b14:	00000000 	nop
    5b18:	00000000 	nop
    5b1c:	00000000 	nop
    5b20:	00000000 	nop
    5b24:	00000000 	nop
    5b28:	00000000 	nop
    5b2c:	00000000 	nop
    5b30:	00000000 	nop
    5b34:	00000000 	nop
    5b38:	00000000 	nop
    5b3c:	00000000 	nop
    5b40:	00000000 	nop
    5b44:	00000000 	nop
    5b48:	00000000 	nop
    5b4c:	00000000 	nop
    5b50:	00000000 	nop
    5b54:	00000000 	nop
    5b58:	00000000 	nop
    5b5c:	00000000 	nop
    5b60:	00000000 	nop
    5b64:	00000000 	nop
    5b68:	00000000 	nop
    5b6c:	00000000 	nop
    5b70:	00000000 	nop
    5b74:	00000000 	nop
    5b78:	00000000 	nop
    5b7c:	00000000 	nop
    5b80:	00000000 	nop
    5b84:	00000000 	nop
    5b88:	00000000 	nop
    5b8c:	00000000 	nop
    5b90:	00000000 	nop
    5b94:	00000000 	nop
    5b98:	00000000 	nop
    5b9c:	00000000 	nop
    5ba0:	00000000 	nop
    5ba4:	00000000 	nop
    5ba8:	00000000 	nop
    5bac:	00000000 	nop
    5bb0:	00000000 	nop
    5bb4:	00000000 	nop
    5bb8:	00000000 	nop
    5bbc:	00000000 	nop
    5bc0:	00000000 	nop
    5bc4:	00000000 	nop
    5bc8:	00000000 	nop
    5bcc:	00000000 	nop
    5bd0:	00000000 	nop
    5bd4:	00000000 	nop
    5bd8:	00000000 	nop
    5bdc:	00000000 	nop
    5be0:	00000000 	nop
    5be4:	00000000 	nop
    5be8:	00000000 	nop
    5bec:	00000000 	nop
    5bf0:	00000000 	nop
    5bf4:	00000000 	nop
    5bf8:	00000000 	nop
    5bfc:	00000000 	nop
    5c00:	00000000 	nop
    5c04:	00000000 	nop
    5c08:	00000000 	nop
    5c0c:	00000000 	nop
    5c10:	00000000 	nop
    5c14:	00000000 	nop
    5c18:	00000000 	nop
    5c1c:	00000000 	nop
    5c20:	00000000 	nop
    5c24:	00000000 	nop
    5c28:	00000000 	nop
    5c2c:	00000000 	nop
    5c30:	00000000 	nop
    5c34:	00000000 	nop
    5c38:	00000000 	nop
    5c3c:	00000000 	nop
    5c40:	00000000 	nop
    5c44:	00000000 	nop
    5c48:	00000000 	nop
    5c4c:	00000000 	nop
    5c50:	00000000 	nop
    5c54:	00000000 	nop
    5c58:	00000000 	nop
    5c5c:	00000000 	nop
    5c60:	00000000 	nop
    5c64:	00000000 	nop
    5c68:	00000000 	nop
    5c6c:	00000000 	nop
    5c70:	00000000 	nop
    5c74:	00000000 	nop
    5c78:	00000000 	nop
    5c7c:	00000000 	nop
    5c80:	00000000 	nop
    5c84:	00000000 	nop
    5c88:	00000000 	nop
    5c8c:	00000000 	nop
    5c90:	00000000 	nop
    5c94:	00000000 	nop
    5c98:	00000000 	nop
    5c9c:	00000000 	nop
    5ca0:	00000000 	nop
    5ca4:	00000000 	nop
    5ca8:	00000000 	nop
    5cac:	00000000 	nop
    5cb0:	00000000 	nop
    5cb4:	00000000 	nop
    5cb8:	00000000 	nop
    5cbc:	00000000 	nop
    5cc0:	00000000 	nop
    5cc4:	00000000 	nop
    5cc8:	00000000 	nop
    5ccc:	00000000 	nop
    5cd0:	00000000 	nop
    5cd4:	00000000 	nop
    5cd8:	00000000 	nop
    5cdc:	00000000 	nop
    5ce0:	00000000 	nop
    5ce4:	00000000 	nop
    5ce8:	00000000 	nop
    5cec:	00000000 	nop
    5cf0:	00000000 	nop
    5cf4:	00000000 	nop
    5cf8:	00000000 	nop
    5cfc:	00000000 	nop
    5d00:	00000000 	nop
    5d04:	00000000 	nop
    5d08:	00000000 	nop
    5d0c:	00000000 	nop
    5d10:	00000000 	nop
    5d14:	00000000 	nop
    5d18:	00000000 	nop
    5d1c:	00000000 	nop
    5d20:	00000000 	nop
    5d24:	00000000 	nop
    5d28:	00000000 	nop
    5d2c:	00000000 	nop
    5d30:	00000000 	nop
    5d34:	00000000 	nop
    5d38:	00000000 	nop
    5d3c:	00000000 	nop
    5d40:	00000000 	nop
    5d44:	00000000 	nop
    5d48:	00000000 	nop
    5d4c:	00000000 	nop
    5d50:	00000000 	nop
    5d54:	00000000 	nop
    5d58:	00000000 	nop
    5d5c:	00000000 	nop
    5d60:	00000000 	nop
    5d64:	00000000 	nop
    5d68:	00000000 	nop
    5d6c:	00000000 	nop
    5d70:	00000000 	nop
    5d74:	00000000 	nop
    5d78:	00000000 	nop
    5d7c:	00000000 	nop
    5d80:	00000000 	nop
    5d84:	00000000 	nop
    5d88:	00000000 	nop
    5d8c:	00000000 	nop
    5d90:	00000000 	nop
    5d94:	00000000 	nop
    5d98:	00000000 	nop
    5d9c:	00000000 	nop
    5da0:	00000000 	nop
    5da4:	00000000 	nop
    5da8:	00000000 	nop
    5dac:	00000000 	nop
    5db0:	00000000 	nop
    5db4:	00000000 	nop
    5db8:	00000000 	nop
    5dbc:	00000000 	nop
    5dc0:	00000000 	nop
    5dc4:	00000000 	nop
    5dc8:	00000000 	nop
    5dcc:	00000000 	nop
    5dd0:	00000000 	nop
    5dd4:	00000000 	nop
    5dd8:	00000000 	nop
    5ddc:	00000000 	nop
    5de0:	00000000 	nop
    5de4:	00000000 	nop
    5de8:	00000000 	nop
    5dec:	00000000 	nop
    5df0:	00000000 	nop
    5df4:	00000000 	nop
    5df8:	00000000 	nop
    5dfc:	00000000 	nop
    5e00:	00000000 	nop
    5e04:	00000000 	nop
    5e08:	00000000 	nop
    5e0c:	00000000 	nop
    5e10:	00000000 	nop
    5e14:	00000000 	nop
    5e18:	00000000 	nop
    5e1c:	00000000 	nop
    5e20:	00000000 	nop
    5e24:	00000000 	nop
    5e28:	00000000 	nop
    5e2c:	00000000 	nop
    5e30:	00000000 	nop
    5e34:	00000000 	nop
    5e38:	00000000 	nop
    5e3c:	00000000 	nop
    5e40:	00000000 	nop
    5e44:	00000000 	nop
    5e48:	00000000 	nop
    5e4c:	00000000 	nop
    5e50:	00000000 	nop
    5e54:	00000000 	nop
    5e58:	00000000 	nop
    5e5c:	00000000 	nop
    5e60:	00000000 	nop
    5e64:	00000000 	nop
    5e68:	00000000 	nop
    5e6c:	00000000 	nop
    5e70:	00000000 	nop
    5e74:	00000000 	nop
    5e78:	00000000 	nop
    5e7c:	00000000 	nop
    5e80:	00000000 	nop
    5e84:	00000000 	nop
    5e88:	00000000 	nop
    5e8c:	00000000 	nop
    5e90:	00000000 	nop
    5e94:	00000000 	nop
    5e98:	00000000 	nop
    5e9c:	00000000 	nop
    5ea0:	00000000 	nop
    5ea4:	00000000 	nop
    5ea8:	00000000 	nop
    5eac:	00000000 	nop
    5eb0:	00000000 	nop
    5eb4:	00000000 	nop
    5eb8:	00000000 	nop
    5ebc:	00000000 	nop
    5ec0:	00000000 	nop
    5ec4:	00000000 	nop
    5ec8:	00000000 	nop
    5ecc:	00000000 	nop
    5ed0:	00000000 	nop
    5ed4:	00000000 	nop
    5ed8:	00000000 	nop
    5edc:	00000000 	nop
    5ee0:	00000000 	nop
    5ee4:	00000000 	nop
    5ee8:	00000000 	nop
    5eec:	00000000 	nop
    5ef0:	00000000 	nop
    5ef4:	00000000 	nop
    5ef8:	00000000 	nop
    5efc:	00000000 	nop
    5f00:	00000000 	nop
    5f04:	00000000 	nop
    5f08:	00000000 	nop
    5f0c:	00000000 	nop
    5f10:	00000000 	nop
    5f14:	00000000 	nop
    5f18:	00000000 	nop
    5f1c:	00000000 	nop
    5f20:	00000000 	nop
    5f24:	00000000 	nop
    5f28:	00000000 	nop
    5f2c:	00000000 	nop
    5f30:	00000000 	nop
    5f34:	00000000 	nop
    5f38:	00000000 	nop
    5f3c:	00000000 	nop
    5f40:	00000000 	nop
    5f44:	00000000 	nop
    5f48:	00000000 	nop
    5f4c:	00000000 	nop
    5f50:	00000000 	nop
    5f54:	00000000 	nop
    5f58:	00000000 	nop
    5f5c:	00000000 	nop
    5f60:	00000000 	nop
    5f64:	00000000 	nop
    5f68:	00000000 	nop
    5f6c:	00000000 	nop
    5f70:	00000000 	nop
    5f74:	00000000 	nop
    5f78:	00000000 	nop
    5f7c:	00000000 	nop
    5f80:	00000000 	nop
    5f84:	00000000 	nop
    5f88:	00000000 	nop
    5f8c:	00000000 	nop
    5f90:	00000000 	nop
    5f94:	00000000 	nop
    5f98:	00000000 	nop
    5f9c:	00000000 	nop
    5fa0:	00000000 	nop
    5fa4:	00000000 	nop
    5fa8:	00000000 	nop
    5fac:	00000000 	nop
    5fb0:	00000000 	nop
    5fb4:	00000000 	nop
    5fb8:	00000000 	nop
    5fbc:	00000000 	nop
    5fc0:	00000000 	nop
    5fc4:	00000000 	nop
    5fc8:	00000000 	nop
    5fcc:	00000000 	nop
    5fd0:	00000000 	nop
    5fd4:	00000000 	nop
    5fd8:	00000000 	nop
    5fdc:	00000000 	nop
    5fe0:	00000000 	nop
    5fe4:	00000000 	nop
    5fe8:	00000000 	nop
    5fec:	00000000 	nop
    5ff0:	00000000 	nop
    5ff4:	00000000 	nop
    5ff8:	00000000 	nop
    5ffc:	00000000 	nop
    6000:	00000000 	nop
    6004:	00000000 	nop
    6008:	00000000 	nop
    600c:	00000000 	nop
    6010:	00000000 	nop
    6014:	00000000 	nop
    6018:	00000000 	nop
    601c:	00000000 	nop
    6020:	00000000 	nop
    6024:	00000000 	nop
    6028:	00000000 	nop
    602c:	00000000 	nop
    6030:	00000000 	nop
    6034:	00000000 	nop
    6038:	00000000 	nop
    603c:	00000000 	nop
    6040:	00000000 	nop
    6044:	00000000 	nop
    6048:	00000000 	nop
    604c:	00000000 	nop
    6050:	00000000 	nop
    6054:	00000000 	nop
    6058:	00000000 	nop
    605c:	00000000 	nop
    6060:	00000000 	nop
    6064:	00000000 	nop
    6068:	00000000 	nop
    606c:	00000000 	nop
    6070:	00000000 	nop
    6074:	00000000 	nop
    6078:	00000000 	nop
    607c:	00000000 	nop
    6080:	00000000 	nop
    6084:	00000000 	nop
    6088:	00000000 	nop
    608c:	00000000 	nop
    6090:	00000000 	nop
    6094:	00000000 	nop
    6098:	00000000 	nop
    609c:	00000000 	nop
    60a0:	00000000 	nop
    60a4:	00000000 	nop
    60a8:	00000000 	nop
    60ac:	00000000 	nop
    60b0:	00000000 	nop
    60b4:	00000000 	nop
    60b8:	00000000 	nop
    60bc:	00000000 	nop
    60c0:	00000000 	nop
    60c4:	00000000 	nop
    60c8:	00000000 	nop
    60cc:	00000000 	nop
    60d0:	00000000 	nop
    60d4:	00000000 	nop
    60d8:	00000000 	nop
    60dc:	00000000 	nop
    60e0:	00000000 	nop
    60e4:	00000000 	nop
    60e8:	00000000 	nop
    60ec:	00000000 	nop
    60f0:	00000000 	nop
    60f4:	00000000 	nop
    60f8:	00000000 	nop
    60fc:	00000000 	nop
    6100:	00000000 	nop
    6104:	00000000 	nop
    6108:	00000000 	nop
    610c:	00000000 	nop
    6110:	00000000 	nop
    6114:	00000000 	nop
    6118:	00000000 	nop
    611c:	00000000 	nop
    6120:	00000000 	nop
    6124:	00000000 	nop
    6128:	00000000 	nop
    612c:	00000000 	nop
    6130:	00000000 	nop
    6134:	00000000 	nop
    6138:	00000000 	nop
    613c:	00000000 	nop
    6140:	00000000 	nop
    6144:	00000000 	nop
    6148:	00000000 	nop
    614c:	00000000 	nop
    6150:	00000000 	nop
    6154:	00000000 	nop
    6158:	00000000 	nop
    615c:	00000000 	nop
    6160:	00000000 	nop
    6164:	00000000 	nop
    6168:	00000000 	nop
    616c:	00000000 	nop
    6170:	00000000 	nop
    6174:	00000000 	nop
    6178:	00000000 	nop
    617c:	00000000 	nop
    6180:	00000000 	nop
    6184:	00000000 	nop
    6188:	00000000 	nop
    618c:	00000000 	nop
    6190:	00000000 	nop
    6194:	00000000 	nop
    6198:	00000000 	nop
    619c:	00000000 	nop
    61a0:	00000000 	nop
    61a4:	00000000 	nop
    61a8:	00000000 	nop
    61ac:	00000000 	nop
    61b0:	00000000 	nop
    61b4:	00000000 	nop
    61b8:	00000000 	nop
    61bc:	00000000 	nop
    61c0:	00000000 	nop
    61c4:	00000000 	nop
    61c8:	00000000 	nop
    61cc:	00000000 	nop
    61d0:	00000000 	nop
    61d4:	00000000 	nop
    61d8:	00000000 	nop
    61dc:	00000000 	nop
    61e0:	00000000 	nop
    61e4:	00000000 	nop
    61e8:	00000000 	nop
    61ec:	00000000 	nop
    61f0:	00000000 	nop
    61f4:	00000000 	nop
    61f8:	00000000 	nop
    61fc:	00000000 	nop
    6200:	00000000 	nop
    6204:	00000000 	nop
    6208:	00000000 	nop
    620c:	00000000 	nop
    6210:	00000000 	nop
    6214:	00000000 	nop
    6218:	00000000 	nop
    621c:	00000000 	nop
    6220:	00000000 	nop
    6224:	00000000 	nop
    6228:	00000000 	nop
    622c:	00000000 	nop
    6230:	00000000 	nop
    6234:	00000000 	nop
    6238:	00000000 	nop
    623c:	00000000 	nop
    6240:	00000000 	nop
    6244:	00000000 	nop
    6248:	00000000 	nop
    624c:	00000000 	nop
    6250:	00000000 	nop
    6254:	00000000 	nop
    6258:	00000000 	nop
    625c:	00000000 	nop
    6260:	00000000 	nop
    6264:	00000000 	nop
    6268:	00000000 	nop
    626c:	00000000 	nop
    6270:	00000000 	nop
    6274:	00000000 	nop
    6278:	00000000 	nop
    627c:	00000000 	nop
    6280:	00000000 	nop
    6284:	00000000 	nop
    6288:	00000000 	nop
    628c:	00000000 	nop
    6290:	00000000 	nop
    6294:	00000000 	nop
    6298:	00000000 	nop
    629c:	00000000 	nop
    62a0:	00000000 	nop
    62a4:	00000000 	nop
    62a8:	00000000 	nop
    62ac:	00000000 	nop
    62b0:	00000000 	nop
    62b4:	00000000 	nop
    62b8:	00000000 	nop
    62bc:	00000000 	nop
    62c0:	00000000 	nop
    62c4:	00000000 	nop
    62c8:	00000000 	nop
    62cc:	00000000 	nop
    62d0:	00000000 	nop
    62d4:	00000000 	nop
    62d8:	00000000 	nop
    62dc:	00000000 	nop
    62e0:	00000000 	nop
    62e4:	00000000 	nop
    62e8:	00000000 	nop
    62ec:	00000000 	nop
    62f0:	00000000 	nop
    62f4:	00000000 	nop
    62f8:	00000000 	nop
    62fc:	00000000 	nop
    6300:	00000000 	nop
    6304:	00000000 	nop
    6308:	00000000 	nop
    630c:	00000000 	nop
    6310:	00000000 	nop
    6314:	00000000 	nop
    6318:	00000000 	nop
    631c:	00000000 	nop
    6320:	00000000 	nop
    6324:	00000000 	nop
    6328:	00000000 	nop
    632c:	00000000 	nop
    6330:	00000000 	nop
    6334:	00000000 	nop
    6338:	00000000 	nop
    633c:	00000000 	nop
    6340:	00000000 	nop
    6344:	00000000 	nop
    6348:	00000000 	nop
    634c:	00000000 	nop
    6350:	00000000 	nop
    6354:	00000000 	nop
    6358:	00000000 	nop
    635c:	00000000 	nop
    6360:	00000000 	nop
    6364:	00000000 	nop
    6368:	00000000 	nop
    636c:	00000000 	nop
    6370:	00000000 	nop
    6374:	00000000 	nop
    6378:	00000000 	nop
    637c:	00000000 	nop
    6380:	00000000 	nop
    6384:	00000000 	nop
    6388:	00000000 	nop
    638c:	00000000 	nop
    6390:	00000000 	nop
    6394:	00000000 	nop
    6398:	00000000 	nop
    639c:	00000000 	nop
    63a0:	00000000 	nop
    63a4:	00000000 	nop
    63a8:	00000000 	nop
    63ac:	00000000 	nop
    63b0:	00000000 	nop
    63b4:	00000000 	nop
    63b8:	00000000 	nop
    63bc:	00000000 	nop
    63c0:	00000000 	nop
    63c4:	00000000 	nop
    63c8:	00000000 	nop
    63cc:	00000000 	nop
    63d0:	00000000 	nop
    63d4:	00000000 	nop
    63d8:	00000000 	nop
    63dc:	00000000 	nop
    63e0:	00000000 	nop
    63e4:	00000000 	nop
    63e8:	00000000 	nop
    63ec:	00000000 	nop
    63f0:	00000000 	nop
    63f4:	00000000 	nop
    63f8:	00000000 	nop
    63fc:	00000000 	nop
    6400:	00000000 	nop
    6404:	00000000 	nop
    6408:	00000000 	nop
    640c:	00000000 	nop
    6410:	00000000 	nop
    6414:	00000000 	nop
    6418:	00000000 	nop
    641c:	00000000 	nop
    6420:	00000000 	nop
    6424:	00000000 	nop
    6428:	00000000 	nop
    642c:	00000000 	nop
    6430:	00000000 	nop
    6434:	00000000 	nop
    6438:	00000000 	nop
    643c:	00000000 	nop
    6440:	00000000 	nop
    6444:	00000000 	nop
    6448:	00000000 	nop
    644c:	00000000 	nop
    6450:	00000000 	nop
    6454:	00000000 	nop
    6458:	00000000 	nop
    645c:	00000000 	nop
    6460:	00000000 	nop
    6464:	00000000 	nop
    6468:	00000000 	nop
    646c:	00000000 	nop
    6470:	00000000 	nop
    6474:	00000000 	nop
    6478:	00000000 	nop
    647c:	00000000 	nop
    6480:	00000000 	nop
    6484:	00000000 	nop
    6488:	00000000 	nop
    648c:	00000000 	nop
    6490:	00000000 	nop
    6494:	00000000 	nop
    6498:	00000000 	nop
    649c:	00000000 	nop
    64a0:	00000000 	nop
    64a4:	00000000 	nop
    64a8:	00000000 	nop
    64ac:	00000000 	nop
    64b0:	00000000 	nop
    64b4:	00000000 	nop
    64b8:	00000000 	nop
    64bc:	00000000 	nop
    64c0:	00000000 	nop
    64c4:	00000000 	nop
    64c8:	00000000 	nop
    64cc:	00000000 	nop
    64d0:	00000000 	nop
    64d4:	00000000 	nop
    64d8:	00000000 	nop
    64dc:	00000000 	nop
    64e0:	00000000 	nop
    64e4:	00000000 	nop
    64e8:	00000000 	nop
    64ec:	00000000 	nop
    64f0:	00000000 	nop
    64f4:	00000000 	nop
    64f8:	00000000 	nop
    64fc:	00000000 	nop
    6500:	00000000 	nop
    6504:	00000000 	nop
    6508:	00000000 	nop
    650c:	00000000 	nop
    6510:	00000000 	nop
    6514:	00000000 	nop
    6518:	00000000 	nop
    651c:	00000000 	nop
    6520:	00000000 	nop
    6524:	00000000 	nop
    6528:	00000000 	nop
    652c:	00000000 	nop
    6530:	00000000 	nop
    6534:	00000000 	nop
    6538:	00000000 	nop
    653c:	00000000 	nop
    6540:	00000000 	nop
    6544:	00000000 	nop
    6548:	00000000 	nop
    654c:	00000000 	nop
    6550:	00000000 	nop
    6554:	00000000 	nop
    6558:	00000000 	nop
    655c:	00000000 	nop
    6560:	00000000 	nop
    6564:	00000000 	nop
    6568:	00000000 	nop
    656c:	00000000 	nop
    6570:	00000000 	nop
    6574:	00000000 	nop
    6578:	00000000 	nop
    657c:	00000000 	nop
    6580:	00000000 	nop
    6584:	00000000 	nop
    6588:	00000000 	nop
    658c:	00000000 	nop
    6590:	00000000 	nop
    6594:	00000000 	nop
    6598:	00000000 	nop
    659c:	00000000 	nop
    65a0:	00000000 	nop
    65a4:	00000000 	nop
    65a8:	00000000 	nop
    65ac:	00000000 	nop
    65b0:	00000000 	nop
    65b4:	00000000 	nop
    65b8:	00000000 	nop
    65bc:	00000000 	nop
    65c0:	00000000 	nop
    65c4:	00000000 	nop
    65c8:	00000000 	nop
    65cc:	00000000 	nop
    65d0:	00000000 	nop
    65d4:	00000000 	nop
    65d8:	00000000 	nop
    65dc:	00000000 	nop
    65e0:	00000000 	nop
    65e4:	00000000 	nop
    65e8:	00000000 	nop
    65ec:	00000000 	nop
    65f0:	00000000 	nop
    65f4:	00000000 	nop
    65f8:	00000000 	nop
    65fc:	00000000 	nop
    6600:	00000000 	nop
    6604:	00000000 	nop
    6608:	00000000 	nop
    660c:	00000000 	nop
    6610:	00000000 	nop
    6614:	00000000 	nop
    6618:	00000000 	nop
    661c:	00000000 	nop
    6620:	00000000 	nop
    6624:	00000000 	nop
    6628:	00000000 	nop
    662c:	00000000 	nop
    6630:	00000000 	nop
    6634:	00000000 	nop
    6638:	00000000 	nop
    663c:	00000000 	nop
    6640:	00000000 	nop
    6644:	00000000 	nop
    6648:	00000000 	nop
    664c:	00000000 	nop
    6650:	00000000 	nop
    6654:	00000000 	nop
    6658:	00000000 	nop
    665c:	00000000 	nop
    6660:	00000000 	nop
    6664:	00000000 	nop
    6668:	00000000 	nop
    666c:	00000000 	nop
    6670:	00000000 	nop
    6674:	00000000 	nop
    6678:	00000000 	nop
    667c:	00000000 	nop
    6680:	00000000 	nop
    6684:	00000000 	nop
    6688:	00000000 	nop
    668c:	00000000 	nop
    6690:	00000000 	nop
    6694:	00000000 	nop
    6698:	00000000 	nop
    669c:	00000000 	nop
    66a0:	00000000 	nop
    66a4:	00000000 	nop
    66a8:	00000000 	nop
    66ac:	00000000 	nop
    66b0:	00000000 	nop
    66b4:	00000000 	nop
    66b8:	00000000 	nop
    66bc:	00000000 	nop
    66c0:	00000000 	nop
    66c4:	00000000 	nop
    66c8:	00000000 	nop
    66cc:	00000000 	nop
    66d0:	00000000 	nop
    66d4:	00000000 	nop
    66d8:	00000000 	nop
    66dc:	00000000 	nop
    66e0:	00000000 	nop
    66e4:	00000000 	nop
    66e8:	00000000 	nop
    66ec:	00000000 	nop
    66f0:	00000000 	nop
    66f4:	00000000 	nop
    66f8:	00000000 	nop
    66fc:	00000000 	nop
    6700:	00000000 	nop
    6704:	00000000 	nop
    6708:	00000000 	nop
    670c:	00000000 	nop
    6710:	00000000 	nop
    6714:	00000000 	nop
    6718:	00000000 	nop
    671c:	00000000 	nop
    6720:	00000000 	nop
    6724:	00000000 	nop
    6728:	00000000 	nop
    672c:	00000000 	nop
    6730:	00000000 	nop
    6734:	00000000 	nop
    6738:	00000000 	nop
    673c:	00000000 	nop
    6740:	00000000 	nop
    6744:	00000000 	nop
    6748:	00000000 	nop
    674c:	00000000 	nop
    6750:	00000000 	nop
    6754:	00000000 	nop
    6758:	00000000 	nop
    675c:	00000000 	nop
    6760:	00000000 	nop
    6764:	00000000 	nop
    6768:	00000000 	nop
    676c:	00000000 	nop
    6770:	00000000 	nop
    6774:	00000000 	nop
    6778:	00000000 	nop
    677c:	00000000 	nop
    6780:	00000000 	nop
    6784:	00000000 	nop
    6788:	00000000 	nop
    678c:	00000000 	nop
    6790:	00000000 	nop
    6794:	00000000 	nop
    6798:	00000000 	nop
    679c:	00000000 	nop
    67a0:	00000000 	nop
    67a4:	00000000 	nop
    67a8:	00000000 	nop
    67ac:	00000000 	nop
    67b0:	00000000 	nop
    67b4:	00000000 	nop
    67b8:	00000000 	nop
    67bc:	00000000 	nop
    67c0:	00000000 	nop
    67c4:	00000000 	nop
    67c8:	00000000 	nop
    67cc:	00000000 	nop
    67d0:	00000000 	nop
    67d4:	00000000 	nop
    67d8:	00000000 	nop
    67dc:	00000000 	nop
    67e0:	00000000 	nop
    67e4:	00000000 	nop
    67e8:	00000000 	nop
    67ec:	00000000 	nop
    67f0:	00000000 	nop
    67f4:	00000000 	nop
    67f8:	00000000 	nop
    67fc:	00000000 	nop
    6800:	00000000 	nop
    6804:	00000000 	nop
    6808:	00000000 	nop
    680c:	00000000 	nop
    6810:	00000000 	nop
    6814:	00000000 	nop
    6818:	00000000 	nop
    681c:	00000000 	nop
    6820:	00000000 	nop
    6824:	00000000 	nop
    6828:	00000000 	nop
    682c:	00000000 	nop
    6830:	00000000 	nop
    6834:	00000000 	nop
    6838:	00000000 	nop
    683c:	00000000 	nop
    6840:	00000000 	nop
    6844:	00000000 	nop
    6848:	00000000 	nop
    684c:	00000000 	nop
    6850:	00000000 	nop
    6854:	00000000 	nop
    6858:	00000000 	nop
    685c:	00000000 	nop
    6860:	00000000 	nop
    6864:	00000000 	nop
    6868:	00000000 	nop
    686c:	00000000 	nop
    6870:	00000000 	nop
    6874:	00000000 	nop
    6878:	00000000 	nop
    687c:	00000000 	nop
    6880:	00000000 	nop
    6884:	00000000 	nop
    6888:	00000000 	nop
    688c:	00000000 	nop
    6890:	00000000 	nop
    6894:	00000000 	nop
    6898:	00000000 	nop
    689c:	00000000 	nop
    68a0:	00000000 	nop
    68a4:	00000000 	nop
    68a8:	00000000 	nop
    68ac:	00000000 	nop
    68b0:	00000000 	nop
    68b4:	00000000 	nop
    68b8:	00000000 	nop
    68bc:	00000000 	nop
    68c0:	00000000 	nop
    68c4:	00000000 	nop
    68c8:	00000000 	nop
    68cc:	00000000 	nop
    68d0:	00000000 	nop
    68d4:	00000000 	nop
    68d8:	00000000 	nop
    68dc:	00000000 	nop
    68e0:	00000000 	nop
    68e4:	00000000 	nop
    68e8:	00000000 	nop
    68ec:	00000000 	nop
    68f0:	00000000 	nop
    68f4:	00000000 	nop
    68f8:	00000000 	nop
    68fc:	00000000 	nop
    6900:	00000000 	nop
    6904:	00000000 	nop
    6908:	00000000 	nop
    690c:	00000000 	nop
    6910:	00000000 	nop
    6914:	00000000 	nop
    6918:	00000000 	nop
    691c:	00000000 	nop
    6920:	00000000 	nop
    6924:	00000000 	nop
    6928:	00000000 	nop
    692c:	00000000 	nop
    6930:	00000000 	nop
    6934:	00000000 	nop
    6938:	00000000 	nop
    693c:	00000000 	nop
    6940:	00000000 	nop
    6944:	00000000 	nop
    6948:	00000000 	nop
    694c:	00000000 	nop
    6950:	00000000 	nop
    6954:	00000000 	nop
    6958:	00000000 	nop
    695c:	00000000 	nop
    6960:	00000000 	nop
    6964:	00000000 	nop
    6968:	00000000 	nop
    696c:	00000000 	nop
    6970:	00000000 	nop
    6974:	00000000 	nop
    6978:	00000000 	nop
    697c:	00000000 	nop
    6980:	00000000 	nop
    6984:	00000000 	nop
    6988:	00000000 	nop
    698c:	00000000 	nop
    6990:	00000000 	nop
    6994:	00000000 	nop
    6998:	00000000 	nop
    699c:	00000000 	nop
    69a0:	00000000 	nop
    69a4:	00000000 	nop
    69a8:	00000000 	nop
    69ac:	00000000 	nop
    69b0:	00000000 	nop
    69b4:	00000000 	nop
    69b8:	00000000 	nop
    69bc:	00000000 	nop
    69c0:	00000000 	nop
    69c4:	00000000 	nop
    69c8:	00000000 	nop
    69cc:	00000000 	nop
    69d0:	00000000 	nop
    69d4:	00000000 	nop
    69d8:	00000000 	nop
    69dc:	00000000 	nop
    69e0:	00000000 	nop
    69e4:	00000000 	nop
    69e8:	00000000 	nop
    69ec:	00000000 	nop
    69f0:	00000000 	nop
    69f4:	00000000 	nop
    69f8:	00000000 	nop
    69fc:	00000000 	nop
    6a00:	00000000 	nop
    6a04:	00000000 	nop
    6a08:	00000000 	nop
    6a0c:	00000000 	nop
    6a10:	00000000 	nop
    6a14:	00000000 	nop
    6a18:	00000000 	nop
    6a1c:	00000000 	nop
    6a20:	00000000 	nop
    6a24:	00000000 	nop
    6a28:	00000000 	nop
    6a2c:	00000000 	nop
    6a30:	00000000 	nop
    6a34:	00000000 	nop
    6a38:	00000000 	nop
    6a3c:	00000000 	nop
    6a40:	00000000 	nop
    6a44:	00000000 	nop
    6a48:	00000000 	nop
    6a4c:	00000000 	nop
    6a50:	00000000 	nop
    6a54:	00000000 	nop
    6a58:	00000000 	nop
    6a5c:	00000000 	nop
    6a60:	00000000 	nop
    6a64:	00000000 	nop
    6a68:	00000000 	nop
    6a6c:	00000000 	nop
    6a70:	00000000 	nop
    6a74:	00000000 	nop
    6a78:	00000000 	nop
    6a7c:	00000000 	nop
    6a80:	00000000 	nop
    6a84:	00000000 	nop
    6a88:	00000000 	nop
    6a8c:	00000000 	nop
    6a90:	00000000 	nop
    6a94:	00000000 	nop
    6a98:	00000000 	nop
    6a9c:	00000000 	nop
    6aa0:	00000000 	nop
    6aa4:	00000000 	nop
    6aa8:	00000000 	nop
    6aac:	00000000 	nop
    6ab0:	00000000 	nop
    6ab4:	00000000 	nop
    6ab8:	00000000 	nop
    6abc:	00000000 	nop
    6ac0:	00000000 	nop
    6ac4:	00000000 	nop
    6ac8:	00000000 	nop
    6acc:	00000000 	nop
    6ad0:	00000000 	nop
    6ad4:	00000000 	nop
    6ad8:	00000000 	nop
    6adc:	00000000 	nop
    6ae0:	00000000 	nop
    6ae4:	00000000 	nop
    6ae8:	00000000 	nop
    6aec:	00000000 	nop
    6af0:	00000000 	nop
    6af4:	00000000 	nop
    6af8:	00000000 	nop
    6afc:	00000000 	nop
    6b00:	00000000 	nop
    6b04:	00000000 	nop
    6b08:	00000000 	nop
    6b0c:	00000000 	nop
    6b10:	00000000 	nop
    6b14:	00000000 	nop
    6b18:	00000000 	nop
    6b1c:	00000000 	nop
    6b20:	00000000 	nop
    6b24:	00000000 	nop
    6b28:	00000000 	nop
    6b2c:	00000000 	nop
    6b30:	00000000 	nop
    6b34:	00000000 	nop
    6b38:	00000000 	nop
    6b3c:	00000000 	nop
    6b40:	00000000 	nop
    6b44:	00000000 	nop
    6b48:	00000000 	nop
    6b4c:	00000000 	nop
    6b50:	00000000 	nop
    6b54:	00000000 	nop
    6b58:	00000000 	nop
    6b5c:	00000000 	nop
    6b60:	00000000 	nop
    6b64:	00000000 	nop
    6b68:	00000000 	nop
    6b6c:	00000000 	nop
    6b70:	00000000 	nop
    6b74:	00000000 	nop
    6b78:	00000000 	nop
    6b7c:	00000000 	nop
    6b80:	00000000 	nop
    6b84:	00000000 	nop
    6b88:	00000000 	nop
    6b8c:	00000000 	nop
    6b90:	00000000 	nop
    6b94:	00000000 	nop
    6b98:	00000000 	nop
    6b9c:	00000000 	nop
    6ba0:	00000000 	nop
    6ba4:	00000000 	nop
    6ba8:	00000000 	nop
    6bac:	00000000 	nop
    6bb0:	00000000 	nop
    6bb4:	00000000 	nop
    6bb8:	00000000 	nop
    6bbc:	00000000 	nop
    6bc0:	00000000 	nop
    6bc4:	00000000 	nop
    6bc8:	00000000 	nop
    6bcc:	00000000 	nop
    6bd0:	00000000 	nop
    6bd4:	00000000 	nop
    6bd8:	00000000 	nop
    6bdc:	00000000 	nop
    6be0:	00000000 	nop
    6be4:	00000000 	nop
    6be8:	00000000 	nop
    6bec:	00000000 	nop
    6bf0:	00000000 	nop
    6bf4:	00000000 	nop
    6bf8:	00000000 	nop
    6bfc:	00000000 	nop
    6c00:	00000000 	nop
    6c04:	00000000 	nop
    6c08:	00000000 	nop
    6c0c:	00000000 	nop
    6c10:	00000000 	nop
    6c14:	00000000 	nop
    6c18:	00000000 	nop
    6c1c:	00000000 	nop
    6c20:	00000000 	nop
    6c24:	00000000 	nop
    6c28:	00000000 	nop
    6c2c:	00000000 	nop
    6c30:	00000000 	nop
    6c34:	00000000 	nop
    6c38:	00000000 	nop
    6c3c:	00000000 	nop
    6c40:	00000000 	nop
    6c44:	00000000 	nop
    6c48:	00000000 	nop
    6c4c:	00000000 	nop
    6c50:	00000000 	nop
    6c54:	00000000 	nop
    6c58:	00000000 	nop
    6c5c:	00000000 	nop
    6c60:	00000000 	nop
    6c64:	00000000 	nop
    6c68:	00000000 	nop
    6c6c:	00000000 	nop
    6c70:	00000000 	nop
    6c74:	00000000 	nop
    6c78:	00000000 	nop
    6c7c:	00000000 	nop
    6c80:	00000000 	nop
    6c84:	00000000 	nop
    6c88:	00000000 	nop
    6c8c:	00000000 	nop
    6c90:	00000000 	nop
    6c94:	00000000 	nop
    6c98:	00000000 	nop
    6c9c:	00000000 	nop
    6ca0:	00000000 	nop
    6ca4:	00000000 	nop
    6ca8:	00000000 	nop
    6cac:	00000000 	nop
    6cb0:	00000000 	nop
    6cb4:	00000000 	nop
    6cb8:	00000000 	nop
    6cbc:	00000000 	nop
    6cc0:	00000000 	nop
    6cc4:	00000000 	nop
    6cc8:	00000000 	nop
    6ccc:	00000000 	nop
    6cd0:	00000000 	nop
    6cd4:	00000000 	nop
    6cd8:	00000000 	nop
    6cdc:	00000000 	nop
    6ce0:	00000000 	nop
    6ce4:	00000000 	nop
    6ce8:	00000000 	nop
    6cec:	00000000 	nop
    6cf0:	00000000 	nop
    6cf4:	00000000 	nop
    6cf8:	00000000 	nop
    6cfc:	00000000 	nop
    6d00:	00000000 	nop
    6d04:	00000000 	nop
    6d08:	00000000 	nop
    6d0c:	00000000 	nop
    6d10:	00000000 	nop
    6d14:	00000000 	nop
    6d18:	00000000 	nop
    6d1c:	00000000 	nop
    6d20:	00000000 	nop
    6d24:	00000000 	nop
    6d28:	00000000 	nop
    6d2c:	00000000 	nop
    6d30:	00000000 	nop
    6d34:	00000000 	nop
    6d38:	00000000 	nop
    6d3c:	00000000 	nop
    6d40:	00000000 	nop
    6d44:	00000000 	nop
    6d48:	00000000 	nop
    6d4c:	00000000 	nop
    6d50:	00000000 	nop
    6d54:	00000000 	nop
    6d58:	00000000 	nop
    6d5c:	00000000 	nop
    6d60:	00000000 	nop
    6d64:	00000000 	nop
    6d68:	00000000 	nop
    6d6c:	00000000 	nop
    6d70:	00000000 	nop
    6d74:	00000000 	nop
    6d78:	00000000 	nop
    6d7c:	00000000 	nop
    6d80:	00000000 	nop
    6d84:	00000000 	nop
    6d88:	00000000 	nop
    6d8c:	00000000 	nop
    6d90:	00000000 	nop
    6d94:	00000000 	nop
    6d98:	00000000 	nop
    6d9c:	00000000 	nop
    6da0:	00000000 	nop
    6da4:	00000000 	nop
    6da8:	00000000 	nop
    6dac:	00000000 	nop
    6db0:	00000000 	nop
    6db4:	00000000 	nop
    6db8:	00000000 	nop
    6dbc:	00000000 	nop
    6dc0:	00000000 	nop
    6dc4:	00000000 	nop
    6dc8:	00000000 	nop
    6dcc:	00000000 	nop
    6dd0:	00000000 	nop
    6dd4:	00000000 	nop
    6dd8:	00000000 	nop
    6ddc:	00000000 	nop
    6de0:	00000000 	nop
    6de4:	00000000 	nop
    6de8:	00000000 	nop
    6dec:	00000000 	nop
    6df0:	00000000 	nop
    6df4:	00000000 	nop
    6df8:	00000000 	nop
    6dfc:	00000000 	nop
    6e00:	00000000 	nop
    6e04:	00000000 	nop
    6e08:	00000000 	nop
    6e0c:	00000000 	nop
    6e10:	00000000 	nop
    6e14:	00000000 	nop
    6e18:	00000000 	nop
    6e1c:	00000000 	nop
    6e20:	00000000 	nop
    6e24:	00000000 	nop
    6e28:	00000000 	nop
    6e2c:	00000000 	nop
    6e30:	00000000 	nop
    6e34:	00000000 	nop
    6e38:	00000000 	nop
    6e3c:	00000000 	nop
    6e40:	00000000 	nop
    6e44:	00000000 	nop
    6e48:	00000000 	nop
    6e4c:	00000000 	nop
    6e50:	00000000 	nop
    6e54:	00000000 	nop
    6e58:	00000000 	nop
    6e5c:	00000000 	nop
    6e60:	00000000 	nop
    6e64:	00000000 	nop
    6e68:	00000000 	nop
    6e6c:	00000000 	nop
    6e70:	00000000 	nop
    6e74:	00000000 	nop
    6e78:	00000000 	nop
    6e7c:	00000000 	nop
    6e80:	00000000 	nop
    6e84:	00000000 	nop
    6e88:	00000000 	nop
    6e8c:	00000000 	nop
    6e90:	00000000 	nop
    6e94:	00000000 	nop
    6e98:	00000000 	nop
    6e9c:	00000000 	nop
    6ea0:	00000000 	nop
    6ea4:	00000000 	nop
    6ea8:	00000000 	nop
    6eac:	00000000 	nop
    6eb0:	00000000 	nop
    6eb4:	00000000 	nop
    6eb8:	00000000 	nop
    6ebc:	00000000 	nop
    6ec0:	00000000 	nop
    6ec4:	00000000 	nop
    6ec8:	00000000 	nop
    6ecc:	00000000 	nop
    6ed0:	00000000 	nop
    6ed4:	00000000 	nop
    6ed8:	00000000 	nop
    6edc:	00000000 	nop
    6ee0:	00000000 	nop
    6ee4:	00000000 	nop
    6ee8:	00000000 	nop
    6eec:	00000000 	nop
    6ef0:	00000000 	nop
    6ef4:	00000000 	nop
    6ef8:	00000000 	nop
    6efc:	00000000 	nop
    6f00:	00000000 	nop
    6f04:	00000000 	nop
    6f08:	00000000 	nop
    6f0c:	00000000 	nop
    6f10:	00000000 	nop
    6f14:	00000000 	nop
    6f18:	00000000 	nop
    6f1c:	00000000 	nop
    6f20:	00000000 	nop
    6f24:	00000000 	nop
    6f28:	00000000 	nop
    6f2c:	00000000 	nop
    6f30:	00000000 	nop
    6f34:	00000000 	nop
    6f38:	00000000 	nop
    6f3c:	00000000 	nop
    6f40:	00000000 	nop
    6f44:	00000000 	nop
    6f48:	00000000 	nop
    6f4c:	00000000 	nop
    6f50:	00000000 	nop
    6f54:	00000000 	nop
    6f58:	00000000 	nop
    6f5c:	00000000 	nop
    6f60:	00000000 	nop
    6f64:	00000000 	nop
    6f68:	00000000 	nop
    6f6c:	00000000 	nop
    6f70:	00000000 	nop
    6f74:	00000000 	nop
    6f78:	00000000 	nop
    6f7c:	00000000 	nop
    6f80:	00000000 	nop
    6f84:	00000000 	nop
    6f88:	00000000 	nop
    6f8c:	00000000 	nop
    6f90:	00000000 	nop
    6f94:	00000000 	nop
    6f98:	00000000 	nop
    6f9c:	00000000 	nop
    6fa0:	00000000 	nop
    6fa4:	00000000 	nop
    6fa8:	00000000 	nop
    6fac:	00000000 	nop
    6fb0:	00000000 	nop
    6fb4:	00000000 	nop
    6fb8:	00000000 	nop
    6fbc:	00000000 	nop
    6fc0:	00000000 	nop
    6fc4:	00000000 	nop
    6fc8:	00000000 	nop
    6fcc:	00000000 	nop
    6fd0:	00000000 	nop
    6fd4:	00000000 	nop
    6fd8:	00000000 	nop
    6fdc:	00000000 	nop
    6fe0:	00000000 	nop
    6fe4:	00000000 	nop
    6fe8:	00000000 	nop
    6fec:	00000000 	nop
    6ff0:	00000000 	nop
    6ff4:	00000000 	nop
    6ff8:	00000000 	nop
    6ffc:	00000000 	nop
    7000:	00000000 	nop
    7004:	00000000 	nop
    7008:	00000000 	nop
    700c:	00000000 	nop
    7010:	00000000 	nop
    7014:	00000000 	nop
    7018:	00000000 	nop
    701c:	00000000 	nop
    7020:	00000000 	nop
    7024:	00000000 	nop
    7028:	00000000 	nop
    702c:	00000000 	nop
    7030:	00000000 	nop
    7034:	00000000 	nop
    7038:	00000000 	nop
    703c:	00000000 	nop
    7040:	00000000 	nop
    7044:	00000000 	nop
    7048:	00000000 	nop
    704c:	00000000 	nop
    7050:	00000000 	nop
    7054:	00000000 	nop
    7058:	00000000 	nop
    705c:	00000000 	nop
    7060:	00000000 	nop
    7064:	00000000 	nop
    7068:	00000000 	nop
    706c:	00000000 	nop
    7070:	00000000 	nop
    7074:	00000000 	nop
    7078:	00000000 	nop
    707c:	00000000 	nop
    7080:	00000000 	nop
    7084:	00000000 	nop
    7088:	00000000 	nop
    708c:	00000000 	nop
    7090:	00000000 	nop
    7094:	00000000 	nop
    7098:	00000000 	nop
    709c:	00000000 	nop
    70a0:	00000000 	nop
    70a4:	00000000 	nop
    70a8:	00000000 	nop
    70ac:	00000000 	nop
    70b0:	00000000 	nop
    70b4:	00000000 	nop
    70b8:	00000000 	nop
    70bc:	00000000 	nop
    70c0:	00000000 	nop
    70c4:	00000000 	nop
    70c8:	00000000 	nop
    70cc:	00000000 	nop
    70d0:	00000000 	nop
    70d4:	00000000 	nop
    70d8:	00000000 	nop
    70dc:	00000000 	nop
    70e0:	00000000 	nop
    70e4:	00000000 	nop
    70e8:	00000000 	nop
    70ec:	00000000 	nop
    70f0:	00000000 	nop
    70f4:	00000000 	nop
    70f8:	00000000 	nop
    70fc:	00000000 	nop
    7100:	00000000 	nop
    7104:	00000000 	nop
    7108:	00000000 	nop
    710c:	00000000 	nop
    7110:	00000000 	nop
    7114:	00000000 	nop
    7118:	00000000 	nop
    711c:	00000000 	nop
    7120:	00000000 	nop
    7124:	00000000 	nop
    7128:	00000000 	nop
    712c:	00000000 	nop
    7130:	00000000 	nop
    7134:	00000000 	nop
    7138:	00000000 	nop
    713c:	00000000 	nop
    7140:	00000000 	nop
    7144:	00000000 	nop
    7148:	00000000 	nop
    714c:	00000000 	nop
    7150:	00000000 	nop
    7154:	00000000 	nop
    7158:	00000000 	nop
    715c:	00000000 	nop
    7160:	00000000 	nop
    7164:	00000000 	nop
    7168:	00000000 	nop
    716c:	00000000 	nop
    7170:	00000000 	nop
    7174:	00000000 	nop
    7178:	00000000 	nop
    717c:	00000000 	nop
    7180:	00000000 	nop
    7184:	00000000 	nop
    7188:	00000000 	nop
    718c:	00000000 	nop
    7190:	00000000 	nop
    7194:	00000000 	nop
    7198:	00000000 	nop
    719c:	00000000 	nop
    71a0:	00000000 	nop
    71a4:	00000000 	nop
    71a8:	00000000 	nop
    71ac:	00000000 	nop
    71b0:	00000000 	nop
    71b4:	00000000 	nop
    71b8:	00000000 	nop
    71bc:	00000000 	nop
    71c0:	00000000 	nop
    71c4:	00000000 	nop
    71c8:	00000000 	nop
    71cc:	00000000 	nop
    71d0:	00000000 	nop
    71d4:	00000000 	nop
    71d8:	00000000 	nop
    71dc:	00000000 	nop
    71e0:	00000000 	nop
    71e4:	00000000 	nop
    71e8:	00000000 	nop
    71ec:	00000000 	nop
    71f0:	00000000 	nop
    71f4:	00000000 	nop
    71f8:	00000000 	nop
    71fc:	00000000 	nop
    7200:	00000000 	nop
    7204:	00000000 	nop
    7208:	00000000 	nop
    720c:	00000000 	nop
    7210:	00000000 	nop
    7214:	00000000 	nop
    7218:	00000000 	nop
    721c:	00000000 	nop
    7220:	00000000 	nop
    7224:	00000000 	nop
    7228:	00000000 	nop
    722c:	00000000 	nop
    7230:	00000000 	nop
    7234:	00000000 	nop
    7238:	00000000 	nop
    723c:	00000000 	nop
    7240:	00000000 	nop
    7244:	00000000 	nop
    7248:	00000000 	nop
    724c:	00000000 	nop
    7250:	00000000 	nop
    7254:	00000000 	nop
    7258:	00000000 	nop
    725c:	00000000 	nop
    7260:	00000000 	nop
    7264:	00000000 	nop
    7268:	00000000 	nop
    726c:	00000000 	nop
    7270:	00000000 	nop
    7274:	00000000 	nop
    7278:	00000000 	nop
    727c:	00000000 	nop
    7280:	00000000 	nop
    7284:	00000000 	nop
    7288:	00000000 	nop
    728c:	00000000 	nop
    7290:	00000000 	nop
    7294:	00000000 	nop
    7298:	00000000 	nop
    729c:	00000000 	nop
    72a0:	00000000 	nop
    72a4:	00000000 	nop
    72a8:	00000000 	nop
    72ac:	00000000 	nop
    72b0:	00000000 	nop
    72b4:	00000000 	nop
    72b8:	00000000 	nop
    72bc:	00000000 	nop
    72c0:	00000000 	nop
    72c4:	00000000 	nop
    72c8:	00000000 	nop
    72cc:	00000000 	nop
    72d0:	00000000 	nop
    72d4:	00000000 	nop
    72d8:	00000000 	nop
    72dc:	00000000 	nop
    72e0:	00000000 	nop
    72e4:	00000000 	nop
    72e8:	00000000 	nop
    72ec:	00000000 	nop
    72f0:	00000000 	nop
    72f4:	00000000 	nop
    72f8:	00000000 	nop
    72fc:	00000000 	nop
    7300:	00000000 	nop
    7304:	00000000 	nop
    7308:	00000000 	nop
    730c:	00000000 	nop
    7310:	00000000 	nop
    7314:	00000000 	nop
    7318:	00000000 	nop
    731c:	00000000 	nop
    7320:	00000000 	nop
    7324:	00000000 	nop
    7328:	00000000 	nop
    732c:	00000000 	nop
    7330:	00000000 	nop
    7334:	00000000 	nop
    7338:	00000000 	nop
    733c:	00000000 	nop
    7340:	00000000 	nop
    7344:	00000000 	nop
    7348:	00000000 	nop
    734c:	00000000 	nop
    7350:	00000000 	nop
    7354:	00000000 	nop
    7358:	00000000 	nop
    735c:	00000000 	nop
    7360:	00000000 	nop
    7364:	00000000 	nop
    7368:	00000000 	nop
    736c:	00000000 	nop
    7370:	00000000 	nop
    7374:	00000000 	nop
    7378:	00000000 	nop
    737c:	00000000 	nop
    7380:	00000000 	nop
    7384:	00000000 	nop
    7388:	00000000 	nop
    738c:	00000000 	nop
    7390:	00000000 	nop
    7394:	00000000 	nop
    7398:	00000000 	nop
    739c:	00000000 	nop
    73a0:	00000000 	nop
    73a4:	00000000 	nop
    73a8:	00000000 	nop
    73ac:	00000000 	nop
    73b0:	00000000 	nop
    73b4:	00000000 	nop
    73b8:	00000000 	nop
    73bc:	00000000 	nop
    73c0:	00000000 	nop
    73c4:	00000000 	nop
    73c8:	00000000 	nop
    73cc:	00000000 	nop
    73d0:	00000000 	nop
    73d4:	00000000 	nop
    73d8:	00000000 	nop
    73dc:	00000000 	nop
    73e0:	00000000 	nop
    73e4:	00000000 	nop
    73e8:	00000000 	nop
    73ec:	00000000 	nop
    73f0:	00000000 	nop
    73f4:	00000000 	nop
    73f8:	00000000 	nop
    73fc:	00000000 	nop
    7400:	00000000 	nop
    7404:	00000000 	nop
    7408:	00000000 	nop
    740c:	00000000 	nop
    7410:	00000000 	nop
    7414:	00000000 	nop
    7418:	00000000 	nop
    741c:	00000000 	nop
    7420:	00000000 	nop
    7424:	00000000 	nop
    7428:	00000000 	nop
    742c:	00000000 	nop
    7430:	00000000 	nop
    7434:	00000000 	nop
    7438:	00000000 	nop
    743c:	00000000 	nop
    7440:	00000000 	nop
    7444:	00000000 	nop
    7448:	00000000 	nop
    744c:	00000000 	nop
    7450:	00000000 	nop
    7454:	00000000 	nop
    7458:	00000000 	nop
    745c:	00000000 	nop
    7460:	00000000 	nop
    7464:	00000000 	nop
    7468:	00000000 	nop
    746c:	00000000 	nop
    7470:	00000000 	nop
    7474:	00000000 	nop
    7478:	00000000 	nop
    747c:	00000000 	nop
    7480:	00000000 	nop
    7484:	00000000 	nop
    7488:	00000000 	nop
    748c:	00000000 	nop
    7490:	00000000 	nop
    7494:	00000000 	nop
    7498:	00000000 	nop
    749c:	00000000 	nop
    74a0:	00000000 	nop
    74a4:	00000000 	nop
    74a8:	00000000 	nop
    74ac:	00000000 	nop
    74b0:	00000000 	nop
    74b4:	00000000 	nop
    74b8:	00000000 	nop
    74bc:	00000000 	nop
    74c0:	00000000 	nop
    74c4:	00000000 	nop
    74c8:	00000000 	nop
    74cc:	00000000 	nop
    74d0:	00000000 	nop
    74d4:	00000000 	nop
    74d8:	00000000 	nop
    74dc:	00000000 	nop
    74e0:	00000000 	nop
    74e4:	00000000 	nop
    74e8:	00000000 	nop
    74ec:	00000000 	nop
    74f0:	00000000 	nop
    74f4:	00000000 	nop
    74f8:	00000000 	nop
    74fc:	00000000 	nop
    7500:	00000000 	nop
    7504:	00000000 	nop
    7508:	00000000 	nop
    750c:	00000000 	nop
    7510:	00000000 	nop
    7514:	00000000 	nop
    7518:	00000000 	nop
    751c:	00000000 	nop
    7520:	00000000 	nop
    7524:	00000000 	nop
    7528:	00000000 	nop
    752c:	00000000 	nop
    7530:	00000000 	nop
    7534:	00000000 	nop
    7538:	00000000 	nop
    753c:	00000000 	nop
    7540:	00000000 	nop
    7544:	00000000 	nop
    7548:	00000000 	nop
    754c:	00000000 	nop
    7550:	00000000 	nop
    7554:	00000000 	nop
    7558:	00000000 	nop
    755c:	00000000 	nop
    7560:	00000000 	nop
    7564:	00000000 	nop
    7568:	00000000 	nop
    756c:	00000000 	nop
    7570:	00000000 	nop
    7574:	00000000 	nop
    7578:	00000000 	nop
    757c:	00000000 	nop
    7580:	00000000 	nop
    7584:	00000000 	nop
    7588:	00000000 	nop
    758c:	00000000 	nop
    7590:	00000000 	nop
    7594:	00000000 	nop
    7598:	00000000 	nop
    759c:	00000000 	nop
    75a0:	00000000 	nop
    75a4:	00000000 	nop
    75a8:	00000000 	nop
    75ac:	00000000 	nop
    75b0:	00000000 	nop
    75b4:	00000000 	nop
    75b8:	00000000 	nop
    75bc:	00000000 	nop
    75c0:	00000000 	nop
    75c4:	00000000 	nop
    75c8:	00000000 	nop
    75cc:	00000000 	nop
    75d0:	00000000 	nop
    75d4:	00000000 	nop
    75d8:	00000000 	nop
    75dc:	00000000 	nop
    75e0:	00000000 	nop
    75e4:	00000000 	nop
    75e8:	00000000 	nop
    75ec:	00000000 	nop
    75f0:	00000000 	nop
    75f4:	00000000 	nop
    75f8:	00000000 	nop
    75fc:	00000000 	nop
    7600:	00000000 	nop
    7604:	00000000 	nop
    7608:	00000000 	nop
    760c:	00000000 	nop
    7610:	00000000 	nop
    7614:	00000000 	nop
    7618:	00000000 	nop
    761c:	00000000 	nop
    7620:	00000000 	nop
    7624:	00000000 	nop
    7628:	00000000 	nop
    762c:	00000000 	nop
    7630:	00000000 	nop
    7634:	00000000 	nop
    7638:	00000000 	nop
    763c:	00000000 	nop
    7640:	00000000 	nop
    7644:	00000000 	nop
    7648:	00000000 	nop
    764c:	00000000 	nop
    7650:	00000000 	nop
    7654:	00000000 	nop
    7658:	00000000 	nop
    765c:	00000000 	nop
    7660:	00000000 	nop
    7664:	00000000 	nop
    7668:	00000000 	nop
    766c:	00000000 	nop
    7670:	00000000 	nop
    7674:	00000000 	nop
    7678:	00000000 	nop
    767c:	00000000 	nop
    7680:	00000000 	nop
    7684:	00000000 	nop
    7688:	00000000 	nop
    768c:	00000000 	nop
    7690:	00000000 	nop
    7694:	00000000 	nop
    7698:	00000000 	nop
    769c:	00000000 	nop
    76a0:	00000000 	nop
    76a4:	00000000 	nop
    76a8:	00000000 	nop
    76ac:	00000000 	nop
    76b0:	00000000 	nop
    76b4:	00000000 	nop
    76b8:	00000000 	nop
    76bc:	00000000 	nop
    76c0:	00000000 	nop
    76c4:	00000000 	nop
    76c8:	00000000 	nop
    76cc:	00000000 	nop
    76d0:	00000000 	nop
    76d4:	00000000 	nop
    76d8:	00000000 	nop
    76dc:	00000000 	nop
    76e0:	00000000 	nop
    76e4:	00000000 	nop
    76e8:	00000000 	nop
    76ec:	00000000 	nop
    76f0:	00000000 	nop
    76f4:	00000000 	nop
    76f8:	00000000 	nop
    76fc:	00000000 	nop
    7700:	00000000 	nop
    7704:	00000000 	nop
    7708:	00000000 	nop
    770c:	00000000 	nop
    7710:	00000000 	nop
    7714:	00000000 	nop
    7718:	00000000 	nop
    771c:	00000000 	nop
    7720:	00000000 	nop
    7724:	00000000 	nop
    7728:	00000000 	nop
    772c:	00000000 	nop
    7730:	00000000 	nop
    7734:	00000000 	nop
    7738:	00000000 	nop
    773c:	00000000 	nop
    7740:	00000000 	nop
    7744:	00000000 	nop
    7748:	00000000 	nop
    774c:	00000000 	nop
    7750:	00000000 	nop
    7754:	00000000 	nop
    7758:	00000000 	nop
    775c:	00000000 	nop
    7760:	00000000 	nop
    7764:	00000000 	nop
    7768:	00000000 	nop
    776c:	00000000 	nop
    7770:	00000000 	nop
    7774:	00000000 	nop
    7778:	00000000 	nop
    777c:	00000000 	nop
    7780:	00000000 	nop
    7784:	00000000 	nop
    7788:	00000000 	nop
    778c:	00000000 	nop
    7790:	00000000 	nop
    7794:	00000000 	nop
    7798:	00000000 	nop
    779c:	00000000 	nop
    77a0:	00000000 	nop
    77a4:	00000000 	nop
    77a8:	00000000 	nop
    77ac:	00000000 	nop
    77b0:	00000000 	nop
    77b4:	00000000 	nop
    77b8:	00000000 	nop
    77bc:	00000000 	nop
    77c0:	00000000 	nop
    77c4:	00000000 	nop
    77c8:	00000000 	nop
    77cc:	00000000 	nop
    77d0:	00000000 	nop
    77d4:	00000000 	nop
    77d8:	00000000 	nop
    77dc:	00000000 	nop
    77e0:	00000000 	nop
    77e4:	00000000 	nop
    77e8:	00000000 	nop
    77ec:	00000000 	nop
    77f0:	00000000 	nop
    77f4:	00000000 	nop
    77f8:	00000000 	nop
    77fc:	00000000 	nop
    7800:	00000000 	nop
    7804:	00000000 	nop
    7808:	00000000 	nop
    780c:	00000000 	nop
    7810:	00000000 	nop
    7814:	00000000 	nop
    7818:	00000000 	nop
    781c:	00000000 	nop
    7820:	00000000 	nop
    7824:	00000000 	nop
    7828:	00000000 	nop
    782c:	00000000 	nop
    7830:	00000000 	nop
    7834:	00000000 	nop
    7838:	00000000 	nop
    783c:	00000000 	nop
    7840:	00000000 	nop
    7844:	00000000 	nop
    7848:	00000000 	nop
    784c:	00000000 	nop
    7850:	00000000 	nop
    7854:	00000000 	nop
    7858:	00000000 	nop
    785c:	00000000 	nop
    7860:	00000000 	nop
    7864:	00000000 	nop
    7868:	00000000 	nop
    786c:	00000000 	nop
    7870:	00000000 	nop
    7874:	00000000 	nop
    7878:	00000000 	nop
    787c:	00000000 	nop
    7880:	00000000 	nop
    7884:	00000000 	nop
    7888:	00000000 	nop
    788c:	00000000 	nop
    7890:	00000000 	nop
    7894:	00000000 	nop
    7898:	00000000 	nop
    789c:	00000000 	nop
    78a0:	00000000 	nop
    78a4:	00000000 	nop
    78a8:	00000000 	nop
    78ac:	00000000 	nop
    78b0:	00000000 	nop
    78b4:	00000000 	nop
    78b8:	00000000 	nop
    78bc:	00000000 	nop
    78c0:	00000000 	nop
    78c4:	00000000 	nop
    78c8:	00000000 	nop
    78cc:	00000000 	nop
    78d0:	00000000 	nop
    78d4:	00000000 	nop
    78d8:	00000000 	nop
    78dc:	00000000 	nop
    78e0:	00000000 	nop
    78e4:	00000000 	nop
    78e8:	00000000 	nop
    78ec:	00000000 	nop
    78f0:	00000000 	nop
    78f4:	00000000 	nop
    78f8:	00000000 	nop
    78fc:	00000000 	nop
    7900:	00000000 	nop
    7904:	00000000 	nop
    7908:	00000000 	nop
    790c:	00000000 	nop
    7910:	00000000 	nop
    7914:	00000000 	nop
    7918:	00000000 	nop
    791c:	00000000 	nop
    7920:	00000000 	nop
    7924:	00000000 	nop
    7928:	00000000 	nop
    792c:	00000000 	nop
    7930:	00000000 	nop
    7934:	00000000 	nop
    7938:	00000000 	nop
    793c:	00000000 	nop
    7940:	00000000 	nop
    7944:	00000000 	nop
    7948:	00000000 	nop
    794c:	00000000 	nop
    7950:	00000000 	nop
    7954:	00000000 	nop
    7958:	00000000 	nop
    795c:	00000000 	nop
    7960:	00000000 	nop
    7964:	00000000 	nop
    7968:	00000000 	nop
    796c:	00000000 	nop
    7970:	00000000 	nop
    7974:	00000000 	nop
    7978:	00000000 	nop
    797c:	00000000 	nop
    7980:	00000000 	nop
    7984:	00000000 	nop
    7988:	00000000 	nop
    798c:	00000000 	nop
    7990:	00000000 	nop
    7994:	00000000 	nop
    7998:	00000000 	nop
    799c:	00000000 	nop
    79a0:	00000000 	nop
    79a4:	00000000 	nop
    79a8:	00000000 	nop
    79ac:	00000000 	nop
    79b0:	00000000 	nop
    79b4:	00000000 	nop
    79b8:	00000000 	nop
    79bc:	00000000 	nop
    79c0:	00000000 	nop
    79c4:	00000000 	nop
    79c8:	00000000 	nop
    79cc:	00000000 	nop
    79d0:	00000000 	nop
    79d4:	00000000 	nop
    79d8:	00000000 	nop
    79dc:	00000000 	nop
    79e0:	00000000 	nop
    79e4:	00000000 	nop
    79e8:	00000000 	nop
    79ec:	00000000 	nop
    79f0:	00000000 	nop
    79f4:	00000000 	nop
    79f8:	00000000 	nop
    79fc:	00000000 	nop
    7a00:	00000000 	nop
    7a04:	00000000 	nop
    7a08:	00000000 	nop
    7a0c:	00000000 	nop
    7a10:	00000000 	nop
    7a14:	00000000 	nop
    7a18:	00000000 	nop
    7a1c:	00000000 	nop
    7a20:	00000000 	nop
    7a24:	00000000 	nop
    7a28:	00000000 	nop
    7a2c:	00000000 	nop
    7a30:	00000000 	nop
    7a34:	00000000 	nop
    7a38:	00000000 	nop
    7a3c:	00000000 	nop
    7a40:	00000000 	nop
    7a44:	00000000 	nop
    7a48:	00000000 	nop
    7a4c:	00000000 	nop
    7a50:	00000000 	nop
    7a54:	00000000 	nop
    7a58:	00000000 	nop
    7a5c:	00000000 	nop
    7a60:	00000000 	nop
    7a64:	00000000 	nop
    7a68:	00000000 	nop
    7a6c:	00000000 	nop
    7a70:	00000000 	nop
    7a74:	00000000 	nop
    7a78:	00000000 	nop
    7a7c:	00000000 	nop
    7a80:	00000000 	nop
    7a84:	00000000 	nop
    7a88:	00000000 	nop
    7a8c:	00000000 	nop
    7a90:	00000000 	nop
    7a94:	00000000 	nop
    7a98:	00000000 	nop
    7a9c:	00000000 	nop
    7aa0:	00000000 	nop
    7aa4:	00000000 	nop
    7aa8:	00000000 	nop
    7aac:	00000000 	nop
    7ab0:	00000000 	nop
    7ab4:	00000000 	nop
    7ab8:	00000000 	nop
    7abc:	00000000 	nop
    7ac0:	00000000 	nop
    7ac4:	00000000 	nop
    7ac8:	00000000 	nop
    7acc:	00000000 	nop
    7ad0:	00000000 	nop
    7ad4:	00000000 	nop
    7ad8:	00000000 	nop
    7adc:	00000000 	nop
    7ae0:	00000000 	nop
    7ae4:	00000000 	nop
    7ae8:	00000000 	nop
    7aec:	00000000 	nop
    7af0:	00000000 	nop
    7af4:	00000000 	nop
    7af8:	00000000 	nop
    7afc:	00000000 	nop
    7b00:	00000000 	nop
    7b04:	00000000 	nop
    7b08:	00000000 	nop
    7b0c:	00000000 	nop
    7b10:	00000000 	nop
    7b14:	00000000 	nop
    7b18:	00000000 	nop
    7b1c:	00000000 	nop
    7b20:	00000000 	nop
    7b24:	00000000 	nop
    7b28:	00000000 	nop
    7b2c:	00000000 	nop
    7b30:	00000000 	nop
    7b34:	00000000 	nop
    7b38:	00000000 	nop
    7b3c:	00000000 	nop
    7b40:	00000000 	nop
    7b44:	00000000 	nop
    7b48:	00000000 	nop
    7b4c:	00000000 	nop
    7b50:	00000000 	nop
    7b54:	00000000 	nop
    7b58:	00000000 	nop
    7b5c:	00000000 	nop
    7b60:	00000000 	nop
    7b64:	00000000 	nop
    7b68:	00000000 	nop
    7b6c:	00000000 	nop
    7b70:	00000000 	nop
    7b74:	00000000 	nop
    7b78:	00000000 	nop
    7b7c:	00000000 	nop
    7b80:	00000000 	nop
    7b84:	00000000 	nop
    7b88:	00000000 	nop
    7b8c:	00000000 	nop
    7b90:	00000000 	nop
    7b94:	00000000 	nop
    7b98:	00000000 	nop
    7b9c:	00000000 	nop
    7ba0:	00000000 	nop
    7ba4:	00000000 	nop
    7ba8:	00000000 	nop
    7bac:	00000000 	nop
    7bb0:	00000000 	nop
    7bb4:	00000000 	nop
    7bb8:	00000000 	nop
    7bbc:	00000000 	nop
    7bc0:	00000000 	nop
    7bc4:	00000000 	nop
    7bc8:	00000000 	nop
    7bcc:	00000000 	nop
    7bd0:	00000000 	nop
    7bd4:	00000000 	nop
    7bd8:	00000000 	nop
    7bdc:	00000000 	nop
    7be0:	00000000 	nop
    7be4:	00000000 	nop
    7be8:	00000000 	nop
    7bec:	00000000 	nop
    7bf0:	00000000 	nop
    7bf4:	00000000 	nop
    7bf8:	00000000 	nop
    7bfc:	00000000 	nop
    7c00:	00000000 	nop
    7c04:	00000000 	nop
    7c08:	00000000 	nop
    7c0c:	00000000 	nop
    7c10:	00000000 	nop
    7c14:	00000000 	nop
    7c18:	00000000 	nop
    7c1c:	00000000 	nop
    7c20:	00000000 	nop
    7c24:	00000000 	nop
    7c28:	00000000 	nop
    7c2c:	00000000 	nop
    7c30:	00000000 	nop
    7c34:	00000000 	nop
    7c38:	00000000 	nop
    7c3c:	00000000 	nop
    7c40:	00000000 	nop
    7c44:	00000000 	nop
    7c48:	00000000 	nop
    7c4c:	00000000 	nop
    7c50:	00000000 	nop
    7c54:	00000000 	nop
    7c58:	00000000 	nop
    7c5c:	00000000 	nop
    7c60:	00000000 	nop
    7c64:	00000000 	nop
    7c68:	00000000 	nop
    7c6c:	00000000 	nop
    7c70:	00000000 	nop
    7c74:	00000000 	nop
    7c78:	00000000 	nop
    7c7c:	00000000 	nop
    7c80:	00000000 	nop
    7c84:	00000000 	nop
    7c88:	00000000 	nop
    7c8c:	00000000 	nop
    7c90:	00000000 	nop
    7c94:	00000000 	nop
    7c98:	00000000 	nop
    7c9c:	00000000 	nop
    7ca0:	00000000 	nop
    7ca4:	00000000 	nop
    7ca8:	00000000 	nop
    7cac:	00000000 	nop
    7cb0:	00000000 	nop
    7cb4:	00000000 	nop
    7cb8:	00000000 	nop
    7cbc:	00000000 	nop
    7cc0:	00000000 	nop
    7cc4:	00000000 	nop
    7cc8:	00000000 	nop
    7ccc:	00000000 	nop
    7cd0:	00000000 	nop
    7cd4:	00000000 	nop
    7cd8:	00000000 	nop
    7cdc:	00000000 	nop
    7ce0:	00000000 	nop
    7ce4:	00000000 	nop
    7ce8:	00000000 	nop
    7cec:	00000000 	nop
    7cf0:	00000000 	nop
    7cf4:	00000000 	nop
    7cf8:	00000000 	nop
    7cfc:	00000000 	nop
    7d00:	00000000 	nop
    7d04:	00000000 	nop
    7d08:	00000000 	nop
    7d0c:	00000000 	nop
    7d10:	00000000 	nop
    7d14:	00000000 	nop
    7d18:	00000000 	nop
    7d1c:	00000000 	nop
    7d20:	00000000 	nop
    7d24:	00000000 	nop
    7d28:	00000000 	nop
    7d2c:	00000000 	nop
    7d30:	00000000 	nop
    7d34:	00000000 	nop
    7d38:	00000000 	nop
    7d3c:	00000000 	nop
    7d40:	00000000 	nop
    7d44:	00000000 	nop
    7d48:	00000000 	nop
    7d4c:	00000000 	nop
    7d50:	00000000 	nop
    7d54:	00000000 	nop
    7d58:	00000000 	nop
    7d5c:	00000000 	nop
    7d60:	00000000 	nop
    7d64:	00000000 	nop
    7d68:	00000000 	nop
    7d6c:	00000000 	nop
    7d70:	00000000 	nop
    7d74:	00000000 	nop
    7d78:	00000000 	nop
    7d7c:	00000000 	nop
    7d80:	00000000 	nop
    7d84:	00000000 	nop
    7d88:	00000000 	nop
    7d8c:	00000000 	nop
    7d90:	00000000 	nop
    7d94:	00000000 	nop
    7d98:	00000000 	nop
    7d9c:	00000000 	nop
    7da0:	00000000 	nop
    7da4:	00000000 	nop
    7da8:	00000000 	nop
    7dac:	00000000 	nop
    7db0:	00000000 	nop
    7db4:	00000000 	nop
    7db8:	00000000 	nop
    7dbc:	00000000 	nop
    7dc0:	00000000 	nop
    7dc4:	00000000 	nop
    7dc8:	00000000 	nop
    7dcc:	00000000 	nop
    7dd0:	00000000 	nop
    7dd4:	00000000 	nop
    7dd8:	00000000 	nop
    7ddc:	00000000 	nop
    7de0:	00000000 	nop
    7de4:	00000000 	nop
    7de8:	00000000 	nop
    7dec:	00000000 	nop
    7df0:	00000000 	nop
    7df4:	00000000 	nop
    7df8:	00000000 	nop
    7dfc:	00000000 	nop
    7e00:	00000000 	nop
    7e04:	00000000 	nop
    7e08:	00000000 	nop
    7e0c:	00000000 	nop
    7e10:	00000000 	nop
    7e14:	00000000 	nop
    7e18:	00000000 	nop
    7e1c:	00000000 	nop
    7e20:	00000000 	nop
    7e24:	00000000 	nop
    7e28:	00000000 	nop
    7e2c:	00000000 	nop
    7e30:	00000000 	nop
    7e34:	00000000 	nop
    7e38:	00000000 	nop
    7e3c:	00000000 	nop
    7e40:	00000000 	nop
    7e44:	00000000 	nop
    7e48:	00000000 	nop
    7e4c:	00000000 	nop
    7e50:	00000000 	nop
    7e54:	00000000 	nop
    7e58:	00000000 	nop
    7e5c:	00000000 	nop
    7e60:	00000000 	nop
    7e64:	00000000 	nop
    7e68:	00000000 	nop
    7e6c:	00000000 	nop
    7e70:	00000000 	nop
    7e74:	00000000 	nop
    7e78:	00000000 	nop
    7e7c:	00000000 	nop
    7e80:	00000000 	nop
    7e84:	00000000 	nop
    7e88:	00000000 	nop
    7e8c:	00000000 	nop
    7e90:	00000000 	nop
    7e94:	00000000 	nop
    7e98:	00000000 	nop
    7e9c:	00000000 	nop
    7ea0:	00000000 	nop
    7ea4:	00000000 	nop
    7ea8:	00000000 	nop
    7eac:	00000000 	nop
    7eb0:	00000000 	nop
    7eb4:	00000000 	nop
    7eb8:	00000000 	nop
    7ebc:	00000000 	nop
    7ec0:	00000000 	nop
    7ec4:	00000000 	nop
    7ec8:	00000000 	nop
    7ecc:	00000000 	nop
    7ed0:	00000000 	nop
    7ed4:	00000000 	nop
    7ed8:	00000000 	nop
    7edc:	00000000 	nop
    7ee0:	00000000 	nop
    7ee4:	00000000 	nop
    7ee8:	00000000 	nop
    7eec:	00000000 	nop
    7ef0:	00000000 	nop
    7ef4:	00000000 	nop
    7ef8:	00000000 	nop
    7efc:	00000000 	nop
    7f00:	00000000 	nop
    7f04:	00000000 	nop
    7f08:	00000000 	nop
    7f0c:	00000000 	nop
    7f10:	00000000 	nop
    7f14:	00000000 	nop
    7f18:	00000000 	nop
    7f1c:	00000000 	nop
    7f20:	00000000 	nop
    7f24:	00000000 	nop
    7f28:	00000000 	nop
    7f2c:	00000000 	nop
    7f30:	00000000 	nop
    7f34:	00000000 	nop
    7f38:	00000000 	nop
    7f3c:	00000000 	nop
    7f40:	00000000 	nop
    7f44:	00000000 	nop
    7f48:	00000000 	nop
    7f4c:	00000000 	nop
    7f50:	00000000 	nop
    7f54:	00000000 	nop
    7f58:	00000000 	nop
    7f5c:	00000000 	nop
    7f60:	00000000 	nop
    7f64:	00000000 	nop
    7f68:	00000000 	nop
    7f6c:	00000000 	nop
    7f70:	00000000 	nop
    7f74:	00000000 	nop
    7f78:	00000000 	nop
    7f7c:	00000000 	nop
    7f80:	00000000 	nop
    7f84:	00000000 	nop
    7f88:	00000000 	nop
    7f8c:	00000000 	nop
    7f90:	00000000 	nop
    7f94:	00000000 	nop
    7f98:	00000000 	nop
    7f9c:	00000000 	nop
    7fa0:	00000000 	nop
    7fa4:	00000000 	nop
    7fa8:	00000000 	nop
    7fac:	00000000 	nop
    7fb0:	00000000 	nop
    7fb4:	00000000 	nop
    7fb8:	00000000 	nop
    7fbc:	00000000 	nop
    7fc0:	00000000 	nop
    7fc4:	00000000 	nop
    7fc8:	00000000 	nop
    7fcc:	00000000 	nop
    7fd0:	00000000 	nop
    7fd4:	00000000 	nop
    7fd8:	00000000 	nop
    7fdc:	00000000 	nop
    7fe0:	00000000 	nop
    7fe4:	00000000 	nop
    7fe8:	00000000 	nop
    7fec:	00000000 	nop
    7ff0:	00000000 	nop
    7ff4:	00000000 	nop
    7ff8:	00000000 	nop
    7ffc:	00000000 	nop
