
main:     file format elf32-bigmips


Disassembly of section .text:

00000000 <_start>:
       0:	241dffff 	li	sp,-1
       4:	3c028000 	lui	v0,0x8000
       8:	8c420430 	lw	v0,1072(v0)
       c:	00000000 	nop
      10:	0040f809 	jalr	v0
      14:	00000000 	nop
      18:	0c000d8e 	jal	3638 <main>
      1c:	00000000 	nop

00000020 <Control::MARG::start()>:
      20:	27bdfee0 	addiu	sp,sp,-288
      24:	afbf011c 	sw	ra,284(sp)
      28:	afbe0118 	sw	s8,280(sp)
      2c:	afb70114 	sw	s7,276(sp)
      30:	afb60110 	sw	s6,272(sp)
      34:	afb5010c 	sw	s5,268(sp)
      38:	afb40108 	sw	s4,264(sp)
      3c:	afb30104 	sw	s3,260(sp)
      40:	afb20100 	sw	s2,256(sp)
      44:	afb100fc 	sw	s1,252(sp)
      48:	afb000f8 	sw	s0,248(sp)
      4c:	0c000658 	jal	1960 <System::Bus::I2C::start()>
      50:	00809821 	move	s3,a0
      54:	0c000637 	jal	18dc <System::Bus::I2C::write(char)>
      58:	2404ffd0 	li	a0,-48
      5c:	0c000637 	jal	18dc <System::Bus::I2C::write(char)>
      60:	2404003b 	li	a0,59
      64:	0c00064f 	jal	193c <System::Bus::I2C::stop()>
      68:	00000000 	nop
      6c:	0c000658 	jal	1960 <System::Bus::I2C::start()>
      70:	00000000 	nop
      74:	0c000637 	jal	18dc <System::Bus::I2C::write(char)>
      78:	2404ffd1 	li	a0,-47
      7c:	0c000643 	jal	190c <System::Bus::I2C::read()>
      80:	00000000 	nop
      84:	0c000643 	jal	190c <System::Bus::I2C::read()>
      88:	afa200f4 	sw	v0,244(sp)
      8c:	0c000643 	jal	190c <System::Bus::I2C::read()>
      90:	0040b021 	move	s6,v0
      94:	0c000643 	jal	190c <System::Bus::I2C::read()>
      98:	afa200f0 	sw	v0,240(sp)
      9c:	0c000643 	jal	190c <System::Bus::I2C::read()>
      a0:	0040a821 	move	s5,v0
      a4:	0c000643 	jal	190c <System::Bus::I2C::read()>
      a8:	afa200ec 	sw	v0,236(sp)
      ac:	0c000643 	jal	190c <System::Bus::I2C::read()>
      b0:	0040a021 	move	s4,v0
      b4:	0c000643 	jal	190c <System::Bus::I2C::read()>
      b8:	00000000 	nop
      bc:	0c000643 	jal	190c <System::Bus::I2C::read()>
      c0:	00000000 	nop
      c4:	0c000643 	jal	190c <System::Bus::I2C::read()>
      c8:	00408021 	move	s0,v0
      cc:	0c000643 	jal	190c <System::Bus::I2C::read()>
      d0:	00409021 	move	s2,v0
      d4:	0c000643 	jal	190c <System::Bus::I2C::read()>
      d8:	00408821 	move	s1,v0
      dc:	0c000643 	jal	190c <System::Bus::I2C::read()>
      e0:	0040f021 	move	s8,v0
      e4:	2404ffff 	li	a0,-1
      e8:	0c000637 	jal	18dc <System::Bus::I2C::write(char)>
      ec:	0040b821 	move	s7,v0
      f0:	304200ff 	andi	v0,v0,0xff
      f4:	0c00064f 	jal	193c <System::Bus::I2C::stop()>
      f8:	afa200e8 	sw	v0,232(sp)
      fc:	8fa600f4 	lw	a2,244(sp)
     100:	8fa200e8 	lw	v0,232(sp)
     104:	00063200 	sll	a2,a2,0x8
     108:	00d6b025 	or	s6,a2,s6
     10c:	32c4ffff 	andi	a0,s6,0xffff
     110:	000423c3 	sra	a0,a0,0xf
     114:	8fa300ec 	lw	v1,236(sp)
     118:	8fa500f0 	lw	a1,240(sp)
     11c:	10800002 	beqz	a0,128 <Control::MARG::start()+0x108>
     120:	3c04ffff 	lui	a0,0xffff
     124:	02c4b025 	or	s6,s6,a0
     128:	00052a00 	sll	a1,a1,0x8
     12c:	00b5a825 	or	s5,a1,s5
     130:	32a4ffff 	andi	a0,s5,0xffff
     134:	000423c3 	sra	a0,a0,0xf
     138:	10800002 	beqz	a0,144 <Control::MARG::start()+0x124>
     13c:	3c04ffff 	lui	a0,0xffff
     140:	02a4a825 	or	s5,s5,a0
     144:	00031a00 	sll	v1,v1,0x8
     148:	0074a025 	or	s4,v1,s4
     14c:	3283ffff 	andi	v1,s4,0xffff
     150:	00031bc3 	sra	v1,v1,0xf
     154:	10600002 	beqz	v1,160 <Control::MARG::start()+0x140>
     158:	3c03ffff 	lui	v1,0xffff
     15c:	0283a025 	or	s4,s4,v1
     160:	00108200 	sll	s0,s0,0x8
     164:	02129025 	or	s2,s0,s2
     168:	3243ffff 	andi	v1,s2,0xffff
     16c:	00031bc3 	sra	v1,v1,0xf
     170:	10600002 	beqz	v1,17c <Control::MARG::start()+0x15c>
     174:	3c03ffff 	lui	v1,0xffff
     178:	02439025 	or	s2,s2,v1
     17c:	00118a00 	sll	s1,s1,0x8
     180:	023e8825 	or	s1,s1,s8
     184:	3223ffff 	andi	v1,s1,0xffff
     188:	00031bc3 	sra	v1,v1,0xf
     18c:	10600003 	beqz	v1,19c <Control::MARG::start()+0x17c>
     190:	00178200 	sll	s0,s7,0x8
     194:	3c03ffff 	lui	v1,0xffff
     198:	02238825 	or	s1,s1,v1
     19c:	02028025 	or	s0,s0,v0
     1a0:	3202ffff 	andi	v0,s0,0xffff
     1a4:	000213c3 	sra	v0,v0,0xf
     1a8:	10400002 	beqz	v0,1b4 <Control::MARG::start()+0x194>
     1ac:	3c02ffff 	lui	v0,0xffff
     1b0:	02028025 	or	s0,s0,v0
     1b4:	0c000489 	jal	1224 <_ZN6System8Registry8instanceEv.local.6>
     1b8:	00000000 	nop
     1bc:	0c000489 	jal	1224 <_ZN6System8Registry8instanceEv.local.6>
     1c0:	ac56001c 	sw	s6,28(v0)
     1c4:	0c000489 	jal	1224 <_ZN6System8Registry8instanceEv.local.6>
     1c8:	ac550020 	sw	s5,32(v0)
     1cc:	0c000489 	jal	1224 <_ZN6System8Registry8instanceEv.local.6>
     1d0:	ac540024 	sw	s4,36(v0)
     1d4:	0c000489 	jal	1224 <_ZN6System8Registry8instanceEv.local.6>
     1d8:	ac520034 	sw	s2,52(v0)
     1dc:	0c000489 	jal	1224 <_ZN6System8Registry8instanceEv.local.6>
     1e0:	ac510038 	sw	s1,56(v0)
     1e4:	ac50003c 	sw	s0,60(v0)
     1e8:	3c023d7a 	lui	v0,0x3d7a
     1ec:	afa200c0 	sw	v0,192(sp)
     1f0:	3c023a00 	lui	v0,0x3a00
     1f4:	afa200bc 	sw	v0,188(sp)
     1f8:	3c023a70 	lui	v0,0x3a70
     1fc:	24427faf 	addiu	v0,v0,32687
     200:	afa200b8 	sw	v0,184(sp)
     204:	3c0232ab 	lui	v0,0x32ab
     208:	3442cc77 	ori	v0,v0,0xcc77
     20c:	afa200b4 	sw	v0,180(sp)
     210:	8c100010 	lw	s0,16(zero)
     214:	8e660014 	lw	a2,20(s3)
     218:	00000000 	nop
     21c:	02063023 	subu	a2,s0,a2
     220:	14c00003 	bnez	a2,230 <Control::MARG::start()+0x210>
     224:	00000000 	nop
     228:	08000090 	j	240 <Control::MARG::start()+0x220>
     22c:	afa00010 	sw	zero,16(sp)
     230:	00002021 	move	a0,zero
     234:	0c000673 	jal	19cc <float32::normalizeRoundAndPack(bool, int, unsigned int)>
     238:	2405009c 	li	a1,156
     23c:	afa20010 	sw	v0,16(sp)
     240:	27a600b4 	addiu	a2,sp,180
     244:	27a40014 	addiu	a0,sp,20
     248:	0c000743 	jal	1d0c <float32::operator*(float32 const&) const>
     24c:	27a50010 	addiu	a1,sp,16
     250:	8fa20014 	lw	v0,20(sp)
     254:	ae700014 	sw	s0,20(s3)
     258:	0c000489 	jal	1224 <_ZN6System8Registry8instanceEv.local.6>
     25c:	ae620018 	sw	v0,24(s3)
     260:	8c450034 	lw	a1,52(v0)
     264:	0c00068e 	jal	1a38 <float32::float32(int)>
     268:	27a40010 	addiu	a0,sp,16
     26c:	27a600c0 	addiu	a2,sp,192
     270:	27a400b0 	addiu	a0,sp,176
     274:	0c000743 	jal	1d0c <float32::operator*(float32 const&) const>
     278:	27a50010 	addiu	a1,sp,16
     27c:	0c000489 	jal	1224 <_ZN6System8Registry8instanceEv.local.6>
     280:	26710040 	addiu	s1,s3,64
     284:	8c450038 	lw	a1,56(v0)
     288:	0c00068e 	jal	1a38 <float32::float32(int)>
     28c:	27a40010 	addiu	a0,sp,16
     290:	27a600c0 	addiu	a2,sp,192
     294:	27a400ac 	addiu	a0,sp,172
     298:	0c000743 	jal	1d0c <float32::operator*(float32 const&) const>
     29c:	27a50010 	addiu	a1,sp,16
     2a0:	0c000489 	jal	1224 <_ZN6System8Registry8instanceEv.local.6>
     2a4:	26720044 	addiu	s2,s3,68
     2a8:	8c45003c 	lw	a1,60(v0)
     2ac:	0c00068e 	jal	1a38 <float32::float32(int)>
     2b0:	27a40010 	addiu	a0,sp,16
     2b4:	27a600c0 	addiu	a2,sp,192
     2b8:	27a400a8 	addiu	a0,sp,168
     2bc:	0c000743 	jal	1d0c <float32::operator*(float32 const&) const>
     2c0:	27a50010 	addiu	a1,sp,16
     2c4:	0c000489 	jal	1224 <_ZN6System8Registry8instanceEv.local.6>
     2c8:	3c164000 	lui	s6,0x4000
     2cc:	8c45001c 	lw	a1,28(v0)
     2d0:	0c00068e 	jal	1a38 <float32::float32(int)>
     2d4:	27a40010 	addiu	a0,sp,16
     2d8:	27a600bc 	addiu	a2,sp,188
     2dc:	27a400a4 	addiu	a0,sp,164
     2e0:	0c000743 	jal	1d0c <float32::operator*(float32 const&) const>
     2e4:	27a50010 	addiu	a1,sp,16
     2e8:	0c000489 	jal	1224 <_ZN6System8Registry8instanceEv.local.6>
     2ec:	26740048 	addiu	s4,s3,72
     2f0:	8c450020 	lw	a1,32(v0)
     2f4:	0c00068e 	jal	1a38 <float32::float32(int)>
     2f8:	27a40010 	addiu	a0,sp,16
     2fc:	27a600bc 	addiu	a2,sp,188
     300:	27a400a0 	addiu	a0,sp,160
     304:	0c000743 	jal	1d0c <float32::operator*(float32 const&) const>
     308:	27a50010 	addiu	a1,sp,16
     30c:	0c000489 	jal	1224 <_ZN6System8Registry8instanceEv.local.6>
     310:	2670004c 	addiu	s0,s3,76
     314:	8c450024 	lw	a1,36(v0)
     318:	0c00068e 	jal	1a38 <float32::float32(int)>
     31c:	27a40010 	addiu	a0,sp,16
     320:	27a600bc 	addiu	a2,sp,188
     324:	27a4009c 	addiu	a0,sp,156
     328:	0c000743 	jal	1d0c <float32::operator*(float32 const&) const>
     32c:	27a50010 	addiu	a1,sp,16
     330:	0c000489 	jal	1224 <_ZN6System8Registry8instanceEv.local.6>
     334:	3c173f80 	lui	s7,0x3f80
     338:	8c450040 	lw	a1,64(v0)
     33c:	0c00068e 	jal	1a38 <float32::float32(int)>
     340:	27a40010 	addiu	a0,sp,16
     344:	27a600b8 	addiu	a2,sp,184
     348:	27a40098 	addiu	a0,sp,152
     34c:	0c000743 	jal	1d0c <float32::operator*(float32 const&) const>
     350:	27a50010 	addiu	a1,sp,16
     354:	0c000489 	jal	1224 <_ZN6System8Registry8instanceEv.local.6>
     358:	26750018 	addiu	s5,s3,24
     35c:	8c450044 	lw	a1,68(v0)
     360:	0c00068e 	jal	1a38 <float32::float32(int)>
     364:	27a40010 	addiu	a0,sp,16
     368:	27a600b8 	addiu	a2,sp,184
     36c:	27a40094 	addiu	a0,sp,148
     370:	0c000743 	jal	1d0c <float32::operator*(float32 const&) const>
     374:	27a50010 	addiu	a1,sp,16
     378:	0c000489 	jal	1224 <_ZN6System8Registry8instanceEv.local.6>
     37c:	00000000 	nop
     380:	8c450048 	lw	a1,72(v0)
     384:	0c00068e 	jal	1a38 <float32::float32(int)>
     388:	27a40010 	addiu	a0,sp,16
     38c:	27a40090 	addiu	a0,sp,144
     390:	27a50010 	addiu	a1,sp,16
     394:	0c000743 	jal	1d0c <float32::operator*(float32 const&) const>
     398:	27a600b8 	addiu	a2,sp,184
     39c:	8fa200b0 	lw	v0,176(sp)
     3a0:	00000000 	nop
     3a4:	afa200d8 	sw	v0,216(sp)
     3a8:	8fa200ac 	lw	v0,172(sp)
     3ac:	00000000 	nop
     3b0:	afa200d4 	sw	v0,212(sp)
     3b4:	8fa200a8 	lw	v0,168(sp)
     3b8:	00000000 	nop
     3bc:	afa200d0 	sw	v0,208(sp)
     3c0:	8fa200a4 	lw	v0,164(sp)
     3c4:	27a40038 	addiu	a0,sp,56
     3c8:	afa200cc 	sw	v0,204(sp)
     3cc:	8fa200a0 	lw	v0,160(sp)
     3d0:	27a50040 	addiu	a1,sp,64
     3d4:	afa200c8 	sw	v0,200(sp)
     3d8:	8fa2009c 	lw	v0,156(sp)
     3dc:	02203021 	move	a2,s1
     3e0:	afa200c4 	sw	v0,196(sp)
     3e4:	3c023d9a 	lui	v0,0x3d9a
     3e8:	3442c70d 	ori	v0,v0,0xc70d
     3ec:	afa2008c 	sw	v0,140(sp)
     3f0:	3c023f00 	lui	v0,0x3f00
     3f4:	afa20040 	sw	v0,64(sp)
     3f8:	0c000743 	jal	1d0c <float32::operator*(float32 const&) const>
     3fc:	afb6003c 	sw	s6,60(sp)
     400:	27a40034 	addiu	a0,sp,52
     404:	27a50040 	addiu	a1,sp,64
     408:	0c000743 	jal	1d0c <float32::operator*(float32 const&) const>
     40c:	02403021 	move	a2,s2
     410:	27a40030 	addiu	a0,sp,48
     414:	27a50040 	addiu	a1,sp,64
     418:	0c000743 	jal	1d0c <float32::operator*(float32 const&) const>
     41c:	02803021 	move	a2,s4
     420:	27a4002c 	addiu	a0,sp,44
     424:	27a50040 	addiu	a1,sp,64
     428:	0c000743 	jal	1d0c <float32::operator*(float32 const&) const>
     42c:	02003021 	move	a2,s0
     430:	27a40028 	addiu	a0,sp,40
     434:	27a5003c 	addiu	a1,sp,60
     438:	0c000743 	jal	1d0c <float32::operator*(float32 const&) const>
     43c:	02203021 	move	a2,s1
     440:	27a40024 	addiu	a0,sp,36
     444:	27a5003c 	addiu	a1,sp,60
     448:	0c000743 	jal	1d0c <float32::operator*(float32 const&) const>
     44c:	02403021 	move	a2,s2
     450:	27a40020 	addiu	a0,sp,32
     454:	27a5003c 	addiu	a1,sp,60
     458:	0c000743 	jal	1d0c <float32::operator*(float32 const&) const>
     45c:	02803021 	move	a2,s4
     460:	27a500cc 	addiu	a1,sp,204
     464:	27a4001c 	addiu	a0,sp,28
     468:	0c000743 	jal	1d0c <float32::operator*(float32 const&) const>
     46c:	00a03021 	move	a2,a1
     470:	27a500c8 	addiu	a1,sp,200
     474:	00a03021 	move	a2,a1
     478:	0c000743 	jal	1d0c <float32::operator*(float32 const&) const>
     47c:	27a40010 	addiu	a0,sp,16
     480:	27a4001c 	addiu	a0,sp,28
     484:	0c000710 	jal	1c40 <float32::operator+=(float32 const&)>
     488:	27a50010 	addiu	a1,sp,16
     48c:	27a500c4 	addiu	a1,sp,196
     490:	00a03021 	move	a2,a1
     494:	0c000743 	jal	1d0c <float32::operator*(float32 const&) const>
     498:	27a40010 	addiu	a0,sp,16
     49c:	27a4001c 	addiu	a0,sp,28
     4a0:	0c000710 	jal	1c40 <float32::operator+=(float32 const&)>
     4a4:	27a50010 	addiu	a1,sp,16
     4a8:	27a40010 	addiu	a0,sp,16
     4ac:	0c00084c 	jal	2130 <rsqrt(float32 const&)>
     4b0:	27a5001c 	addiu	a1,sp,28
     4b4:	8fa20010 	lw	v0,16(sp)
     4b8:	27a400cc 	addiu	a0,sp,204
     4bc:	27a50088 	addiu	a1,sp,136
     4c0:	0c000877 	jal	21dc <float32::operator*=(float32 const&)>
     4c4:	afa20088 	sw	v0,136(sp)
     4c8:	27a400c8 	addiu	a0,sp,200
     4cc:	0c000877 	jal	21dc <float32::operator*=(float32 const&)>
     4d0:	27a50088 	addiu	a1,sp,136
     4d4:	27a400c4 	addiu	a0,sp,196
     4d8:	0c000877 	jal	21dc <float32::operator*=(float32 const&)>
     4dc:	27a50088 	addiu	a1,sp,136
     4e0:	27a40010 	addiu	a0,sp,16
     4e4:	27a50024 	addiu	a1,sp,36
     4e8:	0c000743 	jal	1d0c <float32::operator*(float32 const&) const>
     4ec:	02003021 	move	a2,s0
     4f0:	8fa20010 	lw	v0,16(sp)
     4f4:	02803021 	move	a2,s4
     4f8:	27a40010 	addiu	a0,sp,16
     4fc:	27a50028 	addiu	a1,sp,40
     500:	0c000743 	jal	1d0c <float32::operator*(float32 const&) const>
     504:	afa20074 	sw	v0,116(sp)
     508:	27a40074 	addiu	a0,sp,116
     50c:	0c000734 	jal	1cd0 <float32::operator-=(float32 const&)>
     510:	27a50010 	addiu	a1,sp,16
     514:	27a40074 	addiu	a0,sp,116
     518:	0c000734 	jal	1cd0 <float32::operator-=(float32 const&)>
     51c:	27a500cc 	addiu	a1,sp,204
     520:	27a40010 	addiu	a0,sp,16
     524:	27a50028 	addiu	a1,sp,40
     528:	0c000743 	jal	1d0c <float32::operator*(float32 const&) const>
     52c:	02403021 	move	a2,s2
     530:	8fa20010 	lw	v0,16(sp)
     534:	02003021 	move	a2,s0
     538:	27a40010 	addiu	a0,sp,16
     53c:	27a50020 	addiu	a1,sp,32
     540:	0c000743 	jal	1d0c <float32::operator*(float32 const&) const>
     544:	afa20070 	sw	v0,112(sp)
     548:	27a40070 	addiu	a0,sp,112
     54c:	0c000710 	jal	1c40 <float32::operator+=(float32 const&)>
     550:	27a50010 	addiu	a1,sp,16
     554:	27a40070 	addiu	a0,sp,112
     558:	0c000734 	jal	1cd0 <float32::operator-=(float32 const&)>
     55c:	27a500c8 	addiu	a1,sp,200
     560:	02403021 	move	a2,s2
     564:	27a40010 	addiu	a0,sp,16
     568:	27a50024 	addiu	a1,sp,36
     56c:	0c000743 	jal	1d0c <float32::operator*(float32 const&) const>
     570:	afb7006c 	sw	s7,108(sp)
     574:	27a4006c 	addiu	a0,sp,108
     578:	0c000734 	jal	1cd0 <float32::operator-=(float32 const&)>
     57c:	27a50010 	addiu	a1,sp,16
     580:	02803021 	move	a2,s4
     584:	27a40010 	addiu	a0,sp,16
     588:	0c000743 	jal	1d0c <float32::operator*(float32 const&) const>
     58c:	27a50020 	addiu	a1,sp,32
     590:	27a4006c 	addiu	a0,sp,108
     594:	0c000734 	jal	1cd0 <float32::operator-=(float32 const&)>
     598:	27a50010 	addiu	a1,sp,16
     59c:	27a4006c 	addiu	a0,sp,108
     5a0:	0c000734 	jal	1cd0 <float32::operator-=(float32 const&)>
     5a4:	27a500c4 	addiu	a1,sp,196
     5a8:	8fa20020 	lw	v0,32(sp)
     5ac:	27a40010 	addiu	a0,sp,16
     5b0:	27a5003c 	addiu	a1,sp,60
     5b4:	02003021 	move	a2,s0
     5b8:	0c000743 	jal	1d0c <float32::operator*(float32 const&) const>
     5bc:	afa20068 	sw	v0,104(sp)
     5c0:	8fa20010 	lw	v0,16(sp)
     5c4:	27a40010 	addiu	a0,sp,16
     5c8:	afa20064 	sw	v0,100(sp)
     5cc:	8fa20028 	lw	v0,40(sp)
     5d0:	27a5003c 	addiu	a1,sp,60
     5d4:	afa20060 	sw	v0,96(sp)
     5d8:	8fa20024 	lw	v0,36(sp)
     5dc:	27a6005c 	addiu	a2,sp,92
     5e0:	0c000743 	jal	1d0c <float32::operator*(float32 const&) const>
     5e4:	afa2005c 	sw	v0,92(sp)
     5e8:	8fa20010 	lw	v0,16(sp)
     5ec:	27a40010 	addiu	a0,sp,16
     5f0:	27a5003c 	addiu	a1,sp,60
     5f4:	27a60068 	addiu	a2,sp,104
     5f8:	0c000743 	jal	1d0c <float32::operator*(float32 const&) const>
     5fc:	afa20058 	sw	v0,88(sp)
     600:	8fa20010 	lw	v0,16(sp)
     604:	27a40010 	addiu	a0,sp,16
     608:	27a5005c 	addiu	a1,sp,92
     60c:	27a60070 	addiu	a2,sp,112
     610:	0c000743 	jal	1d0c <float32::operator*(float32 const&) const>
     614:	afa20054 	sw	v0,84(sp)
     618:	8fa20010 	lw	v0,16(sp)
     61c:	27a60074 	addiu	a2,sp,116
     620:	27a40010 	addiu	a0,sp,16
     624:	27a50068 	addiu	a1,sp,104
     628:	0c000743 	jal	1d0c <float32::operator*(float32 const&) const>
     62c:	afa20050 	sw	v0,80(sp)
     630:	27a40050 	addiu	a0,sp,80
     634:	0c000734 	jal	1cd0 <float32::operator-=(float32 const&)>
     638:	27a50010 	addiu	a1,sp,16
     63c:	27a40010 	addiu	a0,sp,16
     640:	27a50064 	addiu	a1,sp,100
     644:	0c000743 	jal	1d0c <float32::operator*(float32 const&) const>
     648:	27a60074 	addiu	a2,sp,116
     64c:	8fa20010 	lw	v0,16(sp)
     650:	27a60070 	addiu	a2,sp,112
     654:	27a40010 	addiu	a0,sp,16
     658:	27a50060 	addiu	a1,sp,96
     65c:	0c000743 	jal	1d0c <float32::operator*(float32 const&) const>
     660:	afa2004c 	sw	v0,76(sp)
     664:	27a4004c 	addiu	a0,sp,76
     668:	0c000710 	jal	1c40 <float32::operator+=(float32 const&)>
     66c:	27a50010 	addiu	a1,sp,16
     670:	27a6006c 	addiu	a2,sp,108
     674:	27a40010 	addiu	a0,sp,16
     678:	0c000743 	jal	1d0c <float32::operator*(float32 const&) const>
     67c:	27a50058 	addiu	a1,sp,88
     680:	27a4004c 	addiu	a0,sp,76
     684:	0c000734 	jal	1cd0 <float32::operator-=(float32 const&)>
     688:	27a50010 	addiu	a1,sp,16
     68c:	27a40010 	addiu	a0,sp,16
     690:	27a50064 	addiu	a1,sp,100
     694:	0c000743 	jal	1d0c <float32::operator*(float32 const&) const>
     698:	27a60070 	addiu	a2,sp,112
     69c:	8fa20010 	lw	v0,16(sp)
     6a0:	27a6006c 	addiu	a2,sp,108
     6a4:	27a40010 	addiu	a0,sp,16
     6a8:	27a50054 	addiu	a1,sp,84
     6ac:	0c000743 	jal	1d0c <float32::operator*(float32 const&) const>
     6b0:	afa20048 	sw	v0,72(sp)
     6b4:	27a40048 	addiu	a0,sp,72
     6b8:	0c000734 	jal	1cd0 <float32::operator-=(float32 const&)>
     6bc:	27a50010 	addiu	a1,sp,16
     6c0:	27a60074 	addiu	a2,sp,116
     6c4:	27a40010 	addiu	a0,sp,16
     6c8:	0c000743 	jal	1d0c <float32::operator*(float32 const&) const>
     6cc:	27a50060 	addiu	a1,sp,96
     6d0:	27a40048 	addiu	a0,sp,72
     6d4:	0c000734 	jal	1cd0 <float32::operator-=(float32 const&)>
     6d8:	27a50010 	addiu	a1,sp,16
     6dc:	27a40010 	addiu	a0,sp,16
     6e0:	27a5005c 	addiu	a1,sp,92
     6e4:	0c000743 	jal	1d0c <float32::operator*(float32 const&) const>
     6e8:	27a60074 	addiu	a2,sp,116
     6ec:	8fa20010 	lw	v0,16(sp)
     6f0:	27a40010 	addiu	a0,sp,16
     6f4:	27a50068 	addiu	a1,sp,104
     6f8:	27a60070 	addiu	a2,sp,112
     6fc:	0c000743 	jal	1d0c <float32::operator*(float32 const&) const>
     700:	afa20044 	sw	v0,68(sp)
     704:	27a400e0 	addiu	a0,sp,224
     708:	27a50044 	addiu	a1,sp,68
     70c:	0c0006fa 	jal	1be8 <float32::operator+(float32 const&) const>
     710:	27a60010 	addiu	a2,sp,16
     714:	27a50050 	addiu	a1,sp,80
     718:	27a40010 	addiu	a0,sp,16
     71c:	0c000743 	jal	1d0c <float32::operator*(float32 const&) const>
     720:	00a03021 	move	a2,a1
     724:	8fa20010 	lw	v0,16(sp)
     728:	27a5004c 	addiu	a1,sp,76
     72c:	00a03021 	move	a2,a1
     730:	27a40010 	addiu	a0,sp,16
     734:	0c000743 	jal	1d0c <float32::operator*(float32 const&) const>
     738:	afa2001c 	sw	v0,28(sp)
     73c:	27a4001c 	addiu	a0,sp,28
     740:	0c000710 	jal	1c40 <float32::operator+=(float32 const&)>
     744:	27a50010 	addiu	a1,sp,16
     748:	27a50048 	addiu	a1,sp,72
     74c:	00a03021 	move	a2,a1
     750:	0c000743 	jal	1d0c <float32::operator*(float32 const&) const>
     754:	27a40010 	addiu	a0,sp,16
     758:	27a4001c 	addiu	a0,sp,28
     75c:	0c000710 	jal	1c40 <float32::operator+=(float32 const&)>
     760:	27a50010 	addiu	a1,sp,16
     764:	27a50044 	addiu	a1,sp,68
     768:	00a03021 	move	a2,a1
     76c:	0c000743 	jal	1d0c <float32::operator*(float32 const&) const>
     770:	27a40010 	addiu	a0,sp,16
     774:	27a4001c 	addiu	a0,sp,28
     778:	0c000710 	jal	1c40 <float32::operator+=(float32 const&)>
     77c:	27a50010 	addiu	a1,sp,16
     780:	27a40010 	addiu	a0,sp,16
     784:	0c00084c 	jal	2130 <rsqrt(float32 const&)>
     788:	27a5001c 	addiu	a1,sp,28
     78c:	8fa20010 	lw	v0,16(sp)
     790:	27a40050 	addiu	a0,sp,80
     794:	27a50088 	addiu	a1,sp,136
     798:	0c000877 	jal	21dc <float32::operator*=(float32 const&)>
     79c:	afa20088 	sw	v0,136(sp)
     7a0:	27a4004c 	addiu	a0,sp,76
     7a4:	0c000877 	jal	21dc <float32::operator*=(float32 const&)>
     7a8:	27a50088 	addiu	a1,sp,136
     7ac:	27a40048 	addiu	a0,sp,72
     7b0:	0c000877 	jal	21dc <float32::operator*=(float32 const&)>
     7b4:	27a50088 	addiu	a1,sp,136
     7b8:	27a40044 	addiu	a0,sp,68
     7bc:	0c000877 	jal	21dc <float32::operator*=(float32 const&)>
     7c0:	27a50088 	addiu	a1,sp,136
     7c4:	27a600d8 	addiu	a2,sp,216
     7c8:	27a40010 	addiu	a0,sp,16
     7cc:	27a50034 	addiu	a1,sp,52
     7d0:	0c000743 	jal	1d0c <float32::operator*(float32 const&) const>
     7d4:	afa00084 	sw	zero,132(sp)
     7d8:	27a40084 	addiu	a0,sp,132
     7dc:	0c000734 	jal	1cd0 <float32::operator-=(float32 const&)>
     7e0:	27a50010 	addiu	a1,sp,16
     7e4:	27a600d4 	addiu	a2,sp,212
     7e8:	27a40010 	addiu	a0,sp,16
     7ec:	0c000743 	jal	1d0c <float32::operator*(float32 const&) const>
     7f0:	27a50030 	addiu	a1,sp,48
     7f4:	27a40084 	addiu	a0,sp,132
     7f8:	0c000734 	jal	1cd0 <float32::operator-=(float32 const&)>
     7fc:	27a50010 	addiu	a1,sp,16
     800:	27a600d0 	addiu	a2,sp,208
     804:	27a40010 	addiu	a0,sp,16
     808:	0c000743 	jal	1d0c <float32::operator*(float32 const&) const>
     80c:	27a5002c 	addiu	a1,sp,44
     810:	27a40084 	addiu	a0,sp,132
     814:	0c000734 	jal	1cd0 <float32::operator-=(float32 const&)>
     818:	27a50010 	addiu	a1,sp,16
     81c:	27a40010 	addiu	a0,sp,16
     820:	27a50038 	addiu	a1,sp,56
     824:	0c000743 	jal	1d0c <float32::operator*(float32 const&) const>
     828:	27a600d8 	addiu	a2,sp,216
     82c:	8fa20010 	lw	v0,16(sp)
     830:	27a600d0 	addiu	a2,sp,208
     834:	27a40010 	addiu	a0,sp,16
     838:	27a50030 	addiu	a1,sp,48
     83c:	0c000743 	jal	1d0c <float32::operator*(float32 const&) const>
     840:	afa20080 	sw	v0,128(sp)
     844:	27a40080 	addiu	a0,sp,128
     848:	0c000710 	jal	1c40 <float32::operator+=(float32 const&)>
     84c:	27a50010 	addiu	a1,sp,16
     850:	27a600d4 	addiu	a2,sp,212
     854:	27a40010 	addiu	a0,sp,16
     858:	0c000743 	jal	1d0c <float32::operator*(float32 const&) const>
     85c:	27a5002c 	addiu	a1,sp,44
     860:	27a40080 	addiu	a0,sp,128
     864:	0c000734 	jal	1cd0 <float32::operator-=(float32 const&)>
     868:	27a50010 	addiu	a1,sp,16
     86c:	27a40010 	addiu	a0,sp,16
     870:	27a50038 	addiu	a1,sp,56
     874:	0c000743 	jal	1d0c <float32::operator*(float32 const&) const>
     878:	27a600d4 	addiu	a2,sp,212
     87c:	8fa20010 	lw	v0,16(sp)
     880:	27a600d0 	addiu	a2,sp,208
     884:	27a40010 	addiu	a0,sp,16
     888:	27a50034 	addiu	a1,sp,52
     88c:	0c000743 	jal	1d0c <float32::operator*(float32 const&) const>
     890:	afa2007c 	sw	v0,124(sp)
     894:	27a4007c 	addiu	a0,sp,124
     898:	0c000734 	jal	1cd0 <float32::operator-=(float32 const&)>
     89c:	27a50010 	addiu	a1,sp,16
     8a0:	27a600d8 	addiu	a2,sp,216
     8a4:	27a40010 	addiu	a0,sp,16
     8a8:	0c000743 	jal	1d0c <float32::operator*(float32 const&) const>
     8ac:	27a5002c 	addiu	a1,sp,44
     8b0:	27a4007c 	addiu	a0,sp,124
     8b4:	0c000710 	jal	1c40 <float32::operator+=(float32 const&)>
     8b8:	27a50010 	addiu	a1,sp,16
     8bc:	27a40010 	addiu	a0,sp,16
     8c0:	27a50038 	addiu	a1,sp,56
     8c4:	0c000743 	jal	1d0c <float32::operator*(float32 const&) const>
     8c8:	27a600d0 	addiu	a2,sp,208
     8cc:	8fa20010 	lw	v0,16(sp)
     8d0:	27a600d4 	addiu	a2,sp,212
     8d4:	27a40010 	addiu	a0,sp,16
     8d8:	27a50034 	addiu	a1,sp,52
     8dc:	0c000743 	jal	1d0c <float32::operator*(float32 const&) const>
     8e0:	afa20078 	sw	v0,120(sp)
     8e4:	27a40078 	addiu	a0,sp,120
     8e8:	0c000710 	jal	1c40 <float32::operator+=(float32 const&)>
     8ec:	27a50010 	addiu	a1,sp,16
     8f0:	27a600d8 	addiu	a2,sp,216
     8f4:	27a40010 	addiu	a0,sp,16
     8f8:	0c000743 	jal	1d0c <float32::operator*(float32 const&) const>
     8fc:	27a50030 	addiu	a1,sp,48
     900:	27a40078 	addiu	a0,sp,120
     904:	0c000734 	jal	1cd0 <float32::operator-=(float32 const&)>
     908:	27a50010 	addiu	a1,sp,16
     90c:	27a40018 	addiu	a0,sp,24
     910:	27a5008c 	addiu	a1,sp,140
     914:	0c000743 	jal	1d0c <float32::operator*(float32 const&) const>
     918:	27a60050 	addiu	a2,sp,80
     91c:	27a40014 	addiu	a0,sp,20
     920:	27a50084 	addiu	a1,sp,132
     924:	0c00071f 	jal	1c7c <float32::operator-(float32 const&) const>
     928:	27a60018 	addiu	a2,sp,24
     92c:	02a03021 	move	a2,s5
     930:	27a40010 	addiu	a0,sp,16
     934:	0c000743 	jal	1d0c <float32::operator*(float32 const&) const>
     938:	27a50014 	addiu	a1,sp,20
     93c:	02202021 	move	a0,s1
     940:	0c000710 	jal	1c40 <float32::operator+=(float32 const&)>
     944:	27a50010 	addiu	a1,sp,16
     948:	27a40018 	addiu	a0,sp,24
     94c:	27a5008c 	addiu	a1,sp,140
     950:	0c000743 	jal	1d0c <float32::operator*(float32 const&) const>
     954:	27a6004c 	addiu	a2,sp,76
     958:	27a40014 	addiu	a0,sp,20
     95c:	27a50080 	addiu	a1,sp,128
     960:	0c00071f 	jal	1c7c <float32::operator-(float32 const&) const>
     964:	27a60018 	addiu	a2,sp,24
     968:	02a03021 	move	a2,s5
     96c:	27a40010 	addiu	a0,sp,16
     970:	0c000743 	jal	1d0c <float32::operator*(float32 const&) const>
     974:	27a50014 	addiu	a1,sp,20
     978:	02402021 	move	a0,s2
     97c:	0c000710 	jal	1c40 <float32::operator+=(float32 const&)>
     980:	27a50010 	addiu	a1,sp,16
     984:	27a40018 	addiu	a0,sp,24
     988:	27a5008c 	addiu	a1,sp,140
     98c:	0c000743 	jal	1d0c <float32::operator*(float32 const&) const>
     990:	27a60048 	addiu	a2,sp,72
     994:	27a40014 	addiu	a0,sp,20
     998:	27a5007c 	addiu	a1,sp,124
     99c:	0c00071f 	jal	1c7c <float32::operator-(float32 const&) const>
     9a0:	27a60018 	addiu	a2,sp,24
     9a4:	02a03021 	move	a2,s5
     9a8:	27a40010 	addiu	a0,sp,16
     9ac:	0c000743 	jal	1d0c <float32::operator*(float32 const&) const>
     9b0:	27a50014 	addiu	a1,sp,20
     9b4:	02802021 	move	a0,s4
     9b8:	0c000710 	jal	1c40 <float32::operator+=(float32 const&)>
     9bc:	27a50010 	addiu	a1,sp,16
     9c0:	27a40018 	addiu	a0,sp,24
     9c4:	27a5008c 	addiu	a1,sp,140
     9c8:	0c000743 	jal	1d0c <float32::operator*(float32 const&) const>
     9cc:	27a60044 	addiu	a2,sp,68
     9d0:	27a40014 	addiu	a0,sp,20
     9d4:	27a50078 	addiu	a1,sp,120
     9d8:	0c00071f 	jal	1c7c <float32::operator-(float32 const&) const>
     9dc:	27a60018 	addiu	a2,sp,24
     9e0:	02a03021 	move	a2,s5
     9e4:	27a40010 	addiu	a0,sp,16
     9e8:	0c000743 	jal	1d0c <float32::operator*(float32 const&) const>
     9ec:	27a50014 	addiu	a1,sp,20
     9f0:	02002021 	move	a0,s0
     9f4:	0c000710 	jal	1c40 <float32::operator+=(float32 const&)>
     9f8:	27a50010 	addiu	a1,sp,16
     9fc:	27a40010 	addiu	a0,sp,16
     a00:	02202821 	move	a1,s1
     a04:	0c000743 	jal	1d0c <float32::operator*(float32 const&) const>
     a08:	02203021 	move	a2,s1
     a0c:	8fa20010 	lw	v0,16(sp)
     a10:	02403021 	move	a2,s2
     a14:	27a40010 	addiu	a0,sp,16
     a18:	02402821 	move	a1,s2
     a1c:	0c000743 	jal	1d0c <float32::operator*(float32 const&) const>
     a20:	afa2001c 	sw	v0,28(sp)
     a24:	27a4001c 	addiu	a0,sp,28
     a28:	0c000710 	jal	1c40 <float32::operator+=(float32 const&)>
     a2c:	27a50010 	addiu	a1,sp,16
     a30:	02803021 	move	a2,s4
     a34:	27a40010 	addiu	a0,sp,16
     a38:	0c000743 	jal	1d0c <float32::operator*(float32 const&) const>
     a3c:	02802821 	move	a1,s4
     a40:	27a4001c 	addiu	a0,sp,28
     a44:	0c000710 	jal	1c40 <float32::operator+=(float32 const&)>
     a48:	27a50010 	addiu	a1,sp,16
     a4c:	02003021 	move	a2,s0
     a50:	27a40010 	addiu	a0,sp,16
     a54:	0c000743 	jal	1d0c <float32::operator*(float32 const&) const>
     a58:	02002821 	move	a1,s0
     a5c:	27a4001c 	addiu	a0,sp,28
     a60:	0c000710 	jal	1c40 <float32::operator+=(float32 const&)>
     a64:	27a50010 	addiu	a1,sp,16
     a68:	27a40010 	addiu	a0,sp,16
     a6c:	0c00084c 	jal	2130 <rsqrt(float32 const&)>
     a70:	27a5001c 	addiu	a1,sp,28
     a74:	8fa20010 	lw	v0,16(sp)
     a78:	02202021 	move	a0,s1
     a7c:	27a50088 	addiu	a1,sp,136
     a80:	0c000877 	jal	21dc <float32::operator*=(float32 const&)>
     a84:	afa20088 	sw	v0,136(sp)
     a88:	02402021 	move	a0,s2
     a8c:	0c000877 	jal	21dc <float32::operator*=(float32 const&)>
     a90:	27a50088 	addiu	a1,sp,136
     a94:	02802021 	move	a0,s4
     a98:	0c000877 	jal	21dc <float32::operator*=(float32 const&)>
     a9c:	27a50088 	addiu	a1,sp,136
     aa0:	02002021 	move	a0,s0
     aa4:	0c000877 	jal	21dc <float32::operator*=(float32 const&)>
     aa8:	27a50088 	addiu	a1,sp,136
     aac:	0c000489 	jal	1224 <_ZN6System8Registry8instanceEv.local.6>
     ab0:	00000000 	nop
     ab4:	8e630040 	lw	v1,64(s3)
     ab8:	0c000489 	jal	1224 <_ZN6System8Registry8instanceEv.local.6>
     abc:	ac430000 	sw	v1,0(v0)
     ac0:	8e630044 	lw	v1,68(s3)
     ac4:	0c000489 	jal	1224 <_ZN6System8Registry8instanceEv.local.6>
     ac8:	ac430004 	sw	v1,4(v0)
     acc:	8e630048 	lw	v1,72(s3)
     ad0:	0c000489 	jal	1224 <_ZN6System8Registry8instanceEv.local.6>
     ad4:	ac430008 	sw	v1,8(v0)
     ad8:	8e63004c 	lw	v1,76(s3)
     adc:	27a40040 	addiu	a0,sp,64
     ae0:	ac43000c 	sw	v1,12(v0)
     ae4:	27a50034 	addiu	a1,sp,52
     ae8:	02403021 	move	a2,s2
     aec:	afb70038 	sw	s7,56(sp)
     af0:	afb60034 	sw	s6,52(sp)
     af4:	0c000743 	jal	1d0c <float32::operator*(float32 const&) const>
     af8:	afa0003c 	sw	zero,60(sp)
     afc:	27a40044 	addiu	a0,sp,68
     b00:	27a50040 	addiu	a1,sp,64
     b04:	0c000743 	jal	1d0c <float32::operator*(float32 const&) const>
     b08:	02803021 	move	a2,s4
     b0c:	27a40028 	addiu	a0,sp,40
     b10:	27a50034 	addiu	a1,sp,52
     b14:	0c000743 	jal	1d0c <float32::operator*(float32 const&) const>
     b18:	02203021 	move	a2,s1
     b1c:	27a4002c 	addiu	a0,sp,44
     b20:	27a50028 	addiu	a1,sp,40
     b24:	0c000743 	jal	1d0c <float32::operator*(float32 const&) const>
     b28:	02003021 	move	a2,s0
     b2c:	27a40048 	addiu	a0,sp,72
     b30:	27a50044 	addiu	a1,sp,68
     b34:	0c00071f 	jal	1c7c <float32::operator-(float32 const&) const>
     b38:	27a6002c 	addiu	a2,sp,44
     b3c:	27a40018 	addiu	a0,sp,24
     b40:	27a50034 	addiu	a1,sp,52
     b44:	0c000743 	jal	1d0c <float32::operator*(float32 const&) const>
     b48:	02203021 	move	a2,s1
     b4c:	27a4001c 	addiu	a0,sp,28
     b50:	27a50018 	addiu	a1,sp,24
     b54:	0c000743 	jal	1d0c <float32::operator*(float32 const&) const>
     b58:	02203021 	move	a2,s1
     b5c:	27a40010 	addiu	a0,sp,16
     b60:	27a50034 	addiu	a1,sp,52
     b64:	0c000743 	jal	1d0c <float32::operator*(float32 const&) const>
     b68:	02403021 	move	a2,s2
     b6c:	27a40014 	addiu	a0,sp,20
     b70:	27a50010 	addiu	a1,sp,16
     b74:	0c000743 	jal	1d0c <float32::operator*(float32 const&) const>
     b78:	02403021 	move	a2,s2
     b7c:	27a40020 	addiu	a0,sp,32
     b80:	27a5001c 	addiu	a1,sp,28
     b84:	0c0006fa 	jal	1be8 <float32::operator+(float32 const&) const>
     b88:	27a60014 	addiu	a2,sp,20
     b8c:	27a40024 	addiu	a0,sp,36
     b90:	27a50020 	addiu	a1,sp,32
     b94:	0c00071f 	jal	1c7c <float32::operator-(float32 const&) const>
     b98:	27a60038 	addiu	a2,sp,56
     b9c:	27a40030 	addiu	a0,sp,48
     ba0:	27a50048 	addiu	a1,sp,72
     ba4:	0c0007b8 	jal	1ee0 <atan2_deg(float32 const&, float32 const&)>
     ba8:	27a60024 	addiu	a2,sp,36
     bac:	27a40048 	addiu	a0,sp,72
     bb0:	27a50034 	addiu	a1,sp,52
     bb4:	0c000743 	jal	1d0c <float32::operator*(float32 const&) const>
     bb8:	02403021 	move	a2,s2
     bbc:	27a4004c 	addiu	a0,sp,76
     bc0:	27a50048 	addiu	a1,sp,72
     bc4:	0c000743 	jal	1d0c <float32::operator*(float32 const&) const>
     bc8:	02003021 	move	a2,s0
     bcc:	27a40040 	addiu	a0,sp,64
     bd0:	27a50034 	addiu	a1,sp,52
     bd4:	0c000743 	jal	1d0c <float32::operator*(float32 const&) const>
     bd8:	02203021 	move	a2,s1
     bdc:	27a40044 	addiu	a0,sp,68
     be0:	27a50040 	addiu	a1,sp,64
     be4:	0c000743 	jal	1d0c <float32::operator*(float32 const&) const>
     be8:	02803021 	move	a2,s4
     bec:	27a40050 	addiu	a0,sp,80
     bf0:	27a5004c 	addiu	a1,sp,76
     bf4:	0c0006fa 	jal	1be8 <float32::operator+(float32 const&) const>
     bf8:	27a60044 	addiu	a2,sp,68
     bfc:	3c023fa2 	lui	v0,0x3fa2
     c00:	3442f983 	ori	v0,v0,0xf983
     c04:	afa2002c 	sw	v0,44(sp)
     c08:	3c02becf 	lui	v0,0xbecf
     c0c:	3442817a 	ori	v0,v0,0x817a
     c10:	afa20028 	sw	v0,40(sp)
     c14:	3c023e66 	lui	v0,0x3e66
     c18:	24426666 	addiu	v0,v0,26214
     c1c:	27a40010 	addiu	a0,sp,16
     c20:	27a5002c 	addiu	a1,sp,44
     c24:	27a60050 	addiu	a2,sp,80
     c28:	0c000743 	jal	1d0c <float32::operator*(float32 const&) const>
     c2c:	afa20024 	sw	v0,36(sp)
     c30:	27a40018 	addiu	a0,sp,24
     c34:	27a50028 	addiu	a1,sp,40
     c38:	0c000743 	jal	1d0c <float32::operator*(float32 const&) const>
     c3c:	27a60050 	addiu	a2,sp,80
     c40:	3c137fff 	lui	s3,0x7fff
     c44:	8fa20050 	lw	v0,80(sp)
     c48:	3673ffff 	ori	s3,s3,0xffff
     c4c:	00531024 	and	v0,v0,s3
     c50:	27a40014 	addiu	a0,sp,20
     c54:	27a50018 	addiu	a1,sp,24
     c58:	27a6001c 	addiu	a2,sp,28
     c5c:	0c000743 	jal	1d0c <float32::operator*(float32 const&) const>
     c60:	afa2001c 	sw	v0,28(sp)
     c64:	27a40020 	addiu	a0,sp,32
     c68:	27a50010 	addiu	a1,sp,16
     c6c:	0c0006fa 	jal	1be8 <float32::operator+(float32 const&) const>
     c70:	27a60014 	addiu	a2,sp,20
     c74:	8fa20020 	lw	v0,32(sp)
     c78:	27a40018 	addiu	a0,sp,24
     c7c:	00539824 	and	s3,v0,s3
     c80:	27a50020 	addiu	a1,sp,32
     c84:	27a6001c 	addiu	a2,sp,28
     c88:	0c000743 	jal	1d0c <float32::operator*(float32 const&) const>
     c8c:	afb3001c 	sw	s3,28(sp)
     c90:	27a40014 	addiu	a0,sp,20
     c94:	27a50018 	addiu	a1,sp,24
     c98:	0c00071f 	jal	1c7c <float32::operator-(float32 const&) const>
     c9c:	27a60020 	addiu	a2,sp,32
     ca0:	27a40010 	addiu	a0,sp,16
     ca4:	27a50024 	addiu	a1,sp,36
     ca8:	0c000743 	jal	1d0c <float32::operator*(float32 const&) const>
     cac:	27a60014 	addiu	a2,sp,20
     cb0:	27a40054 	addiu	a0,sp,84
     cb4:	27a50010 	addiu	a1,sp,16
     cb8:	0c0006fa 	jal	1be8 <float32::operator+(float32 const&) const>
     cbc:	27a60020 	addiu	a2,sp,32
     cc0:	27a40018 	addiu	a0,sp,24
     cc4:	27a50038 	addiu	a1,sp,56
     cc8:	0c0004cb 	jal	132c <float32::operator/(float32 const&) const>
     ccc:	27a60054 	addiu	a2,sp,84
     cd0:	27a4001c 	addiu	a0,sp,28
     cd4:	27a5003c 	addiu	a1,sp,60
     cd8:	0c00071f 	jal	1c7c <float32::operator-(float32 const&) const>
     cdc:	27a60018 	addiu	a2,sp,24
     ce0:	3c024265 	lui	v0,0x4265
     ce4:	24422ee1 	addiu	v0,v0,12001
     ce8:	27a40014 	addiu	a0,sp,20
     cec:	27a5001c 	addiu	a1,sp,28
     cf0:	27a60010 	addiu	a2,sp,16
     cf4:	0c000743 	jal	1d0c <float32::operator*(float32 const&) const>
     cf8:	afa20010 	sw	v0,16(sp)
     cfc:	27a40048 	addiu	a0,sp,72
     d00:	27a50034 	addiu	a1,sp,52
     d04:	0c000743 	jal	1d0c <float32::operator*(float32 const&) const>
     d08:	02803021 	move	a2,s4
     d0c:	27a4004c 	addiu	a0,sp,76
     d10:	27a50048 	addiu	a1,sp,72
     d14:	0c000743 	jal	1d0c <float32::operator*(float32 const&) const>
     d18:	02003021 	move	a2,s0
     d1c:	27a40040 	addiu	a0,sp,64
     d20:	27a50034 	addiu	a1,sp,52
     d24:	0c000743 	jal	1d0c <float32::operator*(float32 const&) const>
     d28:	02203021 	move	a2,s1
     d2c:	27a40044 	addiu	a0,sp,68
     d30:	27a50040 	addiu	a1,sp,64
     d34:	0c000743 	jal	1d0c <float32::operator*(float32 const&) const>
     d38:	02403021 	move	a2,s2
     d3c:	27a40050 	addiu	a0,sp,80
     d40:	27a5004c 	addiu	a1,sp,76
     d44:	0c00071f 	jal	1c7c <float32::operator-(float32 const&) const>
     d48:	27a60044 	addiu	a2,sp,68
     d4c:	27a40020 	addiu	a0,sp,32
     d50:	27a50034 	addiu	a1,sp,52
     d54:	0c000743 	jal	1d0c <float32::operator*(float32 const&) const>
     d58:	02203021 	move	a2,s1
     d5c:	27a40024 	addiu	a0,sp,36
     d60:	27a50020 	addiu	a1,sp,32
     d64:	0c000743 	jal	1d0c <float32::operator*(float32 const&) const>
     d68:	02203021 	move	a2,s1
     d6c:	27a40018 	addiu	a0,sp,24
     d70:	27a50034 	addiu	a1,sp,52
     d74:	0c000743 	jal	1d0c <float32::operator*(float32 const&) const>
     d78:	02003021 	move	a2,s0
     d7c:	27a4001c 	addiu	a0,sp,28
     d80:	27a50018 	addiu	a1,sp,24
     d84:	0c000743 	jal	1d0c <float32::operator*(float32 const&) const>
     d88:	02003021 	move	a2,s0
     d8c:	27a40028 	addiu	a0,sp,40
     d90:	27a50024 	addiu	a1,sp,36
     d94:	0c0006fa 	jal	1be8 <float32::operator+(float32 const&) const>
     d98:	27a6001c 	addiu	a2,sp,28
     d9c:	27a4002c 	addiu	a0,sp,44
     da0:	27a50028 	addiu	a1,sp,40
     da4:	0c00071f 	jal	1c7c <float32::operator-(float32 const&) const>
     da8:	27a60038 	addiu	a2,sp,56
     dac:	27a40010 	addiu	a0,sp,16
     db0:	27a50050 	addiu	a1,sp,80
     db4:	0c0007b8 	jal	1ee0 <atan2_deg(float32 const&, float32 const&)>
     db8:	27a6002c 	addiu	a2,sp,44
     dbc:	0c000489 	jal	1224 <_ZN6System8Registry8instanceEv.local.6>
     dc0:	00000000 	nop
     dc4:	8fa30030 	lw	v1,48(sp)
     dc8:	0c000489 	jal	1224 <_ZN6System8Registry8instanceEv.local.6>
     dcc:	ac430010 	sw	v1,16(v0)
     dd0:	8fa30014 	lw	v1,20(sp)
     dd4:	0c000489 	jal	1224 <_ZN6System8Registry8instanceEv.local.6>
     dd8:	ac430014 	sw	v1,20(v0)
     ddc:	8fa30010 	lw	v1,16(sp)
     de0:	8fbf011c 	lw	ra,284(sp)
     de4:	8fbe0118 	lw	s8,280(sp)
     de8:	8fb70114 	lw	s7,276(sp)
     dec:	8fb60110 	lw	s6,272(sp)
     df0:	8fb5010c 	lw	s5,268(sp)
     df4:	8fb40108 	lw	s4,264(sp)
     df8:	8fb30104 	lw	s3,260(sp)
     dfc:	8fb20100 	lw	s2,256(sp)
     e00:	8fb100fc 	lw	s1,252(sp)
     e04:	8fb000f8 	lw	s0,248(sp)
     e08:	ac430018 	sw	v1,24(v0)
     e0c:	03e00008 	jr	ra
     e10:	27bd0120 	addiu	sp,sp,288

00000e14 <Radio::Digital::XBeeReadIdleTask::start()>:
     e14:	8c020018 	lw	v0,24(zero)
     e18:	00000000 	nop
     e1c:	00021403 	sra	v0,v0,0x10
     e20:	1040004c 	beqz	v0,f54 <Radio::Digital::XBeeReadIdleTask::start()+0x140>
     e24:	00000000 	nop
     e28:	8c020018 	lw	v0,24(zero)
     e2c:	8c830040 	lw	v1,64(a0)
     e30:	27bdffe8 	addiu	sp,sp,-24
     e34:	00021600 	sll	v0,v0,0x18
     e38:	00021603 	sra	v0,v0,0x18
     e3c:	afb00010 	sw	s0,16(sp)
     e40:	afbf0014 	sw	ra,20(sp)
     e44:	00808021 	move	s0,a0
     e48:	ac000018 	sw	zero,24(zero)
     e4c:	1460000f 	bnez	v1,e8c <Radio::Digital::XBeeReadIdleTask::start()+0x78>
     e50:	00000000 	nop
     e54:	2403003e 	li	v1,62
     e58:	14430006 	bne	v0,v1,e74 <Radio::Digital::XBeeReadIdleTask::start()+0x60>
     e5c:	00000000 	nop
     e60:	3c020000 	lui	v0,0x0
     e64:	24422490 	addiu	v0,v0,9360
     e68:	a080003c 	sb	zero,60(a0)
     e6c:	080003d2 	j	f48 <Radio::Digital::XBeeReadIdleTask::start()+0x134>
     e70:	ac820040 	sw	v0,64(a0)
     e74:	18400034 	blez	v0,f48 <Radio::Digital::XBeeReadIdleTask::start()+0x134>
     e78:	28430005 	slti	v1,v0,5
     e7c:	14600025 	bnez	v1,f14 <Radio::Digital::XBeeReadIdleTask::start()+0x100>
     e80:	3c038000 	lui	v1,0x8000
     e84:	080003d2 	j	f48 <Radio::Digital::XBeeReadIdleTask::start()+0x134>
     e88:	00000000 	nop
     e8c:	8c840038 	lw	a0,56(a0)
     e90:	00000000 	nop
     e94:	2c860020 	sltiu	a2,a0,32
     e98:	10c00006 	beqz	a2,eb4 <Radio::Digital::XBeeReadIdleTask::start()+0xa0>
     e9c:	24050001 	li	a1,1
     ea0:	02042821 	addu	a1,s0,a0
     ea4:	24840001 	addiu	a0,a0,1
     ea8:	a0a20014 	sb	v0,20(a1)
     eac:	ae040038 	sw	a0,56(s0)
     eb0:	00002821 	move	a1,zero
     eb4:	3c040000 	lui	a0,0x0
     eb8:	24842490 	addiu	a0,a0,9360
     ebc:	1464000a 	bne	v1,a0,ee8 <Radio::Digital::XBeeReadIdleTask::start()+0xd4>
     ec0:	2404000d 	li	a0,13
     ec4:	10440003 	beq	v0,a0,ed4 <Radio::Digital::XBeeReadIdleTask::start()+0xc0>
     ec8:	2404000a 	li	a0,10
     ecc:	1444000b 	bne	v0,a0,efc <Radio::Digital::XBeeReadIdleTask::start()+0xe8>
     ed0:	00000000 	nop
     ed4:	8e020038 	lw	v0,56(s0)
     ed8:	00000000 	nop
     edc:	02021021 	addu	v0,s0,v0
     ee0:	080003ce 	j	f38 <Radio::Digital::XBeeReadIdleTask::start()+0x124>
     ee4:	a0400014 	sb	zero,20(v0)
     ee8:	9202003c 	lbu	v0,60(s0)
     eec:	8e040038 	lw	a0,56(s0)
     ef0:	00000000 	nop
     ef4:	10820010 	beq	a0,v0,f38 <Radio::Digital::XBeeReadIdleTask::start()+0x124>
     ef8:	00000000 	nop
     efc:	10a00012 	beqz	a1,f48 <Radio::Digital::XBeeReadIdleTask::start()+0x134>
     f00:	00000000 	nop
     f04:	ae000038 	sw	zero,56(s0)
     f08:	a200003c 	sb	zero,60(s0)
     f0c:	080003d2 	j	f48 <Radio::Digital::XBeeReadIdleTask::start()+0x134>
     f10:	ae000040 	sw	zero,64(s0)
     f14:	24630114 	addiu	v1,v1,276
     f18:	000210c0 	sll	v0,v0,0x3
     f1c:	00621021 	addu	v0,v1,v0
     f20:	88430004 	lwl	v1,4(v0)
     f24:	90440000 	lbu	a0,0(v0)
     f28:	98430007 	lwr	v1,7(v0)
     f2c:	a204003c 	sb	a0,60(s0)
     f30:	080003d2 	j	f48 <Radio::Digital::XBeeReadIdleTask::start()+0x134>
     f34:	ae030040 	sw	v1,64(s0)
     f38:	0060f809 	jalr	v1
     f3c:	26040014 	addiu	a0,s0,20
     f40:	080003c2 	j	f08 <Radio::Digital::XBeeReadIdleTask::start()+0xf4>
     f44:	ae000038 	sw	zero,56(s0)
     f48:	8fbf0014 	lw	ra,20(sp)
     f4c:	8fb00010 	lw	s0,16(sp)
     f50:	27bd0018 	addiu	sp,sp,24
     f54:	03e00008 	jr	ra
     f58:	00000000 	nop

00000f5c <_ZN7float3212roundAndPackEbij.1685>:
     f5c:	30a2ffff 	andi	v0,a1,0xffff
     f60:	2c4200fd 	sltiu	v0,v0,253
     f64:	1440001b 	bnez	v0,fd4 <_ZN7float3212roundAndPackEbij.1685+0x78>
     f68:	30c3007f 	andi	v1,a2,0x7f
     f6c:	28a200fe 	slti	v0,a1,254
     f70:	10400007 	beqz	v0,f90 <_ZN7float3212roundAndPackEbij.1685+0x34>
     f74:	000417c0 	sll	v0,a0,0x1f
     f78:	240200fd 	li	v0,253
     f7c:	14a20007 	bne	a1,v0,f9c <_ZN7float3212roundAndPackEbij.1685+0x40>
     f80:	24c20040 	addiu	v0,a2,64
     f84:	04410013 	bgez	v0,fd4 <_ZN7float3212roundAndPackEbij.1685+0x78>
     f88:	00000000 	nop
     f8c:	000417c0 	sll	v0,a0,0x1f
     f90:	3c037f80 	lui	v1,0x7f80
     f94:	03e00008 	jr	ra
     f98:	00431021 	addu	v0,v0,v1
     f9c:	04a1000d 	bgez	a1,fd4 <_ZN7float3212roundAndPackEbij.1685+0x78>
     fa0:	00000000 	nop
     fa4:	00051023 	negu	v0,a1
     fa8:	28430020 	slti	v1,v0,32
     fac:	10600006 	beqz	v1,fc8 <_ZN7float3212roundAndPackEbij.1685+0x6c>
     fb0:	00000000 	nop
     fb4:	00461006 	srlv	v0,a2,v0
     fb8:	00a63004 	sllv	a2,a2,a1
     fbc:	0006302b 	sltu	a2,zero,a2
     fc0:	080003f3 	j	fcc <_ZN7float3212roundAndPackEbij.1685+0x70>
     fc4:	00c23025 	or	a2,a2,v0
     fc8:	0006302b 	sltu	a2,zero,a2
     fcc:	30c3007f 	andi	v1,a2,0x7f
     fd0:	00002821 	move	a1,zero
     fd4:	24c60040 	addiu	a2,a2,64
     fd8:	000639c2 	srl	a3,a2,0x7
     fdc:	38660040 	xori	a2,v1,0x40
     fe0:	2cc60001 	sltiu	a2,a2,1
     fe4:	00063027 	nor	a2,zero,a2
     fe8:	00c73024 	and	a2,a2,a3
     fec:	0006102b 	sltu	v0,zero,a2
     ff0:	00021023 	negu	v0,v0
     ff4:	00a22824 	and	a1,a1,v0
     ff8:	000417c0 	sll	v0,a0,0x1f
     ffc:	00c21021 	addu	v0,a2,v0
    1000:	00052dc0 	sll	a1,a1,0x17
    1004:	03e00008 	jr	ra
    1008:	00451021 	addu	v0,v0,a1

0000100c <_ZN7float327addSigsEjjb.1680>:
    100c:	3c07007f 	lui	a3,0x7f
    1010:	00801021 	move	v0,a0
    1014:	34e7ffff 	ori	a3,a3,0xffff
    1018:	00474024 	and	t0,v0,a3
    101c:	00024dc2 	srl	t1,v0,0x17
    1020:	00a73824 	and	a3,a1,a3
    1024:	00052dc2 	srl	a1,a1,0x17
    1028:	312900ff 	andi	t1,t1,0xff
    102c:	30a500ff 	andi	a1,a1,0xff
    1030:	01251823 	subu	v1,t1,a1
    1034:	00c02021 	move	a0,a2
    1038:	00084180 	sll	t0,t0,0x6
    103c:	18600017 	blez	v1,109c <_ZN7float327addSigsEjjb.1680+0x90>
    1040:	00073980 	sll	a3,a3,0x6
    1044:	240600ff 	li	a2,255
    1048:	11260045 	beq	t1,a2,1160 <_ZN7float327addSigsEjjb.1680+0x154>
    104c:	00000000 	nop
    1050:	14a00006 	bnez	a1,106c <_ZN7float327addSigsEjjb.1680+0x60>
    1054:	3c022000 	lui	v0,0x2000
    1058:	2463ffff 	addiu	v1,v1,-1
    105c:	10600036 	beqz	v1,1138 <_ZN7float327addSigsEjjb.1680+0x12c>
    1060:	01202821 	move	a1,t1
    1064:	0800041d 	j	1074 <_ZN7float327addSigsEjjb.1680+0x68>
    1068:	28620020 	slti	v0,v1,32
    106c:	00e23825 	or	a3,a3,v0
    1070:	28620020 	slti	v0,v1,32
    1074:	10400006 	beqz	v0,1090 <_ZN7float327addSigsEjjb.1680+0x84>
    1078:	00671006 	srlv	v0,a3,v1
    107c:	00031823 	negu	v1,v1
    1080:	00673804 	sllv	a3,a3,v1
    1084:	0007382b 	sltu	a3,zero,a3
    1088:	08000425 	j	1094 <_ZN7float327addSigsEjjb.1680+0x88>
    108c:	00e23825 	or	a3,a3,v0
    1090:	0007382b 	sltu	a3,zero,a3
    1094:	0800044e 	j	1138 <_ZN7float327addSigsEjjb.1680+0x12c>
    1098:	01202821 	move	a1,t1
    109c:	10600017 	beqz	v1,10fc <_ZN7float327addSigsEjjb.1680+0xf0>
    10a0:	00000000 	nop
    10a4:	240200ff 	li	v0,255
    10a8:	14a20004 	bne	a1,v0,10bc <_ZN7float327addSigsEjjb.1680+0xb0>
    10ac:	000617c0 	sll	v0,a2,0x1f
    10b0:	3c037f80 	lui	v1,0x7f80
    10b4:	03e00008 	jr	ra
    10b8:	00431021 	addu	v0,v0,v1
    10bc:	15200003 	bnez	t1,10cc <_ZN7float327addSigsEjjb.1680+0xc0>
    10c0:	3c022000 	lui	v0,0x2000
    10c4:	08000434 	j	10d0 <_ZN7float327addSigsEjjb.1680+0xc4>
    10c8:	24630001 	addiu	v1,v1,1
    10cc:	01024025 	or	t0,t0,v0
    10d0:	00031023 	negu	v0,v1
    10d4:	10400018 	beqz	v0,1138 <_ZN7float327addSigsEjjb.1680+0x12c>
    10d8:	28460020 	slti	a2,v0,32
    10dc:	10c00005 	beqz	a2,10f4 <_ZN7float327addSigsEjjb.1680+0xe8>
    10e0:	00481006 	srlv	v0,t0,v0
    10e4:	00684004 	sllv	t0,t0,v1
    10e8:	0008402b 	sltu	t0,zero,t0
    10ec:	0800044e 	j	1138 <_ZN7float327addSigsEjjb.1680+0x12c>
    10f0:	01024025 	or	t0,t0,v0
    10f4:	0800044e 	j	1138 <_ZN7float327addSigsEjjb.1680+0x12c>
    10f8:	0008402b 	sltu	t0,zero,t0
    10fc:	240300ff 	li	v1,255
    1100:	11230017 	beq	t1,v1,1160 <_ZN7float327addSigsEjjb.1680+0x154>
    1104:	00000000 	nop
    1108:	15200006 	bnez	t1,1124 <_ZN7float327addSigsEjjb.1680+0x118>
    110c:	00000000 	nop
    1110:	00e81021 	addu	v0,a3,t0
    1114:	000627c0 	sll	a0,a2,0x1f
    1118:	00021182 	srl	v0,v0,0x6
    111c:	03e00008 	jr	ra
    1120:	00441021 	addu	v0,v0,a0
    1124:	3c034000 	lui	v1,0x4000
    1128:	01034021 	addu	t0,t0,v1
    112c:	01073021 	addu	a2,t0,a3
    1130:	08000456 	j	1158 <_ZN7float327addSigsEjjb.1680+0x14c>
    1134:	01202821 	move	a1,t1
    1138:	3c032000 	lui	v1,0x2000
    113c:	01034025 	or	t0,t0,v1
    1140:	01073021 	addu	a2,t0,a3
    1144:	00061040 	sll	v0,a2,0x1
    1148:	04400003 	bltz	v0,1158 <_ZN7float327addSigsEjjb.1680+0x14c>
    114c:	00000000 	nop
    1150:	24a5ffff 	addiu	a1,a1,-1
    1154:	00403021 	move	a2,v0
    1158:	080003d7 	j	f5c <_ZN7float3212roundAndPackEbij.1685>
    115c:	00000000 	nop
    1160:	03e00008 	jr	ra
    1164:	00000000 	nop

00001168 <_ZNK7float32ltERKS_.1693>:
    1168:	8c830000 	lw	v1,0(a0)
    116c:	8ca40000 	lw	a0,0(a1)
    1170:	00032dc2 	srl	a1,v1,0x17
    1174:	30a500ff 	andi	a1,a1,0xff
    1178:	240200ff 	li	v0,255
    117c:	14a20007 	bne	a1,v0,119c <_ZNK7float32ltERKS_.1693+0x34>
    1180:	00042dc2 	srl	a1,a0,0x17
    1184:	3c05007f 	lui	a1,0x7f
    1188:	34a5ffff 	ori	a1,a1,0xffff
    118c:	00652824 	and	a1,v1,a1
    1190:	14a00020 	bnez	a1,1214 <_ZNK7float32ltERKS_.1693+0xac>
    1194:	00001021 	move	v0,zero
    1198:	00042dc2 	srl	a1,a0,0x17
    119c:	30a500ff 	andi	a1,a1,0xff
    11a0:	240200ff 	li	v0,255
    11a4:	14a20016 	bne	a1,v0,1200 <_ZNK7float32ltERKS_.1693+0x98>
    11a8:	00032fc2 	srl	a1,v1,0x1f
    11ac:	3c05007f 	lui	a1,0x7f
    11b0:	34a5ffff 	ori	a1,a1,0xffff
    11b4:	00852824 	and	a1,a0,a1
    11b8:	14a00016 	bnez	a1,1214 <_ZNK7float32ltERKS_.1693+0xac>
    11bc:	00001021 	move	v0,zero
    11c0:	08000480 	j	1200 <_ZNK7float32ltERKS_.1693+0x98>
    11c4:	00032fc2 	srl	a1,v1,0x1f
    11c8:	10a00012 	beqz	a1,1214 <_ZNK7float32ltERKS_.1693+0xac>
    11cc:	00001021 	move	v0,zero
    11d0:	00831825 	or	v1,a0,v1
    11d4:	00031840 	sll	v1,v1,0x1
    11d8:	1060000e 	beqz	v1,1214 <_ZNK7float32ltERKS_.1693+0xac>
    11dc:	00000000 	nop
    11e0:	03e00008 	jr	ra
    11e4:	24020001 	li	v0,1
    11e8:	10640003 	beq	v1,a0,11f8 <_ZNK7float32ltERKS_.1693+0x90>
    11ec:	0064182b 	sltu	v1,v1,a0
    11f0:	14a3fffb 	bne	a1,v1,11e0 <_ZNK7float32ltERKS_.1693+0x78>
    11f4:	00000000 	nop
    11f8:	03e00008 	jr	ra
    11fc:	00001021 	move	v0,zero
    1200:	000417c2 	srl	v0,a0,0x1f
    1204:	14a2fff0 	bne	a1,v0,11c8 <_ZNK7float32ltERKS_.1693+0x60>
    1208:	00000000 	nop
    120c:	0800047a 	j	11e8 <_ZNK7float32ltERKS_.1693+0x80>
    1210:	00000000 	nop
    1214:	03e00008 	jr	ra
    1218:	00000000 	nop

0000121c <_ZN5Radio8Messages14defaultHandlerEPc.1697>:
    121c:	03e00008 	jr	ra
    1220:	00000000 	nop

00001224 <_ZN6System8Registry8instanceEv.local.6>:
    1224:	3c028000 	lui	v0,0x8000
    1228:	804302c8 	lb	v1,712(v0)
    122c:	00402021 	move	a0,v0
    1230:	14600012 	bnez	v1,127c <_ZN6System8Registry8instanceEv.local.6+0x58>
    1234:	3c028000 	lui	v0,0x8000
    1238:	3c038000 	lui	v1,0x8000
    123c:	244502d0 	addiu	a1,v0,720
    1240:	246302ec 	addiu	v1,v1,748
    1244:	24a50080 	addiu	a1,a1,128
    1248:	ac600000 	sw	zero,0(v1)
    124c:	24630004 	addiu	v1,v1,4
    1250:	1465fffd 	bne	v1,a1,1248 <_ZN6System8Registry8instanceEv.local.6+0x24>
    1254:	244702d0 	addiu	a3,v0,720
    1258:	00001821 	move	v1,zero
    125c:	24050007 	li	a1,7
    1260:	00033080 	sll	a2,v1,0x2
    1264:	00e63021 	addu	a2,a3,a2
    1268:	24630001 	addiu	v1,v1,1
    126c:	1465fffc 	bne	v1,a1,1260 <_ZN6System8Registry8instanceEv.local.6+0x3c>
    1270:	acc00000 	sw	zero,0(a2)
    1274:	24030001 	li	v1,1
    1278:	a08302c8 	sb	v1,712(a0)
    127c:	03e00008 	jr	ra
    1280:	244202d0 	addiu	v0,v0,720

00001284 <Control::StabilizationAndEngineUpdateTask::start()>:
    1284:	27bdffd8 	addiu	sp,sp,-40
    1288:	afb00014 	sw	s0,20(sp)
    128c:	afbf0024 	sw	ra,36(sp)
    1290:	afb30020 	sw	s3,32(sp)
    1294:	afb2001c 	sw	s2,28(sp)
    1298:	0c000489 	jal	1224 <_ZN6System8Registry8instanceEv.local.6>
    129c:	afb10018 	sw	s1,24(sp)
    12a0:	8c500054 	lw	s0,84(v0)
    12a4:	00000000 	nop
    12a8:	2e0200c9 	sltiu	v0,s0,201
    12ac:	1440000f 	bnez	v0,12ec <Control::StabilizationAndEngineUpdateTask::start()+0x68>
    12b0:	00000000 	nop
    12b4:	0c000489 	jal	1224 <_ZN6System8Registry8instanceEv.local.6>
    12b8:	00000000 	nop
    12bc:	8c530064 	lw	s3,100(v0)
    12c0:	0c000489 	jal	1224 <_ZN6System8Registry8instanceEv.local.6>
    12c4:	02139821 	addu	s3,s0,s3
    12c8:	8c510068 	lw	s1,104(v0)
    12cc:	0c000489 	jal	1224 <_ZN6System8Registry8instanceEv.local.6>
    12d0:	02118823 	subu	s1,s0,s1
    12d4:	8c520064 	lw	s2,100(v0)
    12d8:	0c000489 	jal	1224 <_ZN6System8Registry8instanceEv.local.6>
    12dc:	02129023 	subu	s2,s0,s2
    12e0:	8c420068 	lw	v0,104(v0)
    12e4:	080004be 	j	12f8 <Control::StabilizationAndEngineUpdateTask::start()+0x74>
    12e8:	02028021 	addu	s0,s0,v0
    12ec:	02009021 	move	s2,s0
    12f0:	02008821 	move	s1,s0
    12f4:	02009821 	move	s3,s0
    12f8:	00139c00 	sll	s3,s3,0x10
    12fc:	00118c00 	sll	s1,s1,0x10
    1300:	8fbf0024 	lw	ra,36(sp)
    1304:	02729025 	or	s2,s3,s2
    1308:	02308025 	or	s0,s1,s0
    130c:	ac12001c 	sw	s2,28(zero)
    1310:	8fb30020 	lw	s3,32(sp)
    1314:	ac100020 	sw	s0,32(zero)
    1318:	8fb2001c 	lw	s2,28(sp)
    131c:	8fb10018 	lw	s1,24(sp)
    1320:	8fb00014 	lw	s0,20(sp)
    1324:	03e00008 	jr	ra
    1328:	27bd0028 	addiu	sp,sp,40

0000132c <float32::operator/(float32 const&) const>:
    132c:	27bdffc0 	addiu	sp,sp,-64
    1330:	8ca20000 	lw	v0,0(a1)
    1334:	afb00018 	sw	s0,24(sp)
    1338:	00808021 	move	s0,a0
    133c:	8cc40000 	lw	a0,0(a2)
    1340:	00021dc2 	srl	v1,v0,0x17
    1344:	afb40028 	sw	s4,40(sp)
    1348:	00042dc2 	srl	a1,a0,0x17
    134c:	0044a026 	xor	s4,v0,a0
    1350:	306300ff 	andi	v1,v1,0xff
    1354:	240600ff 	li	a2,255
    1358:	afbf003c 	sw	ra,60(sp)
    135c:	afbe0038 	sw	s8,56(sp)
    1360:	afb70034 	sw	s7,52(sp)
    1364:	afb60030 	sw	s6,48(sp)
    1368:	afb5002c 	sw	s5,44(sp)
    136c:	afb30024 	sw	s3,36(sp)
    1370:	afb20020 	sw	s2,32(sp)
    1374:	afb1001c 	sw	s1,28(sp)
    1378:	30a500ff 	andi	a1,a1,0xff
    137c:	14660005 	bne	v1,a2,1394 <float32::operator/(float32 const&) const+0x68>
    1380:	0014a7c2 	srl	s4,s4,0x1f
    1384:	14a30012 	bne	a1,v1,13d0 <float32::operator/(float32 const&) const+0xa4>
    1388:	0014a7c0 	sll	s4,s4,0x1f
    138c:	080005a5 	j	1694 <float32::operator/(float32 const&) const+0x368>
    1390:	2402ffff 	li	v0,-1
    1394:	14a60003 	bne	a1,a2,13a4 <float32::operator/(float32 const&) const+0x78>
    1398:	3c11007f 	lui	s1,0x7f
    139c:	08000516 	j	1458 <float32::operator/(float32 const&) const+0x12c>
    13a0:	0014a7c0 	sll	s4,s4,0x1f
    13a4:	3631ffff 	ori	s1,s1,0xffff
    13a8:	00511024 	and	v0,v0,s1
    13ac:	14a00025 	bnez	a1,1444 <float32::operator/(float32 const&) const+0x118>
    13b0:	00918824 	and	s1,a0,s1
    13b4:	16200009 	bnez	s1,13dc <float32::operator/(float32 const&) const+0xb0>
    13b8:	00000000 	nop
    13bc:	00621025 	or	v0,v1,v0
    13c0:	14400003 	bnez	v0,13d0 <float32::operator/(float32 const&) const+0xa4>
    13c4:	0014a7c0 	sll	s4,s4,0x1f
    13c8:	080005a5 	j	1694 <float32::operator/(float32 const&) const+0x368>
    13cc:	2402ffff 	li	v0,-1
    13d0:	3c027f80 	lui	v0,0x7f80
    13d4:	08000516 	j	1458 <float32::operator/(float32 const&) const+0x12c>
    13d8:	0282a021 	addu	s4,s4,v0
    13dc:	3c040001 	lui	a0,0x1
    13e0:	0224202b 	sltu	a0,s1,a0
    13e4:	10800008 	beqz	a0,1408 <float32::operator/(float32 const&) const+0xdc>
    13e8:	02202021 	move	a0,s1
    13ec:	00112400 	sll	a0,s1,0x10
    13f0:	3c060100 	lui	a2,0x100
    13f4:	0086302b 	sltu	a2,a0,a2
    13f8:	10c00006 	beqz	a2,1414 <float32::operator/(float32 const&) const+0xe8>
    13fc:	24050010 	li	a1,16
    1400:	08000504 	j	1410 <float32::operator/(float32 const&) const+0xe4>
    1404:	24a50008 	addiu	a1,a1,8
    1408:	00002821 	move	a1,zero
    140c:	24a50008 	addiu	a1,a1,8
    1410:	00042200 	sll	a0,a0,0x8
    1414:	3c068000 	lui	a2,0x8000
    1418:	00042602 	srl	a0,a0,0x18
    141c:	24c60014 	addiu	a2,a2,20
    1420:	00862021 	addu	a0,a0,a2
    1424:	90840000 	lbu	a0,0(a0)
    1428:	24a5fff8 	addiu	a1,a1,-8
    142c:	00a42821 	addu	a1,a1,a0
    1430:	00052e00 	sll	a1,a1,0x18
    1434:	00052e03 	sra	a1,a1,0x18
    1438:	24040001 	li	a0,1
    143c:	00b18804 	sllv	s1,s1,a1
    1440:	00852823 	subu	a1,a0,a1
    1444:	14600021 	bnez	v1,14cc <float32::operator/(float32 const&) const+0x1a0>
    1448:	0065f023 	subu	s8,v1,a1
    144c:	14400004 	bnez	v0,1460 <float32::operator/(float32 const&) const+0x134>
    1450:	00000000 	nop
    1454:	0014a7c0 	sll	s4,s4,0x1f
    1458:	080005a6 	j	1698 <float32::operator/(float32 const&) const+0x36c>
    145c:	ae140000 	sw	s4,0(s0)
    1460:	3c030001 	lui	v1,0x1
    1464:	0043182b 	sltu	v1,v0,v1
    1468:	10600008 	beqz	v1,148c <float32::operator/(float32 const&) const+0x160>
    146c:	00402021 	move	a0,v0
    1470:	00022400 	sll	a0,v0,0x10
    1474:	3c060100 	lui	a2,0x100
    1478:	0086302b 	sltu	a2,a0,a2
    147c:	10c00006 	beqz	a2,1498 <float32::operator/(float32 const&) const+0x16c>
    1480:	24030010 	li	v1,16
    1484:	08000525 	j	1494 <float32::operator/(float32 const&) const+0x168>
    1488:	24630008 	addiu	v1,v1,8
    148c:	00001821 	move	v1,zero
    1490:	24630008 	addiu	v1,v1,8
    1494:	00042200 	sll	a0,a0,0x8
    1498:	3c068000 	lui	a2,0x8000
    149c:	00042602 	srl	a0,a0,0x18
    14a0:	24c60014 	addiu	a2,a2,20
    14a4:	00862021 	addu	a0,a0,a2
    14a8:	90840000 	lbu	a0,0(a0)
    14ac:	2463fff8 	addiu	v1,v1,-8
    14b0:	00641821 	addu	v1,v1,a0
    14b4:	00031e00 	sll	v1,v1,0x18
    14b8:	00031e03 	sra	v1,v1,0x18
    14bc:	24040001 	li	a0,1
    14c0:	00621004 	sllv	v0,v0,v1
    14c4:	00831823 	subu	v1,a0,v1
    14c8:	0065f023 	subu	s8,v1,a1
    14cc:	3c030080 	lui	v1,0x80
    14d0:	00431025 	or	v0,v0,v1
    14d4:	02238825 	or	s1,s1,v1
    14d8:	000291c0 	sll	s2,v0,0x7
    14dc:	00118a00 	sll	s1,s1,0x8
    14e0:	00021200 	sll	v0,v0,0x8
    14e4:	0051102b 	sltu	v0,v0,s1
    14e8:	10400003 	beqz	v0,14f8 <float32::operator/(float32 const&) const+0x1cc>
    14ec:	00000000 	nop
    14f0:	08000540 	j	1500 <float32::operator/(float32 const&) const+0x1d4>
    14f4:	27de007d 	addiu	s8,s8,125
    14f8:	00129042 	srl	s2,s2,0x1
    14fc:	27de007e 	addiu	s8,s8,126
    1500:	0251102b 	sltu	v0,s2,s1
    1504:	1040004c 	beqz	v0,1638 <float32::operator/(float32 const&) const+0x30c>
    1508:	2406ffff 	li	a2,-1
    150c:	00119c02 	srl	s3,s1,0x10
    1510:	00133c00 	sll	a3,s3,0x10
    1514:	0247102b 	sltu	v0,s2,a3
    1518:	10400014 	beqz	v0,156c <float32::operator/(float32 const&) const+0x240>
    151c:	3c15ffff 	lui	s5,0xffff
    1520:	0000a821 	move	s5,zero
    1524:	2404001f 	li	a0,31
    1528:	00003021 	move	a2,zero
    152c:	24030001 	li	v1,1
    1530:	2402ffff 	li	v0,-1
    1534:	00832804 	sllv	a1,v1,a0
    1538:	00b22824 	and	a1,a1,s2
    153c:	00852807 	srav	a1,a1,a0
    1540:	00063040 	sll	a2,a2,0x1
    1544:	00c53021 	addu	a2,a2,a1
    1548:	00d3282a 	slt	a1,a2,s3
    154c:	14a00003 	bnez	a1,155c <float32::operator/(float32 const&) const+0x230>
    1550:	0015a840 	sll	s5,s5,0x1
    1554:	00d33023 	subu	a2,a2,s3
    1558:	26b50001 	addiu	s5,s5,1
    155c:	2484ffff 	addiu	a0,a0,-1
    1560:	1482fff4 	bne	a0,v0,1534 <float32::operator/(float32 const&) const+0x208>
    1564:	00000000 	nop
    1568:	0015ac00 	sll	s5,s5,0x10
    156c:	02b10019 	multu	s5,s1
    1570:	00113400 	sll	a2,s1,0x10
    1574:	02602821 	move	a1,s3
    1578:	00002021 	move	a0,zero
    157c:	24c60020 	addiu	a2,a2,32
    1580:	afa70010 	sw	a3,16(sp)
    1584:	00005812 	mflo	t3
    1588:	000bb023 	negu	s6,t3
    158c:	0016102b 	sltu	v0,zero,s6
    1590:	00005010 	mfhi	t2
    1594:	024a5023 	subu	t2,s2,t2
    1598:	0142b823 	subu	s7,t2,v0
    159c:	0c000d47 	jal	351c <__ashldi3>
    15a0:	afb60014 	sw	s6,20(sp)
    15a4:	8fa70010 	lw	a3,16(sp)
    15a8:	8fa80014 	lw	t0,20(sp)
    15ac:	08000573 	j	15cc <float32::operator/(float32 const&) const+0x2a0>
    15b0:	3c05ffff 	lui	a1,0xffff
    15b4:	0096b02b 	sltu	s6,a0,s6
    15b8:	02e2b821 	addu	s7,s7,v0
    15bc:	02d7b821 	addu	s7,s6,s7
    15c0:	02a5a821 	addu	s5,s5,a1
    15c4:	0080b021 	move	s6,a0
    15c8:	00804021 	move	t0,a0
    15cc:	06e0fff9 	bltz	s7,15b4 <float32::operator/(float32 const&) const+0x288>
    15d0:	02c32021 	addu	a0,s6,v1
    15d4:	0017bc00 	sll	s7,s7,0x10
    15d8:	00084402 	srl	t0,t0,0x10
    15dc:	01174025 	or	t0,t0,s7
    15e0:	0107102b 	sltu	v0,t0,a3
    15e4:	10400013 	beqz	v0,1634 <float32::operator/(float32 const&) const+0x308>
    15e8:	3407ffff 	li	a3,0xffff
    15ec:	00003821 	move	a3,zero
    15f0:	2404001f 	li	a0,31
    15f4:	00003021 	move	a2,zero
    15f8:	24030001 	li	v1,1
    15fc:	2402ffff 	li	v0,-1
    1600:	00832804 	sllv	a1,v1,a0
    1604:	00a82824 	and	a1,a1,t0
    1608:	00852807 	srav	a1,a1,a0
    160c:	00063040 	sll	a2,a2,0x1
    1610:	00c53021 	addu	a2,a2,a1
    1614:	00d3282a 	slt	a1,a2,s3
    1618:	14a00003 	bnez	a1,1628 <float32::operator/(float32 const&) const+0x2fc>
    161c:	00073840 	sll	a3,a3,0x1
    1620:	00d33023 	subu	a2,a2,s3
    1624:	24e70001 	addiu	a3,a3,1
    1628:	2484ffff 	addiu	a0,a0,-1
    162c:	1482fff5 	bne	a0,v0,1604 <float32::operator/(float32 const&) const+0x2d8>
    1630:	00832804 	sllv	a1,v1,a0
    1634:	00f53025 	or	a2,a3,s5
    1638:	30c2003f 	andi	v0,a2,0x3f
    163c:	2c420003 	sltiu	v0,v0,3
    1640:	10400011 	beqz	v0,1688 <float32::operator/(float32 const&) const+0x35c>
    1644:	00d10019 	multu	a2,s1
    1648:	00004812 	mflo	t1
    164c:	00092023 	negu	a0,t1
    1650:	0004102b 	sltu	v0,zero,a0
    1654:	00004010 	mfhi	t0
    1658:	02484023 	subu	t0,s2,t0
    165c:	01024023 	subu	t0,t0,v0
    1660:	0800059f 	j	167c <float32::operator/(float32 const&) const+0x350>
    1664:	00801021 	move	v0,a0
    1668:	00911021 	addu	v0,a0,s1
    166c:	0044202b 	sltu	a0,v0,a0
    1670:	00884021 	addu	t0,a0,t0
    1674:	24c6ffff 	addiu	a2,a2,-1
    1678:	00402021 	move	a0,v0
    167c:	0500fffa 	bltz	t0,1668 <float32::operator/(float32 const&) const+0x33c>
    1680:	0002102b 	sltu	v0,zero,v0
    1684:	00c23025 	or	a2,a2,v0
    1688:	02802021 	move	a0,s4
    168c:	0c0003d7 	jal	f5c <_ZN7float3212roundAndPackEbij.1685>
    1690:	03c02821 	move	a1,s8
    1694:	ae020000 	sw	v0,0(s0)
    1698:	8fbf003c 	lw	ra,60(sp)
    169c:	02001021 	move	v0,s0
    16a0:	8fbe0038 	lw	s8,56(sp)
    16a4:	8fb70034 	lw	s7,52(sp)
    16a8:	8fb60030 	lw	s6,48(sp)
    16ac:	8fb5002c 	lw	s5,44(sp)
    16b0:	8fb40028 	lw	s4,40(sp)
    16b4:	8fb30024 	lw	s3,36(sp)
    16b8:	8fb20020 	lw	s2,32(sp)
    16bc:	8fb1001c 	lw	s1,28(sp)
    16c0:	8fb00018 	lw	s0,24(sp)
    16c4:	03e00008 	jr	ra
    16c8:	27bd0040 	addiu	sp,sp,64

000016cc <System::Bus::UART::write_waiting(char const*, unsigned int)>:
    16cc:	00a01821 	move	v1,a1
    16d0:	10a00004 	beqz	a1,16e4 <System::Bus::UART::write_waiting(char const*, unsigned int)+0x18>
    16d4:	00801021 	move	v0,a0
    16d8:	080005c0 	j	1700 <System::Bus::UART::write_waiting(char const*, unsigned int)+0x34>
    16dc:	2406001f 	li	a2,31
    16e0:	24420001 	addiu	v0,v0,1
    16e4:	80460000 	lb	a2,0(v0)
    16e8:	00000000 	nop
    16ec:	14c0fffc 	bnez	a2,16e0 <System::Bus::UART::write_waiting(char const*, unsigned int)+0x14>
    16f0:	00441823 	subu	v1,v0,a0
    16f4:	080005c0 	j	1700 <System::Bus::UART::write_waiting(char const*, unsigned int)+0x34>
    16f8:	2406001f 	li	a2,31
    16fc:	00000000 	nop
    1700:	8c020014 	lw	v0,20(zero)
    1704:	00000000 	nop
    1708:	00c21023 	subu	v0,a2,v0
    170c:	0043102b 	sltu	v0,v0,v1
    1710:	1440fffa 	bnez	v0,16fc <System::Bus::UART::write_waiting(char const*, unsigned int)+0x30>
    1714:	00000000 	nop
    1718:	2406001f 	li	a2,31
    171c:	10a00008 	beqz	a1,1740 <System::Bus::UART::write_waiting(char const*, unsigned int)+0x74>
    1720:	00821821 	addu	v1,a0,v0
    1724:	0045182b 	sltu	v1,v0,a1
    1728:	1060000c 	beqz	v1,175c <System::Bus::UART::write_waiting(char const*, unsigned int)+0x90>
    172c:	00000000 	nop
    1730:	00821821 	addu	v1,a0,v0
    1734:	80630000 	lb	v1,0(v1)
    1738:	080005d5 	j	1754 <System::Bus::UART::write_waiting(char const*, unsigned int)+0x88>
    173c:	24420001 	addiu	v0,v0,1
    1740:	80630000 	lb	v1,0(v1)
    1744:	00000000 	nop
    1748:	10600004 	beqz	v1,175c <System::Bus::UART::write_waiting(char const*, unsigned int)+0x90>
    174c:	00000000 	nop
    1750:	24420001 	addiu	v0,v0,1
    1754:	1446fff1 	bne	v0,a2,171c <System::Bus::UART::write_waiting(char const*, unsigned int)+0x50>
    1758:	ac030014 	sw	v1,20(zero)
    175c:	03e00008 	jr	ra
    1760:	00000000 	nop

00001764 <Radio::Digital::TelemetryTask::start()>:
    1764:	27bdffd0 	addiu	sp,sp,-48
    1768:	24020080 	li	v0,128
    176c:	afbf002c 	sw	ra,44(sp)
    1770:	0c000489 	jal	1224 <_ZN6System8Registry8instanceEv.local.6>
    1774:	afa20010 	sw	v0,16(sp)
    1778:	8c420000 	lw	v0,0(v0)
    177c:	0c000489 	jal	1224 <_ZN6System8Registry8instanceEv.local.6>
    1780:	afa20014 	sw	v0,20(sp)
    1784:	8c420004 	lw	v0,4(v0)
    1788:	0c000489 	jal	1224 <_ZN6System8Registry8instanceEv.local.6>
    178c:	afa20018 	sw	v0,24(sp)
    1790:	8c420008 	lw	v0,8(v0)
    1794:	0c000489 	jal	1224 <_ZN6System8Registry8instanceEv.local.6>
    1798:	afa2001c 	sw	v0,28(sp)
    179c:	8c42000c 	lw	v0,12(v0)
    17a0:	27a40010 	addiu	a0,sp,16
    17a4:	24050014 	li	a1,20
    17a8:	0c0005b3 	jal	16cc <System::Bus::UART::write_waiting(char const*, unsigned int)>
    17ac:	afa20020 	sw	v0,32(sp)
    17b0:	8fbf002c 	lw	ra,44(sp)
    17b4:	00000000 	nop
    17b8:	03e00008 	jr	ra
    17bc:	27bd0030 	addiu	sp,sp,48

000017c0 <System::Bus::UART::write_waiting(long long)>:
    17c0:	24020008 	li	v0,8
    17c4:	2406001f 	li	a2,31
    17c8:	00041e03 	sra	v1,a0,0x18
    17cc:	14600004 	bnez	v1,17e0 <System::Bus::UART::write_waiting(long long)+0x20>
    17d0:	00000000 	nop
    17d4:	08000606 	j	1818 <System::Bus::UART::write_waiting(long long)+0x58>
    17d8:	2402001f 	li	v0,31
    17dc:	00000000 	nop
    17e0:	8c070014 	lw	a3,20(zero)
    17e4:	00000000 	nop
    17e8:	10e6fffc 	beq	a3,a2,17dc <System::Bus::UART::write_waiting(long long)+0x1c>
    17ec:	00000000 	nop
    17f0:	ac030014 	sw	v1,20(zero)
    17f4:	00042200 	sll	a0,a0,0x8
    17f8:	00051e02 	srl	v1,a1,0x18
    17fc:	2442ffff 	addiu	v0,v0,-1
    1800:	00642025 	or	a0,v1,a0
    1804:	1440fff0 	bnez	v0,17c8 <System::Bus::UART::write_waiting(long long)+0x8>
    1808:	00052a00 	sll	a1,a1,0x8
    180c:	08000606 	j	1818 <System::Bus::UART::write_waiting(long long)+0x58>
    1810:	2402001f 	li	v0,31
    1814:	00000000 	nop
    1818:	8c030014 	lw	v1,20(zero)
    181c:	00000000 	nop
    1820:	1062fffc 	beq	v1,v0,1814 <System::Bus::UART::write_waiting(long long)+0x54>
    1824:	00000000 	nop
    1828:	24020068 	li	v0,104
    182c:	03e00008 	jr	ra
    1830:	ac020014 	sw	v0,20(zero)

00001834 <System::Tasking::TaskScheduler::selectNextTask(unsigned int)>:
    1834:	27bdfff8 	addiu	sp,sp,-8
    1838:	24820004 	addiu	v0,a0,4
    183c:	afa20000 	sw	v0,0(sp)
    1840:	24820008 	addiu	v0,a0,8
    1844:	afa20004 	sw	v0,4(sp)
    1848:	00001821 	move	v1,zero
    184c:	00004021 	move	t0,zero
    1850:	2409ffff 	li	t1,-1
    1854:	00003021 	move	a2,zero
    1858:	240b0008 	li	t3,8
    185c:	03a31021 	addu	v0,sp,v1
    1860:	8c420000 	lw	v0,0(v0)
    1864:	00000000 	nop
    1868:	8c470000 	lw	a3,0(v0)
    186c:	00000000 	nop
    1870:	10e0000e 	beqz	a3,18ac <System::Tasking::TaskScheduler::selectNextTask(unsigned int)+0x78>
    1874:	00e01021 	move	v0,a3
    1878:	8c4a0004 	lw	t2,4(v0)
    187c:	00000000 	nop
    1880:	01455023 	subu	t2,t2,a1
    1884:	0149602b 	sltu	t4,t2,t1
    1888:	11800004 	beqz	t4,189c <System::Tasking::TaskScheduler::selectNextTask(unsigned int)+0x68>
    188c:	00000000 	nop
    1890:	00e04021 	move	t0,a3
    1894:	01404821 	move	t1,t2
    1898:	00403021 	move	a2,v0
    189c:	8c42000c 	lw	v0,12(v0)
    18a0:	00000000 	nop
    18a4:	1440fff4 	bnez	v0,1878 <System::Tasking::TaskScheduler::selectNextTask(unsigned int)+0x44>
    18a8:	00000000 	nop
    18ac:	24630004 	addiu	v1,v1,4
    18b0:	146bffeb 	bne	v1,t3,1860 <System::Tasking::TaskScheduler::selectNextTask(unsigned int)+0x2c>
    18b4:	03a31021 	addu	v0,sp,v1
    18b8:	8cc20004 	lw	v0,4(a2)
    18bc:	ac860010 	sw	a2,16(a0)
    18c0:	ac820014 	sw	v0,20(a0)
    18c4:	8c820004 	lw	v0,4(a0)
    18c8:	27bd0008 	addiu	sp,sp,8
    18cc:	01024026 	xor	t0,t0,v0
    18d0:	0008402b 	sltu	t0,zero,t0
    18d4:	03e00008 	jr	ra
    18d8:	ac880018 	sw	t0,24(a0)

000018dc <System::Bus::I2C::write(char)>:
    18dc:	3c020002 	lui	v0,0x2
    18e0:	308400ff 	andi	a0,a0,0xff
    18e4:	24420100 	addiu	v0,v0,256
    18e8:	00822025 	or	a0,a0,v0
    18ec:	ac04000c 	sw	a0,12(zero)
    18f0:	8c02000c 	lw	v0,12(zero)
    18f4:	00000000 	nop
    18f8:	0440fffd 	bltz	v0,18f0 <System::Bus::I2C::write(char)+0x14>
    18fc:	00000000 	nop
    1900:	8c02000c 	lw	v0,12(zero)
    1904:	03e00008 	jr	ra
    1908:	00000000 	nop

0000190c <System::Bus::I2C::read()>:
    190c:	3c020002 	lui	v0,0x2
    1910:	244200ff 	addiu	v0,v0,255
    1914:	ac02000c 	sw	v0,12(zero)
    1918:	8c02000c 	lw	v0,12(zero)
    191c:	00000000 	nop
    1920:	0440fffd 	bltz	v0,1918 <System::Bus::I2C::read()+0xc>
    1924:	00000000 	nop
    1928:	8c02000c 	lw	v0,12(zero)
    192c:	00000000 	nop
    1930:	00021600 	sll	v0,v0,0x18
    1934:	03e00008 	jr	ra
    1938:	00021603 	sra	v0,v0,0x18

0000193c <System::Bus::I2C::stop()>:
    193c:	3c020001 	lui	v0,0x1
    1940:	244200ff 	addiu	v0,v0,255
    1944:	ac02000c 	sw	v0,12(zero)
    1948:	8c02000c 	lw	v0,12(zero)
    194c:	00000000 	nop
    1950:	0440fffd 	bltz	v0,1948 <System::Bus::I2C::stop()+0xc>
    1954:	00000000 	nop
    1958:	03e00008 	jr	ra
    195c:	00000000 	nop

00001960 <System::Bus::I2C::start()>:
    1960:	3c020004 	lui	v0,0x4
    1964:	244200ff 	addiu	v0,v0,255
    1968:	ac02000c 	sw	v0,12(zero)
    196c:	8c02000c 	lw	v0,12(zero)
    1970:	00000000 	nop
    1974:	0440fffd 	bltz	v0,196c <System::Bus::I2C::start()+0xc>
    1978:	00000000 	nop
    197c:	03e00008 	jr	ra
    1980:	00000000 	nop

00001984 <_ZN7Sensors3IMU7MPU6050L13mpu6050_setupEcc.2475>:
    1984:	27bdffe0 	addiu	sp,sp,-32
    1988:	afbf001c 	sw	ra,28(sp)
    198c:	afb10018 	sw	s1,24(sp)
    1990:	afb00014 	sw	s0,20(sp)
    1994:	00a08821 	move	s1,a1
    1998:	0c000658 	jal	1960 <System::Bus::I2C::start()>
    199c:	00808021 	move	s0,a0
    19a0:	0c000637 	jal	18dc <System::Bus::I2C::write(char)>
    19a4:	2404ffd0 	li	a0,-48
    19a8:	0c000637 	jal	18dc <System::Bus::I2C::write(char)>
    19ac:	02002021 	move	a0,s0
    19b0:	0c000637 	jal	18dc <System::Bus::I2C::write(char)>
    19b4:	02202021 	move	a0,s1
    19b8:	8fbf001c 	lw	ra,28(sp)
    19bc:	8fb10018 	lw	s1,24(sp)
    19c0:	8fb00014 	lw	s0,20(sp)
    19c4:	0800064f 	j	193c <System::Bus::I2C::stop()>
    19c8:	27bd0020 	addiu	sp,sp,32

000019cc <float32::normalizeRoundAndPack(bool, int, unsigned int)>:
    19cc:	3c020001 	lui	v0,0x1
    19d0:	00c2102b 	sltu	v0,a2,v0
    19d4:	10400003 	beqz	v0,19e4 <float32::normalizeRoundAndPack(bool, int, unsigned int)+0x18>
    19d8:	00061400 	sll	v0,a2,0x10
    19dc:	0800067b 	j	19ec <float32::normalizeRoundAndPack(bool, int, unsigned int)+0x20>
    19e0:	24030010 	li	v1,16
    19e4:	00c01021 	move	v0,a2
    19e8:	00001821 	move	v1,zero
    19ec:	3c070100 	lui	a3,0x100
    19f0:	0047382b 	sltu	a3,v0,a3
    19f4:	10e00005 	beqz	a3,1a0c <float32::normalizeRoundAndPack(bool, int, unsigned int)+0x40>
    19f8:	3c078000 	lui	a3,0x8000
    19fc:	24630008 	addiu	v1,v1,8
    1a00:	00031e00 	sll	v1,v1,0x18
    1a04:	00031e03 	sra	v1,v1,0x18
    1a08:	00021200 	sll	v0,v0,0x8
    1a0c:	00021602 	srl	v0,v0,0x18
    1a10:	24e70014 	addiu	a3,a3,20
    1a14:	00471021 	addu	v0,v0,a3
    1a18:	90420000 	lbu	v0,0(v0)
    1a1c:	2463ffff 	addiu	v1,v1,-1
    1a20:	00621821 	addu	v1,v1,v0
    1a24:	00031e00 	sll	v1,v1,0x18
    1a28:	00031e03 	sra	v1,v1,0x18
    1a2c:	00a32823 	subu	a1,a1,v1
    1a30:	080003d7 	j	f5c <_ZN7float3212roundAndPackEbij.1685>
    1a34:	00663004 	sllv	a2,a2,v1

00001a38 <float32::float32(int)>:
    1a38:	27bdffe8 	addiu	sp,sp,-24
    1a3c:	afb00010 	sw	s0,16(sp)
    1a40:	afbf0014 	sw	ra,20(sp)
    1a44:	14a00003 	bnez	a1,1a54 <float32::float32(int)+0x1c>
    1a48:	00808021 	move	s0,a0
    1a4c:	080006a0 	j	1a80 <float32::float32(int)+0x48>
    1a50:	ac800000 	sw	zero,0(a0)
    1a54:	3c028000 	lui	v0,0x8000
    1a58:	14a20003 	bne	a1,v0,1a68 <float32::float32(int)+0x30>
    1a5c:	000527c2 	srl	a0,a1,0x1f
    1a60:	0800069f 	j	1a7c <float32::float32(int)+0x44>
    1a64:	3c02cf00 	lui	v0,0xcf00
    1a68:	10800002 	beqz	a0,1a74 <float32::float32(int)+0x3c>
    1a6c:	00a03021 	move	a2,a1
    1a70:	00053023 	negu	a2,a1
    1a74:	0c000673 	jal	19cc <float32::normalizeRoundAndPack(bool, int, unsigned int)>
    1a78:	2405009c 	li	a1,156
    1a7c:	ae020000 	sw	v0,0(s0)
    1a80:	8fbf0014 	lw	ra,20(sp)
    1a84:	8fb00010 	lw	s0,16(sp)
    1a88:	03e00008 	jr	ra
    1a8c:	27bd0018 	addiu	sp,sp,24

00001a90 <_ZN7float327subSigsEjjb.1662>:
    1a90:	3c03007f 	lui	v1,0x7f
    1a94:	00801021 	move	v0,a0
    1a98:	3463ffff 	ori	v1,v1,0xffff
    1a9c:	00433824 	and	a3,v0,v1
    1aa0:	00024dc2 	srl	t1,v0,0x17
    1aa4:	00a31824 	and	v1,a1,v1
    1aa8:	00052dc2 	srl	a1,a1,0x17
    1aac:	312900ff 	andi	t1,t1,0xff
    1ab0:	30a500ff 	andi	a1,a1,0xff
    1ab4:	01254023 	subu	t0,t1,a1
    1ab8:	00c02021 	move	a0,a2
    1abc:	000739c0 	sll	a3,a3,0x7
    1ac0:	1d00002c 	bgtz	t0,1b74 <_ZN7float327subSigsEjjb.1662+0xe4>
    1ac4:	000319c0 	sll	v1,v1,0x7
    1ac8:	1500000e 	bnez	t0,1b04 <_ZN7float327subSigsEjjb.1662+0x74>
    1acc:	240200ff 	li	v0,255
    1ad0:	11220043 	beq	t1,v0,1be0 <_ZN7float327subSigsEjjb.1662+0x150>
    1ad4:	2402ffff 	li	v0,-1
    1ad8:	15200003 	bnez	t1,1ae8 <_ZN7float327subSigsEjjb.1662+0x58>
    1adc:	0067102b 	sltu	v0,v1,a3
    1ae0:	24050001 	li	a1,1
    1ae4:	24090001 	li	t1,1
    1ae8:	14400039 	bnez	v0,1bd0 <_ZN7float327subSigsEjjb.1662+0x140>
    1aec:	00000000 	nop
    1af0:	00e3102b 	sltu	v0,a3,v1
    1af4:	1440001c 	bnez	v0,1b68 <_ZN7float327subSigsEjjb.1662+0xd8>
    1af8:	00000000 	nop
    1afc:	03e00008 	jr	ra
    1b00:	00001021 	move	v0,zero
    1b04:	14a20005 	bne	a1,v0,1b1c <_ZN7float327subSigsEjjb.1662+0x8c>
    1b08:	38c20001 	xori	v0,a2,0x1
    1b0c:	3c037f80 	lui	v1,0x7f80
    1b10:	000217c0 	sll	v0,v0,0x1f
    1b14:	03e00008 	jr	ra
    1b18:	00431021 	addu	v0,v0,v1
    1b1c:	15200003 	bnez	t1,1b2c <_ZN7float327subSigsEjjb.1662+0x9c>
    1b20:	3c024000 	lui	v0,0x4000
    1b24:	080006cc 	j	1b30 <_ZN7float327subSigsEjjb.1662+0xa0>
    1b28:	25080001 	addiu	t0,t0,1
    1b2c:	00e23825 	or	a3,a3,v0
    1b30:	00081023 	negu	v0,t0
    1b34:	1040000a 	beqz	v0,1b60 <_ZN7float327subSigsEjjb.1662+0xd0>
    1b38:	00000000 	nop
    1b3c:	28460020 	slti	a2,v0,32
    1b40:	10c00006 	beqz	a2,1b5c <_ZN7float327subSigsEjjb.1662+0xcc>
    1b44:	00000000 	nop
    1b48:	00471006 	srlv	v0,a3,v0
    1b4c:	01073804 	sllv	a3,a3,t0
    1b50:	0007382b 	sltu	a3,zero,a3
    1b54:	080006d8 	j	1b60 <_ZN7float327subSigsEjjb.1662+0xd0>
    1b58:	00e23825 	or	a3,a3,v0
    1b5c:	0007382b 	sltu	a3,zero,a3
    1b60:	3c024000 	lui	v0,0x4000
    1b64:	00621825 	or	v1,v1,v0
    1b68:	00673023 	subu	a2,v1,a3
    1b6c:	080006f6 	j	1bd8 <_ZN7float327subSigsEjjb.1662+0x148>
    1b70:	38840001 	xori	a0,a0,0x1
    1b74:	240600ff 	li	a2,255
    1b78:	11260019 	beq	t1,a2,1be0 <_ZN7float327subSigsEjjb.1662+0x150>
    1b7c:	00000000 	nop
    1b80:	14a00006 	bnez	a1,1b9c <_ZN7float327subSigsEjjb.1662+0x10c>
    1b84:	3c024000 	lui	v0,0x4000
    1b88:	2508ffff 	addiu	t0,t0,-1
    1b8c:	1100000f 	beqz	t0,1bcc <_ZN7float327subSigsEjjb.1662+0x13c>
    1b90:	00000000 	nop
    1b94:	080006e9 	j	1ba4 <_ZN7float327subSigsEjjb.1662+0x114>
    1b98:	29020020 	slti	v0,t0,32
    1b9c:	00621825 	or	v1,v1,v0
    1ba0:	29020020 	slti	v0,t0,32
    1ba4:	10400007 	beqz	v0,1bc4 <_ZN7float327subSigsEjjb.1662+0x134>
    1ba8:	00000000 	nop
    1bac:	01031006 	srlv	v0,v1,t0
    1bb0:	00084023 	negu	t0,t0
    1bb4:	01031804 	sllv	v1,v1,t0
    1bb8:	0003182b 	sltu	v1,zero,v1
    1bbc:	080006f2 	j	1bc8 <_ZN7float327subSigsEjjb.1662+0x138>
    1bc0:	00621825 	or	v1,v1,v0
    1bc4:	0003182b 	sltu	v1,zero,v1
    1bc8:	3c024000 	lui	v0,0x4000
    1bcc:	00e23825 	or	a3,a3,v0
    1bd0:	00e33023 	subu	a2,a3,v1
    1bd4:	01202821 	move	a1,t1
    1bd8:	08000673 	j	19cc <float32::normalizeRoundAndPack(bool, int, unsigned int)>
    1bdc:	24a5ffff 	addiu	a1,a1,-1
    1be0:	03e00008 	jr	ra
    1be4:	00000000 	nop

00001be8 <float32::operator+(float32 const&) const>:
    1be8:	27bdffe8 	addiu	sp,sp,-24
    1bec:	afb00010 	sw	s0,16(sp)
    1bf0:	00808021 	move	s0,a0
    1bf4:	8ca40000 	lw	a0,0(a1)
    1bf8:	8cc50000 	lw	a1,0(a2)
    1bfc:	000417c2 	srl	v0,a0,0x1f
    1c00:	00051fc2 	srl	v1,a1,0x1f
    1c04:	afbf0014 	sw	ra,20(sp)
    1c08:	14430005 	bne	v0,v1,1c20 <float32::operator+(float32 const&) const+0x38>
    1c0c:	00403021 	move	a2,v0
    1c10:	0c000403 	jal	100c <_ZN7float327addSigsEjjb.1680>
    1c14:	00000000 	nop
    1c18:	0800070a 	j	1c28 <float32::operator+(float32 const&) const+0x40>
    1c1c:	00000000 	nop
    1c20:	0c0006a4 	jal	1a90 <_ZN7float327subSigsEjjb.1662>
    1c24:	00000000 	nop
    1c28:	8fbf0014 	lw	ra,20(sp)
    1c2c:	ae020000 	sw	v0,0(s0)
    1c30:	02001021 	move	v0,s0
    1c34:	8fb00010 	lw	s0,16(sp)
    1c38:	03e00008 	jr	ra
    1c3c:	27bd0018 	addiu	sp,sp,24

00001c40 <float32::operator+=(float32 const&)>:
    1c40:	27bdffe0 	addiu	sp,sp,-32
    1c44:	afb00018 	sw	s0,24(sp)
    1c48:	00808021 	move	s0,a0
    1c4c:	00a03021 	move	a2,a1
    1c50:	27a40010 	addiu	a0,sp,16
    1c54:	afbf001c 	sw	ra,28(sp)
    1c58:	0c0006fa 	jal	1be8 <float32::operator+(float32 const&) const>
    1c5c:	02002821 	move	a1,s0
    1c60:	8fa20010 	lw	v0,16(sp)
    1c64:	8fbf001c 	lw	ra,28(sp)
    1c68:	ae020000 	sw	v0,0(s0)
    1c6c:	02001021 	move	v0,s0
    1c70:	8fb00018 	lw	s0,24(sp)
    1c74:	03e00008 	jr	ra
    1c78:	27bd0020 	addiu	sp,sp,32

00001c7c <float32::operator-(float32 const&) const>:
    1c7c:	27bdffe8 	addiu	sp,sp,-24
    1c80:	afb00010 	sw	s0,16(sp)
    1c84:	00808021 	move	s0,a0
    1c88:	8ca40000 	lw	a0,0(a1)
    1c8c:	8cc50000 	lw	a1,0(a2)
    1c90:	000437c2 	srl	a2,a0,0x1f
    1c94:	000517c2 	srl	v0,a1,0x1f
    1c98:	14c20005 	bne	a2,v0,1cb0 <float32::operator-(float32 const&) const+0x34>
    1c9c:	afbf0014 	sw	ra,20(sp)
    1ca0:	0c0006a4 	jal	1a90 <_ZN7float327subSigsEjjb.1662>
    1ca4:	00000000 	nop
    1ca8:	0800072e 	j	1cb8 <float32::operator-(float32 const&) const+0x3c>
    1cac:	00000000 	nop
    1cb0:	0c000403 	jal	100c <_ZN7float327addSigsEjjb.1680>
    1cb4:	00000000 	nop
    1cb8:	8fbf0014 	lw	ra,20(sp)
    1cbc:	ae020000 	sw	v0,0(s0)
    1cc0:	02001021 	move	v0,s0
    1cc4:	8fb00010 	lw	s0,16(sp)
    1cc8:	03e00008 	jr	ra
    1ccc:	27bd0018 	addiu	sp,sp,24

00001cd0 <float32::operator-=(float32 const&)>:
    1cd0:	27bdffe0 	addiu	sp,sp,-32
    1cd4:	afb00018 	sw	s0,24(sp)
    1cd8:	00808021 	move	s0,a0
    1cdc:	00a03021 	move	a2,a1
    1ce0:	27a40010 	addiu	a0,sp,16
    1ce4:	afbf001c 	sw	ra,28(sp)
    1ce8:	0c00071f 	jal	1c7c <float32::operator-(float32 const&) const>
    1cec:	02002821 	move	a1,s0
    1cf0:	8fa20010 	lw	v0,16(sp)
    1cf4:	8fbf001c 	lw	ra,28(sp)
    1cf8:	ae020000 	sw	v0,0(s0)
    1cfc:	02001021 	move	v0,s0
    1d00:	8fb00018 	lw	s0,24(sp)
    1d04:	03e00008 	jr	ra
    1d08:	27bd0020 	addiu	sp,sp,32

00001d0c <float32::operator*(float32 const&) const>:
    1d0c:	27bdffe8 	addiu	sp,sp,-24
    1d10:	8ca80000 	lw	t0,0(a1)
    1d14:	3c02007f 	lui	v0,0x7f
    1d18:	afb00010 	sw	s0,16(sp)
    1d1c:	00808021 	move	s0,a0
    1d20:	8cc40000 	lw	a0,0(a2)
    1d24:	00082dc2 	srl	a1,t0,0x17
    1d28:	3442ffff 	ori	v0,v0,0xffff
    1d2c:	00043dc2 	srl	a3,a0,0x17
    1d30:	00821824 	and	v1,a0,v0
    1d34:	30a500ff 	andi	a1,a1,0xff
    1d38:	01042026 	xor	a0,t0,a0
    1d3c:	240600ff 	li	a2,255
    1d40:	afbf0014 	sw	ra,20(sp)
    1d44:	30e700ff 	andi	a3,a3,0xff
    1d48:	14a60006 	bne	a1,a2,1d64 <float32::operator*(float32 const&) const+0x58>
    1d4c:	000427c2 	srl	a0,a0,0x1f
    1d50:	00e31825 	or	v1,a3,v1
    1d54:	1060005c 	beqz	v1,1ec8 <float32::operator*(float32 const&) const+0x1bc>
    1d58:	2402ffff 	li	v0,-1
    1d5c:	0800075c 	j	1d70 <float32::operator*(float32 const&) const+0x64>
    1d60:	000427c0 	sll	a0,a0,0x1f
    1d64:	14e60005 	bne	a3,a2,1d7c <float32::operator*(float32 const&) const+0x70>
    1d68:	00e04821 	move	t1,a3
    1d6c:	000427c0 	sll	a0,a0,0x1f
    1d70:	3c027f80 	lui	v0,0x7f80
    1d74:	08000784 	j	1e10 <float32::operator*(float32 const&) const+0x104>
    1d78:	00822021 	addu	a0,a0,v0
    1d7c:	14a0001f 	bnez	a1,1dfc <float32::operator*(float32 const&) const+0xf0>
    1d80:	01021024 	and	v0,t0,v0
    1d84:	14400003 	bnez	v0,1d94 <float32::operator*(float32 const&) const+0x88>
    1d88:	00000000 	nop
    1d8c:	08000784 	j	1e10 <float32::operator*(float32 const&) const+0x104>
    1d90:	000427c0 	sll	a0,a0,0x1f
    1d94:	3c050001 	lui	a1,0x1
    1d98:	0045282b 	sltu	a1,v0,a1
    1d9c:	10a00008 	beqz	a1,1dc0 <float32::operator*(float32 const&) const+0xb4>
    1da0:	00403021 	move	a2,v0
    1da4:	00023400 	sll	a2,v0,0x10
    1da8:	3c080100 	lui	t0,0x100
    1dac:	00c8402b 	sltu	t0,a2,t0
    1db0:	11000006 	beqz	t0,1dcc <float32::operator*(float32 const&) const+0xc0>
    1db4:	24050010 	li	a1,16
    1db8:	08000772 	j	1dc8 <float32::operator*(float32 const&) const+0xbc>
    1dbc:	24a50008 	addiu	a1,a1,8
    1dc0:	00002821 	move	a1,zero
    1dc4:	24a50008 	addiu	a1,a1,8
    1dc8:	00063200 	sll	a2,a2,0x8
    1dcc:	3c088000 	lui	t0,0x8000
    1dd0:	00063602 	srl	a2,a2,0x18
    1dd4:	25080014 	addiu	t0,t0,20
    1dd8:	00c83021 	addu	a2,a2,t0
    1ddc:	90c60000 	lbu	a2,0(a2)
    1de0:	24a5fff8 	addiu	a1,a1,-8
    1de4:	00a62821 	addu	a1,a1,a2
    1de8:	00052e00 	sll	a1,a1,0x18
    1dec:	00052e03 	sra	a1,a1,0x18
    1df0:	24060001 	li	a2,1
    1df4:	00a21004 	sllv	v0,v0,a1
    1df8:	00c52823 	subu	a1,a2,a1
    1dfc:	14e0001f 	bnez	a3,1e7c <float32::operator*(float32 const&) const+0x170>
    1e00:	00000000 	nop
    1e04:	14600004 	bnez	v1,1e18 <float32::operator*(float32 const&) const+0x10c>
    1e08:	3c060001 	lui	a2,0x1
    1e0c:	000427c0 	sll	a0,a0,0x1f
    1e10:	080007b3 	j	1ecc <float32::operator*(float32 const&) const+0x1c0>
    1e14:	ae040000 	sw	a0,0(s0)
    1e18:	0066302b 	sltu	a2,v1,a2
    1e1c:	10c00008 	beqz	a2,1e40 <float32::operator*(float32 const&) const+0x134>
    1e20:	00603021 	move	a2,v1
    1e24:	00033400 	sll	a2,v1,0x10
    1e28:	3c070100 	lui	a3,0x100
    1e2c:	00c7382b 	sltu	a3,a2,a3
    1e30:	10e00006 	beqz	a3,1e4c <float32::operator*(float32 const&) const+0x140>
    1e34:	24090010 	li	t1,16
    1e38:	08000792 	j	1e48 <float32::operator*(float32 const&) const+0x13c>
    1e3c:	25290008 	addiu	t1,t1,8
    1e40:	00004821 	move	t1,zero
    1e44:	25290008 	addiu	t1,t1,8
    1e48:	00063200 	sll	a2,a2,0x8
    1e4c:	3c078000 	lui	a3,0x8000
    1e50:	00063602 	srl	a2,a2,0x18
    1e54:	24e70014 	addiu	a3,a3,20
    1e58:	00c73021 	addu	a2,a2,a3
    1e5c:	90c60000 	lbu	a2,0(a2)
    1e60:	2529fff8 	addiu	t1,t1,-8
    1e64:	01264821 	addu	t1,t1,a2
    1e68:	00094e00 	sll	t1,t1,0x18
    1e6c:	00094e03 	sra	t1,t1,0x18
    1e70:	24060001 	li	a2,1
    1e74:	01231804 	sllv	v1,v1,t1
    1e78:	00c94823 	subu	t1,a2,t1
    1e7c:	3c070080 	lui	a3,0x80
    1e80:	00471025 	or	v0,v0,a3
    1e84:	00673025 	or	a2,v1,a3
    1e88:	000211c0 	sll	v0,v0,0x7
    1e8c:	00063200 	sll	a2,a2,0x8
    1e90:	00c20019 	multu	a2,v0
    1e94:	00003812 	mflo	a3
    1e98:	0007102b 	sltu	v0,zero,a3
    1e9c:	00003010 	mfhi	a2
    1ea0:	00463025 	or	a2,v0,a2
    1ea4:	00061040 	sll	v0,a2,0x1
    1ea8:	04410003 	bgez	v0,1eb8 <float32::operator*(float32 const&) const+0x1ac>
    1eac:	01252821 	addu	a1,t1,a1
    1eb0:	080007b0 	j	1ec0 <float32::operator*(float32 const&) const+0x1b4>
    1eb4:	24a5ff81 	addiu	a1,a1,-127
    1eb8:	24a5ff80 	addiu	a1,a1,-128
    1ebc:	00403021 	move	a2,v0
    1ec0:	0c0003d7 	jal	f5c <_ZN7float3212roundAndPackEbij.1685>
    1ec4:	00000000 	nop
    1ec8:	ae020000 	sw	v0,0(s0)
    1ecc:	8fbf0014 	lw	ra,20(sp)
    1ed0:	02001021 	move	v0,s0
    1ed4:	8fb00010 	lw	s0,16(sp)
    1ed8:	03e00008 	jr	ra
    1edc:	27bd0018 	addiu	sp,sp,24

00001ee0 <atan2_deg(float32 const&, float32 const&)>:
    1ee0:	3c023e8f 	lui	v0,0x3e8f
    1ee4:	27bdffa0 	addiu	sp,sp,-96
    1ee8:	3442cf81 	ori	v0,v0,0xcf81
    1eec:	afa20028 	sw	v0,40(sp)
    1ef0:	3c024265 	lui	v0,0x4265
    1ef4:	24422ee0 	addiu	v0,v0,12000
    1ef8:	afa20024 	sw	v0,36(sp)
    1efc:	3c02c265 	lui	v0,0xc265
    1f00:	24422ee0 	addiu	v0,v0,12000
    1f04:	afa20020 	sw	v0,32(sp)
    1f08:	3c0242b4 	lui	v0,0x42b4
    1f0c:	afa2001c 	sw	v0,28(sp)
    1f10:	3c02c2b4 	lui	v0,0xc2b4
    1f14:	afb0004c 	sw	s0,76(sp)
    1f18:	afa20018 	sw	v0,24(sp)
    1f1c:	00a08021 	move	s0,a1
    1f20:	3c027fff 	lui	v0,0x7fff
    1f24:	8ca50000 	lw	a1,0(a1)
    1f28:	3442ffff 	ori	v0,v0,0xffff
    1f2c:	00a21824 	and	v1,a1,v0
    1f30:	afb20054 	sw	s2,84(sp)
    1f34:	00809021 	move	s2,a0
    1f38:	8cc40000 	lw	a0,0(a2)
    1f3c:	afb10050 	sw	s1,80(sp)
    1f40:	00033dc2 	srl	a3,v1,0x17
    1f44:	00c08821 	move	s1,a2
    1f48:	240600ff 	li	a2,255
    1f4c:	afbf005c 	sw	ra,92(sp)
    1f50:	afb30058 	sw	s3,88(sp)
    1f54:	14e60006 	bne	a3,a2,1f70 <atan2_deg(float32 const&, float32 const&)+0x90>
    1f58:	00821024 	and	v0,a0,v0
    1f5c:	3c06007f 	lui	a2,0x7f
    1f60:	34c6ffff 	ori	a2,a2,0xffff
    1f64:	00a62824 	and	a1,a1,a2
    1f68:	14a0000d 	bnez	a1,1fa0 <atan2_deg(float32 const&, float32 const&)+0xc0>
    1f6c:	00000000 	nop
    1f70:	000235c2 	srl	a2,v0,0x17
    1f74:	240500ff 	li	a1,255
    1f78:	14c50062 	bne	a2,a1,2104 <atan2_deg(float32 const&, float32 const&)+0x224>
    1f7c:	3c05007f 	lui	a1,0x7f
    1f80:	34a5ffff 	ori	a1,a1,0xffff
    1f84:	00852024 	and	a0,a0,a1
    1f88:	14800006 	bnez	a0,1fa4 <atan2_deg(float32 const&, float32 const&)+0xc4>
    1f8c:	27a40038 	addiu	a0,sp,56
    1f90:	08000841 	j	2104 <atan2_deg(float32 const&, float32 const&)+0x224>
    1f94:	00000000 	nop
    1f98:	14400027 	bnez	v0,2038 <atan2_deg(float32 const&, float32 const&)+0x158>
    1f9c:	27a40014 	addiu	a0,sp,20
    1fa0:	27a40038 	addiu	a0,sp,56
    1fa4:	02002821 	move	a1,s0
    1fa8:	0c000743 	jal	1d0c <float32::operator*(float32 const&) const>
    1fac:	02203021 	move	a2,s1
    1fb0:	27a4003c 	addiu	a0,sp,60
    1fb4:	27a50038 	addiu	a1,sp,56
    1fb8:	0c000743 	jal	1d0c <float32::operator*(float32 const&) const>
    1fbc:	27a60020 	addiu	a2,sp,32
    1fc0:	27a40030 	addiu	a0,sp,48
    1fc4:	02002821 	move	a1,s0
    1fc8:	0c000743 	jal	1d0c <float32::operator*(float32 const&) const>
    1fcc:	02003021 	move	a2,s0
    1fd0:	27a40014 	addiu	a0,sp,20
    1fd4:	27a50028 	addiu	a1,sp,40
    1fd8:	0c000743 	jal	1d0c <float32::operator*(float32 const&) const>
    1fdc:	02203021 	move	a2,s1
    1fe0:	27a4002c 	addiu	a0,sp,44
    1fe4:	27a50014 	addiu	a1,sp,20
    1fe8:	0c000743 	jal	1d0c <float32::operator*(float32 const&) const>
    1fec:	02203021 	move	a2,s1
    1ff0:	27a40034 	addiu	a0,sp,52
    1ff4:	27a50030 	addiu	a1,sp,48
    1ff8:	0c00071f 	jal	1c7c <float32::operator-(float32 const&) const>
    1ffc:	27a6002c 	addiu	a2,sp,44
    2000:	27a60034 	addiu	a2,sp,52
    2004:	27a40040 	addiu	a0,sp,64
    2008:	0c0004cb 	jal	132c <float32::operator/(float32 const&) const>
    200c:	27a5003c 	addiu	a1,sp,60
    2010:	02002021 	move	a0,s0
    2014:	27a50010 	addiu	a1,sp,16
    2018:	0c00045a 	jal	1168 <_ZNK7float32ltERKS_.1693>
    201c:	afa00010 	sw	zero,16(sp)
    2020:	10400002 	beqz	v0,202c <atan2_deg(float32 const&, float32 const&)+0x14c>
    2024:	27a6001c 	addiu	a2,sp,28
    2028:	27a60018 	addiu	a2,sp,24
    202c:	02402021 	move	a0,s2
    2030:	0800083d 	j	20f4 <atan2_deg(float32 const&, float32 const&)+0x214>
    2034:	27a50040 	addiu	a1,sp,64
    2038:	02002821 	move	a1,s0
    203c:	0c000743 	jal	1d0c <float32::operator*(float32 const&) const>
    2040:	02203021 	move	a2,s1
    2044:	27a40014 	addiu	a0,sp,20
    2048:	27a50010 	addiu	a1,sp,16
    204c:	0c00045a 	jal	1168 <_ZNK7float32ltERKS_.1693>
    2050:	afa00010 	sw	zero,16(sp)
    2054:	10400002 	beqz	v0,2060 <atan2_deg(float32 const&, float32 const&)+0x180>
    2058:	27b30018 	addiu	s3,sp,24
    205c:	27b3001c 	addiu	s3,sp,28
    2060:	02002021 	move	a0,s0
    2064:	27a50010 	addiu	a1,sp,16
    2068:	0c00045a 	jal	1168 <_ZNK7float32ltERKS_.1693>
    206c:	afa00010 	sw	zero,16(sp)
    2070:	10400002 	beqz	v0,207c <atan2_deg(float32 const&, float32 const&)+0x19c>
    2074:	27a6001c 	addiu	a2,sp,28
    2078:	27a60018 	addiu	a2,sp,24
    207c:	27a40040 	addiu	a0,sp,64
    2080:	0c0006fa 	jal	1be8 <float32::operator+(float32 const&) const>
    2084:	02602821 	move	a1,s3
    2088:	27a40038 	addiu	a0,sp,56
    208c:	27a50024 	addiu	a1,sp,36
    2090:	0c000743 	jal	1d0c <float32::operator*(float32 const&) const>
    2094:	27a60014 	addiu	a2,sp,20
    2098:	27a40030 	addiu	a0,sp,48
    209c:	02202821 	move	a1,s1
    20a0:	0c000743 	jal	1d0c <float32::operator*(float32 const&) const>
    20a4:	02203021 	move	a2,s1
    20a8:	27a40010 	addiu	a0,sp,16
    20ac:	27a50028 	addiu	a1,sp,40
    20b0:	0c000743 	jal	1d0c <float32::operator*(float32 const&) const>
    20b4:	02003021 	move	a2,s0
    20b8:	27a4002c 	addiu	a0,sp,44
    20bc:	27a50010 	addiu	a1,sp,16
    20c0:	0c000743 	jal	1d0c <float32::operator*(float32 const&) const>
    20c4:	02003021 	move	a2,s0
    20c8:	27a40034 	addiu	a0,sp,52
    20cc:	27a50030 	addiu	a1,sp,48
    20d0:	0c0006fa 	jal	1be8 <float32::operator+(float32 const&) const>
    20d4:	27a6002c 	addiu	a2,sp,44
    20d8:	27a4003c 	addiu	a0,sp,60
    20dc:	27a50038 	addiu	a1,sp,56
    20e0:	0c0004cb 	jal	132c <float32::operator/(float32 const&) const>
    20e4:	27a60034 	addiu	a2,sp,52
    20e8:	02402021 	move	a0,s2
    20ec:	27a50040 	addiu	a1,sp,64
    20f0:	27a6003c 	addiu	a2,sp,60
    20f4:	0c0006fa 	jal	1be8 <float32::operator+(float32 const&) const>
    20f8:	00000000 	nop
    20fc:	08000845 	j	2114 <atan2_deg(float32 const&, float32 const&)+0x234>
    2100:	02401021 	move	v0,s2
    2104:	1462ffa4 	bne	v1,v0,1f98 <atan2_deg(float32 const&, float32 const&)+0xb8>
    2108:	0062102b 	sltu	v0,v1,v0
    210c:	0800080e 	j	2038 <atan2_deg(float32 const&, float32 const&)+0x158>
    2110:	27a40014 	addiu	a0,sp,20
    2114:	8fbf005c 	lw	ra,92(sp)
    2118:	8fb30058 	lw	s3,88(sp)
    211c:	8fb20054 	lw	s2,84(sp)
    2120:	8fb10050 	lw	s1,80(sp)
    2124:	8fb0004c 	lw	s0,76(sp)
    2128:	03e00008 	jr	ra
    212c:	27bd0060 	addiu	sp,sp,96

00002130 <rsqrt(float32 const&)>:
    2130:	8ca20000 	lw	v0,0(a1)
    2134:	27bdffc8 	addiu	sp,sp,-56
    2138:	afbf0034 	sw	ra,52(sp)
    213c:	afb00030 	sw	s0,48(sp)
    2140:	00808021 	move	s0,a0
    2144:	ac820000 	sw	v0,0(a0)
    2148:	3c023fc0 	lui	v0,0x3fc0
    214c:	afa20018 	sw	v0,24(sp)
    2150:	27a40010 	addiu	a0,sp,16
    2154:	3c023f00 	lui	v0,0x3f00
    2158:	27a50014 	addiu	a1,sp,20
    215c:	02003021 	move	a2,s0
    2160:	0c000743 	jal	1d0c <float32::operator*(float32 const&) const>
    2164:	afa20014 	sw	v0,20(sp)
    2168:	8e030000 	lw	v1,0(s0)
    216c:	3c025f37 	lui	v0,0x5f37
    2170:	00031843 	sra	v1,v1,0x1
    2174:	24425a86 	addiu	v0,v0,23174
    2178:	00431023 	subu	v0,v0,v1
    217c:	ae020000 	sw	v0,0(s0)
    2180:	27a4001c 	addiu	a0,sp,28
    2184:	27a50010 	addiu	a1,sp,16
    2188:	0c000743 	jal	1d0c <float32::operator*(float32 const&) const>
    218c:	02003021 	move	a2,s0
    2190:	27a40020 	addiu	a0,sp,32
    2194:	27a5001c 	addiu	a1,sp,28
    2198:	0c000743 	jal	1d0c <float32::operator*(float32 const&) const>
    219c:	02003021 	move	a2,s0
    21a0:	27a40024 	addiu	a0,sp,36
    21a4:	27a50018 	addiu	a1,sp,24
    21a8:	0c00071f 	jal	1c7c <float32::operator-(float32 const&) const>
    21ac:	27a60020 	addiu	a2,sp,32
    21b0:	27a40028 	addiu	a0,sp,40
    21b4:	02002821 	move	a1,s0
    21b8:	0c000743 	jal	1d0c <float32::operator*(float32 const&) const>
    21bc:	27a60024 	addiu	a2,sp,36
    21c0:	8fa20028 	lw	v0,40(sp)
    21c4:	8fbf0034 	lw	ra,52(sp)
    21c8:	ae020000 	sw	v0,0(s0)
    21cc:	02001021 	move	v0,s0
    21d0:	8fb00030 	lw	s0,48(sp)
    21d4:	03e00008 	jr	ra
    21d8:	27bd0038 	addiu	sp,sp,56

000021dc <float32::operator*=(float32 const&)>:
    21dc:	27bdffe0 	addiu	sp,sp,-32
    21e0:	afb00018 	sw	s0,24(sp)
    21e4:	00808021 	move	s0,a0
    21e8:	00a03021 	move	a2,a1
    21ec:	27a40010 	addiu	a0,sp,16
    21f0:	afbf001c 	sw	ra,28(sp)
    21f4:	0c000743 	jal	1d0c <float32::operator*(float32 const&) const>
    21f8:	02002821 	move	a1,s0
    21fc:	8fa20010 	lw	v0,16(sp)
    2200:	8fbf001c 	lw	ra,28(sp)
    2204:	ae020000 	sw	v0,0(s0)
    2208:	02001021 	move	v0,s0
    220c:	8fb00018 	lw	s0,24(sp)
    2210:	03e00008 	jr	ra
    2214:	27bd0020 	addiu	sp,sp,32

00002218 <float32::operator int() const>:
    2218:	8c850000 	lw	a1,0(a0)
    221c:	3c02007f 	lui	v0,0x7f
    2220:	00051dc2 	srl	v1,a1,0x17
    2224:	306300ff 	andi	v1,v1,0xff
    2228:	3442ffff 	ori	v0,v0,0xffff
    222c:	2464ff6a 	addiu	a0,v1,-150
    2230:	00a21024 	and	v0,a1,v0
    2234:	04800013 	bltz	a0,2284 <float32::operator int() const+0x6c>
    2238:	000537c2 	srl	a2,a1,0x1f
    223c:	2867009e 	slti	a3,v1,158
    2240:	14e0000c 	bnez	a3,2274 <float32::operator int() const+0x5c>
    2244:	00000000 	nop
    2248:	3c04cf00 	lui	a0,0xcf00
    224c:	10a40024 	beq	a1,a0,22e0 <float32::operator int() const+0xc8>
    2250:	00000000 	nop
    2254:	10c0001f 	beqz	a2,22d4 <float32::operator int() const+0xbc>
    2258:	240400ff 	li	a0,255
    225c:	14640020 	bne	v1,a0,22e0 <float32::operator int() const+0xc8>
    2260:	00000000 	nop
    2264:	1040001e 	beqz	v0,22e0 <float32::operator int() const+0xc8>
    2268:	00000000 	nop
    226c:	080008b6 	j	22d8 <float32::operator int() const+0xc0>
    2270:	3c027fff 	lui	v0,0x7fff
    2274:	3c030080 	lui	v1,0x80
    2278:	00431025 	or	v0,v0,v1
    227c:	080008b1 	j	22c4 <float32::operator int() const+0xac>
    2280:	00821004 	sllv	v0,v0,a0
    2284:	2865007e 	slti	a1,v1,126
    2288:	10a00003 	beqz	a1,2298 <float32::operator int() const+0x80>
    228c:	00621825 	or	v1,v1,v0
    2290:	080008ab 	j	22ac <float32::operator int() const+0x94>
    2294:	00001021 	move	v0,zero
    2298:	3c030080 	lui	v1,0x80
    229c:	00431025 	or	v0,v0,v1
    22a0:	00821804 	sllv	v1,v0,a0
    22a4:	00042023 	negu	a0,a0
    22a8:	00821006 	srlv	v0,v0,a0
    22ac:	04610005 	bgez	v1,22c4 <float32::operator int() const+0xac>
    22b0:	00031840 	sll	v1,v1,0x1
    22b4:	14600003 	bnez	v1,22c4 <float32::operator int() const+0xac>
    22b8:	24420001 	addiu	v0,v0,1
    22bc:	2403fffe 	li	v1,-2
    22c0:	00431024 	and	v0,v0,v1
    22c4:	10c00007 	beqz	a2,22e4 <float32::operator int() const+0xcc>
    22c8:	00000000 	nop
    22cc:	03e00008 	jr	ra
    22d0:	00021023 	negu	v0,v0
    22d4:	3c027fff 	lui	v0,0x7fff
    22d8:	03e00008 	jr	ra
    22dc:	3442ffff 	ori	v0,v0,0xffff
    22e0:	3c028000 	lui	v0,0x8000
    22e4:	03e00008 	jr	ra
    22e8:	00000000 	nop

000022ec <b32todec(int)>:
    22ec:	000417c3 	sra	v0,a0,0x1f
    22f0:	00442826 	xor	a1,v0,a0
    22f4:	00a22823 	subu	a1,a1,v0
    22f8:	3c020098 	lui	v0,0x98
    22fc:	27bdffc0 	addiu	sp,sp,-64
    2300:	34429680 	ori	v0,v0,0x9680
    2304:	00a2102a 	slt	v0,a1,v0
    2308:	afb30024 	sw	s3,36(sp)
    230c:	afb20020 	sw	s2,32(sp)
    2310:	3c134f42 	lui	s3,0x4f42
    2314:	3c122020 	lui	s2,0x2020
    2318:	afb60030 	sw	s6,48(sp)
    231c:	afbf003c 	sw	ra,60(sp)
    2320:	afbe0038 	sw	s8,56(sp)
    2324:	afb70034 	sw	s7,52(sp)
    2328:	afb5002c 	sw	s5,44(sp)
    232c:	afb40028 	sw	s4,40(sp)
    2330:	afb1001c 	sw	s1,28(sp)
    2334:	afb00018 	sw	s0,24(sp)
    2338:	0080b021 	move	s6,a0
    233c:	36734947 	ori	s3,s3,0x4947
    2340:	10400034 	beqz	v0,2414 <b32todec(int)+0x128>
    2344:	36522b54 	ori	s2,s2,0x2b54
    2348:	3c112020 	lui	s1,0x2020
    234c:	3c102020 	lui	s0,0x2020
    2350:	36312020 	ori	s1,s1,0x2020
    2354:	36102020 	ori	s0,s0,0x2020
    2358:	0000a821 	move	s5,zero
    235c:	24170001 	li	s7,1
    2360:	241effff 	li	s8,-1
    2364:	080008fa 	j	23e8 <b32todec(int)+0xfc>
    2368:	2407fff6 	li	a3,-10
    236c:	2402001f 	li	v0,31
    2370:	00001821 	move	v1,zero
    2374:	00572004 	sllv	a0,s7,v0
    2378:	00852024 	and	a0,a0,a1
    237c:	00442007 	srav	a0,a0,v0
    2380:	00031840 	sll	v1,v1,0x1
    2384:	00641821 	addu	v1,v1,a0
    2388:	2864000a 	slti	a0,v1,10
    238c:	14800003 	bnez	a0,239c <b32todec(int)+0xb0>
    2390:	0014a040 	sll	s4,s4,0x1
    2394:	2463fff6 	addiu	v1,v1,-10
    2398:	26940001 	addiu	s4,s4,1
    239c:	2442ffff 	addiu	v0,v0,-1
    23a0:	145efff4 	bne	v0,s8,2374 <b32todec(int)+0x88>
    23a4:	02870018 	mult	s4,a3
    23a8:	24a50030 	addiu	a1,a1,48
    23ac:	001530c0 	sll	a2,s5,0x3
    23b0:	afa70014 	sw	a3,20(sp)
    23b4:	26b50001 	addiu	s5,s5,1
    23b8:	00001012 	mflo	v0
    23bc:	00a22821 	addu	a1,a1,v0
    23c0:	00052e00 	sll	a1,a1,0x18
    23c4:	00052e03 	sra	a1,a1,0x18
    23c8:	0c000d47 	jal	351c <__ashldi3>
    23cc:	000527c3 	sra	a0,a1,0x1f
    23d0:	00501025 	or	v0,v0,s0
    23d4:	02231825 	or	v1,s1,v1
    23d8:	8fa70014 	lw	a3,20(sp)
    23dc:	00408021 	move	s0,v0
    23e0:	00608821 	move	s1,v1
    23e4:	02802821 	move	a1,s4
    23e8:	14a0ffe0 	bnez	a1,236c <b32todec(int)+0x80>
    23ec:	0000a021 	move	s4,zero
    23f0:	2405002b 	li	a1,43
    23f4:	06c10003 	bgez	s6,2404 <b32todec(int)+0x118>
    23f8:	00002021 	move	a0,zero
    23fc:	2405002d 	li	a1,45
    2400:	00002021 	move	a0,zero
    2404:	0c000d47 	jal	351c <__ashldi3>
    2408:	001530c0 	sll	a2,s5,0x3
    240c:	00509025 	or	s2,v0,s0
    2410:	00719825 	or	s3,v1,s1
    2414:	8fbf003c 	lw	ra,60(sp)
    2418:	02401021 	move	v0,s2
    241c:	02601821 	move	v1,s3
    2420:	8fbe0038 	lw	s8,56(sp)
    2424:	8fb70034 	lw	s7,52(sp)
    2428:	8fb60030 	lw	s6,48(sp)
    242c:	8fb5002c 	lw	s5,44(sp)
    2430:	8fb40028 	lw	s4,40(sp)
    2434:	8fb30024 	lw	s3,36(sp)
    2438:	8fb20020 	lw	s2,32(sp)
    243c:	8fb1001c 	lw	s1,28(sp)
    2440:	8fb00018 	lw	s0,24(sp)
    2444:	03e00008 	jr	ra
    2448:	27bd0040 	addiu	sp,sp,64

0000244c <b32tohex(unsigned int)>:
    244c:	3c078000 	lui	a3,0x8000
    2450:	00001021 	move	v0,zero
    2454:	24e70000 	addiu	a3,a3,0
    2458:	24030008 	li	v1,8
    245c:	27bdfff8 	addiu	sp,sp,-8
    2460:	00043702 	srl	a2,a0,0x1c
    2464:	00e63021 	addu	a2,a3,a2
    2468:	90c60000 	lbu	a2,0(a2)
    246c:	03a22821 	addu	a1,sp,v0
    2470:	24420001 	addiu	v0,v0,1
    2474:	a0a60000 	sb	a2,0(a1)
    2478:	1443fff9 	bne	v0,v1,2460 <b32tohex(unsigned int)+0x14>
    247c:	00042100 	sll	a0,a0,0x4
    2480:	8fa20000 	lw	v0,0(sp)
    2484:	8fa30004 	lw	v1,4(sp)
    2488:	03e00008 	jr	ra
    248c:	27bd0008 	addiu	sp,sp,8

00002490 <Radio::Messages::consoleHandler(char*)>:
    2490:	27bdffa8 	addiu	sp,sp,-88
    2494:	00801021 	move	v0,a0
    2498:	afb10034 	sw	s1,52(sp)
    249c:	afbf0054 	sw	ra,84(sp)
    24a0:	afbe0050 	sw	s8,80(sp)
    24a4:	afb7004c 	sw	s7,76(sp)
    24a8:	afb60048 	sw	s6,72(sp)
    24ac:	afb50044 	sw	s5,68(sp)
    24b0:	afb40040 	sw	s4,64(sp)
    24b4:	afb3003c 	sw	s3,60(sp)
    24b8:	afb20038 	sw	s2,56(sp)
    24bc:	afb00030 	sw	s0,48(sp)
    24c0:	00808821 	move	s1,a0
    24c4:	afa00010 	sw	zero,16(sp)
    24c8:	afa00014 	sw	zero,20(sp)
    24cc:	08000936 	j	24d8 <Radio::Messages::consoleHandler(char*)+0x48>
    24d0:	afa00018 	sw	zero,24(sp)
    24d4:	24420001 	addiu	v0,v0,1
    24d8:	80430000 	lb	v1,0(v0)
    24dc:	00000000 	nop
    24e0:	1460fffc 	bnez	v1,24d4 <Radio::Messages::consoleHandler(char*)+0x44>
    24e4:	0051b023 	subu	s6,v0,s1
    24e8:	26d60001 	addiu	s6,s6,1
    24ec:	0236b021 	addu	s6,s1,s6
    24f0:	123603fe 	beq	s1,s6,34ec <Radio::Messages::consoleHandler(char*)+0x105c>
    24f4:	3c178000 	lui	s7,0x8000
    24f8:	3c158000 	lui	s5,0x8000
    24fc:	24100001 	li	s0,1
    2500:	2413002b 	li	s3,43
    2504:	00009021 	move	s2,zero
    2508:	26f70148 	addiu	s7,s7,328
    250c:	26b50144 	addiu	s5,s5,324
    2510:	3c148000 	lui	s4,0x8000
    2514:	2602ffff 	addiu	v0,s0,-1
    2518:	2c430050 	sltiu	v1,v0,80
    251c:	106003f3 	beqz	v1,34ec <Radio::Messages::consoleHandler(char*)+0x105c>
    2520:	00021080 	sll	v0,v0,0x2
    2524:	02e21021 	addu	v0,s7,v0
    2528:	8c420000 	lw	v0,0(v0)
    252c:	00000000 	nop
    2530:	00400008 	jr	v0
    2534:	00000000 	nop
    2538:	82220000 	lb	v0,0(s1)
    253c:	24030068 	li	v1,104
    2540:	1043034f 	beq	v0,v1,3280 <Radio::Messages::consoleHandler(char*)+0xdf0>
    2544:	28430069 	slti	v1,v0,105
    2548:	10600008 	beqz	v1,256c <Radio::Messages::consoleHandler(char*)+0xdc>
    254c:	24030073 	li	v1,115
    2550:	24030020 	li	v1,32
    2554:	104303e2 	beq	v0,v1,34e0 <Radio::Messages::consoleHandler(char*)+0x1050>
    2558:	24030067 	li	v1,103
    255c:	144303e3 	bne	v0,v1,34ec <Radio::Messages::consoleHandler(char*)+0x105c>
    2560:	24100002 	li	s0,2
    2564:	08000d39 	j	34e4 <Radio::Messages::consoleHandler(char*)+0x1054>
    2568:	26310001 	addiu	s1,s1,1
    256c:	144303df 	bne	v0,v1,34ec <Radio::Messages::consoleHandler(char*)+0x105c>
    2570:	24100024 	li	s0,36
    2574:	08000d39 	j	34e4 <Radio::Messages::consoleHandler(char*)+0x1054>
    2578:	26310001 	addiu	s1,s1,1
    257c:	82230000 	lb	v1,0(s1)
    2580:	24020065 	li	v0,101
    2584:	146203d9 	bne	v1,v0,34ec <Radio::Messages::consoleHandler(char*)+0x105c>
    2588:	24100003 	li	s0,3
    258c:	08000d39 	j	34e4 <Radio::Messages::consoleHandler(char*)+0x1054>
    2590:	26310001 	addiu	s1,s1,1
    2594:	82230000 	lb	v1,0(s1)
    2598:	24020074 	li	v0,116
    259c:	146203d3 	bne	v1,v0,34ec <Radio::Messages::consoleHandler(char*)+0x105c>
    25a0:	24100004 	li	s0,4
    25a4:	08000d39 	j	34e4 <Radio::Messages::consoleHandler(char*)+0x1054>
    25a8:	26310001 	addiu	s1,s1,1
    25ac:	82230000 	lb	v1,0(s1)
    25b0:	2402005f 	li	v0,95
    25b4:	146203cd 	bne	v1,v0,34ec <Radio::Messages::consoleHandler(char*)+0x105c>
    25b8:	24100005 	li	s0,5
    25bc:	08000d39 	j	34e4 <Radio::Messages::consoleHandler(char*)+0x1054>
    25c0:	26310001 	addiu	s1,s1,1
    25c4:	82220000 	lb	v0,0(s1)
    25c8:	2403006d 	li	v1,109
    25cc:	10430326 	beq	v0,v1,3268 <Radio::Messages::consoleHandler(char*)+0xdd8>
    25d0:	2843006e 	slti	v1,v0,110
    25d4:	10600008 	beqz	v1,25f8 <Radio::Messages::consoleHandler(char*)+0x168>
    25d8:	24030071 	li	v1,113
    25dc:	24030061 	li	v1,97
    25e0:	1043000d 	beq	v0,v1,2618 <Radio::Messages::consoleHandler(char*)+0x188>
    25e4:	24030067 	li	v1,103
    25e8:	144303c0 	bne	v0,v1,34ec <Radio::Messages::consoleHandler(char*)+0x105c>
    25ec:	2410000e 	li	s0,14
    25f0:	08000d39 	j	34e4 <Radio::Messages::consoleHandler(char*)+0x1054>
    25f4:	26310001 	addiu	s1,s1,1
    25f8:	1043031d 	beq	v0,v1,3270 <Radio::Messages::consoleHandler(char*)+0xde0>
    25fc:	24030074 	li	v1,116
    2600:	1043031d 	beq	v0,v1,3278 <Radio::Messages::consoleHandler(char*)+0xde8>
    2604:	24030070 	li	v1,112
    2608:	144303b8 	bne	v0,v1,34ec <Radio::Messages::consoleHandler(char*)+0x105c>
    260c:	24100014 	li	s0,20
    2610:	08000d39 	j	34e4 <Radio::Messages::consoleHandler(char*)+0x1054>
    2614:	26310001 	addiu	s1,s1,1
    2618:	08000d38 	j	34e0 <Radio::Messages::consoleHandler(char*)+0x1050>
    261c:	24100006 	li	s0,6
    2620:	82220000 	lb	v0,0(s1)
    2624:	2403006c 	li	v1,108
    2628:	104303a8 	beq	v0,v1,34cc <Radio::Messages::consoleHandler(char*)+0x103c>
    262c:	2403006e 	li	v1,110
    2630:	1043030b 	beq	v0,v1,3260 <Radio::Messages::consoleHandler(char*)+0xdd0>
    2634:	24030063 	li	v1,99
    2638:	144303ac 	bne	v0,v1,34ec <Radio::Messages::consoleHandler(char*)+0x105c>
    263c:	24100007 	li	s0,7
    2640:	08000d39 	j	34e4 <Radio::Messages::consoleHandler(char*)+0x1054>
    2644:	26310001 	addiu	s1,s1,1
    2648:	82230000 	lb	v1,0(s1)
    264c:	24020063 	li	v0,99
    2650:	146203a6 	bne	v1,v0,34ec <Radio::Messages::consoleHandler(char*)+0x105c>
    2654:	00000000 	nop
    2658:	08000bcf 	j	2f3c <Radio::Messages::consoleHandler(char*)+0xaac>
    265c:	00000000 	nop
    2660:	82220000 	lb	v0,0(s1)
    2664:	2403000a 	li	v1,10
    2668:	1043039a 	beq	v0,v1,34d4 <Radio::Messages::consoleHandler(char*)+0x1044>
    266c:	2843000b 	slti	v1,v0,11
    2670:	10600005 	beqz	v1,2688 <Radio::Messages::consoleHandler(char*)+0x1f8>
    2674:	00000000 	nop
    2678:	10400399 	beqz	v0,34e0 <Radio::Messages::consoleHandler(char*)+0x1050>
    267c:	24100051 	li	s0,81
    2680:	08000d3b 	j	34ec <Radio::Messages::consoleHandler(char*)+0x105c>
    2684:	00000000 	nop
    2688:	2403000d 	li	v1,13
    268c:	10430391 	beq	v0,v1,34d4 <Radio::Messages::consoleHandler(char*)+0x1044>
    2690:	24030020 	li	v1,32
    2694:	14430395 	bne	v0,v1,34ec <Radio::Messages::consoleHandler(char*)+0x105c>
    2698:	26310001 	addiu	s1,s1,1
    269c:	08000d39 	j	34e4 <Radio::Messages::consoleHandler(char*)+0x1054>
    26a0:	00000000 	nop
    26a4:	82230000 	lb	v1,0(s1)
    26a8:	24020074 	li	v0,116
    26ac:	1462038f 	bne	v1,v0,34ec <Radio::Messages::consoleHandler(char*)+0x105c>
    26b0:	00000000 	nop
    26b4:	08000bea 	j	2fa8 <Radio::Messages::consoleHandler(char*)+0xb18>
    26b8:	00000000 	nop
    26bc:	82230000 	lb	v1,0(s1)
    26c0:	24020067 	li	v0,103
    26c4:	14620389 	bne	v1,v0,34ec <Radio::Messages::consoleHandler(char*)+0x105c>
    26c8:	2410000b 	li	s0,11
    26cc:	08000d39 	j	34e4 <Radio::Messages::consoleHandler(char*)+0x1054>
    26d0:	26310001 	addiu	s1,s1,1
    26d4:	82230000 	lb	v1,0(s1)
    26d8:	2402006c 	li	v0,108
    26dc:	14620383 	bne	v1,v0,34ec <Radio::Messages::consoleHandler(char*)+0x105c>
    26e0:	2410000c 	li	s0,12
    26e4:	08000d39 	j	34e4 <Radio::Messages::consoleHandler(char*)+0x1054>
    26e8:	26310001 	addiu	s1,s1,1
    26ec:	82230000 	lb	v1,0(s1)
    26f0:	24020065 	li	v0,101
    26f4:	1462037d 	bne	v1,v0,34ec <Radio::Messages::consoleHandler(char*)+0x105c>
    26f8:	2410000d 	li	s0,13
    26fc:	08000d39 	j	34e4 <Radio::Messages::consoleHandler(char*)+0x1054>
    2700:	26310001 	addiu	s1,s1,1
    2704:	82230000 	lb	v1,0(s1)
    2708:	24020073 	li	v0,115
    270c:	14620377 	bne	v1,v0,34ec <Radio::Messages::consoleHandler(char*)+0x105c>
    2710:	00000000 	nop
    2714:	08000bf7 	j	2fdc <Radio::Messages::consoleHandler(char*)+0xb4c>
    2718:	00000000 	nop
    271c:	82230000 	lb	v1,0(s1)
    2720:	24020079 	li	v0,121
    2724:	14620371 	bne	v1,v0,34ec <Radio::Messages::consoleHandler(char*)+0x105c>
    2728:	2410000f 	li	s0,15
    272c:	08000d39 	j	34e4 <Radio::Messages::consoleHandler(char*)+0x1054>
    2730:	26310001 	addiu	s1,s1,1
    2734:	82230000 	lb	v1,0(s1)
    2738:	24020072 	li	v0,114
    273c:	1462036b 	bne	v1,v0,34ec <Radio::Messages::consoleHandler(char*)+0x105c>
    2740:	24100010 	li	s0,16
    2744:	08000d39 	j	34e4 <Radio::Messages::consoleHandler(char*)+0x1054>
    2748:	26310001 	addiu	s1,s1,1
    274c:	82230000 	lb	v1,0(s1)
    2750:	2402006f 	li	v0,111
    2754:	14620365 	bne	v1,v0,34ec <Radio::Messages::consoleHandler(char*)+0x105c>
    2758:	00000000 	nop
    275c:	08000c17 	j	305c <Radio::Messages::consoleHandler(char*)+0xbcc>
    2760:	00000000 	nop
    2764:	82230000 	lb	v1,0(s1)
    2768:	24020061 	li	v0,97
    276c:	1462035f 	bne	v1,v0,34ec <Radio::Messages::consoleHandler(char*)+0x105c>
    2770:	24100012 	li	s0,18
    2774:	08000d39 	j	34e4 <Radio::Messages::consoleHandler(char*)+0x1054>
    2778:	26310001 	addiu	s1,s1,1
    277c:	82230000 	lb	v1,0(s1)
    2780:	24020067 	li	v0,103
    2784:	14620359 	bne	v1,v0,34ec <Radio::Messages::consoleHandler(char*)+0x105c>
    2788:	24100013 	li	s0,19
    278c:	08000d39 	j	34e4 <Radio::Messages::consoleHandler(char*)+0x1054>
    2790:	26310001 	addiu	s1,s1,1
    2794:	82230000 	lb	v1,0(s1)
    2798:	2402006e 	li	v0,110
    279c:	14620353 	bne	v1,v0,34ec <Radio::Messages::consoleHandler(char*)+0x105c>
    27a0:	00000000 	nop
    27a4:	08000c32 	j	30c8 <Radio::Messages::consoleHandler(char*)+0xc38>
    27a8:	00000000 	nop
    27ac:	82230000 	lb	v1,0(s1)
    27b0:	24020069 	li	v0,105
    27b4:	1462034d 	bne	v1,v0,34ec <Radio::Messages::consoleHandler(char*)+0x105c>
    27b8:	24100015 	li	s0,21
    27bc:	08000d39 	j	34e4 <Radio::Messages::consoleHandler(char*)+0x1054>
    27c0:	26310001 	addiu	s1,s1,1
    27c4:	82230000 	lb	v1,0(s1)
    27c8:	24020064 	li	v0,100
    27cc:	14620347 	bne	v1,v0,34ec <Radio::Messages::consoleHandler(char*)+0x105c>
    27d0:	00000000 	nop
    27d4:	08000c4d 	j	3134 <Radio::Messages::consoleHandler(char*)+0xca4>
    27d8:	00000000 	nop
    27dc:	82230000 	lb	v1,0(s1)
    27e0:	24020075 	li	v0,117
    27e4:	14620341 	bne	v1,v0,34ec <Radio::Messages::consoleHandler(char*)+0x105c>
    27e8:	24100017 	li	s0,23
    27ec:	08000d39 	j	34e4 <Radio::Messages::consoleHandler(char*)+0x1054>
    27f0:	26310001 	addiu	s1,s1,1
    27f4:	82230000 	lb	v1,0(s1)
    27f8:	24020061 	li	v0,97
    27fc:	1462033b 	bne	v1,v0,34ec <Radio::Messages::consoleHandler(char*)+0x105c>
    2800:	24100018 	li	s0,24
    2804:	08000d39 	j	34e4 <Radio::Messages::consoleHandler(char*)+0x1054>
    2808:	26310001 	addiu	s1,s1,1
    280c:	82230000 	lb	v1,0(s1)
    2810:	24020074 	li	v0,116
    2814:	14620335 	bne	v1,v0,34ec <Radio::Messages::consoleHandler(char*)+0x105c>
    2818:	00000000 	nop
    281c:	08000c68 	j	31a0 <Radio::Messages::consoleHandler(char*)+0xd10>
    2820:	00000000 	nop
    2824:	82220000 	lb	v0,0(s1)
    2828:	24030065 	li	v1,101
    282c:	10430005 	beq	v0,v1,2844 <Radio::Messages::consoleHandler(char*)+0x3b4>
    2830:	24030068 	li	v1,104
    2834:	1443032d 	bne	v0,v1,34ec <Radio::Messages::consoleHandler(char*)+0x105c>
    2838:	2410001c 	li	s0,28
    283c:	08000d39 	j	34e4 <Radio::Messages::consoleHandler(char*)+0x1054>
    2840:	26310001 	addiu	s1,s1,1
    2844:	08000d38 	j	34e0 <Radio::Messages::consoleHandler(char*)+0x1050>
    2848:	2410001a 	li	s0,26
    284c:	82230000 	lb	v1,0(s1)
    2850:	2402006d 	li	v0,109
    2854:	14620325 	bne	v1,v0,34ec <Radio::Messages::consoleHandler(char*)+0x105c>
    2858:	2410001b 	li	s0,27
    285c:	08000d39 	j	34e4 <Radio::Messages::consoleHandler(char*)+0x1054>
    2860:	26310001 	addiu	s1,s1,1
    2864:	82230000 	lb	v1,0(s1)
    2868:	24020070 	li	v0,112
    286c:	1462031f 	bne	v1,v0,34ec <Radio::Messages::consoleHandler(char*)+0x105c>
    2870:	00000000 	nop
    2874:	08000c8e 	j	3238 <Radio::Messages::consoleHandler(char*)+0xda8>
    2878:	00000000 	nop
    287c:	82230000 	lb	v1,0(s1)
    2880:	24020072 	li	v0,114
    2884:	14620319 	bne	v1,v0,34ec <Radio::Messages::consoleHandler(char*)+0x105c>
    2888:	2410001d 	li	s0,29
    288c:	08000d39 	j	34e4 <Radio::Messages::consoleHandler(char*)+0x1054>
    2890:	26310001 	addiu	s1,s1,1
    2894:	82230000 	lb	v1,0(s1)
    2898:	2402006f 	li	v0,111
    289c:	14620313 	bne	v1,v0,34ec <Radio::Messages::consoleHandler(char*)+0x105c>
    28a0:	2410001e 	li	s0,30
    28a4:	08000d39 	j	34e4 <Radio::Messages::consoleHandler(char*)+0x1054>
    28a8:	26310001 	addiu	s1,s1,1
    28ac:	82230000 	lb	v1,0(s1)
    28b0:	24020074 	li	v0,116
    28b4:	1462030d 	bne	v1,v0,34ec <Radio::Messages::consoleHandler(char*)+0x105c>
    28b8:	2410001f 	li	s0,31
    28bc:	08000d39 	j	34e4 <Radio::Messages::consoleHandler(char*)+0x1054>
    28c0:	26310001 	addiu	s1,s1,1
    28c4:	82230000 	lb	v1,0(s1)
    28c8:	24020074 	li	v0,116
    28cc:	14620307 	bne	v1,v0,34ec <Radio::Messages::consoleHandler(char*)+0x105c>
    28d0:	24100020 	li	s0,32
    28d4:	08000d39 	j	34e4 <Radio::Messages::consoleHandler(char*)+0x1054>
    28d8:	26310001 	addiu	s1,s1,1
    28dc:	82230000 	lb	v1,0(s1)
    28e0:	2402006c 	li	v0,108
    28e4:	14620301 	bne	v1,v0,34ec <Radio::Messages::consoleHandler(char*)+0x105c>
    28e8:	24100021 	li	s0,33
    28ec:	08000d39 	j	34e4 <Radio::Messages::consoleHandler(char*)+0x1054>
    28f0:	26310001 	addiu	s1,s1,1
    28f4:	82230000 	lb	v1,0(s1)
    28f8:	24020065 	li	v0,101
    28fc:	146202fb 	bne	v1,v0,34ec <Radio::Messages::consoleHandler(char*)+0x105c>
    2900:	00000000 	nop
    2904:	08000c93 	j	324c <Radio::Messages::consoleHandler(char*)+0xdbc>
    2908:	00000000 	nop
    290c:	82230000 	lb	v1,0(s1)
    2910:	24020065 	li	v0,101
    2914:	146202f5 	bne	v1,v0,34ec <Radio::Messages::consoleHandler(char*)+0x105c>
    2918:	24100023 	li	s0,35
    291c:	08000d39 	j	34e4 <Radio::Messages::consoleHandler(char*)+0x1054>
    2920:	26310001 	addiu	s1,s1,1
    2924:	82230000 	lb	v1,0(s1)
    2928:	24020079 	li	v0,121
    292c:	146202ef 	bne	v1,v0,34ec <Radio::Messages::consoleHandler(char*)+0x105c>
    2930:	02a02021 	move	a0,s5
    2934:	08000bf3 	j	2fcc <Radio::Messages::consoleHandler(char*)+0xb3c>
    2938:	00000000 	nop
    293c:	82230000 	lb	v1,0(s1)
    2940:	24020065 	li	v0,101
    2944:	146202e9 	bne	v1,v0,34ec <Radio::Messages::consoleHandler(char*)+0x105c>
    2948:	24100025 	li	s0,37
    294c:	08000d39 	j	34e4 <Radio::Messages::consoleHandler(char*)+0x1054>
    2950:	26310001 	addiu	s1,s1,1
    2954:	82230000 	lb	v1,0(s1)
    2958:	24020074 	li	v0,116
    295c:	146202e3 	bne	v1,v0,34ec <Radio::Messages::consoleHandler(char*)+0x105c>
    2960:	24100026 	li	s0,38
    2964:	08000d39 	j	34e4 <Radio::Messages::consoleHandler(char*)+0x1054>
    2968:	26310001 	addiu	s1,s1,1
    296c:	82230000 	lb	v1,0(s1)
    2970:	2402005f 	li	v0,95
    2974:	146202dd 	bne	v1,v0,34ec <Radio::Messages::consoleHandler(char*)+0x105c>
    2978:	24100027 	li	s0,39
    297c:	08000d39 	j	34e4 <Radio::Messages::consoleHandler(char*)+0x1054>
    2980:	26310001 	addiu	s1,s1,1
    2984:	82220000 	lb	v0,0(s1)
    2988:	24030072 	li	v1,114
    298c:	104302d3 	beq	v0,v1,34dc <Radio::Messages::consoleHandler(char*)+0x104c>
    2990:	28430073 	slti	v1,v0,115
    2994:	10600006 	beqz	v1,29b0 <Radio::Messages::consoleHandler(char*)+0x520>
    2998:	24030074 	li	v1,116
    299c:	24030070 	li	v1,112
    29a0:	144302d2 	bne	v0,v1,34ec <Radio::Messages::consoleHandler(char*)+0x105c>
    29a4:	24100028 	li	s0,40
    29a8:	08000d39 	j	34e4 <Radio::Messages::consoleHandler(char*)+0x1054>
    29ac:	26310001 	addiu	s1,s1,1
    29b0:	10430235 	beq	v0,v1,3288 <Radio::Messages::consoleHandler(char*)+0xdf8>
    29b4:	24030079 	li	v1,121
    29b8:	144302cc 	bne	v0,v1,34ec <Radio::Messages::consoleHandler(char*)+0x105c>
    29bc:	2410004b 	li	s0,75
    29c0:	08000d39 	j	34e4 <Radio::Messages::consoleHandler(char*)+0x1054>
    29c4:	26310001 	addiu	s1,s1,1
    29c8:	82230000 	lb	v1,0(s1)
    29cc:	24020069 	li	v0,105
    29d0:	146202c6 	bne	v1,v0,34ec <Radio::Messages::consoleHandler(char*)+0x105c>
    29d4:	24100029 	li	s0,41
    29d8:	08000d39 	j	34e4 <Radio::Messages::consoleHandler(char*)+0x1054>
    29dc:	26310001 	addiu	s1,s1,1
    29e0:	82220000 	lb	v0,0(s1)
    29e4:	24030064 	li	v1,100
    29e8:	10430005 	beq	v0,v1,2a00 <Radio::Messages::consoleHandler(char*)+0x570>
    29ec:	24030074 	li	v1,116
    29f0:	144302be 	bne	v0,v1,34ec <Radio::Messages::consoleHandler(char*)+0x105c>
    29f4:	24100034 	li	s0,52
    29f8:	08000d39 	j	34e4 <Radio::Messages::consoleHandler(char*)+0x1054>
    29fc:	26310001 	addiu	s1,s1,1
    2a00:	08000d38 	j	34e0 <Radio::Messages::consoleHandler(char*)+0x1050>
    2a04:	2410002a 	li	s0,42
    2a08:	82230000 	lb	v1,0(s1)
    2a0c:	24020020 	li	v0,32
    2a10:	146202b6 	bne	v1,v0,34ec <Radio::Messages::consoleHandler(char*)+0x105c>
    2a14:	2410002b 	li	s0,43
    2a18:	08000d39 	j	34e4 <Radio::Messages::consoleHandler(char*)+0x1054>
    2a1c:	26310001 	addiu	s1,s1,1
    2a20:	82220000 	lb	v0,0(s1)
    2a24:	2403002b 	li	v1,43
    2a28:	10430234 	beq	v0,v1,32fc <Radio::Messages::consoleHandler(char*)+0xe6c>
    2a2c:	2403002d 	li	v1,45
    2a30:	10430232 	beq	v0,v1,32fc <Radio::Messages::consoleHandler(char*)+0xe6c>
    2a34:	24030020 	li	v1,32
    2a38:	08000a92 	j	2a48 <Radio::Messages::consoleHandler(char*)+0x5b8>
    2a3c:	00000000 	nop
    2a40:	82220000 	lb	v0,0(s1)
    2a44:	24030020 	li	v1,32
    2a48:	104302a5 	beq	v0,v1,34e0 <Radio::Messages::consoleHandler(char*)+0x1050>
    2a4c:	2442ffd0 	addiu	v0,v0,-48
    2a50:	304200ff 	andi	v0,v0,0xff
    2a54:	2c42000a 	sltiu	v0,v0,10
    2a58:	1440020d 	bnez	v0,3290 <Radio::Messages::consoleHandler(char*)+0xe00>
    2a5c:	2410002d 	li	s0,45
    2a60:	08000d3b 	j	34ec <Radio::Messages::consoleHandler(char*)+0x105c>
    2a64:	00000000 	nop
    2a68:	82220000 	lb	v0,0(s1)
    2a6c:	24030020 	li	v1,32
    2a70:	10430214 	beq	v0,v1,32c4 <Radio::Messages::consoleHandler(char*)+0xe34>
    2a74:	2442ffd0 	addiu	v0,v0,-48
    2a78:	08000bca 	j	2f28 <Radio::Messages::consoleHandler(char*)+0xa98>
    2a7c:	304200ff 	andi	v0,v0,0xff
    2a80:	82220000 	lb	v0,0(s1)
    2a84:	2403002b 	li	v1,43
    2a88:	1043021e 	beq	v0,v1,3304 <Radio::Messages::consoleHandler(char*)+0xe74>
    2a8c:	2403002d 	li	v1,45
    2a90:	1043021c 	beq	v0,v1,3304 <Radio::Messages::consoleHandler(char*)+0xe74>
    2a94:	24030020 	li	v1,32
    2a98:	08000aaa 	j	2aa8 <Radio::Messages::consoleHandler(char*)+0x618>
    2a9c:	00000000 	nop
    2aa0:	82220000 	lb	v0,0(s1)
    2aa4:	24030020 	li	v1,32
    2aa8:	1043028d 	beq	v0,v1,34e0 <Radio::Messages::consoleHandler(char*)+0x1050>
    2aac:	2442ffd0 	addiu	v0,v0,-48
    2ab0:	304200ff 	andi	v0,v0,0xff
    2ab4:	2c42000a 	sltiu	v0,v0,10
    2ab8:	144001f5 	bnez	v0,3290 <Radio::Messages::consoleHandler(char*)+0xe00>
    2abc:	24100030 	li	s0,48
    2ac0:	08000d3b 	j	34ec <Radio::Messages::consoleHandler(char*)+0x105c>
    2ac4:	00000000 	nop
    2ac8:	82220000 	lb	v0,0(s1)
    2acc:	24030020 	li	v1,32
    2ad0:	104301fe 	beq	v0,v1,32cc <Radio::Messages::consoleHandler(char*)+0xe3c>
    2ad4:	2442ffd0 	addiu	v0,v0,-48
    2ad8:	08000bca 	j	2f28 <Radio::Messages::consoleHandler(char*)+0xa98>
    2adc:	304200ff 	andi	v0,v0,0xff
    2ae0:	82220000 	lb	v0,0(s1)
    2ae4:	2403002b 	li	v1,43
    2ae8:	10430208 	beq	v0,v1,330c <Radio::Messages::consoleHandler(char*)+0xe7c>
    2aec:	2403002d 	li	v1,45
    2af0:	10430206 	beq	v0,v1,330c <Radio::Messages::consoleHandler(char*)+0xe7c>
    2af4:	24030020 	li	v1,32
    2af8:	08000ac2 	j	2b08 <Radio::Messages::consoleHandler(char*)+0x678>
    2afc:	00000000 	nop
    2b00:	82220000 	lb	v0,0(s1)
    2b04:	24030020 	li	v1,32
    2b08:	10430275 	beq	v0,v1,34e0 <Radio::Messages::consoleHandler(char*)+0x1050>
    2b0c:	2442ffd0 	addiu	v0,v0,-48
    2b10:	304200ff 	andi	v0,v0,0xff
    2b14:	2c42000a 	sltiu	v0,v0,10
    2b18:	144001dd 	bnez	v0,3290 <Radio::Messages::consoleHandler(char*)+0xe00>
    2b1c:	24100033 	li	s0,51
    2b20:	08000d3b 	j	34ec <Radio::Messages::consoleHandler(char*)+0x105c>
    2b24:	00000000 	nop
    2b28:	82220000 	lb	v0,0(s1)
    2b2c:	2403000a 	li	v1,10
    2b30:	10430205 	beq	v0,v1,3348 <Radio::Messages::consoleHandler(char*)+0xeb8>
    2b34:	2843000b 	slti	v1,v0,11
    2b38:	10600005 	beqz	v1,2b50 <Radio::Messages::consoleHandler(char*)+0x6c0>
    2b3c:	00000000 	nop
    2b40:	10400201 	beqz	v0,3348 <Radio::Messages::consoleHandler(char*)+0xeb8>
    2b44:	2442ffd0 	addiu	v0,v0,-48
    2b48:	08000bca 	j	2f28 <Radio::Messages::consoleHandler(char*)+0xa98>
    2b4c:	304200ff 	andi	v0,v0,0xff
    2b50:	2403000d 	li	v1,13
    2b54:	104301fc 	beq	v0,v1,3348 <Radio::Messages::consoleHandler(char*)+0xeb8>
    2b58:	24030020 	li	v1,32
    2b5c:	104301f8 	beq	v0,v1,3340 <Radio::Messages::consoleHandler(char*)+0xeb0>
    2b60:	2442ffd0 	addiu	v0,v0,-48
    2b64:	08000bca 	j	2f28 <Radio::Messages::consoleHandler(char*)+0xa98>
    2b68:	304200ff 	andi	v0,v0,0xff
    2b6c:	82230000 	lb	v1,0(s1)
    2b70:	24020063 	li	v0,99
    2b74:	1462025d 	bne	v1,v0,34ec <Radio::Messages::consoleHandler(char*)+0x105c>
    2b78:	24100035 	li	s0,53
    2b7c:	08000d39 	j	34e4 <Radio::Messages::consoleHandler(char*)+0x1054>
    2b80:	26310001 	addiu	s1,s1,1
    2b84:	82230000 	lb	v1,0(s1)
    2b88:	24020068 	li	v0,104
    2b8c:	14620257 	bne	v1,v0,34ec <Radio::Messages::consoleHandler(char*)+0x105c>
    2b90:	24100036 	li	s0,54
    2b94:	08000d39 	j	34e4 <Radio::Messages::consoleHandler(char*)+0x1054>
    2b98:	26310001 	addiu	s1,s1,1
    2b9c:	82230000 	lb	v1,0(s1)
    2ba0:	24020020 	li	v0,32
    2ba4:	14620251 	bne	v1,v0,34ec <Radio::Messages::consoleHandler(char*)+0x105c>
    2ba8:	24100037 	li	s0,55
    2bac:	08000d39 	j	34e4 <Radio::Messages::consoleHandler(char*)+0x1054>
    2bb0:	26310001 	addiu	s1,s1,1
    2bb4:	82220000 	lb	v0,0(s1)
    2bb8:	2403002b 	li	v1,43
    2bbc:	104301d5 	beq	v0,v1,3314 <Radio::Messages::consoleHandler(char*)+0xe84>
    2bc0:	2403002d 	li	v1,45
    2bc4:	104301d3 	beq	v0,v1,3314 <Radio::Messages::consoleHandler(char*)+0xe84>
    2bc8:	24030020 	li	v1,32
    2bcc:	08000af7 	j	2bdc <Radio::Messages::consoleHandler(char*)+0x74c>
    2bd0:	00000000 	nop
    2bd4:	82220000 	lb	v0,0(s1)
    2bd8:	24030020 	li	v1,32
    2bdc:	10430240 	beq	v0,v1,34e0 <Radio::Messages::consoleHandler(char*)+0x1050>
    2be0:	2442ffd0 	addiu	v0,v0,-48
    2be4:	304200ff 	andi	v0,v0,0xff
    2be8:	2c42000a 	sltiu	v0,v0,10
    2bec:	144001a8 	bnez	v0,3290 <Radio::Messages::consoleHandler(char*)+0xe00>
    2bf0:	24100039 	li	s0,57
    2bf4:	08000d3b 	j	34ec <Radio::Messages::consoleHandler(char*)+0x105c>
    2bf8:	00000000 	nop
    2bfc:	82220000 	lb	v0,0(s1)
    2c00:	2403000a 	li	v1,10
    2c04:	10430200 	beq	v0,v1,3408 <Radio::Messages::consoleHandler(char*)+0xf78>
    2c08:	2843000b 	slti	v1,v0,11
    2c0c:	10600005 	beqz	v1,2c24 <Radio::Messages::consoleHandler(char*)+0x794>
    2c10:	00000000 	nop
    2c14:	104001fc 	beqz	v0,3408 <Radio::Messages::consoleHandler(char*)+0xf78>
    2c18:	2442ffd0 	addiu	v0,v0,-48
    2c1c:	08000bca 	j	2f28 <Radio::Messages::consoleHandler(char*)+0xa98>
    2c20:	304200ff 	andi	v0,v0,0xff
    2c24:	2403000d 	li	v1,13
    2c28:	104301f7 	beq	v0,v1,3408 <Radio::Messages::consoleHandler(char*)+0xf78>
    2c2c:	24030020 	li	v1,32
    2c30:	104301f3 	beq	v0,v1,3400 <Radio::Messages::consoleHandler(char*)+0xf70>
    2c34:	2442ffd0 	addiu	v0,v0,-48
    2c38:	08000bca 	j	2f28 <Radio::Messages::consoleHandler(char*)+0xa98>
    2c3c:	304200ff 	andi	v0,v0,0xff
    2c40:	82230000 	lb	v1,0(s1)
    2c44:	2402006f 	li	v0,111
    2c48:	14620228 	bne	v1,v0,34ec <Radio::Messages::consoleHandler(char*)+0x105c>
    2c4c:	2410003b 	li	s0,59
    2c50:	08000d39 	j	34e4 <Radio::Messages::consoleHandler(char*)+0x1054>
    2c54:	26310001 	addiu	s1,s1,1
    2c58:	82230000 	lb	v1,0(s1)
    2c5c:	2402006c 	li	v0,108
    2c60:	14620222 	bne	v1,v0,34ec <Radio::Messages::consoleHandler(char*)+0x105c>
    2c64:	2410003c 	li	s0,60
    2c68:	08000d39 	j	34e4 <Radio::Messages::consoleHandler(char*)+0x1054>
    2c6c:	26310001 	addiu	s1,s1,1
    2c70:	82230000 	lb	v1,0(s1)
    2c74:	2402006c 	li	v0,108
    2c78:	1462021c 	bne	v1,v0,34ec <Radio::Messages::consoleHandler(char*)+0x105c>
    2c7c:	2410003d 	li	s0,61
    2c80:	08000d39 	j	34e4 <Radio::Messages::consoleHandler(char*)+0x1054>
    2c84:	26310001 	addiu	s1,s1,1
    2c88:	82230000 	lb	v1,0(s1)
    2c8c:	24020020 	li	v0,32
    2c90:	14620216 	bne	v1,v0,34ec <Radio::Messages::consoleHandler(char*)+0x105c>
    2c94:	2410003e 	li	s0,62
    2c98:	08000d39 	j	34e4 <Radio::Messages::consoleHandler(char*)+0x1054>
    2c9c:	26310001 	addiu	s1,s1,1
    2ca0:	82220000 	lb	v0,0(s1)
    2ca4:	2403002b 	li	v1,43
    2ca8:	1043019c 	beq	v0,v1,331c <Radio::Messages::consoleHandler(char*)+0xe8c>
    2cac:	2403002d 	li	v1,45
    2cb0:	1043019a 	beq	v0,v1,331c <Radio::Messages::consoleHandler(char*)+0xe8c>
    2cb4:	24030020 	li	v1,32
    2cb8:	08000b32 	j	2cc8 <Radio::Messages::consoleHandler(char*)+0x838>
    2cbc:	00000000 	nop
    2cc0:	82220000 	lb	v0,0(s1)
    2cc4:	24030020 	li	v1,32
    2cc8:	10430205 	beq	v0,v1,34e0 <Radio::Messages::consoleHandler(char*)+0x1050>
    2ccc:	2442ffd0 	addiu	v0,v0,-48
    2cd0:	304200ff 	andi	v0,v0,0xff
    2cd4:	2c42000a 	sltiu	v0,v0,10
    2cd8:	1440016d 	bnez	v0,3290 <Radio::Messages::consoleHandler(char*)+0xe00>
    2cdc:	24100040 	li	s0,64
    2ce0:	08000d3b 	j	34ec <Radio::Messages::consoleHandler(char*)+0x105c>
    2ce4:	00000000 	nop
    2ce8:	82220000 	lb	v0,0(s1)
    2cec:	2403000a 	li	v1,10
    2cf0:	104301e7 	beq	v0,v1,3490 <Radio::Messages::consoleHandler(char*)+0x1000>
    2cf4:	2843000b 	slti	v1,v0,11
    2cf8:	10600005 	beqz	v1,2d10 <Radio::Messages::consoleHandler(char*)+0x880>
    2cfc:	00000000 	nop
    2d00:	104001e3 	beqz	v0,3490 <Radio::Messages::consoleHandler(char*)+0x1000>
    2d04:	2442ffd0 	addiu	v0,v0,-48
    2d08:	08000bca 	j	2f28 <Radio::Messages::consoleHandler(char*)+0xa98>
    2d0c:	304200ff 	andi	v0,v0,0xff
    2d10:	2403000d 	li	v1,13
    2d14:	104301de 	beq	v0,v1,3490 <Radio::Messages::consoleHandler(char*)+0x1000>
    2d18:	24030020 	li	v1,32
    2d1c:	104301da 	beq	v0,v1,3488 <Radio::Messages::consoleHandler(char*)+0xff8>
    2d20:	2442ffd0 	addiu	v0,v0,-48
    2d24:	08000bca 	j	2f28 <Radio::Messages::consoleHandler(char*)+0xa98>
    2d28:	304200ff 	andi	v0,v0,0xff
    2d2c:	82230000 	lb	v1,0(s1)
    2d30:	24020068 	li	v0,104
    2d34:	146201ed 	bne	v1,v0,34ec <Radio::Messages::consoleHandler(char*)+0x105c>
    2d38:	24100042 	li	s0,66
    2d3c:	08000d39 	j	34e4 <Radio::Messages::consoleHandler(char*)+0x1054>
    2d40:	26310001 	addiu	s1,s1,1
    2d44:	82230000 	lb	v1,0(s1)
    2d48:	24020072 	li	v0,114
    2d4c:	146201e7 	bne	v1,v0,34ec <Radio::Messages::consoleHandler(char*)+0x105c>
    2d50:	24100043 	li	s0,67
    2d54:	08000d39 	j	34e4 <Radio::Messages::consoleHandler(char*)+0x1054>
    2d58:	26310001 	addiu	s1,s1,1
    2d5c:	82230000 	lb	v1,0(s1)
    2d60:	2402006f 	li	v0,111
    2d64:	146201e1 	bne	v1,v0,34ec <Radio::Messages::consoleHandler(char*)+0x105c>
    2d68:	24100044 	li	s0,68
    2d6c:	08000d39 	j	34e4 <Radio::Messages::consoleHandler(char*)+0x1054>
    2d70:	26310001 	addiu	s1,s1,1
    2d74:	82230000 	lb	v1,0(s1)
    2d78:	24020074 	li	v0,116
    2d7c:	146201db 	bne	v1,v0,34ec <Radio::Messages::consoleHandler(char*)+0x105c>
    2d80:	24100045 	li	s0,69
    2d84:	08000d39 	j	34e4 <Radio::Messages::consoleHandler(char*)+0x1054>
    2d88:	26310001 	addiu	s1,s1,1
    2d8c:	82230000 	lb	v1,0(s1)
    2d90:	24020074 	li	v0,116
    2d94:	146201d5 	bne	v1,v0,34ec <Radio::Messages::consoleHandler(char*)+0x105c>
    2d98:	24100046 	li	s0,70
    2d9c:	08000d39 	j	34e4 <Radio::Messages::consoleHandler(char*)+0x1054>
    2da0:	26310001 	addiu	s1,s1,1
    2da4:	82230000 	lb	v1,0(s1)
    2da8:	2402006c 	li	v0,108
    2dac:	146201cf 	bne	v1,v0,34ec <Radio::Messages::consoleHandler(char*)+0x105c>
    2db0:	24100047 	li	s0,71
    2db4:	08000d39 	j	34e4 <Radio::Messages::consoleHandler(char*)+0x1054>
    2db8:	26310001 	addiu	s1,s1,1
    2dbc:	82230000 	lb	v1,0(s1)
    2dc0:	24020065 	li	v0,101
    2dc4:	146201c9 	bne	v1,v0,34ec <Radio::Messages::consoleHandler(char*)+0x105c>
    2dc8:	24100048 	li	s0,72
    2dcc:	08000d39 	j	34e4 <Radio::Messages::consoleHandler(char*)+0x1054>
    2dd0:	26310001 	addiu	s1,s1,1
    2dd4:	82230000 	lb	v1,0(s1)
    2dd8:	24020020 	li	v0,32
    2ddc:	146201c3 	bne	v1,v0,34ec <Radio::Messages::consoleHandler(char*)+0x105c>
    2de0:	24100049 	li	s0,73
    2de4:	08000d39 	j	34e4 <Radio::Messages::consoleHandler(char*)+0x1054>
    2de8:	26310001 	addiu	s1,s1,1
    2dec:	82220000 	lb	v0,0(s1)
    2df0:	24030020 	li	v1,32
    2df4:	104301ba 	beq	v0,v1,34e0 <Radio::Messages::consoleHandler(char*)+0x1050>
    2df8:	2442ffd0 	addiu	v0,v0,-48
    2dfc:	304200ff 	andi	v0,v0,0xff
    2e00:	2c42000a 	sltiu	v0,v0,10
    2e04:	14400122 	bnez	v0,3290 <Radio::Messages::consoleHandler(char*)+0xe00>
    2e08:	2410004a 	li	s0,74
    2e0c:	08000d3b 	j	34ec <Radio::Messages::consoleHandler(char*)+0x105c>
    2e10:	00000000 	nop
    2e14:	82220000 	lb	v0,0(s1)
    2e18:	2403000a 	li	v1,10
    2e1c:	10430165 	beq	v0,v1,33b4 <Radio::Messages::consoleHandler(char*)+0xf24>
    2e20:	2843000b 	slti	v1,v0,11
    2e24:	10600005 	beqz	v1,2e3c <Radio::Messages::consoleHandler(char*)+0x9ac>
    2e28:	00000000 	nop
    2e2c:	10400161 	beqz	v0,33b4 <Radio::Messages::consoleHandler(char*)+0xf24>
    2e30:	2442ffd0 	addiu	v0,v0,-48
    2e34:	08000bca 	j	2f28 <Radio::Messages::consoleHandler(char*)+0xa98>
    2e38:	304200ff 	andi	v0,v0,0xff
    2e3c:	2403000d 	li	v1,13
    2e40:	1043015c 	beq	v0,v1,33b4 <Radio::Messages::consoleHandler(char*)+0xf24>
    2e44:	24030020 	li	v1,32
    2e48:	10430158 	beq	v0,v1,33ac <Radio::Messages::consoleHandler(char*)+0xf1c>
    2e4c:	2442ffd0 	addiu	v0,v0,-48
    2e50:	08000bca 	j	2f28 <Radio::Messages::consoleHandler(char*)+0xa98>
    2e54:	304200ff 	andi	v0,v0,0xff
    2e58:	82230000 	lb	v1,0(s1)
    2e5c:	24020061 	li	v0,97
    2e60:	146201a2 	bne	v1,v0,34ec <Radio::Messages::consoleHandler(char*)+0x105c>
    2e64:	2410004c 	li	s0,76
    2e68:	08000d39 	j	34e4 <Radio::Messages::consoleHandler(char*)+0x1054>
    2e6c:	26310001 	addiu	s1,s1,1
    2e70:	82230000 	lb	v1,0(s1)
    2e74:	24020077 	li	v0,119
    2e78:	1462019c 	bne	v1,v0,34ec <Radio::Messages::consoleHandler(char*)+0x105c>
    2e7c:	2410004d 	li	s0,77
    2e80:	08000d39 	j	34e4 <Radio::Messages::consoleHandler(char*)+0x1054>
    2e84:	26310001 	addiu	s1,s1,1
    2e88:	82230000 	lb	v1,0(s1)
    2e8c:	24020020 	li	v0,32
    2e90:	14620196 	bne	v1,v0,34ec <Radio::Messages::consoleHandler(char*)+0x105c>
    2e94:	2410004e 	li	s0,78
    2e98:	08000d39 	j	34e4 <Radio::Messages::consoleHandler(char*)+0x1054>
    2e9c:	26310001 	addiu	s1,s1,1
    2ea0:	82220000 	lb	v0,0(s1)
    2ea4:	2403002b 	li	v1,43
    2ea8:	1043011e 	beq	v0,v1,3324 <Radio::Messages::consoleHandler(char*)+0xe94>
    2eac:	2403002d 	li	v1,45
    2eb0:	1043011c 	beq	v0,v1,3324 <Radio::Messages::consoleHandler(char*)+0xe94>
    2eb4:	24030020 	li	v1,32
    2eb8:	08000bb2 	j	2ec8 <Radio::Messages::consoleHandler(char*)+0xa38>
    2ebc:	00000000 	nop
    2ec0:	82220000 	lb	v0,0(s1)
    2ec4:	24030020 	li	v1,32
    2ec8:	10430185 	beq	v0,v1,34e0 <Radio::Messages::consoleHandler(char*)+0x1050>
    2ecc:	2442ffd0 	addiu	v0,v0,-48
    2ed0:	304200ff 	andi	v0,v0,0xff
    2ed4:	2c42000a 	sltiu	v0,v0,10
    2ed8:	144000ed 	bnez	v0,3290 <Radio::Messages::consoleHandler(char*)+0xe00>
    2edc:	24100050 	li	s0,80
    2ee0:	08000d3b 	j	34ec <Radio::Messages::consoleHandler(char*)+0x105c>
    2ee4:	00000000 	nop
    2ee8:	82220000 	lb	v0,0(s1)
    2eec:	2403000a 	li	v1,10
    2ef0:	10430156 	beq	v0,v1,344c <Radio::Messages::consoleHandler(char*)+0xfbc>
    2ef4:	2843000b 	slti	v1,v0,11
    2ef8:	10600005 	beqz	v1,2f10 <Radio::Messages::consoleHandler(char*)+0xa80>
    2efc:	00000000 	nop
    2f00:	10400152 	beqz	v0,344c <Radio::Messages::consoleHandler(char*)+0xfbc>
    2f04:	2442ffd0 	addiu	v0,v0,-48
    2f08:	08000bca 	j	2f28 <Radio::Messages::consoleHandler(char*)+0xa98>
    2f0c:	304200ff 	andi	v0,v0,0xff
    2f10:	2403000d 	li	v1,13
    2f14:	1043014d 	beq	v0,v1,344c <Radio::Messages::consoleHandler(char*)+0xfbc>
    2f18:	24030020 	li	v1,32
    2f1c:	10430149 	beq	v0,v1,3444 <Radio::Messages::consoleHandler(char*)+0xfb4>
    2f20:	2442ffd0 	addiu	v0,v0,-48
    2f24:	304200ff 	andi	v0,v0,0xff
    2f28:	2c42000a 	sltiu	v0,v0,10
    2f2c:	144000d9 	bnez	v0,3294 <Radio::Messages::consoleHandler(char*)+0xe04>
    2f30:	27a30010 	addiu	v1,sp,16
    2f34:	08000d3b 	j	34ec <Radio::Messages::consoleHandler(char*)+0x105c>
    2f38:	00000000 	nop
    2f3c:	0c000489 	jal	1224 <_ZN6System8Registry8instanceEv.local.6>
    2f40:	3c108000 	lui	s0,0x8000
    2f44:	8c44001c 	lw	a0,28(v0)
    2f48:	0c000913 	jal	244c <b32tohex(unsigned int)>
    2f4c:	00000000 	nop
    2f50:	00602821 	move	a1,v1
    2f54:	0c0005f0 	jal	17c0 <System::Bus::UART::write_waiting(long long)>
    2f58:	00402021 	move	a0,v0
    2f5c:	00002821 	move	a1,zero
    2f60:	0c0005b3 	jal	16cc <System::Bus::UART::write_waiting(char const*, unsigned int)>
    2f64:	2604013c 	addiu	a0,s0,316
    2f68:	0c000489 	jal	1224 <_ZN6System8Registry8instanceEv.local.6>
    2f6c:	00000000 	nop
    2f70:	8c440020 	lw	a0,32(v0)
    2f74:	0c000913 	jal	244c <b32tohex(unsigned int)>
    2f78:	00000000 	nop
    2f7c:	00602821 	move	a1,v1
    2f80:	0c0005f0 	jal	17c0 <System::Bus::UART::write_waiting(long long)>
    2f84:	00402021 	move	a0,v0
    2f88:	2604013c 	addiu	a0,s0,316
    2f8c:	0c0005b3 	jal	16cc <System::Bus::UART::write_waiting(char const*, unsigned int)>
    2f90:	00002821 	move	a1,zero
    2f94:	0c000489 	jal	1224 <_ZN6System8Registry8instanceEv.local.6>
    2f98:	00000000 	nop
    2f9c:	8c440024 	lw	a0,36(v0)
    2fa0:	08000bed 	j	2fb4 <Radio::Messages::consoleHandler(char*)+0xb24>
    2fa4:	00000000 	nop
    2fa8:	0c000489 	jal	1224 <_ZN6System8Registry8instanceEv.local.6>
    2fac:	00000000 	nop
    2fb0:	8c440050 	lw	a0,80(v0)
    2fb4:	0c000913 	jal	244c <b32tohex(unsigned int)>
    2fb8:	00000000 	nop
    2fbc:	00402021 	move	a0,v0
    2fc0:	0c0005f0 	jal	17c0 <System::Bus::UART::write_waiting(long long)>
    2fc4:	00602821 	move	a1,v1
    2fc8:	26840140 	addiu	a0,s4,320
    2fcc:	0c0005b3 	jal	16cc <System::Bus::UART::write_waiting(char const*, unsigned int)>
    2fd0:	00002821 	move	a1,zero
    2fd4:	08000d38 	j	34e0 <Radio::Messages::consoleHandler(char*)+0x1050>
    2fd8:	24100008 	li	s0,8
    2fdc:	0c000489 	jal	1224 <_ZN6System8Registry8instanceEv.local.6>
    2fe0:	3c108000 	lui	s0,0x8000
    2fe4:	0c000886 	jal	2218 <float32::operator int() const>
    2fe8:	24440010 	addiu	a0,v0,16
    2fec:	0c0008bb 	jal	22ec <b32todec(int)>
    2ff0:	00402021 	move	a0,v0
    2ff4:	00602821 	move	a1,v1
    2ff8:	0c0005f0 	jal	17c0 <System::Bus::UART::write_waiting(long long)>
    2ffc:	00402021 	move	a0,v0
    3000:	00002821 	move	a1,zero
    3004:	0c0005b3 	jal	16cc <System::Bus::UART::write_waiting(char const*, unsigned int)>
    3008:	2604013c 	addiu	a0,s0,316
    300c:	0c000489 	jal	1224 <_ZN6System8Registry8instanceEv.local.6>
    3010:	00000000 	nop
    3014:	0c000886 	jal	2218 <float32::operator int() const>
    3018:	24440014 	addiu	a0,v0,20
    301c:	0c0008bb 	jal	22ec <b32todec(int)>
    3020:	00402021 	move	a0,v0
    3024:	00602821 	move	a1,v1
    3028:	0c0005f0 	jal	17c0 <System::Bus::UART::write_waiting(long long)>
    302c:	00402021 	move	a0,v0
    3030:	2604013c 	addiu	a0,s0,316
    3034:	0c0005b3 	jal	16cc <System::Bus::UART::write_waiting(char const*, unsigned int)>
    3038:	00002821 	move	a1,zero
    303c:	0c000489 	jal	1224 <_ZN6System8Registry8instanceEv.local.6>
    3040:	00000000 	nop
    3044:	0c000886 	jal	2218 <float32::operator int() const>
    3048:	24440018 	addiu	a0,v0,24
    304c:	0c0008bb 	jal	22ec <b32todec(int)>
    3050:	00402021 	move	a0,v0
    3054:	08000bf0 	j	2fc0 <Radio::Messages::consoleHandler(char*)+0xb30>
    3058:	00402021 	move	a0,v0
    305c:	0c000489 	jal	1224 <_ZN6System8Registry8instanceEv.local.6>
    3060:	3c108000 	lui	s0,0x8000
    3064:	8c440034 	lw	a0,52(v0)
    3068:	0c000913 	jal	244c <b32tohex(unsigned int)>
    306c:	00000000 	nop
    3070:	00602821 	move	a1,v1
    3074:	0c0005f0 	jal	17c0 <System::Bus::UART::write_waiting(long long)>
    3078:	00402021 	move	a0,v0
    307c:	00002821 	move	a1,zero
    3080:	0c0005b3 	jal	16cc <System::Bus::UART::write_waiting(char const*, unsigned int)>
    3084:	2604013c 	addiu	a0,s0,316
    3088:	0c000489 	jal	1224 <_ZN6System8Registry8instanceEv.local.6>
    308c:	00000000 	nop
    3090:	8c440038 	lw	a0,56(v0)
    3094:	0c000913 	jal	244c <b32tohex(unsigned int)>
    3098:	00000000 	nop
    309c:	00602821 	move	a1,v1
    30a0:	0c0005f0 	jal	17c0 <System::Bus::UART::write_waiting(long long)>
    30a4:	00402021 	move	a0,v0
    30a8:	2604013c 	addiu	a0,s0,316
    30ac:	0c0005b3 	jal	16cc <System::Bus::UART::write_waiting(char const*, unsigned int)>
    30b0:	00002821 	move	a1,zero
    30b4:	0c000489 	jal	1224 <_ZN6System8Registry8instanceEv.local.6>
    30b8:	00000000 	nop
    30bc:	8c44003c 	lw	a0,60(v0)
    30c0:	08000bed 	j	2fb4 <Radio::Messages::consoleHandler(char*)+0xb24>
    30c4:	00000000 	nop
    30c8:	0c000489 	jal	1224 <_ZN6System8Registry8instanceEv.local.6>
    30cc:	3c108000 	lui	s0,0x8000
    30d0:	8c440040 	lw	a0,64(v0)
    30d4:	0c000913 	jal	244c <b32tohex(unsigned int)>
    30d8:	00000000 	nop
    30dc:	00602821 	move	a1,v1
    30e0:	0c0005f0 	jal	17c0 <System::Bus::UART::write_waiting(long long)>
    30e4:	00402021 	move	a0,v0
    30e8:	00002821 	move	a1,zero
    30ec:	0c0005b3 	jal	16cc <System::Bus::UART::write_waiting(char const*, unsigned int)>
    30f0:	2604013c 	addiu	a0,s0,316
    30f4:	0c000489 	jal	1224 <_ZN6System8Registry8instanceEv.local.6>
    30f8:	00000000 	nop
    30fc:	8c440044 	lw	a0,68(v0)
    3100:	0c000913 	jal	244c <b32tohex(unsigned int)>
    3104:	00000000 	nop
    3108:	00602821 	move	a1,v1
    310c:	0c0005f0 	jal	17c0 <System::Bus::UART::write_waiting(long long)>
    3110:	00402021 	move	a0,v0
    3114:	2604013c 	addiu	a0,s0,316
    3118:	0c0005b3 	jal	16cc <System::Bus::UART::write_waiting(char const*, unsigned int)>
    311c:	00002821 	move	a1,zero
    3120:	0c000489 	jal	1224 <_ZN6System8Registry8instanceEv.local.6>
    3124:	00000000 	nop
    3128:	8c440048 	lw	a0,72(v0)
    312c:	08000bed 	j	2fb4 <Radio::Messages::consoleHandler(char*)+0xb24>
    3130:	00000000 	nop
    3134:	0c000489 	jal	1224 <_ZN6System8Registry8instanceEv.local.6>
    3138:	3c108000 	lui	s0,0x8000
    313c:	8c440058 	lw	a0,88(v0)
    3140:	0c000913 	jal	244c <b32tohex(unsigned int)>
    3144:	00000000 	nop
    3148:	00602821 	move	a1,v1
    314c:	0c0005f0 	jal	17c0 <System::Bus::UART::write_waiting(long long)>
    3150:	00402021 	move	a0,v0
    3154:	00002821 	move	a1,zero
    3158:	0c0005b3 	jal	16cc <System::Bus::UART::write_waiting(char const*, unsigned int)>
    315c:	2604013c 	addiu	a0,s0,316
    3160:	0c000489 	jal	1224 <_ZN6System8Registry8instanceEv.local.6>
    3164:	00000000 	nop
    3168:	8c44005c 	lw	a0,92(v0)
    316c:	0c000913 	jal	244c <b32tohex(unsigned int)>
    3170:	00000000 	nop
    3174:	00602821 	move	a1,v1
    3178:	0c0005f0 	jal	17c0 <System::Bus::UART::write_waiting(long long)>
    317c:	00402021 	move	a0,v0
    3180:	2604013c 	addiu	a0,s0,316
    3184:	0c0005b3 	jal	16cc <System::Bus::UART::write_waiting(char const*, unsigned int)>
    3188:	00002821 	move	a1,zero
    318c:	0c000489 	jal	1224 <_ZN6System8Registry8instanceEv.local.6>
    3190:	00000000 	nop
    3194:	8c440060 	lw	a0,96(v0)
    3198:	08000bed 	j	2fb4 <Radio::Messages::consoleHandler(char*)+0xb24>
    319c:	00000000 	nop
    31a0:	0c000489 	jal	1224 <_ZN6System8Registry8instanceEv.local.6>
    31a4:	3c108000 	lui	s0,0x8000
    31a8:	8c440000 	lw	a0,0(v0)
    31ac:	0c000913 	jal	244c <b32tohex(unsigned int)>
    31b0:	00000000 	nop
    31b4:	00602821 	move	a1,v1
    31b8:	0c0005f0 	jal	17c0 <System::Bus::UART::write_waiting(long long)>
    31bc:	00402021 	move	a0,v0
    31c0:	00002821 	move	a1,zero
    31c4:	0c0005b3 	jal	16cc <System::Bus::UART::write_waiting(char const*, unsigned int)>
    31c8:	2604013c 	addiu	a0,s0,316
    31cc:	0c000489 	jal	1224 <_ZN6System8Registry8instanceEv.local.6>
    31d0:	00000000 	nop
    31d4:	8c440004 	lw	a0,4(v0)
    31d8:	0c000913 	jal	244c <b32tohex(unsigned int)>
    31dc:	00000000 	nop
    31e0:	00602821 	move	a1,v1
    31e4:	0c0005f0 	jal	17c0 <System::Bus::UART::write_waiting(long long)>
    31e8:	00402021 	move	a0,v0
    31ec:	00002821 	move	a1,zero
    31f0:	0c0005b3 	jal	16cc <System::Bus::UART::write_waiting(char const*, unsigned int)>
    31f4:	2604013c 	addiu	a0,s0,316
    31f8:	0c000489 	jal	1224 <_ZN6System8Registry8instanceEv.local.6>
    31fc:	00000000 	nop
    3200:	8c440008 	lw	a0,8(v0)
    3204:	0c000913 	jal	244c <b32tohex(unsigned int)>
    3208:	00000000 	nop
    320c:	00602821 	move	a1,v1
    3210:	0c0005f0 	jal	17c0 <System::Bus::UART::write_waiting(long long)>
    3214:	00402021 	move	a0,v0
    3218:	2604013c 	addiu	a0,s0,316
    321c:	0c0005b3 	jal	16cc <System::Bus::UART::write_waiting(char const*, unsigned int)>
    3220:	00002821 	move	a1,zero
    3224:	0c000489 	jal	1224 <_ZN6System8Registry8instanceEv.local.6>
    3228:	00000000 	nop
    322c:	8c44000c 	lw	a0,12(v0)
    3230:	08000bed 	j	2fb4 <Radio::Messages::consoleHandler(char*)+0xb24>
    3234:	00000000 	nop
    3238:	0c000489 	jal	1224 <_ZN6System8Registry8instanceEv.local.6>
    323c:	00000000 	nop
    3240:	8c44004c 	lw	a0,76(v0)
    3244:	08000bed 	j	2fb4 <Radio::Messages::consoleHandler(char*)+0xb24>
    3248:	00000000 	nop
    324c:	0c000489 	jal	1224 <_ZN6System8Registry8instanceEv.local.6>
    3250:	00000000 	nop
    3254:	8c440054 	lw	a0,84(v0)
    3258:	08000bed 	j	2fb4 <Radio::Messages::consoleHandler(char*)+0xb24>
    325c:	00000000 	nop
    3260:	08000d38 	j	34e0 <Radio::Messages::consoleHandler(char*)+0x1050>
    3264:	2410000a 	li	s0,10
    3268:	08000d38 	j	34e0 <Radio::Messages::consoleHandler(char*)+0x1050>
    326c:	24100011 	li	s0,17
    3270:	08000d38 	j	34e0 <Radio::Messages::consoleHandler(char*)+0x1050>
    3274:	24100016 	li	s0,22
    3278:	08000d38 	j	34e0 <Radio::Messages::consoleHandler(char*)+0x1050>
    327c:	24100019 	li	s0,25
    3280:	08000d38 	j	34e0 <Radio::Messages::consoleHandler(char*)+0x1050>
    3284:	24100022 	li	s0,34
    3288:	08000d38 	j	34e0 <Radio::Messages::consoleHandler(char*)+0x1050>
    328c:	24100041 	li	s0,65
    3290:	27a30010 	addiu	v1,sp,16
    3294:	00121080 	sll	v0,s2,0x2
    3298:	00621021 	addu	v0,v1,v0
    329c:	8c430000 	lw	v1,0(v0)
    32a0:	2404000a 	li	a0,10
    32a4:	00830018 	mult	a0,v1
    32a8:	82230000 	lb	v1,0(s1)
    32ac:	00000000 	nop
    32b0:	2463ffd0 	addiu	v1,v1,-48
    32b4:	00002812 	mflo	a1
    32b8:	00a31821 	addu	v1,a1,v1
    32bc:	08000d38 	j	34e0 <Radio::Messages::consoleHandler(char*)+0x1050>
    32c0:	ac430000 	sw	v1,0(v0)
    32c4:	08000cb4 	j	32d0 <Radio::Messages::consoleHandler(char*)+0xe40>
    32c8:	2410002e 	li	s0,46
    32cc:	24100031 	li	s0,49
    32d0:	2402002d 	li	v0,45
    32d4:	16620007 	bne	s3,v0,32f4 <Radio::Messages::consoleHandler(char*)+0xe64>
    32d8:	27a30010 	addiu	v1,sp,16
    32dc:	00121080 	sll	v0,s2,0x2
    32e0:	00621021 	addu	v0,v1,v0
    32e4:	8c430000 	lw	v1,0(v0)
    32e8:	2413002b 	li	s3,43
    32ec:	00031823 	negu	v1,v1
    32f0:	ac430000 	sw	v1,0(v0)
    32f4:	08000d38 	j	34e0 <Radio::Messages::consoleHandler(char*)+0x1050>
    32f8:	26520001 	addiu	s2,s2,1
    32fc:	08000cca 	j	3328 <Radio::Messages::consoleHandler(char*)+0xe98>
    3300:	2410002c 	li	s0,44
    3304:	08000cca 	j	3328 <Radio::Messages::consoleHandler(char*)+0xe98>
    3308:	2410002f 	li	s0,47
    330c:	08000cca 	j	3328 <Radio::Messages::consoleHandler(char*)+0xe98>
    3310:	24100032 	li	s0,50
    3314:	08000cca 	j	3328 <Radio::Messages::consoleHandler(char*)+0xe98>
    3318:	24100038 	li	s0,56
    331c:	08000cca 	j	3328 <Radio::Messages::consoleHandler(char*)+0xe98>
    3320:	2410003f 	li	s0,63
    3324:	2410004f 	li	s0,79
    3328:	82230000 	lb	v1,0(s1)
    332c:	2402002d 	li	v0,45
    3330:	1462006b 	bne	v1,v0,34e0 <Radio::Messages::consoleHandler(char*)+0x1050>
    3334:	00000000 	nop
    3338:	08000d38 	j	34e0 <Radio::Messages::consoleHandler(char*)+0x1050>
    333c:	2413002d 	li	s3,45
    3340:	08000cd3 	j	334c <Radio::Messages::consoleHandler(char*)+0xebc>
    3344:	24100008 	li	s0,8
    3348:	24100051 	li	s0,81
    334c:	2402002d 	li	v0,45
    3350:	16620007 	bne	s3,v0,3370 <Radio::Messages::consoleHandler(char*)+0xee0>
    3354:	00121080 	sll	v0,s2,0x2
    3358:	27a40010 	addiu	a0,sp,16
    335c:	00821021 	addu	v0,a0,v0
    3360:	8c430000 	lw	v1,0(v0)
    3364:	2413002b 	li	s3,43
    3368:	00031823 	negu	v1,v1
    336c:	ac430000 	sw	v1,0(v0)
    3370:	8fa30014 	lw	v1,20(sp)
    3374:	8fa40010 	lw	a0,16(sp)
    3378:	afa30028 	sw	v1,40(sp)
    337c:	8fbe0018 	lw	s8,24(sp)
    3380:	0c000489 	jal	1224 <_ZN6System8Registry8instanceEv.local.6>
    3384:	afa40024 	sw	a0,36(sp)
    3388:	8fa40024 	lw	a0,36(sp)
    338c:	26520001 	addiu	s2,s2,1
    3390:	0c000489 	jal	1224 <_ZN6System8Registry8instanceEv.local.6>
    3394:	ac440058 	sw	a0,88(v0)
    3398:	8fa30028 	lw	v1,40(sp)
    339c:	0c000489 	jal	1224 <_ZN6System8Registry8instanceEv.local.6>
    33a0:	ac43005c 	sw	v1,92(v0)
    33a4:	08000cfb 	j	33ec <Radio::Messages::consoleHandler(char*)+0xf5c>
    33a8:	ac5e0060 	sw	s8,96(v0)
    33ac:	08000cee 	j	33b8 <Radio::Messages::consoleHandler(char*)+0xf28>
    33b0:	24100008 	li	s0,8
    33b4:	24100051 	li	s0,81
    33b8:	2402002d 	li	v0,45
    33bc:	16620007 	bne	s3,v0,33dc <Radio::Messages::consoleHandler(char*)+0xf4c>
    33c0:	00121080 	sll	v0,s2,0x2
    33c4:	27a50010 	addiu	a1,sp,16
    33c8:	00a21021 	addu	v0,a1,v0
    33cc:	8c430000 	lw	v1,0(v0)
    33d0:	2413002b 	li	s3,43
    33d4:	00031823 	negu	v1,v1
    33d8:	ac430000 	sw	v1,0(v0)
    33dc:	8fbe0010 	lw	s8,16(sp)
    33e0:	0c000489 	jal	1224 <_ZN6System8Registry8instanceEv.local.6>
    33e4:	26520001 	addiu	s2,s2,1
    33e8:	ac5e0054 	sw	s8,84(v0)
    33ec:	02a02021 	move	a0,s5
    33f0:	0c0005b3 	jal	16cc <System::Bus::UART::write_waiting(char const*, unsigned int)>
    33f4:	00002821 	move	a1,zero
    33f8:	08000d39 	j	34e4 <Radio::Messages::consoleHandler(char*)+0x1054>
    33fc:	26310001 	addiu	s1,s1,1
    3400:	08000d03 	j	340c <Radio::Messages::consoleHandler(char*)+0xf7c>
    3404:	24100008 	li	s0,8
    3408:	24100051 	li	s0,81
    340c:	2402002d 	li	v0,45
    3410:	16620007 	bne	s3,v0,3430 <Radio::Messages::consoleHandler(char*)+0xfa0>
    3414:	27a30010 	addiu	v1,sp,16
    3418:	00121080 	sll	v0,s2,0x2
    341c:	00621021 	addu	v0,v1,v0
    3420:	8c430000 	lw	v1,0(v0)
    3424:	2413002b 	li	s3,43
    3428:	00031823 	negu	v1,v1
    342c:	ac430000 	sw	v1,0(v0)
    3430:	8fbe0010 	lw	s8,16(sp)
    3434:	0c000489 	jal	1224 <_ZN6System8Registry8instanceEv.local.6>
    3438:	26520001 	addiu	s2,s2,1
    343c:	08000cfb 	j	33ec <Radio::Messages::consoleHandler(char*)+0xf5c>
    3440:	ac5e0074 	sw	s8,116(v0)
    3444:	08000d14 	j	3450 <Radio::Messages::consoleHandler(char*)+0xfc0>
    3448:	24100008 	li	s0,8
    344c:	24100051 	li	s0,81
    3450:	2402002d 	li	v0,45
    3454:	16620007 	bne	s3,v0,3474 <Radio::Messages::consoleHandler(char*)+0xfe4>
    3458:	00121080 	sll	v0,s2,0x2
    345c:	27a40010 	addiu	a0,sp,16
    3460:	00821021 	addu	v0,a0,v0
    3464:	8c430000 	lw	v1,0(v0)
    3468:	2413002b 	li	s3,43
    346c:	00031823 	negu	v1,v1
    3470:	ac430000 	sw	v1,0(v0)
    3474:	8fbe0010 	lw	s8,16(sp)
    3478:	0c000489 	jal	1224 <_ZN6System8Registry8instanceEv.local.6>
    347c:	26520001 	addiu	s2,s2,1
    3480:	08000cfb 	j	33ec <Radio::Messages::consoleHandler(char*)+0xf5c>
    3484:	ac5e0078 	sw	s8,120(v0)
    3488:	08000d25 	j	3494 <Radio::Messages::consoleHandler(char*)+0x1004>
    348c:	24100008 	li	s0,8
    3490:	24100051 	li	s0,81
    3494:	2402002d 	li	v0,45
    3498:	16620007 	bne	s3,v0,34b8 <Radio::Messages::consoleHandler(char*)+0x1028>
    349c:	00121080 	sll	v0,s2,0x2
    34a0:	27a50010 	addiu	a1,sp,16
    34a4:	00a21021 	addu	v0,a1,v0
    34a8:	8c430000 	lw	v1,0(v0)
    34ac:	2413002b 	li	s3,43
    34b0:	00031823 	negu	v1,v1
    34b4:	ac430000 	sw	v1,0(v0)
    34b8:	8fbe0010 	lw	s8,16(sp)
    34bc:	0c000489 	jal	1224 <_ZN6System8Registry8instanceEv.local.6>
    34c0:	26520001 	addiu	s2,s2,1
    34c4:	08000cfb 	j	33ec <Radio::Messages::consoleHandler(char*)+0xf5c>
    34c8:	ac5e007c 	sw	s8,124(v0)
    34cc:	08000d38 	j	34e0 <Radio::Messages::consoleHandler(char*)+0x1050>
    34d0:	24100009 	li	s0,9
    34d4:	08000d38 	j	34e0 <Radio::Messages::consoleHandler(char*)+0x1050>
    34d8:	24100051 	li	s0,81
    34dc:	2410003a 	li	s0,58
    34e0:	26310001 	addiu	s1,s1,1
    34e4:	16d1fc0c 	bne	s6,s1,2518 <Radio::Messages::consoleHandler(char*)+0x88>
    34e8:	2602ffff 	addiu	v0,s0,-1
    34ec:	8fbf0054 	lw	ra,84(sp)
    34f0:	8fbe0050 	lw	s8,80(sp)
    34f4:	8fb7004c 	lw	s7,76(sp)
    34f8:	8fb60048 	lw	s6,72(sp)
    34fc:	8fb50044 	lw	s5,68(sp)
    3500:	8fb40040 	lw	s4,64(sp)
    3504:	8fb3003c 	lw	s3,60(sp)
    3508:	8fb20038 	lw	s2,56(sp)
    350c:	8fb10034 	lw	s1,52(sp)
    3510:	8fb00030 	lw	s0,48(sp)
    3514:	03e00008 	jr	ra
    3518:	27bd0058 	addiu	sp,sp,88

0000351c <__ashldi3>:

#ifdef L_ashldi3
DWtype
__ashldi3 (DWtype u, shift_count_type b)
{
  if (b == 0)
    351c:	10c0000a 	beqz	a2,3548 <__ashldi3+0x2c>
    3520:	00801021 	move	v0,a0
    return u;

  const DWunion uu = {.ll = u};
  const shift_count_type bm = W_TYPE_SIZE - b;
    3524:	24030020 	li	v1,32
    3528:	00661823 	subu	v1,v1,a2
  DWunion w;

  if (bm <= 0)
    352c:	18600008 	blez	v1,3550 <__ashldi3+0x34>
    3530:	00000000 	nop
      w.s.low = 0;
      w.s.high = (UWtype) uu.s.low << -bm;
    }
  else
    {
      const UWtype carries = (UWtype) uu.s.low >> bm;
    3534:	00651806 	srlv	v1,a1,v1

      w.s.low = (UWtype) uu.s.low << b;
      w.s.high = ((UWtype) uu.s.high << b) | carries;
    3538:	00c41004 	sllv	v0,a0,a2
    }
  else
    {
      const UWtype carries = (UWtype) uu.s.low >> bm;

      w.s.low = (UWtype) uu.s.low << b;
    353c:	00c53004 	sllv	a2,a1,a2
      w.s.high = ((UWtype) uu.s.high << b) | carries;
    3540:	00621025 	or	v0,v1,v0
    }

  return w.ll;
    3544:	00c02821 	move	a1,a2
}
    3548:	03e00008 	jr	ra
    354c:	00a01821 	move	v1,a1
  DWunion w;

  if (bm <= 0)
    {
      w.s.low = 0;
      w.s.high = (UWtype) uu.s.low << -bm;
    3550:	00031023 	negu	v0,v1
  const shift_count_type bm = W_TYPE_SIZE - b;
  DWunion w;

  if (bm <= 0)
    {
      w.s.low = 0;
    3554:	00003021 	move	a2,zero
      w.s.high = (UWtype) uu.s.low << -bm;
    3558:	00451004 	sllv	v0,a1,v0

      w.s.low = (UWtype) uu.s.low << b;
      w.s.high = ((UWtype) uu.s.high << b) | carries;
    }

  return w.ll;
    355c:	08000d52 	j	3548 <__ashldi3+0x2c>
    3560:	00c02821 	move	a1,a2

00003564 <_GLOBAL__sub_I__ZN6System7Tasking4Pool16xbeeReadIdleTaskE.2924.1318>:
    3564:	3c048000 	lui	a0,0x8000
    3568:	3c038000 	lui	v1,0x8000
    356c:	248402c0 	addiu	a0,a0,704
    3570:	27bdffe8 	addiu	sp,sp,-24
    3574:	24620350 	addiu	v0,v1,848
    3578:	ac640350 	sw	a0,848(v1)
    357c:	3c038000 	lui	v1,0x8000
    3580:	afbf0014 	sw	ra,20(sp)
    3584:	afb00010 	sw	s0,16(sp)
    3588:	ac400004 	sw	zero,4(v0)
    358c:	ac400008 	sw	zero,8(v0)
    3590:	ac40000c 	sw	zero,12(v0)
    3594:	ac400038 	sw	zero,56(v0)
    3598:	a040003c 	sb	zero,60(v0)
    359c:	ac400040 	sw	zero,64(v0)
    35a0:	24620394 	addiu	v0,v1,916
    35a4:	ac400004 	sw	zero,4(v0)
    35a8:	ac400008 	sw	zero,8(v0)
    35ac:	ac40000c 	sw	zero,12(v0)
    35b0:	3c028000 	lui	v0,0x8000
    35b4:	244202b0 	addiu	v0,v0,688
    35b8:	ac620394 	sw	v0,916(v1)
    35bc:	3c038000 	lui	v1,0x8000
    35c0:	246203a8 	addiu	v0,v1,936
    35c4:	ac400004 	sw	zero,4(v0)
    35c8:	ac400008 	sw	zero,8(v0)
    35cc:	ac400014 	sw	zero,20(v0)
    35d0:	ac400018 	sw	zero,24(v0)
    35d4:	ac40001c 	sw	zero,28(v0)
    35d8:	ac400020 	sw	zero,32(v0)
    35dc:	ac40000c 	sw	zero,12(v0)
    35e0:	3c028000 	lui	v0,0x8000
    35e4:	245003cc 	addiu	s0,v0,972
    35e8:	3c048000 	lui	a0,0x8000
    35ec:	ae000004 	sw	zero,4(s0)
    35f0:	ae000008 	sw	zero,8(s0)
    35f4:	248402a0 	addiu	a0,a0,672
    35f8:	ac6403a8 	sw	a0,936(v1)
    35fc:	8c050010 	lw	a1,16(zero)
    3600:	3c038000 	lui	v1,0x8000
    3604:	3c048000 	lui	a0,0x8000
    3608:	24630290 	addiu	v1,v1,656
    360c:	248403e4 	addiu	a0,a0,996
    3610:	ae00000c 	sw	zero,12(s0)
    3614:	0c00068e 	jal	1a38 <float32::float32(int)>
    3618:	ac4303cc 	sw	v1,972(v0)
    361c:	8fbf0014 	lw	ra,20(sp)
    3620:	3c023f80 	lui	v0,0x3f80
    3624:	ae020040 	sw	v0,64(s0)
    3628:	ae020050 	sw	v0,80(s0)
    362c:	8fb00010 	lw	s0,16(sp)
    3630:	03e00008 	jr	ra
    3634:	27bd0018 	addiu	sp,sp,24

00003638 <main>:
    3638:	27bdffb0 	addiu	sp,sp,-80
    363c:	2404006b 	li	a0,107
    3640:	2405ff80 	li	a1,-128
    3644:	afbf004c 	sw	ra,76(sp)
    3648:	afb40048 	sw	s4,72(sp)
    364c:	afb30044 	sw	s3,68(sp)
    3650:	afb20040 	sw	s2,64(sp)
    3654:	afb1003c 	sw	s1,60(sp)
    3658:	0c000661 	jal	1984 <_ZN7Sensors3IMU7MPU6050L13mpu6050_setupEcc.2475>
    365c:	afb00038 	sw	s0,56(sp)
    3660:	3402f424 	li	v0,0xf424
    3664:	2442ffff 	addiu	v0,v0,-1
    3668:	1440fffe 	bnez	v0,3664 <main+0x2c>
    366c:	2404006b 	li	a0,107
    3670:	0c000661 	jal	1984 <_ZN7Sensors3IMU7MPU6050L13mpu6050_setupEcc.2475>
    3674:	00002821 	move	a1,zero
    3678:	2404001a 	li	a0,26
    367c:	0c000661 	jal	1984 <_ZN7Sensors3IMU7MPU6050L13mpu6050_setupEcc.2475>
    3680:	24050003 	li	a1,3
    3684:	2404001b 	li	a0,27
    3688:	0c000661 	jal	1984 <_ZN7Sensors3IMU7MPU6050L13mpu6050_setupEcc.2475>
    368c:	24050018 	li	a1,24
    3690:	2404001c 	li	a0,28
    3694:	0c000661 	jal	1984 <_ZN7Sensors3IMU7MPU6050L13mpu6050_setupEcc.2475>
    3698:	24050018 	li	a1,24
    369c:	240230d4 	li	v0,12500
    36a0:	2442ffff 	addiu	v0,v0,-1
    36a4:	1440fffe 	bnez	v0,36a0 <main+0x68>
    36a8:	3c060001 	lui	a2,0x1
    36ac:	24050001 	li	a1,1
    36b0:	34c6e848 	ori	a2,a2,0xe848
    36b4:	24040008 	li	a0,8
    36b8:	00451804 	sllv	v1,a1,v0
    36bc:	306300ff 	andi	v1,v1,0xff
    36c0:	ac030004 	sw	v1,4(zero)
    36c4:	00c01821 	move	v1,a2
    36c8:	2463ffff 	addiu	v1,v1,-1
    36cc:	1460fffe 	bnez	v1,36c8 <main+0x90>
    36d0:	00000000 	nop
    36d4:	24420001 	addiu	v0,v0,1
    36d8:	1444fff8 	bne	v0,a0,36bc <main+0x84>
    36dc:	00451804 	sllv	v1,a1,v0
    36e0:	3c060001 	lui	a2,0x1
    36e4:	00001021 	move	v0,zero
    36e8:	24050080 	li	a1,128
    36ec:	34c6e848 	ori	a2,a2,0xe848
    36f0:	24040009 	li	a0,9
    36f4:	00451807 	srav	v1,a1,v0
    36f8:	ac030004 	sw	v1,4(zero)
    36fc:	00c01821 	move	v1,a2
    3700:	2463ffff 	addiu	v1,v1,-1
    3704:	1460fffe 	bnez	v1,3700 <main+0xc8>
    3708:	00000000 	nop
    370c:	24420001 	addiu	v0,v0,1
    3710:	1444fff9 	bne	v0,a0,36f8 <main+0xc0>
    3714:	00451807 	srav	v1,a1,v0
    3718:	3c053435 	lui	a1,0x3435
    371c:	3c043031 	lui	a0,0x3031
    3720:	34a53637 	ori	a1,a1,0x3637
    3724:	0c0005f0 	jal	17c0 <System::Bus::UART::write_waiting(long long)>
    3728:	34843233 	ori	a0,a0,0x3233
    372c:	3c028000 	lui	v0,0x8000
    3730:	24420350 	addiu	v0,v0,848
    3734:	afa00024 	sw	zero,36(sp)
    3738:	afa00028 	sw	zero,40(sp)
    373c:	27a30010 	addiu	v1,sp,16
    3740:	ac400008 	sw	zero,8(v0)
    3744:	ac430010 	sw	v1,16(v0)
    3748:	8c030010 	lw	v1,16(zero)
    374c:	3c048000 	lui	a0,0x8000
    3750:	ac430004 	sw	v1,4(v0)
    3754:	248303cc 	addiu	v1,a0,972
    3758:	27a50010 	addiu	a1,sp,16
    375c:	ac600008 	sw	zero,8(v1)
    3760:	ac650010 	sw	a1,16(v1)
    3764:	8c050010 	lw	a1,16(zero)
    3768:	afa00014 	sw	zero,20(sp)
    376c:	afa00018 	sw	zero,24(sp)
    3770:	afa0001c 	sw	zero,28(sp)
    3774:	afa00020 	sw	zero,32(sp)
    3778:	afa20010 	sw	v0,16(sp)
    377c:	08000de2 	j	3788 <main+0x150>
    3780:	ac650004 	sw	a1,4(v1)
    3784:	00601021 	move	v0,v1
    3788:	8c43000c 	lw	v1,12(v0)
    378c:	00000000 	nop
    3790:	1460fffc 	bnez	v1,3784 <main+0x14c>
    3794:	27b10010 	addiu	s1,sp,16
    3798:	248403cc 	addiu	a0,a0,972
    379c:	ac44000c 	sw	a0,12(v0)
    37a0:	00002821 	move	a1,zero
    37a4:	02202021 	move	a0,s1
    37a8:	0c00060d 	jal	1834 <System::Tasking::TaskScheduler::selectNextTask(unsigned int)>
    37ac:	3c12b2d0 	lui	s2,0xb2d0
    37b0:	26525e00 	addiu	s2,s2,24064
    37b4:	27b30014 	addiu	s3,sp,20
    37b8:	27b40018 	addiu	s4,sp,24
    37bc:	8fa40020 	lw	a0,32(sp)
    37c0:	8c100010 	lw	s0,16(zero)
    37c4:	10800041 	beqz	a0,38cc <main+0x294>
    37c8:	00000000 	nop
    37cc:	8fa20024 	lw	v0,36(sp)
    37d0:	00000000 	nop
    37d4:	0202182b 	sltu	v1,s0,v0
    37d8:	1460003c 	bnez	v1,38cc <main+0x294>
    37dc:	02021023 	subu	v0,s0,v0
    37e0:	0052102b 	sltu	v0,v0,s2
    37e4:	10400039 	beqz	v0,38cc <main+0x294>
    37e8:	00000000 	nop
    37ec:	8c820000 	lw	v0,0(a0)
    37f0:	00000000 	nop
    37f4:	8c420000 	lw	v0,0(v0)
    37f8:	00000000 	nop
    37fc:	0040f809 	jalr	v0
    3800:	00000000 	nop
    3804:	8fa40028 	lw	a0,40(sp)
    3808:	24030001 	li	v1,1
    380c:	8fa20020 	lw	v0,32(sp)
    3810:	14830025 	bne	a0,v1,38a8 <main+0x270>
    3814:	00002821 	move	a1,zero
    3818:	afb1002c 	sw	s1,44(sp)
    381c:	afb30030 	sw	s3,48(sp)
    3820:	afb40034 	sw	s4,52(sp)
    3824:	2406000c 	li	a2,12
    3828:	27a4002c 	addiu	a0,sp,44
    382c:	00851821 	addu	v1,a0,a1
    3830:	8c640000 	lw	a0,0(v1)
    3834:	00000000 	nop
    3838:	8c830000 	lw	v1,0(a0)
    383c:	00000000 	nop
    3840:	10600014 	beqz	v1,3894 <main+0x25c>
    3844:	00000000 	nop
    3848:	14620005 	bne	v1,v0,3860 <main+0x228>
    384c:	00000000 	nop
    3850:	8c43000c 	lw	v1,12(v0)
    3854:	08000e28 	j	38a0 <main+0x268>
    3858:	ac830000 	sw	v1,0(a0)
    385c:	00801821 	move	v1,a0
    3860:	8c64000c 	lw	a0,12(v1)
    3864:	00000000 	nop
    3868:	10800005 	beqz	a0,3880 <main+0x248>
    386c:	00000000 	nop
    3870:	1444fffa 	bne	v0,a0,385c <main+0x224>
    3874:	00000000 	nop
    3878:	08000e22 	j	3888 <main+0x250>
    387c:	00000000 	nop
    3880:	14400005 	bnez	v0,3898 <main+0x260>
    3884:	24a50004 	addiu	a1,a1,4
    3888:	8c44000c 	lw	a0,12(v0)
    388c:	08000e28 	j	38a0 <main+0x268>
    3890:	ac64000c 	sw	a0,12(v1)
    3894:	24a50004 	addiu	a1,a1,4
    3898:	14a6ffe4 	bne	a1,a2,382c <main+0x1f4>
    389c:	27a4002c 	addiu	a0,sp,44
    38a0:	08000e2e 	j	38b8 <main+0x280>
    38a4:	ac400010 	sw	zero,16(v0)
    38a8:	8c430008 	lw	v1,8(v0)
    38ac:	00000000 	nop
    38b0:	02031821 	addu	v1,s0,v1
    38b4:	ac430004 	sw	v1,4(v0)
    38b8:	02202021 	move	a0,s1
    38bc:	0c00060d 	jal	1834 <System::Tasking::TaskScheduler::selectNextTask(unsigned int)>
    38c0:	02002821 	move	a1,s0
    38c4:	08000def 	j	37bc <main+0x184>
    38c8:	00000000 	nop
    38cc:	8fa2001c 	lw	v0,28(sp)
    38d0:	00000000 	nop
    38d4:	10400006 	beqz	v0,38f0 <main+0x2b8>
    38d8:	00000000 	nop
    38dc:	8c42000c 	lw	v0,12(v0)
    38e0:	00000000 	nop
    38e4:	afa2001c 	sw	v0,28(sp)
    38e8:	8fa2001c 	lw	v0,28(sp)
    38ec:	00000000 	nop
    38f0:	14400004 	bnez	v0,3904 <main+0x2cc>
    38f4:	00000000 	nop
    38f8:	8fa20010 	lw	v0,16(sp)
    38fc:	00000000 	nop
    3900:	afa2001c 	sw	v0,28(sp)
    3904:	8fa4001c 	lw	a0,28(sp)
    3908:	00000000 	nop
    390c:	1080ffab 	beqz	a0,37bc <main+0x184>
    3910:	00000000 	nop
    3914:	8c820000 	lw	v0,0(a0)
    3918:	00000000 	nop
    391c:	8c420000 	lw	v0,0(v0)
    3920:	00000000 	nop
    3924:	0040f809 	jalr	v0
    3928:	00000000 	nop
    392c:	08000def 	j	37bc <main+0x184>
    3930:	00000000 	nop

00003934 <CODE_ENDS>:
    3934:	00000000 	nop
    3938:	00000000 	nop
    393c:	00000000 	nop
    3940:	00000000 	nop
    3944:	00000000 	nop
    3948:	00000000 	nop
    394c:	00000000 	nop
    3950:	00000000 	nop
    3954:	00000000 	nop
    3958:	00000000 	nop
    395c:	00000000 	nop
    3960:	00000000 	nop
    3964:	00000000 	nop
    3968:	00000000 	nop
    396c:	00000000 	nop
    3970:	00000000 	nop
    3974:	00000000 	nop
    3978:	00000000 	nop
    397c:	00000000 	nop
    3980:	00000000 	nop
    3984:	00000000 	nop
    3988:	00000000 	nop
    398c:	00000000 	nop
    3990:	00000000 	nop
    3994:	00000000 	nop
    3998:	00000000 	nop
    399c:	00000000 	nop
    39a0:	00000000 	nop
    39a4:	00000000 	nop
    39a8:	00000000 	nop
    39ac:	00000000 	nop
    39b0:	00000000 	nop
    39b4:	00000000 	nop
    39b8:	00000000 	nop
    39bc:	00000000 	nop
    39c0:	00000000 	nop
    39c4:	00000000 	nop
    39c8:	00000000 	nop
    39cc:	00000000 	nop
    39d0:	00000000 	nop
    39d4:	00000000 	nop
    39d8:	00000000 	nop
    39dc:	00000000 	nop
    39e0:	00000000 	nop
    39e4:	00000000 	nop
    39e8:	00000000 	nop
    39ec:	00000000 	nop
    39f0:	00000000 	nop
    39f4:	00000000 	nop
    39f8:	00000000 	nop
    39fc:	00000000 	nop
    3a00:	00000000 	nop
    3a04:	00000000 	nop
    3a08:	00000000 	nop
    3a0c:	00000000 	nop
    3a10:	00000000 	nop
    3a14:	00000000 	nop
    3a18:	00000000 	nop
    3a1c:	00000000 	nop
    3a20:	00000000 	nop
    3a24:	00000000 	nop
    3a28:	00000000 	nop
    3a2c:	00000000 	nop
    3a30:	00000000 	nop
    3a34:	00000000 	nop
    3a38:	00000000 	nop
    3a3c:	00000000 	nop
    3a40:	00000000 	nop
    3a44:	00000000 	nop
    3a48:	00000000 	nop
    3a4c:	00000000 	nop
    3a50:	00000000 	nop
    3a54:	00000000 	nop
    3a58:	00000000 	nop
    3a5c:	00000000 	nop
    3a60:	00000000 	nop
    3a64:	00000000 	nop
    3a68:	00000000 	nop
    3a6c:	00000000 	nop
    3a70:	00000000 	nop
    3a74:	00000000 	nop
    3a78:	00000000 	nop
    3a7c:	00000000 	nop
    3a80:	00000000 	nop
    3a84:	00000000 	nop
    3a88:	00000000 	nop
    3a8c:	00000000 	nop
    3a90:	00000000 	nop
    3a94:	00000000 	nop
    3a98:	00000000 	nop
    3a9c:	00000000 	nop
    3aa0:	00000000 	nop
    3aa4:	00000000 	nop
    3aa8:	00000000 	nop
    3aac:	00000000 	nop
    3ab0:	00000000 	nop
    3ab4:	00000000 	nop
    3ab8:	00000000 	nop
    3abc:	00000000 	nop
    3ac0:	00000000 	nop
    3ac4:	00000000 	nop
    3ac8:	00000000 	nop
    3acc:	00000000 	nop
    3ad0:	00000000 	nop
    3ad4:	00000000 	nop
    3ad8:	00000000 	nop
    3adc:	00000000 	nop
    3ae0:	00000000 	nop
    3ae4:	00000000 	nop
    3ae8:	00000000 	nop
    3aec:	00000000 	nop
    3af0:	00000000 	nop
    3af4:	00000000 	nop
    3af8:	00000000 	nop
    3afc:	00000000 	nop
    3b00:	00000000 	nop
    3b04:	00000000 	nop
    3b08:	00000000 	nop
    3b0c:	00000000 	nop
    3b10:	00000000 	nop
    3b14:	00000000 	nop
    3b18:	00000000 	nop
    3b1c:	00000000 	nop
    3b20:	00000000 	nop
    3b24:	00000000 	nop
    3b28:	00000000 	nop
    3b2c:	00000000 	nop
    3b30:	00000000 	nop
    3b34:	00000000 	nop
    3b38:	00000000 	nop
    3b3c:	00000000 	nop
    3b40:	00000000 	nop
    3b44:	00000000 	nop
    3b48:	00000000 	nop
    3b4c:	00000000 	nop
    3b50:	00000000 	nop
    3b54:	00000000 	nop
    3b58:	00000000 	nop
    3b5c:	00000000 	nop
    3b60:	00000000 	nop
    3b64:	00000000 	nop
    3b68:	00000000 	nop
    3b6c:	00000000 	nop
    3b70:	00000000 	nop
    3b74:	00000000 	nop
    3b78:	00000000 	nop
    3b7c:	00000000 	nop
    3b80:	00000000 	nop
    3b84:	00000000 	nop
    3b88:	00000000 	nop
    3b8c:	00000000 	nop
    3b90:	00000000 	nop
    3b94:	00000000 	nop
    3b98:	00000000 	nop
    3b9c:	00000000 	nop
    3ba0:	00000000 	nop
    3ba4:	00000000 	nop
    3ba8:	00000000 	nop
    3bac:	00000000 	nop
    3bb0:	00000000 	nop
    3bb4:	00000000 	nop
    3bb8:	00000000 	nop
    3bbc:	00000000 	nop
    3bc0:	00000000 	nop
    3bc4:	00000000 	nop
    3bc8:	00000000 	nop
    3bcc:	00000000 	nop
    3bd0:	00000000 	nop
    3bd4:	00000000 	nop
    3bd8:	00000000 	nop
    3bdc:	00000000 	nop
    3be0:	00000000 	nop
    3be4:	00000000 	nop
    3be8:	00000000 	nop
    3bec:	00000000 	nop
    3bf0:	00000000 	nop
    3bf4:	00000000 	nop
    3bf8:	00000000 	nop
    3bfc:	00000000 	nop
    3c00:	00000000 	nop
    3c04:	00000000 	nop
    3c08:	00000000 	nop
    3c0c:	00000000 	nop
    3c10:	00000000 	nop
    3c14:	00000000 	nop
    3c18:	00000000 	nop
    3c1c:	00000000 	nop
    3c20:	00000000 	nop
    3c24:	00000000 	nop
    3c28:	00000000 	nop
    3c2c:	00000000 	nop
    3c30:	00000000 	nop
    3c34:	00000000 	nop
    3c38:	00000000 	nop
    3c3c:	00000000 	nop
    3c40:	00000000 	nop
    3c44:	00000000 	nop
    3c48:	00000000 	nop
    3c4c:	00000000 	nop
    3c50:	00000000 	nop
    3c54:	00000000 	nop
    3c58:	00000000 	nop
    3c5c:	00000000 	nop
    3c60:	00000000 	nop
    3c64:	00000000 	nop
    3c68:	00000000 	nop
    3c6c:	00000000 	nop
    3c70:	00000000 	nop
    3c74:	00000000 	nop
    3c78:	00000000 	nop
    3c7c:	00000000 	nop
    3c80:	00000000 	nop
    3c84:	00000000 	nop
    3c88:	00000000 	nop
    3c8c:	00000000 	nop
    3c90:	00000000 	nop
    3c94:	00000000 	nop
    3c98:	00000000 	nop
    3c9c:	00000000 	nop
    3ca0:	00000000 	nop
    3ca4:	00000000 	nop
    3ca8:	00000000 	nop
    3cac:	00000000 	nop
    3cb0:	00000000 	nop
    3cb4:	00000000 	nop
    3cb8:	00000000 	nop
    3cbc:	00000000 	nop
    3cc0:	00000000 	nop
    3cc4:	00000000 	nop
    3cc8:	00000000 	nop
    3ccc:	00000000 	nop
    3cd0:	00000000 	nop
    3cd4:	00000000 	nop
    3cd8:	00000000 	nop
    3cdc:	00000000 	nop
    3ce0:	00000000 	nop
    3ce4:	00000000 	nop
    3ce8:	00000000 	nop
    3cec:	00000000 	nop
    3cf0:	00000000 	nop
    3cf4:	00000000 	nop
    3cf8:	00000000 	nop
    3cfc:	00000000 	nop
    3d00:	00000000 	nop
    3d04:	00000000 	nop
    3d08:	00000000 	nop
    3d0c:	00000000 	nop
    3d10:	00000000 	nop
    3d14:	00000000 	nop
    3d18:	00000000 	nop
    3d1c:	00000000 	nop
    3d20:	00000000 	nop
    3d24:	00000000 	nop
    3d28:	00000000 	nop
    3d2c:	00000000 	nop
    3d30:	00000000 	nop
    3d34:	00000000 	nop
    3d38:	00000000 	nop
    3d3c:	00000000 	nop
    3d40:	00000000 	nop
    3d44:	00000000 	nop
    3d48:	00000000 	nop
    3d4c:	00000000 	nop
    3d50:	00000000 	nop
    3d54:	00000000 	nop
    3d58:	00000000 	nop
    3d5c:	00000000 	nop
    3d60:	00000000 	nop
    3d64:	00000000 	nop
    3d68:	00000000 	nop
    3d6c:	00000000 	nop
    3d70:	00000000 	nop
    3d74:	00000000 	nop
    3d78:	00000000 	nop
    3d7c:	00000000 	nop
    3d80:	00000000 	nop
    3d84:	00000000 	nop
    3d88:	00000000 	nop
    3d8c:	00000000 	nop
    3d90:	00000000 	nop
    3d94:	00000000 	nop
    3d98:	00000000 	nop
    3d9c:	00000000 	nop
    3da0:	00000000 	nop
    3da4:	00000000 	nop
    3da8:	00000000 	nop
    3dac:	00000000 	nop
    3db0:	00000000 	nop
    3db4:	00000000 	nop
    3db8:	00000000 	nop
    3dbc:	00000000 	nop
    3dc0:	00000000 	nop
    3dc4:	00000000 	nop
    3dc8:	00000000 	nop
    3dcc:	00000000 	nop
    3dd0:	00000000 	nop
    3dd4:	00000000 	nop
    3dd8:	00000000 	nop
    3ddc:	00000000 	nop
    3de0:	00000000 	nop
    3de4:	00000000 	nop
    3de8:	00000000 	nop
    3dec:	00000000 	nop
    3df0:	00000000 	nop
    3df4:	00000000 	nop
    3df8:	00000000 	nop
    3dfc:	00000000 	nop
    3e00:	00000000 	nop
    3e04:	00000000 	nop
    3e08:	00000000 	nop
    3e0c:	00000000 	nop
    3e10:	00000000 	nop
    3e14:	00000000 	nop
    3e18:	00000000 	nop
    3e1c:	00000000 	nop
    3e20:	00000000 	nop
    3e24:	00000000 	nop
    3e28:	00000000 	nop
    3e2c:	00000000 	nop
    3e30:	00000000 	nop
    3e34:	00000000 	nop
    3e38:	00000000 	nop
    3e3c:	00000000 	nop
    3e40:	00000000 	nop
    3e44:	00000000 	nop
    3e48:	00000000 	nop
    3e4c:	00000000 	nop
    3e50:	00000000 	nop
    3e54:	00000000 	nop
    3e58:	00000000 	nop
    3e5c:	00000000 	nop
    3e60:	00000000 	nop
    3e64:	00000000 	nop
    3e68:	00000000 	nop
    3e6c:	00000000 	nop
    3e70:	00000000 	nop
    3e74:	00000000 	nop
    3e78:	00000000 	nop
    3e7c:	00000000 	nop
    3e80:	00000000 	nop
    3e84:	00000000 	nop
    3e88:	00000000 	nop
    3e8c:	00000000 	nop
    3e90:	00000000 	nop
    3e94:	00000000 	nop
    3e98:	00000000 	nop
    3e9c:	00000000 	nop
    3ea0:	00000000 	nop
    3ea4:	00000000 	nop
    3ea8:	00000000 	nop
    3eac:	00000000 	nop
    3eb0:	00000000 	nop
    3eb4:	00000000 	nop
    3eb8:	00000000 	nop
    3ebc:	00000000 	nop
    3ec0:	00000000 	nop
    3ec4:	00000000 	nop
    3ec8:	00000000 	nop
    3ecc:	00000000 	nop
    3ed0:	00000000 	nop
    3ed4:	00000000 	nop
    3ed8:	00000000 	nop
    3edc:	00000000 	nop
    3ee0:	00000000 	nop
    3ee4:	00000000 	nop
    3ee8:	00000000 	nop
    3eec:	00000000 	nop
    3ef0:	00000000 	nop
    3ef4:	00000000 	nop
    3ef8:	00000000 	nop
    3efc:	00000000 	nop
    3f00:	00000000 	nop
    3f04:	00000000 	nop
    3f08:	00000000 	nop
    3f0c:	00000000 	nop
    3f10:	00000000 	nop
    3f14:	00000000 	nop
    3f18:	00000000 	nop
    3f1c:	00000000 	nop
    3f20:	00000000 	nop
    3f24:	00000000 	nop
    3f28:	00000000 	nop
    3f2c:	00000000 	nop
    3f30:	00000000 	nop
    3f34:	00000000 	nop
    3f38:	00000000 	nop
    3f3c:	00000000 	nop
    3f40:	00000000 	nop
    3f44:	00000000 	nop
    3f48:	00000000 	nop
    3f4c:	00000000 	nop
    3f50:	00000000 	nop
    3f54:	00000000 	nop
    3f58:	00000000 	nop
    3f5c:	00000000 	nop
    3f60:	00000000 	nop
    3f64:	00000000 	nop
    3f68:	00000000 	nop
    3f6c:	00000000 	nop
    3f70:	00000000 	nop
    3f74:	00000000 	nop
    3f78:	00000000 	nop
    3f7c:	00000000 	nop
    3f80:	00000000 	nop
    3f84:	00000000 	nop
    3f88:	00000000 	nop
    3f8c:	00000000 	nop
    3f90:	00000000 	nop
    3f94:	00000000 	nop
    3f98:	00000000 	nop
    3f9c:	00000000 	nop
    3fa0:	00000000 	nop
    3fa4:	00000000 	nop
    3fa8:	00000000 	nop
    3fac:	00000000 	nop
    3fb0:	00000000 	nop
    3fb4:	00000000 	nop
    3fb8:	00000000 	nop
    3fbc:	00000000 	nop
    3fc0:	00000000 	nop
    3fc4:	00000000 	nop
    3fc8:	00000000 	nop
    3fcc:	00000000 	nop
    3fd0:	00000000 	nop
    3fd4:	00000000 	nop
    3fd8:	00000000 	nop
    3fdc:	00000000 	nop
    3fe0:	00000000 	nop
    3fe4:	00000000 	nop
    3fe8:	00000000 	nop
    3fec:	00000000 	nop
    3ff0:	00000000 	nop
    3ff4:	00000000 	nop
    3ff8:	00000000 	nop
    3ffc:	00000000 	nop
    4000:	00000000 	nop
    4004:	00000000 	nop
    4008:	00000000 	nop
    400c:	00000000 	nop
    4010:	00000000 	nop
    4014:	00000000 	nop
    4018:	00000000 	nop
    401c:	00000000 	nop
    4020:	00000000 	nop
    4024:	00000000 	nop
    4028:	00000000 	nop
    402c:	00000000 	nop
    4030:	00000000 	nop
    4034:	00000000 	nop
    4038:	00000000 	nop
    403c:	00000000 	nop
    4040:	00000000 	nop
    4044:	00000000 	nop
    4048:	00000000 	nop
    404c:	00000000 	nop
    4050:	00000000 	nop
    4054:	00000000 	nop
    4058:	00000000 	nop
    405c:	00000000 	nop
    4060:	00000000 	nop
    4064:	00000000 	nop
    4068:	00000000 	nop
    406c:	00000000 	nop
    4070:	00000000 	nop
    4074:	00000000 	nop
    4078:	00000000 	nop
    407c:	00000000 	nop
    4080:	00000000 	nop
    4084:	00000000 	nop
    4088:	00000000 	nop
    408c:	00000000 	nop
    4090:	00000000 	nop
    4094:	00000000 	nop
    4098:	00000000 	nop
    409c:	00000000 	nop
    40a0:	00000000 	nop
    40a4:	00000000 	nop
    40a8:	00000000 	nop
    40ac:	00000000 	nop
    40b0:	00000000 	nop
    40b4:	00000000 	nop
    40b8:	00000000 	nop
    40bc:	00000000 	nop
    40c0:	00000000 	nop
    40c4:	00000000 	nop
    40c8:	00000000 	nop
    40cc:	00000000 	nop
    40d0:	00000000 	nop
    40d4:	00000000 	nop
    40d8:	00000000 	nop
    40dc:	00000000 	nop
    40e0:	00000000 	nop
    40e4:	00000000 	nop
    40e8:	00000000 	nop
    40ec:	00000000 	nop
    40f0:	00000000 	nop
    40f4:	00000000 	nop
    40f8:	00000000 	nop
    40fc:	00000000 	nop
    4100:	00000000 	nop
    4104:	00000000 	nop
    4108:	00000000 	nop
    410c:	00000000 	nop
    4110:	00000000 	nop
    4114:	00000000 	nop
    4118:	00000000 	nop
    411c:	00000000 	nop
    4120:	00000000 	nop
    4124:	00000000 	nop
    4128:	00000000 	nop
    412c:	00000000 	nop
    4130:	00000000 	nop
    4134:	00000000 	nop
    4138:	00000000 	nop
    413c:	00000000 	nop
    4140:	00000000 	nop
    4144:	00000000 	nop
    4148:	00000000 	nop
    414c:	00000000 	nop
    4150:	00000000 	nop
    4154:	00000000 	nop
    4158:	00000000 	nop
    415c:	00000000 	nop
    4160:	00000000 	nop
    4164:	00000000 	nop
    4168:	00000000 	nop
    416c:	00000000 	nop
    4170:	00000000 	nop
    4174:	00000000 	nop
    4178:	00000000 	nop
    417c:	00000000 	nop
    4180:	00000000 	nop
    4184:	00000000 	nop
    4188:	00000000 	nop
    418c:	00000000 	nop
    4190:	00000000 	nop
    4194:	00000000 	nop
    4198:	00000000 	nop
    419c:	00000000 	nop
    41a0:	00000000 	nop
    41a4:	00000000 	nop
    41a8:	00000000 	nop
    41ac:	00000000 	nop
    41b0:	00000000 	nop
    41b4:	00000000 	nop
    41b8:	00000000 	nop
    41bc:	00000000 	nop
    41c0:	00000000 	nop
    41c4:	00000000 	nop
    41c8:	00000000 	nop
    41cc:	00000000 	nop
    41d0:	00000000 	nop
    41d4:	00000000 	nop
    41d8:	00000000 	nop
    41dc:	00000000 	nop
    41e0:	00000000 	nop
    41e4:	00000000 	nop
    41e8:	00000000 	nop
    41ec:	00000000 	nop
    41f0:	00000000 	nop
    41f4:	00000000 	nop
    41f8:	00000000 	nop
    41fc:	00000000 	nop
    4200:	00000000 	nop
    4204:	00000000 	nop
    4208:	00000000 	nop
    420c:	00000000 	nop
    4210:	00000000 	nop
    4214:	00000000 	nop
    4218:	00000000 	nop
    421c:	00000000 	nop
    4220:	00000000 	nop
    4224:	00000000 	nop
    4228:	00000000 	nop
    422c:	00000000 	nop
    4230:	00000000 	nop
    4234:	00000000 	nop
    4238:	00000000 	nop
    423c:	00000000 	nop
    4240:	00000000 	nop
    4244:	00000000 	nop
    4248:	00000000 	nop
    424c:	00000000 	nop
    4250:	00000000 	nop
    4254:	00000000 	nop
    4258:	00000000 	nop
    425c:	00000000 	nop
    4260:	00000000 	nop
    4264:	00000000 	nop
    4268:	00000000 	nop
    426c:	00000000 	nop
    4270:	00000000 	nop
    4274:	00000000 	nop
    4278:	00000000 	nop
    427c:	00000000 	nop
    4280:	00000000 	nop
    4284:	00000000 	nop
    4288:	00000000 	nop
    428c:	00000000 	nop
    4290:	00000000 	nop
    4294:	00000000 	nop
    4298:	00000000 	nop
    429c:	00000000 	nop
    42a0:	00000000 	nop
    42a4:	00000000 	nop
    42a8:	00000000 	nop
    42ac:	00000000 	nop
    42b0:	00000000 	nop
    42b4:	00000000 	nop
    42b8:	00000000 	nop
    42bc:	00000000 	nop
    42c0:	00000000 	nop
    42c4:	00000000 	nop
    42c8:	00000000 	nop
    42cc:	00000000 	nop
    42d0:	00000000 	nop
    42d4:	00000000 	nop
    42d8:	00000000 	nop
    42dc:	00000000 	nop
    42e0:	00000000 	nop
    42e4:	00000000 	nop
    42e8:	00000000 	nop
    42ec:	00000000 	nop
    42f0:	00000000 	nop
    42f4:	00000000 	nop
    42f8:	00000000 	nop
    42fc:	00000000 	nop
    4300:	00000000 	nop
    4304:	00000000 	nop
    4308:	00000000 	nop
    430c:	00000000 	nop
    4310:	00000000 	nop
    4314:	00000000 	nop
    4318:	00000000 	nop
    431c:	00000000 	nop
    4320:	00000000 	nop
    4324:	00000000 	nop
    4328:	00000000 	nop
    432c:	00000000 	nop
    4330:	00000000 	nop
    4334:	00000000 	nop
    4338:	00000000 	nop
    433c:	00000000 	nop
    4340:	00000000 	nop
    4344:	00000000 	nop
    4348:	00000000 	nop
    434c:	00000000 	nop
    4350:	00000000 	nop
    4354:	00000000 	nop
    4358:	00000000 	nop
    435c:	00000000 	nop
    4360:	00000000 	nop
    4364:	00000000 	nop
    4368:	00000000 	nop
    436c:	00000000 	nop
    4370:	00000000 	nop
    4374:	00000000 	nop
    4378:	00000000 	nop
    437c:	00000000 	nop
    4380:	00000000 	nop
    4384:	00000000 	nop
    4388:	00000000 	nop
    438c:	00000000 	nop
    4390:	00000000 	nop
    4394:	00000000 	nop
    4398:	00000000 	nop
    439c:	00000000 	nop
    43a0:	00000000 	nop
    43a4:	00000000 	nop
    43a8:	00000000 	nop
    43ac:	00000000 	nop
    43b0:	00000000 	nop
    43b4:	00000000 	nop
    43b8:	00000000 	nop
    43bc:	00000000 	nop
    43c0:	00000000 	nop
    43c4:	00000000 	nop
    43c8:	00000000 	nop
    43cc:	00000000 	nop
    43d0:	00000000 	nop
    43d4:	00000000 	nop
    43d8:	00000000 	nop
    43dc:	00000000 	nop
    43e0:	00000000 	nop
    43e4:	00000000 	nop
    43e8:	00000000 	nop
    43ec:	00000000 	nop
    43f0:	00000000 	nop
    43f4:	00000000 	nop
    43f8:	00000000 	nop
    43fc:	00000000 	nop
    4400:	00000000 	nop
    4404:	00000000 	nop
    4408:	00000000 	nop
    440c:	00000000 	nop
    4410:	00000000 	nop
    4414:	00000000 	nop
    4418:	00000000 	nop
    441c:	00000000 	nop
    4420:	00000000 	nop
    4424:	00000000 	nop
    4428:	00000000 	nop
    442c:	00000000 	nop
    4430:	00000000 	nop
    4434:	00000000 	nop
    4438:	00000000 	nop
    443c:	00000000 	nop
    4440:	00000000 	nop
    4444:	00000000 	nop
    4448:	00000000 	nop
    444c:	00000000 	nop
    4450:	00000000 	nop
    4454:	00000000 	nop
    4458:	00000000 	nop
    445c:	00000000 	nop
    4460:	00000000 	nop
    4464:	00000000 	nop
    4468:	00000000 	nop
    446c:	00000000 	nop
    4470:	00000000 	nop
    4474:	00000000 	nop
    4478:	00000000 	nop
    447c:	00000000 	nop
    4480:	00000000 	nop
    4484:	00000000 	nop
    4488:	00000000 	nop
    448c:	00000000 	nop
    4490:	00000000 	nop
    4494:	00000000 	nop
    4498:	00000000 	nop
    449c:	00000000 	nop
    44a0:	00000000 	nop
    44a4:	00000000 	nop
    44a8:	00000000 	nop
    44ac:	00000000 	nop
    44b0:	00000000 	nop
    44b4:	00000000 	nop
    44b8:	00000000 	nop
    44bc:	00000000 	nop
    44c0:	00000000 	nop
    44c4:	00000000 	nop
    44c8:	00000000 	nop
    44cc:	00000000 	nop
    44d0:	00000000 	nop
    44d4:	00000000 	nop
    44d8:	00000000 	nop
    44dc:	00000000 	nop
    44e0:	00000000 	nop
    44e4:	00000000 	nop
    44e8:	00000000 	nop
    44ec:	00000000 	nop
    44f0:	00000000 	nop
    44f4:	00000000 	nop
    44f8:	00000000 	nop
    44fc:	00000000 	nop
    4500:	00000000 	nop
    4504:	00000000 	nop
    4508:	00000000 	nop
    450c:	00000000 	nop
    4510:	00000000 	nop
    4514:	00000000 	nop
    4518:	00000000 	nop
    451c:	00000000 	nop
    4520:	00000000 	nop
    4524:	00000000 	nop
    4528:	00000000 	nop
    452c:	00000000 	nop
    4530:	00000000 	nop
    4534:	00000000 	nop
    4538:	00000000 	nop
    453c:	00000000 	nop
    4540:	00000000 	nop
    4544:	00000000 	nop
    4548:	00000000 	nop
    454c:	00000000 	nop
    4550:	00000000 	nop
    4554:	00000000 	nop
    4558:	00000000 	nop
    455c:	00000000 	nop
    4560:	00000000 	nop
    4564:	00000000 	nop
    4568:	00000000 	nop
    456c:	00000000 	nop
    4570:	00000000 	nop
    4574:	00000000 	nop
    4578:	00000000 	nop
    457c:	00000000 	nop
    4580:	00000000 	nop
    4584:	00000000 	nop
    4588:	00000000 	nop
    458c:	00000000 	nop
    4590:	00000000 	nop
    4594:	00000000 	nop
    4598:	00000000 	nop
    459c:	00000000 	nop
    45a0:	00000000 	nop
    45a4:	00000000 	nop
    45a8:	00000000 	nop
    45ac:	00000000 	nop
    45b0:	00000000 	nop
    45b4:	00000000 	nop
    45b8:	00000000 	nop
    45bc:	00000000 	nop
    45c0:	00000000 	nop
    45c4:	00000000 	nop
    45c8:	00000000 	nop
    45cc:	00000000 	nop
    45d0:	00000000 	nop
    45d4:	00000000 	nop
    45d8:	00000000 	nop
    45dc:	00000000 	nop
    45e0:	00000000 	nop
    45e4:	00000000 	nop
    45e8:	00000000 	nop
    45ec:	00000000 	nop
    45f0:	00000000 	nop
    45f4:	00000000 	nop
    45f8:	00000000 	nop
    45fc:	00000000 	nop
    4600:	00000000 	nop
    4604:	00000000 	nop
    4608:	00000000 	nop
    460c:	00000000 	nop
    4610:	00000000 	nop
    4614:	00000000 	nop
    4618:	00000000 	nop
    461c:	00000000 	nop
    4620:	00000000 	nop
    4624:	00000000 	nop
    4628:	00000000 	nop
    462c:	00000000 	nop
    4630:	00000000 	nop
    4634:	00000000 	nop
    4638:	00000000 	nop
    463c:	00000000 	nop
    4640:	00000000 	nop
    4644:	00000000 	nop
    4648:	00000000 	nop
    464c:	00000000 	nop
    4650:	00000000 	nop
    4654:	00000000 	nop
    4658:	00000000 	nop
    465c:	00000000 	nop
    4660:	00000000 	nop
    4664:	00000000 	nop
    4668:	00000000 	nop
    466c:	00000000 	nop
    4670:	00000000 	nop
    4674:	00000000 	nop
    4678:	00000000 	nop
    467c:	00000000 	nop
    4680:	00000000 	nop
    4684:	00000000 	nop
    4688:	00000000 	nop
    468c:	00000000 	nop
    4690:	00000000 	nop
    4694:	00000000 	nop
    4698:	00000000 	nop
    469c:	00000000 	nop
    46a0:	00000000 	nop
    46a4:	00000000 	nop
    46a8:	00000000 	nop
    46ac:	00000000 	nop
    46b0:	00000000 	nop
    46b4:	00000000 	nop
    46b8:	00000000 	nop
    46bc:	00000000 	nop
    46c0:	00000000 	nop
    46c4:	00000000 	nop
    46c8:	00000000 	nop
    46cc:	00000000 	nop
    46d0:	00000000 	nop
    46d4:	00000000 	nop
    46d8:	00000000 	nop
    46dc:	00000000 	nop
    46e0:	00000000 	nop
    46e4:	00000000 	nop
    46e8:	00000000 	nop
    46ec:	00000000 	nop
    46f0:	00000000 	nop
    46f4:	00000000 	nop
    46f8:	00000000 	nop
    46fc:	00000000 	nop
    4700:	00000000 	nop
    4704:	00000000 	nop
    4708:	00000000 	nop
    470c:	00000000 	nop
    4710:	00000000 	nop
    4714:	00000000 	nop
    4718:	00000000 	nop
    471c:	00000000 	nop
    4720:	00000000 	nop
    4724:	00000000 	nop
    4728:	00000000 	nop
    472c:	00000000 	nop
    4730:	00000000 	nop
    4734:	00000000 	nop
    4738:	00000000 	nop
    473c:	00000000 	nop
    4740:	00000000 	nop
    4744:	00000000 	nop
    4748:	00000000 	nop
    474c:	00000000 	nop
    4750:	00000000 	nop
    4754:	00000000 	nop
    4758:	00000000 	nop
    475c:	00000000 	nop
    4760:	00000000 	nop
    4764:	00000000 	nop
    4768:	00000000 	nop
    476c:	00000000 	nop
    4770:	00000000 	nop
    4774:	00000000 	nop
    4778:	00000000 	nop
    477c:	00000000 	nop
    4780:	00000000 	nop
    4784:	00000000 	nop
    4788:	00000000 	nop
    478c:	00000000 	nop
    4790:	00000000 	nop
    4794:	00000000 	nop
    4798:	00000000 	nop
    479c:	00000000 	nop
    47a0:	00000000 	nop
    47a4:	00000000 	nop
    47a8:	00000000 	nop
    47ac:	00000000 	nop
    47b0:	00000000 	nop
    47b4:	00000000 	nop
    47b8:	00000000 	nop
    47bc:	00000000 	nop
    47c0:	00000000 	nop
    47c4:	00000000 	nop
    47c8:	00000000 	nop
    47cc:	00000000 	nop
    47d0:	00000000 	nop
    47d4:	00000000 	nop
    47d8:	00000000 	nop
    47dc:	00000000 	nop
    47e0:	00000000 	nop
    47e4:	00000000 	nop
    47e8:	00000000 	nop
    47ec:	00000000 	nop
    47f0:	00000000 	nop
    47f4:	00000000 	nop
    47f8:	00000000 	nop
    47fc:	00000000 	nop
    4800:	00000000 	nop
    4804:	00000000 	nop
    4808:	00000000 	nop
    480c:	00000000 	nop
    4810:	00000000 	nop
    4814:	00000000 	nop
    4818:	00000000 	nop
    481c:	00000000 	nop
    4820:	00000000 	nop
    4824:	00000000 	nop
    4828:	00000000 	nop
    482c:	00000000 	nop
    4830:	00000000 	nop
    4834:	00000000 	nop
    4838:	00000000 	nop
    483c:	00000000 	nop
    4840:	00000000 	nop
    4844:	00000000 	nop
    4848:	00000000 	nop
    484c:	00000000 	nop
    4850:	00000000 	nop
    4854:	00000000 	nop
    4858:	00000000 	nop
    485c:	00000000 	nop
    4860:	00000000 	nop
    4864:	00000000 	nop
    4868:	00000000 	nop
    486c:	00000000 	nop
    4870:	00000000 	nop
    4874:	00000000 	nop
    4878:	00000000 	nop
    487c:	00000000 	nop
    4880:	00000000 	nop
    4884:	00000000 	nop
    4888:	00000000 	nop
    488c:	00000000 	nop
    4890:	00000000 	nop
    4894:	00000000 	nop
    4898:	00000000 	nop
    489c:	00000000 	nop
    48a0:	00000000 	nop
    48a4:	00000000 	nop
    48a8:	00000000 	nop
    48ac:	00000000 	nop
    48b0:	00000000 	nop
    48b4:	00000000 	nop
    48b8:	00000000 	nop
    48bc:	00000000 	nop
    48c0:	00000000 	nop
    48c4:	00000000 	nop
    48c8:	00000000 	nop
    48cc:	00000000 	nop
    48d0:	00000000 	nop
    48d4:	00000000 	nop
    48d8:	00000000 	nop
    48dc:	00000000 	nop
    48e0:	00000000 	nop
    48e4:	00000000 	nop
    48e8:	00000000 	nop
    48ec:	00000000 	nop
    48f0:	00000000 	nop
    48f4:	00000000 	nop
    48f8:	00000000 	nop
    48fc:	00000000 	nop
    4900:	00000000 	nop
    4904:	00000000 	nop
    4908:	00000000 	nop
    490c:	00000000 	nop
    4910:	00000000 	nop
    4914:	00000000 	nop
    4918:	00000000 	nop
    491c:	00000000 	nop
    4920:	00000000 	nop
    4924:	00000000 	nop
    4928:	00000000 	nop
    492c:	00000000 	nop
    4930:	00000000 	nop
    4934:	00000000 	nop
    4938:	00000000 	nop
    493c:	00000000 	nop
    4940:	00000000 	nop
    4944:	00000000 	nop
    4948:	00000000 	nop
    494c:	00000000 	nop
    4950:	00000000 	nop
    4954:	00000000 	nop
    4958:	00000000 	nop
    495c:	00000000 	nop
    4960:	00000000 	nop
    4964:	00000000 	nop
    4968:	00000000 	nop
    496c:	00000000 	nop
    4970:	00000000 	nop
    4974:	00000000 	nop
    4978:	00000000 	nop
    497c:	00000000 	nop
    4980:	00000000 	nop
    4984:	00000000 	nop
    4988:	00000000 	nop
    498c:	00000000 	nop
    4990:	00000000 	nop
    4994:	00000000 	nop
    4998:	00000000 	nop
    499c:	00000000 	nop
    49a0:	00000000 	nop
    49a4:	00000000 	nop
    49a8:	00000000 	nop
    49ac:	00000000 	nop
    49b0:	00000000 	nop
    49b4:	00000000 	nop
    49b8:	00000000 	nop
    49bc:	00000000 	nop
    49c0:	00000000 	nop
    49c4:	00000000 	nop
    49c8:	00000000 	nop
    49cc:	00000000 	nop
    49d0:	00000000 	nop
    49d4:	00000000 	nop
    49d8:	00000000 	nop
    49dc:	00000000 	nop
    49e0:	00000000 	nop
    49e4:	00000000 	nop
    49e8:	00000000 	nop
    49ec:	00000000 	nop
    49f0:	00000000 	nop
    49f4:	00000000 	nop
    49f8:	00000000 	nop
    49fc:	00000000 	nop
    4a00:	00000000 	nop
    4a04:	00000000 	nop
    4a08:	00000000 	nop
    4a0c:	00000000 	nop
    4a10:	00000000 	nop
    4a14:	00000000 	nop
    4a18:	00000000 	nop
    4a1c:	00000000 	nop
    4a20:	00000000 	nop
    4a24:	00000000 	nop
    4a28:	00000000 	nop
    4a2c:	00000000 	nop
    4a30:	00000000 	nop
    4a34:	00000000 	nop
    4a38:	00000000 	nop
    4a3c:	00000000 	nop
    4a40:	00000000 	nop
    4a44:	00000000 	nop
    4a48:	00000000 	nop
    4a4c:	00000000 	nop
    4a50:	00000000 	nop
    4a54:	00000000 	nop
    4a58:	00000000 	nop
    4a5c:	00000000 	nop
    4a60:	00000000 	nop
    4a64:	00000000 	nop
    4a68:	00000000 	nop
    4a6c:	00000000 	nop
    4a70:	00000000 	nop
    4a74:	00000000 	nop
    4a78:	00000000 	nop
    4a7c:	00000000 	nop
    4a80:	00000000 	nop
    4a84:	00000000 	nop
    4a88:	00000000 	nop
    4a8c:	00000000 	nop
    4a90:	00000000 	nop
    4a94:	00000000 	nop
    4a98:	00000000 	nop
    4a9c:	00000000 	nop
    4aa0:	00000000 	nop
    4aa4:	00000000 	nop
    4aa8:	00000000 	nop
    4aac:	00000000 	nop
    4ab0:	00000000 	nop
    4ab4:	00000000 	nop
    4ab8:	00000000 	nop
    4abc:	00000000 	nop
    4ac0:	00000000 	nop
    4ac4:	00000000 	nop
    4ac8:	00000000 	nop
    4acc:	00000000 	nop
    4ad0:	00000000 	nop
    4ad4:	00000000 	nop
    4ad8:	00000000 	nop
    4adc:	00000000 	nop
    4ae0:	00000000 	nop
    4ae4:	00000000 	nop
    4ae8:	00000000 	nop
    4aec:	00000000 	nop
    4af0:	00000000 	nop
    4af4:	00000000 	nop
    4af8:	00000000 	nop
    4afc:	00000000 	nop
    4b00:	00000000 	nop
    4b04:	00000000 	nop
    4b08:	00000000 	nop
    4b0c:	00000000 	nop
    4b10:	00000000 	nop
    4b14:	00000000 	nop
    4b18:	00000000 	nop
    4b1c:	00000000 	nop
    4b20:	00000000 	nop
    4b24:	00000000 	nop
    4b28:	00000000 	nop
    4b2c:	00000000 	nop
    4b30:	00000000 	nop
    4b34:	00000000 	nop
    4b38:	00000000 	nop
    4b3c:	00000000 	nop
    4b40:	00000000 	nop
    4b44:	00000000 	nop
    4b48:	00000000 	nop
    4b4c:	00000000 	nop
    4b50:	00000000 	nop
    4b54:	00000000 	nop
    4b58:	00000000 	nop
    4b5c:	00000000 	nop
    4b60:	00000000 	nop
    4b64:	00000000 	nop
    4b68:	00000000 	nop
    4b6c:	00000000 	nop
    4b70:	00000000 	nop
    4b74:	00000000 	nop
    4b78:	00000000 	nop
    4b7c:	00000000 	nop
    4b80:	00000000 	nop
    4b84:	00000000 	nop
    4b88:	00000000 	nop
    4b8c:	00000000 	nop
    4b90:	00000000 	nop
    4b94:	00000000 	nop
    4b98:	00000000 	nop
    4b9c:	00000000 	nop
    4ba0:	00000000 	nop
    4ba4:	00000000 	nop
    4ba8:	00000000 	nop
    4bac:	00000000 	nop
    4bb0:	00000000 	nop
    4bb4:	00000000 	nop
    4bb8:	00000000 	nop
    4bbc:	00000000 	nop
    4bc0:	00000000 	nop
    4bc4:	00000000 	nop
    4bc8:	00000000 	nop
    4bcc:	00000000 	nop
    4bd0:	00000000 	nop
    4bd4:	00000000 	nop
    4bd8:	00000000 	nop
    4bdc:	00000000 	nop
    4be0:	00000000 	nop
    4be4:	00000000 	nop
    4be8:	00000000 	nop
    4bec:	00000000 	nop
    4bf0:	00000000 	nop
    4bf4:	00000000 	nop
    4bf8:	00000000 	nop
    4bfc:	00000000 	nop
    4c00:	00000000 	nop
    4c04:	00000000 	nop
    4c08:	00000000 	nop
    4c0c:	00000000 	nop
    4c10:	00000000 	nop
    4c14:	00000000 	nop
    4c18:	00000000 	nop
    4c1c:	00000000 	nop
    4c20:	00000000 	nop
    4c24:	00000000 	nop
    4c28:	00000000 	nop
    4c2c:	00000000 	nop
    4c30:	00000000 	nop
    4c34:	00000000 	nop
    4c38:	00000000 	nop
    4c3c:	00000000 	nop
    4c40:	00000000 	nop
    4c44:	00000000 	nop
    4c48:	00000000 	nop
    4c4c:	00000000 	nop
    4c50:	00000000 	nop
    4c54:	00000000 	nop
    4c58:	00000000 	nop
    4c5c:	00000000 	nop
    4c60:	00000000 	nop
    4c64:	00000000 	nop
    4c68:	00000000 	nop
    4c6c:	00000000 	nop
    4c70:	00000000 	nop
    4c74:	00000000 	nop
    4c78:	00000000 	nop
    4c7c:	00000000 	nop
    4c80:	00000000 	nop
    4c84:	00000000 	nop
    4c88:	00000000 	nop
    4c8c:	00000000 	nop
    4c90:	00000000 	nop
    4c94:	00000000 	nop
    4c98:	00000000 	nop
    4c9c:	00000000 	nop
    4ca0:	00000000 	nop
    4ca4:	00000000 	nop
    4ca8:	00000000 	nop
    4cac:	00000000 	nop
    4cb0:	00000000 	nop
    4cb4:	00000000 	nop
    4cb8:	00000000 	nop
    4cbc:	00000000 	nop
    4cc0:	00000000 	nop
    4cc4:	00000000 	nop
    4cc8:	00000000 	nop
    4ccc:	00000000 	nop
    4cd0:	00000000 	nop
    4cd4:	00000000 	nop
    4cd8:	00000000 	nop
    4cdc:	00000000 	nop
    4ce0:	00000000 	nop
    4ce4:	00000000 	nop
    4ce8:	00000000 	nop
    4cec:	00000000 	nop
    4cf0:	00000000 	nop
    4cf4:	00000000 	nop
    4cf8:	00000000 	nop
    4cfc:	00000000 	nop
    4d00:	00000000 	nop
    4d04:	00000000 	nop
    4d08:	00000000 	nop
    4d0c:	00000000 	nop
    4d10:	00000000 	nop
    4d14:	00000000 	nop
    4d18:	00000000 	nop
    4d1c:	00000000 	nop
    4d20:	00000000 	nop
    4d24:	00000000 	nop
    4d28:	00000000 	nop
    4d2c:	00000000 	nop
    4d30:	00000000 	nop
    4d34:	00000000 	nop
    4d38:	00000000 	nop
    4d3c:	00000000 	nop
    4d40:	00000000 	nop
    4d44:	00000000 	nop
    4d48:	00000000 	nop
    4d4c:	00000000 	nop
    4d50:	00000000 	nop
    4d54:	00000000 	nop
    4d58:	00000000 	nop
    4d5c:	00000000 	nop
    4d60:	00000000 	nop
    4d64:	00000000 	nop
    4d68:	00000000 	nop
    4d6c:	00000000 	nop
    4d70:	00000000 	nop
    4d74:	00000000 	nop
    4d78:	00000000 	nop
    4d7c:	00000000 	nop
    4d80:	00000000 	nop
    4d84:	00000000 	nop
    4d88:	00000000 	nop
    4d8c:	00000000 	nop
    4d90:	00000000 	nop
    4d94:	00000000 	nop
    4d98:	00000000 	nop
    4d9c:	00000000 	nop
    4da0:	00000000 	nop
    4da4:	00000000 	nop
    4da8:	00000000 	nop
    4dac:	00000000 	nop
    4db0:	00000000 	nop
    4db4:	00000000 	nop
    4db8:	00000000 	nop
    4dbc:	00000000 	nop
    4dc0:	00000000 	nop
    4dc4:	00000000 	nop
    4dc8:	00000000 	nop
    4dcc:	00000000 	nop
    4dd0:	00000000 	nop
    4dd4:	00000000 	nop
    4dd8:	00000000 	nop
    4ddc:	00000000 	nop
    4de0:	00000000 	nop
    4de4:	00000000 	nop
    4de8:	00000000 	nop
    4dec:	00000000 	nop
    4df0:	00000000 	nop
    4df4:	00000000 	nop
    4df8:	00000000 	nop
    4dfc:	00000000 	nop
    4e00:	00000000 	nop
    4e04:	00000000 	nop
    4e08:	00000000 	nop
    4e0c:	00000000 	nop
    4e10:	00000000 	nop
    4e14:	00000000 	nop
    4e18:	00000000 	nop
    4e1c:	00000000 	nop
    4e20:	00000000 	nop
    4e24:	00000000 	nop
    4e28:	00000000 	nop
    4e2c:	00000000 	nop
    4e30:	00000000 	nop
    4e34:	00000000 	nop
    4e38:	00000000 	nop
    4e3c:	00000000 	nop
    4e40:	00000000 	nop
    4e44:	00000000 	nop
    4e48:	00000000 	nop
    4e4c:	00000000 	nop
    4e50:	00000000 	nop
    4e54:	00000000 	nop
    4e58:	00000000 	nop
    4e5c:	00000000 	nop
    4e60:	00000000 	nop
    4e64:	00000000 	nop
    4e68:	00000000 	nop
    4e6c:	00000000 	nop
    4e70:	00000000 	nop
    4e74:	00000000 	nop
    4e78:	00000000 	nop
    4e7c:	00000000 	nop
    4e80:	00000000 	nop
    4e84:	00000000 	nop
    4e88:	00000000 	nop
    4e8c:	00000000 	nop
    4e90:	00000000 	nop
    4e94:	00000000 	nop
    4e98:	00000000 	nop
    4e9c:	00000000 	nop
    4ea0:	00000000 	nop
    4ea4:	00000000 	nop
    4ea8:	00000000 	nop
    4eac:	00000000 	nop
    4eb0:	00000000 	nop
    4eb4:	00000000 	nop
    4eb8:	00000000 	nop
    4ebc:	00000000 	nop
    4ec0:	00000000 	nop
    4ec4:	00000000 	nop
    4ec8:	00000000 	nop
    4ecc:	00000000 	nop
    4ed0:	00000000 	nop
    4ed4:	00000000 	nop
    4ed8:	00000000 	nop
    4edc:	00000000 	nop
    4ee0:	00000000 	nop
    4ee4:	00000000 	nop
    4ee8:	00000000 	nop
    4eec:	00000000 	nop
    4ef0:	00000000 	nop
    4ef4:	00000000 	nop
    4ef8:	00000000 	nop
    4efc:	00000000 	nop
    4f00:	00000000 	nop
    4f04:	00000000 	nop
    4f08:	00000000 	nop
    4f0c:	00000000 	nop
    4f10:	00000000 	nop
    4f14:	00000000 	nop
    4f18:	00000000 	nop
    4f1c:	00000000 	nop
    4f20:	00000000 	nop
    4f24:	00000000 	nop
    4f28:	00000000 	nop
    4f2c:	00000000 	nop
    4f30:	00000000 	nop
    4f34:	00000000 	nop
    4f38:	00000000 	nop
    4f3c:	00000000 	nop
    4f40:	00000000 	nop
    4f44:	00000000 	nop
    4f48:	00000000 	nop
    4f4c:	00000000 	nop
    4f50:	00000000 	nop
    4f54:	00000000 	nop
    4f58:	00000000 	nop
    4f5c:	00000000 	nop
    4f60:	00000000 	nop
    4f64:	00000000 	nop
    4f68:	00000000 	nop
    4f6c:	00000000 	nop
    4f70:	00000000 	nop
    4f74:	00000000 	nop
    4f78:	00000000 	nop
    4f7c:	00000000 	nop
    4f80:	00000000 	nop
    4f84:	00000000 	nop
    4f88:	00000000 	nop
    4f8c:	00000000 	nop
    4f90:	00000000 	nop
    4f94:	00000000 	nop
    4f98:	00000000 	nop
    4f9c:	00000000 	nop
    4fa0:	00000000 	nop
    4fa4:	00000000 	nop
    4fa8:	00000000 	nop
    4fac:	00000000 	nop
    4fb0:	00000000 	nop
    4fb4:	00000000 	nop
    4fb8:	00000000 	nop
    4fbc:	00000000 	nop
    4fc0:	00000000 	nop
    4fc4:	00000000 	nop
    4fc8:	00000000 	nop
    4fcc:	00000000 	nop
    4fd0:	00000000 	nop
    4fd4:	00000000 	nop
    4fd8:	00000000 	nop
    4fdc:	00000000 	nop
    4fe0:	00000000 	nop
    4fe4:	00000000 	nop
    4fe8:	00000000 	nop
    4fec:	00000000 	nop
    4ff0:	00000000 	nop
    4ff4:	00000000 	nop
    4ff8:	00000000 	nop
    4ffc:	00000000 	nop
    5000:	00000000 	nop
    5004:	00000000 	nop
    5008:	00000000 	nop
    500c:	00000000 	nop
    5010:	00000000 	nop
    5014:	00000000 	nop
    5018:	00000000 	nop
    501c:	00000000 	nop
    5020:	00000000 	nop
    5024:	00000000 	nop
    5028:	00000000 	nop
    502c:	00000000 	nop
    5030:	00000000 	nop
    5034:	00000000 	nop
    5038:	00000000 	nop
    503c:	00000000 	nop
    5040:	00000000 	nop
    5044:	00000000 	nop
    5048:	00000000 	nop
    504c:	00000000 	nop
    5050:	00000000 	nop
    5054:	00000000 	nop
    5058:	00000000 	nop
    505c:	00000000 	nop
    5060:	00000000 	nop
    5064:	00000000 	nop
    5068:	00000000 	nop
    506c:	00000000 	nop
    5070:	00000000 	nop
    5074:	00000000 	nop
    5078:	00000000 	nop
    507c:	00000000 	nop
    5080:	00000000 	nop
    5084:	00000000 	nop
    5088:	00000000 	nop
    508c:	00000000 	nop
    5090:	00000000 	nop
    5094:	00000000 	nop
    5098:	00000000 	nop
    509c:	00000000 	nop
    50a0:	00000000 	nop
    50a4:	00000000 	nop
    50a8:	00000000 	nop
    50ac:	00000000 	nop
    50b0:	00000000 	nop
    50b4:	00000000 	nop
    50b8:	00000000 	nop
    50bc:	00000000 	nop
    50c0:	00000000 	nop
    50c4:	00000000 	nop
    50c8:	00000000 	nop
    50cc:	00000000 	nop
    50d0:	00000000 	nop
    50d4:	00000000 	nop
    50d8:	00000000 	nop
    50dc:	00000000 	nop
    50e0:	00000000 	nop
    50e4:	00000000 	nop
    50e8:	00000000 	nop
    50ec:	00000000 	nop
    50f0:	00000000 	nop
    50f4:	00000000 	nop
    50f8:	00000000 	nop
    50fc:	00000000 	nop
    5100:	00000000 	nop
    5104:	00000000 	nop
    5108:	00000000 	nop
    510c:	00000000 	nop
    5110:	00000000 	nop
    5114:	00000000 	nop
    5118:	00000000 	nop
    511c:	00000000 	nop
    5120:	00000000 	nop
    5124:	00000000 	nop
    5128:	00000000 	nop
    512c:	00000000 	nop
    5130:	00000000 	nop
    5134:	00000000 	nop
    5138:	00000000 	nop
    513c:	00000000 	nop
    5140:	00000000 	nop
    5144:	00000000 	nop
    5148:	00000000 	nop
    514c:	00000000 	nop
    5150:	00000000 	nop
    5154:	00000000 	nop
    5158:	00000000 	nop
    515c:	00000000 	nop
    5160:	00000000 	nop
    5164:	00000000 	nop
    5168:	00000000 	nop
    516c:	00000000 	nop
    5170:	00000000 	nop
    5174:	00000000 	nop
    5178:	00000000 	nop
    517c:	00000000 	nop
    5180:	00000000 	nop
    5184:	00000000 	nop
    5188:	00000000 	nop
    518c:	00000000 	nop
    5190:	00000000 	nop
    5194:	00000000 	nop
    5198:	00000000 	nop
    519c:	00000000 	nop
    51a0:	00000000 	nop
    51a4:	00000000 	nop
    51a8:	00000000 	nop
    51ac:	00000000 	nop
    51b0:	00000000 	nop
    51b4:	00000000 	nop
    51b8:	00000000 	nop
    51bc:	00000000 	nop
    51c0:	00000000 	nop
    51c4:	00000000 	nop
    51c8:	00000000 	nop
    51cc:	00000000 	nop
    51d0:	00000000 	nop
    51d4:	00000000 	nop
    51d8:	00000000 	nop
    51dc:	00000000 	nop
    51e0:	00000000 	nop
    51e4:	00000000 	nop
    51e8:	00000000 	nop
    51ec:	00000000 	nop
    51f0:	00000000 	nop
    51f4:	00000000 	nop
    51f8:	00000000 	nop
    51fc:	00000000 	nop
    5200:	00000000 	nop
    5204:	00000000 	nop
    5208:	00000000 	nop
    520c:	00000000 	nop
    5210:	00000000 	nop
    5214:	00000000 	nop
    5218:	00000000 	nop
    521c:	00000000 	nop
    5220:	00000000 	nop
    5224:	00000000 	nop
    5228:	00000000 	nop
    522c:	00000000 	nop
    5230:	00000000 	nop
    5234:	00000000 	nop
    5238:	00000000 	nop
    523c:	00000000 	nop
    5240:	00000000 	nop
    5244:	00000000 	nop
    5248:	00000000 	nop
    524c:	00000000 	nop
    5250:	00000000 	nop
    5254:	00000000 	nop
    5258:	00000000 	nop
    525c:	00000000 	nop
    5260:	00000000 	nop
    5264:	00000000 	nop
    5268:	00000000 	nop
    526c:	00000000 	nop
    5270:	00000000 	nop
    5274:	00000000 	nop
    5278:	00000000 	nop
    527c:	00000000 	nop
    5280:	00000000 	nop
    5284:	00000000 	nop
    5288:	00000000 	nop
    528c:	00000000 	nop
    5290:	00000000 	nop
    5294:	00000000 	nop
    5298:	00000000 	nop
    529c:	00000000 	nop
    52a0:	00000000 	nop
    52a4:	00000000 	nop
    52a8:	00000000 	nop
    52ac:	00000000 	nop
    52b0:	00000000 	nop
    52b4:	00000000 	nop
    52b8:	00000000 	nop
    52bc:	00000000 	nop
    52c0:	00000000 	nop
    52c4:	00000000 	nop
    52c8:	00000000 	nop
    52cc:	00000000 	nop
    52d0:	00000000 	nop
    52d4:	00000000 	nop
    52d8:	00000000 	nop
    52dc:	00000000 	nop
    52e0:	00000000 	nop
    52e4:	00000000 	nop
    52e8:	00000000 	nop
    52ec:	00000000 	nop
    52f0:	00000000 	nop
    52f4:	00000000 	nop
    52f8:	00000000 	nop
    52fc:	00000000 	nop
    5300:	00000000 	nop
    5304:	00000000 	nop
    5308:	00000000 	nop
    530c:	00000000 	nop
    5310:	00000000 	nop
    5314:	00000000 	nop
    5318:	00000000 	nop
    531c:	00000000 	nop
    5320:	00000000 	nop
    5324:	00000000 	nop
    5328:	00000000 	nop
    532c:	00000000 	nop
    5330:	00000000 	nop
    5334:	00000000 	nop
    5338:	00000000 	nop
    533c:	00000000 	nop
    5340:	00000000 	nop
    5344:	00000000 	nop
    5348:	00000000 	nop
    534c:	00000000 	nop
    5350:	00000000 	nop
    5354:	00000000 	nop
    5358:	00000000 	nop
    535c:	00000000 	nop
    5360:	00000000 	nop
    5364:	00000000 	nop
    5368:	00000000 	nop
    536c:	00000000 	nop
    5370:	00000000 	nop
    5374:	00000000 	nop
    5378:	00000000 	nop
    537c:	00000000 	nop
    5380:	00000000 	nop
    5384:	00000000 	nop
    5388:	00000000 	nop
    538c:	00000000 	nop
    5390:	00000000 	nop
    5394:	00000000 	nop
    5398:	00000000 	nop
    539c:	00000000 	nop
    53a0:	00000000 	nop
    53a4:	00000000 	nop
    53a8:	00000000 	nop
    53ac:	00000000 	nop
    53b0:	00000000 	nop
    53b4:	00000000 	nop
    53b8:	00000000 	nop
    53bc:	00000000 	nop
    53c0:	00000000 	nop
    53c4:	00000000 	nop
    53c8:	00000000 	nop
    53cc:	00000000 	nop
    53d0:	00000000 	nop
    53d4:	00000000 	nop
    53d8:	00000000 	nop
    53dc:	00000000 	nop
    53e0:	00000000 	nop
    53e4:	00000000 	nop
    53e8:	00000000 	nop
    53ec:	00000000 	nop
    53f0:	00000000 	nop
    53f4:	00000000 	nop
    53f8:	00000000 	nop
    53fc:	00000000 	nop
    5400:	00000000 	nop
    5404:	00000000 	nop
    5408:	00000000 	nop
    540c:	00000000 	nop
    5410:	00000000 	nop
    5414:	00000000 	nop
    5418:	00000000 	nop
    541c:	00000000 	nop
    5420:	00000000 	nop
    5424:	00000000 	nop
    5428:	00000000 	nop
    542c:	00000000 	nop
    5430:	00000000 	nop
    5434:	00000000 	nop
    5438:	00000000 	nop
    543c:	00000000 	nop
    5440:	00000000 	nop
    5444:	00000000 	nop
    5448:	00000000 	nop
    544c:	00000000 	nop
    5450:	00000000 	nop
    5454:	00000000 	nop
    5458:	00000000 	nop
    545c:	00000000 	nop
    5460:	00000000 	nop
    5464:	00000000 	nop
    5468:	00000000 	nop
    546c:	00000000 	nop
    5470:	00000000 	nop
    5474:	00000000 	nop
    5478:	00000000 	nop
    547c:	00000000 	nop
    5480:	00000000 	nop
    5484:	00000000 	nop
    5488:	00000000 	nop
    548c:	00000000 	nop
    5490:	00000000 	nop
    5494:	00000000 	nop
    5498:	00000000 	nop
    549c:	00000000 	nop
    54a0:	00000000 	nop
    54a4:	00000000 	nop
    54a8:	00000000 	nop
    54ac:	00000000 	nop
    54b0:	00000000 	nop
    54b4:	00000000 	nop
    54b8:	00000000 	nop
    54bc:	00000000 	nop
    54c0:	00000000 	nop
    54c4:	00000000 	nop
    54c8:	00000000 	nop
    54cc:	00000000 	nop
    54d0:	00000000 	nop
    54d4:	00000000 	nop
    54d8:	00000000 	nop
    54dc:	00000000 	nop
    54e0:	00000000 	nop
    54e4:	00000000 	nop
    54e8:	00000000 	nop
    54ec:	00000000 	nop
    54f0:	00000000 	nop
    54f4:	00000000 	nop
    54f8:	00000000 	nop
    54fc:	00000000 	nop
    5500:	00000000 	nop
    5504:	00000000 	nop
    5508:	00000000 	nop
    550c:	00000000 	nop
    5510:	00000000 	nop
    5514:	00000000 	nop
    5518:	00000000 	nop
    551c:	00000000 	nop
    5520:	00000000 	nop
    5524:	00000000 	nop
    5528:	00000000 	nop
    552c:	00000000 	nop
    5530:	00000000 	nop
    5534:	00000000 	nop
    5538:	00000000 	nop
    553c:	00000000 	nop
    5540:	00000000 	nop
    5544:	00000000 	nop
    5548:	00000000 	nop
    554c:	00000000 	nop
    5550:	00000000 	nop
    5554:	00000000 	nop
    5558:	00000000 	nop
    555c:	00000000 	nop
    5560:	00000000 	nop
    5564:	00000000 	nop
    5568:	00000000 	nop
    556c:	00000000 	nop
    5570:	00000000 	nop
    5574:	00000000 	nop
    5578:	00000000 	nop
    557c:	00000000 	nop
    5580:	00000000 	nop
    5584:	00000000 	nop
    5588:	00000000 	nop
    558c:	00000000 	nop
    5590:	00000000 	nop
    5594:	00000000 	nop
    5598:	00000000 	nop
    559c:	00000000 	nop
    55a0:	00000000 	nop
    55a4:	00000000 	nop
    55a8:	00000000 	nop
    55ac:	00000000 	nop
    55b0:	00000000 	nop
    55b4:	00000000 	nop
    55b8:	00000000 	nop
    55bc:	00000000 	nop
    55c0:	00000000 	nop
    55c4:	00000000 	nop
    55c8:	00000000 	nop
    55cc:	00000000 	nop
    55d0:	00000000 	nop
    55d4:	00000000 	nop
    55d8:	00000000 	nop
    55dc:	00000000 	nop
    55e0:	00000000 	nop
    55e4:	00000000 	nop
    55e8:	00000000 	nop
    55ec:	00000000 	nop
    55f0:	00000000 	nop
    55f4:	00000000 	nop
    55f8:	00000000 	nop
    55fc:	00000000 	nop
    5600:	00000000 	nop
    5604:	00000000 	nop
    5608:	00000000 	nop
    560c:	00000000 	nop
    5610:	00000000 	nop
    5614:	00000000 	nop
    5618:	00000000 	nop
    561c:	00000000 	nop
    5620:	00000000 	nop
    5624:	00000000 	nop
    5628:	00000000 	nop
    562c:	00000000 	nop
    5630:	00000000 	nop
    5634:	00000000 	nop
    5638:	00000000 	nop
    563c:	00000000 	nop
    5640:	00000000 	nop
    5644:	00000000 	nop
    5648:	00000000 	nop
    564c:	00000000 	nop
    5650:	00000000 	nop
    5654:	00000000 	nop
    5658:	00000000 	nop
    565c:	00000000 	nop
    5660:	00000000 	nop
    5664:	00000000 	nop
    5668:	00000000 	nop
    566c:	00000000 	nop
    5670:	00000000 	nop
    5674:	00000000 	nop
    5678:	00000000 	nop
    567c:	00000000 	nop
    5680:	00000000 	nop
    5684:	00000000 	nop
    5688:	00000000 	nop
    568c:	00000000 	nop
    5690:	00000000 	nop
    5694:	00000000 	nop
    5698:	00000000 	nop
    569c:	00000000 	nop
    56a0:	00000000 	nop
    56a4:	00000000 	nop
    56a8:	00000000 	nop
    56ac:	00000000 	nop
    56b0:	00000000 	nop
    56b4:	00000000 	nop
    56b8:	00000000 	nop
    56bc:	00000000 	nop
    56c0:	00000000 	nop
    56c4:	00000000 	nop
    56c8:	00000000 	nop
    56cc:	00000000 	nop
    56d0:	00000000 	nop
    56d4:	00000000 	nop
    56d8:	00000000 	nop
    56dc:	00000000 	nop
    56e0:	00000000 	nop
    56e4:	00000000 	nop
    56e8:	00000000 	nop
    56ec:	00000000 	nop
    56f0:	00000000 	nop
    56f4:	00000000 	nop
    56f8:	00000000 	nop
    56fc:	00000000 	nop
    5700:	00000000 	nop
    5704:	00000000 	nop
    5708:	00000000 	nop
    570c:	00000000 	nop
    5710:	00000000 	nop
    5714:	00000000 	nop
    5718:	00000000 	nop
    571c:	00000000 	nop
    5720:	00000000 	nop
    5724:	00000000 	nop
    5728:	00000000 	nop
    572c:	00000000 	nop
    5730:	00000000 	nop
    5734:	00000000 	nop
    5738:	00000000 	nop
    573c:	00000000 	nop
    5740:	00000000 	nop
    5744:	00000000 	nop
    5748:	00000000 	nop
    574c:	00000000 	nop
    5750:	00000000 	nop
    5754:	00000000 	nop
    5758:	00000000 	nop
    575c:	00000000 	nop
    5760:	00000000 	nop
    5764:	00000000 	nop
    5768:	00000000 	nop
    576c:	00000000 	nop
    5770:	00000000 	nop
    5774:	00000000 	nop
    5778:	00000000 	nop
    577c:	00000000 	nop
    5780:	00000000 	nop
    5784:	00000000 	nop
    5788:	00000000 	nop
    578c:	00000000 	nop
    5790:	00000000 	nop
    5794:	00000000 	nop
    5798:	00000000 	nop
    579c:	00000000 	nop
    57a0:	00000000 	nop
    57a4:	00000000 	nop
    57a8:	00000000 	nop
    57ac:	00000000 	nop
    57b0:	00000000 	nop
    57b4:	00000000 	nop
    57b8:	00000000 	nop
    57bc:	00000000 	nop
    57c0:	00000000 	nop
    57c4:	00000000 	nop
    57c8:	00000000 	nop
    57cc:	00000000 	nop
    57d0:	00000000 	nop
    57d4:	00000000 	nop
    57d8:	00000000 	nop
    57dc:	00000000 	nop
    57e0:	00000000 	nop
    57e4:	00000000 	nop
    57e8:	00000000 	nop
    57ec:	00000000 	nop
    57f0:	00000000 	nop
    57f4:	00000000 	nop
    57f8:	00000000 	nop
    57fc:	00000000 	nop
    5800:	00000000 	nop
    5804:	00000000 	nop
    5808:	00000000 	nop
    580c:	00000000 	nop
    5810:	00000000 	nop
    5814:	00000000 	nop
    5818:	00000000 	nop
    581c:	00000000 	nop
    5820:	00000000 	nop
    5824:	00000000 	nop
    5828:	00000000 	nop
    582c:	00000000 	nop
    5830:	00000000 	nop
    5834:	00000000 	nop
    5838:	00000000 	nop
    583c:	00000000 	nop
    5840:	00000000 	nop
    5844:	00000000 	nop
    5848:	00000000 	nop
    584c:	00000000 	nop
    5850:	00000000 	nop
    5854:	00000000 	nop
    5858:	00000000 	nop
    585c:	00000000 	nop
    5860:	00000000 	nop
    5864:	00000000 	nop
    5868:	00000000 	nop
    586c:	00000000 	nop
    5870:	00000000 	nop
    5874:	00000000 	nop
    5878:	00000000 	nop
    587c:	00000000 	nop
    5880:	00000000 	nop
    5884:	00000000 	nop
    5888:	00000000 	nop
    588c:	00000000 	nop
    5890:	00000000 	nop
    5894:	00000000 	nop
    5898:	00000000 	nop
    589c:	00000000 	nop
    58a0:	00000000 	nop
    58a4:	00000000 	nop
    58a8:	00000000 	nop
    58ac:	00000000 	nop
    58b0:	00000000 	nop
    58b4:	00000000 	nop
    58b8:	00000000 	nop
    58bc:	00000000 	nop
    58c0:	00000000 	nop
    58c4:	00000000 	nop
    58c8:	00000000 	nop
    58cc:	00000000 	nop
    58d0:	00000000 	nop
    58d4:	00000000 	nop
    58d8:	00000000 	nop
    58dc:	00000000 	nop
    58e0:	00000000 	nop
    58e4:	00000000 	nop
    58e8:	00000000 	nop
    58ec:	00000000 	nop
    58f0:	00000000 	nop
    58f4:	00000000 	nop
    58f8:	00000000 	nop
    58fc:	00000000 	nop
    5900:	00000000 	nop
    5904:	00000000 	nop
    5908:	00000000 	nop
    590c:	00000000 	nop
    5910:	00000000 	nop
    5914:	00000000 	nop
    5918:	00000000 	nop
    591c:	00000000 	nop
    5920:	00000000 	nop
    5924:	00000000 	nop
    5928:	00000000 	nop
    592c:	00000000 	nop
    5930:	00000000 	nop
    5934:	00000000 	nop
    5938:	00000000 	nop
    593c:	00000000 	nop
    5940:	00000000 	nop
    5944:	00000000 	nop
    5948:	00000000 	nop
    594c:	00000000 	nop
    5950:	00000000 	nop
    5954:	00000000 	nop
    5958:	00000000 	nop
    595c:	00000000 	nop
    5960:	00000000 	nop
    5964:	00000000 	nop
    5968:	00000000 	nop
    596c:	00000000 	nop
    5970:	00000000 	nop
    5974:	00000000 	nop
    5978:	00000000 	nop
    597c:	00000000 	nop
    5980:	00000000 	nop
    5984:	00000000 	nop
    5988:	00000000 	nop
    598c:	00000000 	nop
    5990:	00000000 	nop
    5994:	00000000 	nop
    5998:	00000000 	nop
    599c:	00000000 	nop
    59a0:	00000000 	nop
    59a4:	00000000 	nop
    59a8:	00000000 	nop
    59ac:	00000000 	nop
    59b0:	00000000 	nop
    59b4:	00000000 	nop
    59b8:	00000000 	nop
    59bc:	00000000 	nop
    59c0:	00000000 	nop
    59c4:	00000000 	nop
    59c8:	00000000 	nop
    59cc:	00000000 	nop
    59d0:	00000000 	nop
    59d4:	00000000 	nop
    59d8:	00000000 	nop
    59dc:	00000000 	nop
    59e0:	00000000 	nop
    59e4:	00000000 	nop
    59e8:	00000000 	nop
    59ec:	00000000 	nop
    59f0:	00000000 	nop
    59f4:	00000000 	nop
    59f8:	00000000 	nop
    59fc:	00000000 	nop
    5a00:	00000000 	nop
    5a04:	00000000 	nop
    5a08:	00000000 	nop
    5a0c:	00000000 	nop
    5a10:	00000000 	nop
    5a14:	00000000 	nop
    5a18:	00000000 	nop
    5a1c:	00000000 	nop
    5a20:	00000000 	nop
    5a24:	00000000 	nop
    5a28:	00000000 	nop
    5a2c:	00000000 	nop
    5a30:	00000000 	nop
    5a34:	00000000 	nop
    5a38:	00000000 	nop
    5a3c:	00000000 	nop
    5a40:	00000000 	nop
    5a44:	00000000 	nop
    5a48:	00000000 	nop
    5a4c:	00000000 	nop
    5a50:	00000000 	nop
    5a54:	00000000 	nop
    5a58:	00000000 	nop
    5a5c:	00000000 	nop
    5a60:	00000000 	nop
    5a64:	00000000 	nop
    5a68:	00000000 	nop
    5a6c:	00000000 	nop
    5a70:	00000000 	nop
    5a74:	00000000 	nop
    5a78:	00000000 	nop
    5a7c:	00000000 	nop
    5a80:	00000000 	nop
    5a84:	00000000 	nop
    5a88:	00000000 	nop
    5a8c:	00000000 	nop
    5a90:	00000000 	nop
    5a94:	00000000 	nop
    5a98:	00000000 	nop
    5a9c:	00000000 	nop
    5aa0:	00000000 	nop
    5aa4:	00000000 	nop
    5aa8:	00000000 	nop
    5aac:	00000000 	nop
    5ab0:	00000000 	nop
    5ab4:	00000000 	nop
    5ab8:	00000000 	nop
    5abc:	00000000 	nop
    5ac0:	00000000 	nop
    5ac4:	00000000 	nop
    5ac8:	00000000 	nop
    5acc:	00000000 	nop
    5ad0:	00000000 	nop
    5ad4:	00000000 	nop
    5ad8:	00000000 	nop
    5adc:	00000000 	nop
    5ae0:	00000000 	nop
    5ae4:	00000000 	nop
    5ae8:	00000000 	nop
    5aec:	00000000 	nop
    5af0:	00000000 	nop
    5af4:	00000000 	nop
    5af8:	00000000 	nop
    5afc:	00000000 	nop
    5b00:	00000000 	nop
    5b04:	00000000 	nop
    5b08:	00000000 	nop
    5b0c:	00000000 	nop
    5b10:	00000000 	nop
    5b14:	00000000 	nop
    5b18:	00000000 	nop
    5b1c:	00000000 	nop
    5b20:	00000000 	nop
    5b24:	00000000 	nop
    5b28:	00000000 	nop
    5b2c:	00000000 	nop
    5b30:	00000000 	nop
    5b34:	00000000 	nop
    5b38:	00000000 	nop
    5b3c:	00000000 	nop
    5b40:	00000000 	nop
    5b44:	00000000 	nop
    5b48:	00000000 	nop
    5b4c:	00000000 	nop
    5b50:	00000000 	nop
    5b54:	00000000 	nop
    5b58:	00000000 	nop
    5b5c:	00000000 	nop
    5b60:	00000000 	nop
    5b64:	00000000 	nop
    5b68:	00000000 	nop
    5b6c:	00000000 	nop
    5b70:	00000000 	nop
    5b74:	00000000 	nop
    5b78:	00000000 	nop
    5b7c:	00000000 	nop
    5b80:	00000000 	nop
    5b84:	00000000 	nop
    5b88:	00000000 	nop
    5b8c:	00000000 	nop
    5b90:	00000000 	nop
    5b94:	00000000 	nop
    5b98:	00000000 	nop
    5b9c:	00000000 	nop
    5ba0:	00000000 	nop
    5ba4:	00000000 	nop
    5ba8:	00000000 	nop
    5bac:	00000000 	nop
    5bb0:	00000000 	nop
    5bb4:	00000000 	nop
    5bb8:	00000000 	nop
    5bbc:	00000000 	nop
    5bc0:	00000000 	nop
    5bc4:	00000000 	nop
    5bc8:	00000000 	nop
    5bcc:	00000000 	nop
    5bd0:	00000000 	nop
    5bd4:	00000000 	nop
    5bd8:	00000000 	nop
    5bdc:	00000000 	nop
    5be0:	00000000 	nop
    5be4:	00000000 	nop
    5be8:	00000000 	nop
    5bec:	00000000 	nop
    5bf0:	00000000 	nop
    5bf4:	00000000 	nop
    5bf8:	00000000 	nop
    5bfc:	00000000 	nop
    5c00:	00000000 	nop
    5c04:	00000000 	nop
    5c08:	00000000 	nop
    5c0c:	00000000 	nop
    5c10:	00000000 	nop
    5c14:	00000000 	nop
    5c18:	00000000 	nop
    5c1c:	00000000 	nop
    5c20:	00000000 	nop
    5c24:	00000000 	nop
    5c28:	00000000 	nop
    5c2c:	00000000 	nop
    5c30:	00000000 	nop
    5c34:	00000000 	nop
    5c38:	00000000 	nop
    5c3c:	00000000 	nop
    5c40:	00000000 	nop
    5c44:	00000000 	nop
    5c48:	00000000 	nop
    5c4c:	00000000 	nop
    5c50:	00000000 	nop
    5c54:	00000000 	nop
    5c58:	00000000 	nop
    5c5c:	00000000 	nop
    5c60:	00000000 	nop
    5c64:	00000000 	nop
    5c68:	00000000 	nop
    5c6c:	00000000 	nop
    5c70:	00000000 	nop
    5c74:	00000000 	nop
    5c78:	00000000 	nop
    5c7c:	00000000 	nop
    5c80:	00000000 	nop
    5c84:	00000000 	nop
    5c88:	00000000 	nop
    5c8c:	00000000 	nop
    5c90:	00000000 	nop
    5c94:	00000000 	nop
    5c98:	00000000 	nop
    5c9c:	00000000 	nop
    5ca0:	00000000 	nop
    5ca4:	00000000 	nop
    5ca8:	00000000 	nop
    5cac:	00000000 	nop
    5cb0:	00000000 	nop
    5cb4:	00000000 	nop
    5cb8:	00000000 	nop
    5cbc:	00000000 	nop
    5cc0:	00000000 	nop
    5cc4:	00000000 	nop
    5cc8:	00000000 	nop
    5ccc:	00000000 	nop
    5cd0:	00000000 	nop
    5cd4:	00000000 	nop
    5cd8:	00000000 	nop
    5cdc:	00000000 	nop
    5ce0:	00000000 	nop
    5ce4:	00000000 	nop
    5ce8:	00000000 	nop
    5cec:	00000000 	nop
    5cf0:	00000000 	nop
    5cf4:	00000000 	nop
    5cf8:	00000000 	nop
    5cfc:	00000000 	nop
    5d00:	00000000 	nop
    5d04:	00000000 	nop
    5d08:	00000000 	nop
    5d0c:	00000000 	nop
    5d10:	00000000 	nop
    5d14:	00000000 	nop
    5d18:	00000000 	nop
    5d1c:	00000000 	nop
    5d20:	00000000 	nop
    5d24:	00000000 	nop
    5d28:	00000000 	nop
    5d2c:	00000000 	nop
    5d30:	00000000 	nop
    5d34:	00000000 	nop
    5d38:	00000000 	nop
    5d3c:	00000000 	nop
    5d40:	00000000 	nop
    5d44:	00000000 	nop
    5d48:	00000000 	nop
    5d4c:	00000000 	nop
    5d50:	00000000 	nop
    5d54:	00000000 	nop
    5d58:	00000000 	nop
    5d5c:	00000000 	nop
    5d60:	00000000 	nop
    5d64:	00000000 	nop
    5d68:	00000000 	nop
    5d6c:	00000000 	nop
    5d70:	00000000 	nop
    5d74:	00000000 	nop
    5d78:	00000000 	nop
    5d7c:	00000000 	nop
    5d80:	00000000 	nop
    5d84:	00000000 	nop
    5d88:	00000000 	nop
    5d8c:	00000000 	nop
    5d90:	00000000 	nop
    5d94:	00000000 	nop
    5d98:	00000000 	nop
    5d9c:	00000000 	nop
    5da0:	00000000 	nop
    5da4:	00000000 	nop
    5da8:	00000000 	nop
    5dac:	00000000 	nop
    5db0:	00000000 	nop
    5db4:	00000000 	nop
    5db8:	00000000 	nop
    5dbc:	00000000 	nop
    5dc0:	00000000 	nop
    5dc4:	00000000 	nop
    5dc8:	00000000 	nop
    5dcc:	00000000 	nop
    5dd0:	00000000 	nop
    5dd4:	00000000 	nop
    5dd8:	00000000 	nop
    5ddc:	00000000 	nop
    5de0:	00000000 	nop
    5de4:	00000000 	nop
    5de8:	00000000 	nop
    5dec:	00000000 	nop
    5df0:	00000000 	nop
    5df4:	00000000 	nop
    5df8:	00000000 	nop
    5dfc:	00000000 	nop
    5e00:	00000000 	nop
    5e04:	00000000 	nop
    5e08:	00000000 	nop
    5e0c:	00000000 	nop
    5e10:	00000000 	nop
    5e14:	00000000 	nop
    5e18:	00000000 	nop
    5e1c:	00000000 	nop
    5e20:	00000000 	nop
    5e24:	00000000 	nop
    5e28:	00000000 	nop
    5e2c:	00000000 	nop
    5e30:	00000000 	nop
    5e34:	00000000 	nop
    5e38:	00000000 	nop
    5e3c:	00000000 	nop
    5e40:	00000000 	nop
    5e44:	00000000 	nop
    5e48:	00000000 	nop
    5e4c:	00000000 	nop
    5e50:	00000000 	nop
    5e54:	00000000 	nop
    5e58:	00000000 	nop
    5e5c:	00000000 	nop
    5e60:	00000000 	nop
    5e64:	00000000 	nop
    5e68:	00000000 	nop
    5e6c:	00000000 	nop
    5e70:	00000000 	nop
    5e74:	00000000 	nop
    5e78:	00000000 	nop
    5e7c:	00000000 	nop
    5e80:	00000000 	nop
    5e84:	00000000 	nop
    5e88:	00000000 	nop
    5e8c:	00000000 	nop
    5e90:	00000000 	nop
    5e94:	00000000 	nop
    5e98:	00000000 	nop
    5e9c:	00000000 	nop
    5ea0:	00000000 	nop
    5ea4:	00000000 	nop
    5ea8:	00000000 	nop
    5eac:	00000000 	nop
    5eb0:	00000000 	nop
    5eb4:	00000000 	nop
    5eb8:	00000000 	nop
    5ebc:	00000000 	nop
    5ec0:	00000000 	nop
    5ec4:	00000000 	nop
    5ec8:	00000000 	nop
    5ecc:	00000000 	nop
    5ed0:	00000000 	nop
    5ed4:	00000000 	nop
    5ed8:	00000000 	nop
    5edc:	00000000 	nop
    5ee0:	00000000 	nop
    5ee4:	00000000 	nop
    5ee8:	00000000 	nop
    5eec:	00000000 	nop
    5ef0:	00000000 	nop
    5ef4:	00000000 	nop
    5ef8:	00000000 	nop
    5efc:	00000000 	nop
    5f00:	00000000 	nop
    5f04:	00000000 	nop
    5f08:	00000000 	nop
    5f0c:	00000000 	nop
    5f10:	00000000 	nop
    5f14:	00000000 	nop
    5f18:	00000000 	nop
    5f1c:	00000000 	nop
    5f20:	00000000 	nop
    5f24:	00000000 	nop
    5f28:	00000000 	nop
    5f2c:	00000000 	nop
    5f30:	00000000 	nop
    5f34:	00000000 	nop
    5f38:	00000000 	nop
    5f3c:	00000000 	nop
    5f40:	00000000 	nop
    5f44:	00000000 	nop
    5f48:	00000000 	nop
    5f4c:	00000000 	nop
    5f50:	00000000 	nop
    5f54:	00000000 	nop
    5f58:	00000000 	nop
    5f5c:	00000000 	nop
    5f60:	00000000 	nop
    5f64:	00000000 	nop
    5f68:	00000000 	nop
    5f6c:	00000000 	nop
    5f70:	00000000 	nop
    5f74:	00000000 	nop
    5f78:	00000000 	nop
    5f7c:	00000000 	nop
    5f80:	00000000 	nop
    5f84:	00000000 	nop
    5f88:	00000000 	nop
    5f8c:	00000000 	nop
    5f90:	00000000 	nop
    5f94:	00000000 	nop
    5f98:	00000000 	nop
    5f9c:	00000000 	nop
    5fa0:	00000000 	nop
    5fa4:	00000000 	nop
    5fa8:	00000000 	nop
    5fac:	00000000 	nop
    5fb0:	00000000 	nop
    5fb4:	00000000 	nop
    5fb8:	00000000 	nop
    5fbc:	00000000 	nop
    5fc0:	00000000 	nop
    5fc4:	00000000 	nop
    5fc8:	00000000 	nop
    5fcc:	00000000 	nop
    5fd0:	00000000 	nop
    5fd4:	00000000 	nop
    5fd8:	00000000 	nop
    5fdc:	00000000 	nop
    5fe0:	00000000 	nop
    5fe4:	00000000 	nop
    5fe8:	00000000 	nop
    5fec:	00000000 	nop
    5ff0:	00000000 	nop
    5ff4:	00000000 	nop
    5ff8:	00000000 	nop
    5ffc:	00000000 	nop
    6000:	00000000 	nop
    6004:	00000000 	nop
    6008:	00000000 	nop
    600c:	00000000 	nop
    6010:	00000000 	nop
    6014:	00000000 	nop
    6018:	00000000 	nop
    601c:	00000000 	nop
    6020:	00000000 	nop
    6024:	00000000 	nop
    6028:	00000000 	nop
    602c:	00000000 	nop
    6030:	00000000 	nop
    6034:	00000000 	nop
    6038:	00000000 	nop
    603c:	00000000 	nop
    6040:	00000000 	nop
    6044:	00000000 	nop
    6048:	00000000 	nop
    604c:	00000000 	nop
    6050:	00000000 	nop
    6054:	00000000 	nop
    6058:	00000000 	nop
    605c:	00000000 	nop
    6060:	00000000 	nop
    6064:	00000000 	nop
    6068:	00000000 	nop
    606c:	00000000 	nop
    6070:	00000000 	nop
    6074:	00000000 	nop
    6078:	00000000 	nop
    607c:	00000000 	nop
    6080:	00000000 	nop
    6084:	00000000 	nop
    6088:	00000000 	nop
    608c:	00000000 	nop
    6090:	00000000 	nop
    6094:	00000000 	nop
    6098:	00000000 	nop
    609c:	00000000 	nop
    60a0:	00000000 	nop
    60a4:	00000000 	nop
    60a8:	00000000 	nop
    60ac:	00000000 	nop
    60b0:	00000000 	nop
    60b4:	00000000 	nop
    60b8:	00000000 	nop
    60bc:	00000000 	nop
    60c0:	00000000 	nop
    60c4:	00000000 	nop
    60c8:	00000000 	nop
    60cc:	00000000 	nop
    60d0:	00000000 	nop
    60d4:	00000000 	nop
    60d8:	00000000 	nop
    60dc:	00000000 	nop
    60e0:	00000000 	nop
    60e4:	00000000 	nop
    60e8:	00000000 	nop
    60ec:	00000000 	nop
    60f0:	00000000 	nop
    60f4:	00000000 	nop
    60f8:	00000000 	nop
    60fc:	00000000 	nop
    6100:	00000000 	nop
    6104:	00000000 	nop
    6108:	00000000 	nop
    610c:	00000000 	nop
    6110:	00000000 	nop
    6114:	00000000 	nop
    6118:	00000000 	nop
    611c:	00000000 	nop
    6120:	00000000 	nop
    6124:	00000000 	nop
    6128:	00000000 	nop
    612c:	00000000 	nop
    6130:	00000000 	nop
    6134:	00000000 	nop
    6138:	00000000 	nop
    613c:	00000000 	nop
    6140:	00000000 	nop
    6144:	00000000 	nop
    6148:	00000000 	nop
    614c:	00000000 	nop
    6150:	00000000 	nop
    6154:	00000000 	nop
    6158:	00000000 	nop
    615c:	00000000 	nop
    6160:	00000000 	nop
    6164:	00000000 	nop
    6168:	00000000 	nop
    616c:	00000000 	nop
    6170:	00000000 	nop
    6174:	00000000 	nop
    6178:	00000000 	nop
    617c:	00000000 	nop
    6180:	00000000 	nop
    6184:	00000000 	nop
    6188:	00000000 	nop
    618c:	00000000 	nop
    6190:	00000000 	nop
    6194:	00000000 	nop
    6198:	00000000 	nop
    619c:	00000000 	nop
    61a0:	00000000 	nop
    61a4:	00000000 	nop
    61a8:	00000000 	nop
    61ac:	00000000 	nop
    61b0:	00000000 	nop
    61b4:	00000000 	nop
    61b8:	00000000 	nop
    61bc:	00000000 	nop
    61c0:	00000000 	nop
    61c4:	00000000 	nop
    61c8:	00000000 	nop
    61cc:	00000000 	nop
    61d0:	00000000 	nop
    61d4:	00000000 	nop
    61d8:	00000000 	nop
    61dc:	00000000 	nop
    61e0:	00000000 	nop
    61e4:	00000000 	nop
    61e8:	00000000 	nop
    61ec:	00000000 	nop
    61f0:	00000000 	nop
    61f4:	00000000 	nop
    61f8:	00000000 	nop
    61fc:	00000000 	nop
    6200:	00000000 	nop
    6204:	00000000 	nop
    6208:	00000000 	nop
    620c:	00000000 	nop
    6210:	00000000 	nop
    6214:	00000000 	nop
    6218:	00000000 	nop
    621c:	00000000 	nop
    6220:	00000000 	nop
    6224:	00000000 	nop
    6228:	00000000 	nop
    622c:	00000000 	nop
    6230:	00000000 	nop
    6234:	00000000 	nop
    6238:	00000000 	nop
    623c:	00000000 	nop
    6240:	00000000 	nop
    6244:	00000000 	nop
    6248:	00000000 	nop
    624c:	00000000 	nop
    6250:	00000000 	nop
    6254:	00000000 	nop
    6258:	00000000 	nop
    625c:	00000000 	nop
    6260:	00000000 	nop
    6264:	00000000 	nop
    6268:	00000000 	nop
    626c:	00000000 	nop
    6270:	00000000 	nop
    6274:	00000000 	nop
    6278:	00000000 	nop
    627c:	00000000 	nop
    6280:	00000000 	nop
    6284:	00000000 	nop
    6288:	00000000 	nop
    628c:	00000000 	nop
    6290:	00000000 	nop
    6294:	00000000 	nop
    6298:	00000000 	nop
    629c:	00000000 	nop
    62a0:	00000000 	nop
    62a4:	00000000 	nop
    62a8:	00000000 	nop
    62ac:	00000000 	nop
    62b0:	00000000 	nop
    62b4:	00000000 	nop
    62b8:	00000000 	nop
    62bc:	00000000 	nop
    62c0:	00000000 	nop
    62c4:	00000000 	nop
    62c8:	00000000 	nop
    62cc:	00000000 	nop
    62d0:	00000000 	nop
    62d4:	00000000 	nop
    62d8:	00000000 	nop
    62dc:	00000000 	nop
    62e0:	00000000 	nop
    62e4:	00000000 	nop
    62e8:	00000000 	nop
    62ec:	00000000 	nop
    62f0:	00000000 	nop
    62f4:	00000000 	nop
    62f8:	00000000 	nop
    62fc:	00000000 	nop
    6300:	00000000 	nop
    6304:	00000000 	nop
    6308:	00000000 	nop
    630c:	00000000 	nop
    6310:	00000000 	nop
    6314:	00000000 	nop
    6318:	00000000 	nop
    631c:	00000000 	nop
    6320:	00000000 	nop
    6324:	00000000 	nop
    6328:	00000000 	nop
    632c:	00000000 	nop
    6330:	00000000 	nop
    6334:	00000000 	nop
    6338:	00000000 	nop
    633c:	00000000 	nop
    6340:	00000000 	nop
    6344:	00000000 	nop
    6348:	00000000 	nop
    634c:	00000000 	nop
    6350:	00000000 	nop
    6354:	00000000 	nop
    6358:	00000000 	nop
    635c:	00000000 	nop
    6360:	00000000 	nop
    6364:	00000000 	nop
    6368:	00000000 	nop
    636c:	00000000 	nop
    6370:	00000000 	nop
    6374:	00000000 	nop
    6378:	00000000 	nop
    637c:	00000000 	nop
    6380:	00000000 	nop
    6384:	00000000 	nop
    6388:	00000000 	nop
    638c:	00000000 	nop
    6390:	00000000 	nop
    6394:	00000000 	nop
    6398:	00000000 	nop
    639c:	00000000 	nop
    63a0:	00000000 	nop
    63a4:	00000000 	nop
    63a8:	00000000 	nop
    63ac:	00000000 	nop
    63b0:	00000000 	nop
    63b4:	00000000 	nop
    63b8:	00000000 	nop
    63bc:	00000000 	nop
    63c0:	00000000 	nop
    63c4:	00000000 	nop
    63c8:	00000000 	nop
    63cc:	00000000 	nop
    63d0:	00000000 	nop
    63d4:	00000000 	nop
    63d8:	00000000 	nop
    63dc:	00000000 	nop
    63e0:	00000000 	nop
    63e4:	00000000 	nop
    63e8:	00000000 	nop
    63ec:	00000000 	nop
    63f0:	00000000 	nop
    63f4:	00000000 	nop
    63f8:	00000000 	nop
    63fc:	00000000 	nop
    6400:	00000000 	nop
    6404:	00000000 	nop
    6408:	00000000 	nop
    640c:	00000000 	nop
    6410:	00000000 	nop
    6414:	00000000 	nop
    6418:	00000000 	nop
    641c:	00000000 	nop
    6420:	00000000 	nop
    6424:	00000000 	nop
    6428:	00000000 	nop
    642c:	00000000 	nop
    6430:	00000000 	nop
    6434:	00000000 	nop
    6438:	00000000 	nop
    643c:	00000000 	nop
    6440:	00000000 	nop
    6444:	00000000 	nop
    6448:	00000000 	nop
    644c:	00000000 	nop
    6450:	00000000 	nop
    6454:	00000000 	nop
    6458:	00000000 	nop
    645c:	00000000 	nop
    6460:	00000000 	nop
    6464:	00000000 	nop
    6468:	00000000 	nop
    646c:	00000000 	nop
    6470:	00000000 	nop
    6474:	00000000 	nop
    6478:	00000000 	nop
    647c:	00000000 	nop
    6480:	00000000 	nop
    6484:	00000000 	nop
    6488:	00000000 	nop
    648c:	00000000 	nop
    6490:	00000000 	nop
    6494:	00000000 	nop
    6498:	00000000 	nop
    649c:	00000000 	nop
    64a0:	00000000 	nop
    64a4:	00000000 	nop
    64a8:	00000000 	nop
    64ac:	00000000 	nop
    64b0:	00000000 	nop
    64b4:	00000000 	nop
    64b8:	00000000 	nop
    64bc:	00000000 	nop
    64c0:	00000000 	nop
    64c4:	00000000 	nop
    64c8:	00000000 	nop
    64cc:	00000000 	nop
    64d0:	00000000 	nop
    64d4:	00000000 	nop
    64d8:	00000000 	nop
    64dc:	00000000 	nop
    64e0:	00000000 	nop
    64e4:	00000000 	nop
    64e8:	00000000 	nop
    64ec:	00000000 	nop
    64f0:	00000000 	nop
    64f4:	00000000 	nop
    64f8:	00000000 	nop
    64fc:	00000000 	nop
    6500:	00000000 	nop
    6504:	00000000 	nop
    6508:	00000000 	nop
    650c:	00000000 	nop
    6510:	00000000 	nop
    6514:	00000000 	nop
    6518:	00000000 	nop
    651c:	00000000 	nop
    6520:	00000000 	nop
    6524:	00000000 	nop
    6528:	00000000 	nop
    652c:	00000000 	nop
    6530:	00000000 	nop
    6534:	00000000 	nop
    6538:	00000000 	nop
    653c:	00000000 	nop
    6540:	00000000 	nop
    6544:	00000000 	nop
    6548:	00000000 	nop
    654c:	00000000 	nop
    6550:	00000000 	nop
    6554:	00000000 	nop
    6558:	00000000 	nop
    655c:	00000000 	nop
    6560:	00000000 	nop
    6564:	00000000 	nop
    6568:	00000000 	nop
    656c:	00000000 	nop
    6570:	00000000 	nop
    6574:	00000000 	nop
    6578:	00000000 	nop
    657c:	00000000 	nop
    6580:	00000000 	nop
    6584:	00000000 	nop
    6588:	00000000 	nop
    658c:	00000000 	nop
    6590:	00000000 	nop
    6594:	00000000 	nop
    6598:	00000000 	nop
    659c:	00000000 	nop
    65a0:	00000000 	nop
    65a4:	00000000 	nop
    65a8:	00000000 	nop
    65ac:	00000000 	nop
    65b0:	00000000 	nop
    65b4:	00000000 	nop
    65b8:	00000000 	nop
    65bc:	00000000 	nop
    65c0:	00000000 	nop
    65c4:	00000000 	nop
    65c8:	00000000 	nop
    65cc:	00000000 	nop
    65d0:	00000000 	nop
    65d4:	00000000 	nop
    65d8:	00000000 	nop
    65dc:	00000000 	nop
    65e0:	00000000 	nop
    65e4:	00000000 	nop
    65e8:	00000000 	nop
    65ec:	00000000 	nop
    65f0:	00000000 	nop
    65f4:	00000000 	nop
    65f8:	00000000 	nop
    65fc:	00000000 	nop
    6600:	00000000 	nop
    6604:	00000000 	nop
    6608:	00000000 	nop
    660c:	00000000 	nop
    6610:	00000000 	nop
    6614:	00000000 	nop
    6618:	00000000 	nop
    661c:	00000000 	nop
    6620:	00000000 	nop
    6624:	00000000 	nop
    6628:	00000000 	nop
    662c:	00000000 	nop
    6630:	00000000 	nop
    6634:	00000000 	nop
    6638:	00000000 	nop
    663c:	00000000 	nop
    6640:	00000000 	nop
    6644:	00000000 	nop
    6648:	00000000 	nop
    664c:	00000000 	nop
    6650:	00000000 	nop
    6654:	00000000 	nop
    6658:	00000000 	nop
    665c:	00000000 	nop
    6660:	00000000 	nop
    6664:	00000000 	nop
    6668:	00000000 	nop
    666c:	00000000 	nop
    6670:	00000000 	nop
    6674:	00000000 	nop
    6678:	00000000 	nop
    667c:	00000000 	nop
    6680:	00000000 	nop
    6684:	00000000 	nop
    6688:	00000000 	nop
    668c:	00000000 	nop
    6690:	00000000 	nop
    6694:	00000000 	nop
    6698:	00000000 	nop
    669c:	00000000 	nop
    66a0:	00000000 	nop
    66a4:	00000000 	nop
    66a8:	00000000 	nop
    66ac:	00000000 	nop
    66b0:	00000000 	nop
    66b4:	00000000 	nop
    66b8:	00000000 	nop
    66bc:	00000000 	nop
    66c0:	00000000 	nop
    66c4:	00000000 	nop
    66c8:	00000000 	nop
    66cc:	00000000 	nop
    66d0:	00000000 	nop
    66d4:	00000000 	nop
    66d8:	00000000 	nop
    66dc:	00000000 	nop
    66e0:	00000000 	nop
    66e4:	00000000 	nop
    66e8:	00000000 	nop
    66ec:	00000000 	nop
    66f0:	00000000 	nop
    66f4:	00000000 	nop
    66f8:	00000000 	nop
    66fc:	00000000 	nop
    6700:	00000000 	nop
    6704:	00000000 	nop
    6708:	00000000 	nop
    670c:	00000000 	nop
    6710:	00000000 	nop
    6714:	00000000 	nop
    6718:	00000000 	nop
    671c:	00000000 	nop
    6720:	00000000 	nop
    6724:	00000000 	nop
    6728:	00000000 	nop
    672c:	00000000 	nop
    6730:	00000000 	nop
    6734:	00000000 	nop
    6738:	00000000 	nop
    673c:	00000000 	nop
    6740:	00000000 	nop
    6744:	00000000 	nop
    6748:	00000000 	nop
    674c:	00000000 	nop
    6750:	00000000 	nop
    6754:	00000000 	nop
    6758:	00000000 	nop
    675c:	00000000 	nop
    6760:	00000000 	nop
    6764:	00000000 	nop
    6768:	00000000 	nop
    676c:	00000000 	nop
    6770:	00000000 	nop
    6774:	00000000 	nop
    6778:	00000000 	nop
    677c:	00000000 	nop
    6780:	00000000 	nop
    6784:	00000000 	nop
    6788:	00000000 	nop
    678c:	00000000 	nop
    6790:	00000000 	nop
    6794:	00000000 	nop
    6798:	00000000 	nop
    679c:	00000000 	nop
    67a0:	00000000 	nop
    67a4:	00000000 	nop
    67a8:	00000000 	nop
    67ac:	00000000 	nop
    67b0:	00000000 	nop
    67b4:	00000000 	nop
    67b8:	00000000 	nop
    67bc:	00000000 	nop
    67c0:	00000000 	nop
    67c4:	00000000 	nop
    67c8:	00000000 	nop
    67cc:	00000000 	nop
    67d0:	00000000 	nop
    67d4:	00000000 	nop
    67d8:	00000000 	nop
    67dc:	00000000 	nop
    67e0:	00000000 	nop
    67e4:	00000000 	nop
    67e8:	00000000 	nop
    67ec:	00000000 	nop
    67f0:	00000000 	nop
    67f4:	00000000 	nop
    67f8:	00000000 	nop
    67fc:	00000000 	nop
    6800:	00000000 	nop
    6804:	00000000 	nop
    6808:	00000000 	nop
    680c:	00000000 	nop
    6810:	00000000 	nop
    6814:	00000000 	nop
    6818:	00000000 	nop
    681c:	00000000 	nop
    6820:	00000000 	nop
    6824:	00000000 	nop
    6828:	00000000 	nop
    682c:	00000000 	nop
    6830:	00000000 	nop
    6834:	00000000 	nop
    6838:	00000000 	nop
    683c:	00000000 	nop
    6840:	00000000 	nop
    6844:	00000000 	nop
    6848:	00000000 	nop
    684c:	00000000 	nop
    6850:	00000000 	nop
    6854:	00000000 	nop
    6858:	00000000 	nop
    685c:	00000000 	nop
    6860:	00000000 	nop
    6864:	00000000 	nop
    6868:	00000000 	nop
    686c:	00000000 	nop
    6870:	00000000 	nop
    6874:	00000000 	nop
    6878:	00000000 	nop
    687c:	00000000 	nop
    6880:	00000000 	nop
    6884:	00000000 	nop
    6888:	00000000 	nop
    688c:	00000000 	nop
    6890:	00000000 	nop
    6894:	00000000 	nop
    6898:	00000000 	nop
    689c:	00000000 	nop
    68a0:	00000000 	nop
    68a4:	00000000 	nop
    68a8:	00000000 	nop
    68ac:	00000000 	nop
    68b0:	00000000 	nop
    68b4:	00000000 	nop
    68b8:	00000000 	nop
    68bc:	00000000 	nop
    68c0:	00000000 	nop
    68c4:	00000000 	nop
    68c8:	00000000 	nop
    68cc:	00000000 	nop
    68d0:	00000000 	nop
    68d4:	00000000 	nop
    68d8:	00000000 	nop
    68dc:	00000000 	nop
    68e0:	00000000 	nop
    68e4:	00000000 	nop
    68e8:	00000000 	nop
    68ec:	00000000 	nop
    68f0:	00000000 	nop
    68f4:	00000000 	nop
    68f8:	00000000 	nop
    68fc:	00000000 	nop
    6900:	00000000 	nop
    6904:	00000000 	nop
    6908:	00000000 	nop
    690c:	00000000 	nop
    6910:	00000000 	nop
    6914:	00000000 	nop
    6918:	00000000 	nop
    691c:	00000000 	nop
    6920:	00000000 	nop
    6924:	00000000 	nop
    6928:	00000000 	nop
    692c:	00000000 	nop
    6930:	00000000 	nop
    6934:	00000000 	nop
    6938:	00000000 	nop
    693c:	00000000 	nop
    6940:	00000000 	nop
    6944:	00000000 	nop
    6948:	00000000 	nop
    694c:	00000000 	nop
    6950:	00000000 	nop
    6954:	00000000 	nop
    6958:	00000000 	nop
    695c:	00000000 	nop
    6960:	00000000 	nop
    6964:	00000000 	nop
    6968:	00000000 	nop
    696c:	00000000 	nop
    6970:	00000000 	nop
    6974:	00000000 	nop
    6978:	00000000 	nop
    697c:	00000000 	nop
    6980:	00000000 	nop
    6984:	00000000 	nop
    6988:	00000000 	nop
    698c:	00000000 	nop
    6990:	00000000 	nop
    6994:	00000000 	nop
    6998:	00000000 	nop
    699c:	00000000 	nop
    69a0:	00000000 	nop
    69a4:	00000000 	nop
    69a8:	00000000 	nop
    69ac:	00000000 	nop
    69b0:	00000000 	nop
    69b4:	00000000 	nop
    69b8:	00000000 	nop
    69bc:	00000000 	nop
    69c0:	00000000 	nop
    69c4:	00000000 	nop
    69c8:	00000000 	nop
    69cc:	00000000 	nop
    69d0:	00000000 	nop
    69d4:	00000000 	nop
    69d8:	00000000 	nop
    69dc:	00000000 	nop
    69e0:	00000000 	nop
    69e4:	00000000 	nop
    69e8:	00000000 	nop
    69ec:	00000000 	nop
    69f0:	00000000 	nop
    69f4:	00000000 	nop
    69f8:	00000000 	nop
    69fc:	00000000 	nop
    6a00:	00000000 	nop
    6a04:	00000000 	nop
    6a08:	00000000 	nop
    6a0c:	00000000 	nop
    6a10:	00000000 	nop
    6a14:	00000000 	nop
    6a18:	00000000 	nop
    6a1c:	00000000 	nop
    6a20:	00000000 	nop
    6a24:	00000000 	nop
    6a28:	00000000 	nop
    6a2c:	00000000 	nop
    6a30:	00000000 	nop
    6a34:	00000000 	nop
    6a38:	00000000 	nop
    6a3c:	00000000 	nop
    6a40:	00000000 	nop
    6a44:	00000000 	nop
    6a48:	00000000 	nop
    6a4c:	00000000 	nop
    6a50:	00000000 	nop
    6a54:	00000000 	nop
    6a58:	00000000 	nop
    6a5c:	00000000 	nop
    6a60:	00000000 	nop
    6a64:	00000000 	nop
    6a68:	00000000 	nop
    6a6c:	00000000 	nop
    6a70:	00000000 	nop
    6a74:	00000000 	nop
    6a78:	00000000 	nop
    6a7c:	00000000 	nop
    6a80:	00000000 	nop
    6a84:	00000000 	nop
    6a88:	00000000 	nop
    6a8c:	00000000 	nop
    6a90:	00000000 	nop
    6a94:	00000000 	nop
    6a98:	00000000 	nop
    6a9c:	00000000 	nop
    6aa0:	00000000 	nop
    6aa4:	00000000 	nop
    6aa8:	00000000 	nop
    6aac:	00000000 	nop
    6ab0:	00000000 	nop
    6ab4:	00000000 	nop
    6ab8:	00000000 	nop
    6abc:	00000000 	nop
    6ac0:	00000000 	nop
    6ac4:	00000000 	nop
    6ac8:	00000000 	nop
    6acc:	00000000 	nop
    6ad0:	00000000 	nop
    6ad4:	00000000 	nop
    6ad8:	00000000 	nop
    6adc:	00000000 	nop
    6ae0:	00000000 	nop
    6ae4:	00000000 	nop
    6ae8:	00000000 	nop
    6aec:	00000000 	nop
    6af0:	00000000 	nop
    6af4:	00000000 	nop
    6af8:	00000000 	nop
    6afc:	00000000 	nop
    6b00:	00000000 	nop
    6b04:	00000000 	nop
    6b08:	00000000 	nop
    6b0c:	00000000 	nop
    6b10:	00000000 	nop
    6b14:	00000000 	nop
    6b18:	00000000 	nop
    6b1c:	00000000 	nop
    6b20:	00000000 	nop
    6b24:	00000000 	nop
    6b28:	00000000 	nop
    6b2c:	00000000 	nop
    6b30:	00000000 	nop
    6b34:	00000000 	nop
    6b38:	00000000 	nop
    6b3c:	00000000 	nop
    6b40:	00000000 	nop
    6b44:	00000000 	nop
    6b48:	00000000 	nop
    6b4c:	00000000 	nop
    6b50:	00000000 	nop
    6b54:	00000000 	nop
    6b58:	00000000 	nop
    6b5c:	00000000 	nop
    6b60:	00000000 	nop
    6b64:	00000000 	nop
    6b68:	00000000 	nop
    6b6c:	00000000 	nop
    6b70:	00000000 	nop
    6b74:	00000000 	nop
    6b78:	00000000 	nop
    6b7c:	00000000 	nop
    6b80:	00000000 	nop
    6b84:	00000000 	nop
    6b88:	00000000 	nop
    6b8c:	00000000 	nop
    6b90:	00000000 	nop
    6b94:	00000000 	nop
    6b98:	00000000 	nop
    6b9c:	00000000 	nop
    6ba0:	00000000 	nop
    6ba4:	00000000 	nop
    6ba8:	00000000 	nop
    6bac:	00000000 	nop
    6bb0:	00000000 	nop
    6bb4:	00000000 	nop
    6bb8:	00000000 	nop
    6bbc:	00000000 	nop
    6bc0:	00000000 	nop
    6bc4:	00000000 	nop
    6bc8:	00000000 	nop
    6bcc:	00000000 	nop
    6bd0:	00000000 	nop
    6bd4:	00000000 	nop
    6bd8:	00000000 	nop
    6bdc:	00000000 	nop
    6be0:	00000000 	nop
    6be4:	00000000 	nop
    6be8:	00000000 	nop
    6bec:	00000000 	nop
    6bf0:	00000000 	nop
    6bf4:	00000000 	nop
    6bf8:	00000000 	nop
    6bfc:	00000000 	nop
    6c00:	00000000 	nop
    6c04:	00000000 	nop
    6c08:	00000000 	nop
    6c0c:	00000000 	nop
    6c10:	00000000 	nop
    6c14:	00000000 	nop
    6c18:	00000000 	nop
    6c1c:	00000000 	nop
    6c20:	00000000 	nop
    6c24:	00000000 	nop
    6c28:	00000000 	nop
    6c2c:	00000000 	nop
    6c30:	00000000 	nop
    6c34:	00000000 	nop
    6c38:	00000000 	nop
    6c3c:	00000000 	nop
    6c40:	00000000 	nop
    6c44:	00000000 	nop
    6c48:	00000000 	nop
    6c4c:	00000000 	nop
    6c50:	00000000 	nop
    6c54:	00000000 	nop
    6c58:	00000000 	nop
    6c5c:	00000000 	nop
    6c60:	00000000 	nop
    6c64:	00000000 	nop
    6c68:	00000000 	nop
    6c6c:	00000000 	nop
    6c70:	00000000 	nop
    6c74:	00000000 	nop
    6c78:	00000000 	nop
    6c7c:	00000000 	nop
    6c80:	00000000 	nop
    6c84:	00000000 	nop
    6c88:	00000000 	nop
    6c8c:	00000000 	nop
    6c90:	00000000 	nop
    6c94:	00000000 	nop
    6c98:	00000000 	nop
    6c9c:	00000000 	nop
    6ca0:	00000000 	nop
    6ca4:	00000000 	nop
    6ca8:	00000000 	nop
    6cac:	00000000 	nop
    6cb0:	00000000 	nop
    6cb4:	00000000 	nop
    6cb8:	00000000 	nop
    6cbc:	00000000 	nop
    6cc0:	00000000 	nop
    6cc4:	00000000 	nop
    6cc8:	00000000 	nop
    6ccc:	00000000 	nop
    6cd0:	00000000 	nop
    6cd4:	00000000 	nop
    6cd8:	00000000 	nop
    6cdc:	00000000 	nop
    6ce0:	00000000 	nop
    6ce4:	00000000 	nop
    6ce8:	00000000 	nop
    6cec:	00000000 	nop
    6cf0:	00000000 	nop
    6cf4:	00000000 	nop
    6cf8:	00000000 	nop
    6cfc:	00000000 	nop
    6d00:	00000000 	nop
    6d04:	00000000 	nop
    6d08:	00000000 	nop
    6d0c:	00000000 	nop
    6d10:	00000000 	nop
    6d14:	00000000 	nop
    6d18:	00000000 	nop
    6d1c:	00000000 	nop
    6d20:	00000000 	nop
    6d24:	00000000 	nop
    6d28:	00000000 	nop
    6d2c:	00000000 	nop
    6d30:	00000000 	nop
    6d34:	00000000 	nop
    6d38:	00000000 	nop
    6d3c:	00000000 	nop
    6d40:	00000000 	nop
    6d44:	00000000 	nop
    6d48:	00000000 	nop
    6d4c:	00000000 	nop
    6d50:	00000000 	nop
    6d54:	00000000 	nop
    6d58:	00000000 	nop
    6d5c:	00000000 	nop
    6d60:	00000000 	nop
    6d64:	00000000 	nop
    6d68:	00000000 	nop
    6d6c:	00000000 	nop
    6d70:	00000000 	nop
    6d74:	00000000 	nop
    6d78:	00000000 	nop
    6d7c:	00000000 	nop
    6d80:	00000000 	nop
    6d84:	00000000 	nop
    6d88:	00000000 	nop
    6d8c:	00000000 	nop
    6d90:	00000000 	nop
    6d94:	00000000 	nop
    6d98:	00000000 	nop
    6d9c:	00000000 	nop
    6da0:	00000000 	nop
    6da4:	00000000 	nop
    6da8:	00000000 	nop
    6dac:	00000000 	nop
    6db0:	00000000 	nop
    6db4:	00000000 	nop
    6db8:	00000000 	nop
    6dbc:	00000000 	nop
    6dc0:	00000000 	nop
    6dc4:	00000000 	nop
    6dc8:	00000000 	nop
    6dcc:	00000000 	nop
    6dd0:	00000000 	nop
    6dd4:	00000000 	nop
    6dd8:	00000000 	nop
    6ddc:	00000000 	nop
    6de0:	00000000 	nop
    6de4:	00000000 	nop
    6de8:	00000000 	nop
    6dec:	00000000 	nop
    6df0:	00000000 	nop
    6df4:	00000000 	nop
    6df8:	00000000 	nop
    6dfc:	00000000 	nop
    6e00:	00000000 	nop
    6e04:	00000000 	nop
    6e08:	00000000 	nop
    6e0c:	00000000 	nop
    6e10:	00000000 	nop
    6e14:	00000000 	nop
    6e18:	00000000 	nop
    6e1c:	00000000 	nop
    6e20:	00000000 	nop
    6e24:	00000000 	nop
    6e28:	00000000 	nop
    6e2c:	00000000 	nop
    6e30:	00000000 	nop
    6e34:	00000000 	nop
    6e38:	00000000 	nop
    6e3c:	00000000 	nop
    6e40:	00000000 	nop
    6e44:	00000000 	nop
    6e48:	00000000 	nop
    6e4c:	00000000 	nop
    6e50:	00000000 	nop
    6e54:	00000000 	nop
    6e58:	00000000 	nop
    6e5c:	00000000 	nop
    6e60:	00000000 	nop
    6e64:	00000000 	nop
    6e68:	00000000 	nop
    6e6c:	00000000 	nop
    6e70:	00000000 	nop
    6e74:	00000000 	nop
    6e78:	00000000 	nop
    6e7c:	00000000 	nop
    6e80:	00000000 	nop
    6e84:	00000000 	nop
    6e88:	00000000 	nop
    6e8c:	00000000 	nop
    6e90:	00000000 	nop
    6e94:	00000000 	nop
    6e98:	00000000 	nop
    6e9c:	00000000 	nop
    6ea0:	00000000 	nop
    6ea4:	00000000 	nop
    6ea8:	00000000 	nop
    6eac:	00000000 	nop
    6eb0:	00000000 	nop
    6eb4:	00000000 	nop
    6eb8:	00000000 	nop
    6ebc:	00000000 	nop
    6ec0:	00000000 	nop
    6ec4:	00000000 	nop
    6ec8:	00000000 	nop
    6ecc:	00000000 	nop
    6ed0:	00000000 	nop
    6ed4:	00000000 	nop
    6ed8:	00000000 	nop
    6edc:	00000000 	nop
    6ee0:	00000000 	nop
    6ee4:	00000000 	nop
    6ee8:	00000000 	nop
    6eec:	00000000 	nop
    6ef0:	00000000 	nop
    6ef4:	00000000 	nop
    6ef8:	00000000 	nop
    6efc:	00000000 	nop
    6f00:	00000000 	nop
    6f04:	00000000 	nop
    6f08:	00000000 	nop
    6f0c:	00000000 	nop
    6f10:	00000000 	nop
    6f14:	00000000 	nop
    6f18:	00000000 	nop
    6f1c:	00000000 	nop
    6f20:	00000000 	nop
    6f24:	00000000 	nop
    6f28:	00000000 	nop
    6f2c:	00000000 	nop
    6f30:	00000000 	nop
    6f34:	00000000 	nop
    6f38:	00000000 	nop
    6f3c:	00000000 	nop
    6f40:	00000000 	nop
    6f44:	00000000 	nop
    6f48:	00000000 	nop
    6f4c:	00000000 	nop
    6f50:	00000000 	nop
    6f54:	00000000 	nop
    6f58:	00000000 	nop
    6f5c:	00000000 	nop
    6f60:	00000000 	nop
    6f64:	00000000 	nop
    6f68:	00000000 	nop
    6f6c:	00000000 	nop
    6f70:	00000000 	nop
    6f74:	00000000 	nop
    6f78:	00000000 	nop
    6f7c:	00000000 	nop
    6f80:	00000000 	nop
    6f84:	00000000 	nop
    6f88:	00000000 	nop
    6f8c:	00000000 	nop
    6f90:	00000000 	nop
    6f94:	00000000 	nop
    6f98:	00000000 	nop
    6f9c:	00000000 	nop
    6fa0:	00000000 	nop
    6fa4:	00000000 	nop
    6fa8:	00000000 	nop
    6fac:	00000000 	nop
    6fb0:	00000000 	nop
    6fb4:	00000000 	nop
    6fb8:	00000000 	nop
    6fbc:	00000000 	nop
    6fc0:	00000000 	nop
    6fc4:	00000000 	nop
    6fc8:	00000000 	nop
    6fcc:	00000000 	nop
    6fd0:	00000000 	nop
    6fd4:	00000000 	nop
    6fd8:	00000000 	nop
    6fdc:	00000000 	nop
    6fe0:	00000000 	nop
    6fe4:	00000000 	nop
    6fe8:	00000000 	nop
    6fec:	00000000 	nop
    6ff0:	00000000 	nop
    6ff4:	00000000 	nop
    6ff8:	00000000 	nop
    6ffc:	00000000 	nop
    7000:	00000000 	nop
    7004:	00000000 	nop
    7008:	00000000 	nop
    700c:	00000000 	nop
    7010:	00000000 	nop
    7014:	00000000 	nop
    7018:	00000000 	nop
    701c:	00000000 	nop
    7020:	00000000 	nop
    7024:	00000000 	nop
    7028:	00000000 	nop
    702c:	00000000 	nop
    7030:	00000000 	nop
    7034:	00000000 	nop
    7038:	00000000 	nop
    703c:	00000000 	nop
    7040:	00000000 	nop
    7044:	00000000 	nop
    7048:	00000000 	nop
    704c:	00000000 	nop
    7050:	00000000 	nop
    7054:	00000000 	nop
    7058:	00000000 	nop
    705c:	00000000 	nop
    7060:	00000000 	nop
    7064:	00000000 	nop
    7068:	00000000 	nop
    706c:	00000000 	nop
    7070:	00000000 	nop
    7074:	00000000 	nop
    7078:	00000000 	nop
    707c:	00000000 	nop
    7080:	00000000 	nop
    7084:	00000000 	nop
    7088:	00000000 	nop
    708c:	00000000 	nop
    7090:	00000000 	nop
    7094:	00000000 	nop
    7098:	00000000 	nop
    709c:	00000000 	nop
    70a0:	00000000 	nop
    70a4:	00000000 	nop
    70a8:	00000000 	nop
    70ac:	00000000 	nop
    70b0:	00000000 	nop
    70b4:	00000000 	nop
    70b8:	00000000 	nop
    70bc:	00000000 	nop
    70c0:	00000000 	nop
    70c4:	00000000 	nop
    70c8:	00000000 	nop
    70cc:	00000000 	nop
    70d0:	00000000 	nop
    70d4:	00000000 	nop
    70d8:	00000000 	nop
    70dc:	00000000 	nop
    70e0:	00000000 	nop
    70e4:	00000000 	nop
    70e8:	00000000 	nop
    70ec:	00000000 	nop
    70f0:	00000000 	nop
    70f4:	00000000 	nop
    70f8:	00000000 	nop
    70fc:	00000000 	nop
    7100:	00000000 	nop
    7104:	00000000 	nop
    7108:	00000000 	nop
    710c:	00000000 	nop
    7110:	00000000 	nop
    7114:	00000000 	nop
    7118:	00000000 	nop
    711c:	00000000 	nop
    7120:	00000000 	nop
    7124:	00000000 	nop
    7128:	00000000 	nop
    712c:	00000000 	nop
    7130:	00000000 	nop
    7134:	00000000 	nop
    7138:	00000000 	nop
    713c:	00000000 	nop
    7140:	00000000 	nop
    7144:	00000000 	nop
    7148:	00000000 	nop
    714c:	00000000 	nop
    7150:	00000000 	nop
    7154:	00000000 	nop
    7158:	00000000 	nop
    715c:	00000000 	nop
    7160:	00000000 	nop
    7164:	00000000 	nop
    7168:	00000000 	nop
    716c:	00000000 	nop
    7170:	00000000 	nop
    7174:	00000000 	nop
    7178:	00000000 	nop
    717c:	00000000 	nop
    7180:	00000000 	nop
    7184:	00000000 	nop
    7188:	00000000 	nop
    718c:	00000000 	nop
    7190:	00000000 	nop
    7194:	00000000 	nop
    7198:	00000000 	nop
    719c:	00000000 	nop
    71a0:	00000000 	nop
    71a4:	00000000 	nop
    71a8:	00000000 	nop
    71ac:	00000000 	nop
    71b0:	00000000 	nop
    71b4:	00000000 	nop
    71b8:	00000000 	nop
    71bc:	00000000 	nop
    71c0:	00000000 	nop
    71c4:	00000000 	nop
    71c8:	00000000 	nop
    71cc:	00000000 	nop
    71d0:	00000000 	nop
    71d4:	00000000 	nop
    71d8:	00000000 	nop
    71dc:	00000000 	nop
    71e0:	00000000 	nop
    71e4:	00000000 	nop
    71e8:	00000000 	nop
    71ec:	00000000 	nop
    71f0:	00000000 	nop
    71f4:	00000000 	nop
    71f8:	00000000 	nop
    71fc:	00000000 	nop
    7200:	00000000 	nop
    7204:	00000000 	nop
    7208:	00000000 	nop
    720c:	00000000 	nop
    7210:	00000000 	nop
    7214:	00000000 	nop
    7218:	00000000 	nop
    721c:	00000000 	nop
    7220:	00000000 	nop
    7224:	00000000 	nop
    7228:	00000000 	nop
    722c:	00000000 	nop
    7230:	00000000 	nop
    7234:	00000000 	nop
    7238:	00000000 	nop
    723c:	00000000 	nop
    7240:	00000000 	nop
    7244:	00000000 	nop
    7248:	00000000 	nop
    724c:	00000000 	nop
    7250:	00000000 	nop
    7254:	00000000 	nop
    7258:	00000000 	nop
    725c:	00000000 	nop
    7260:	00000000 	nop
    7264:	00000000 	nop
    7268:	00000000 	nop
    726c:	00000000 	nop
    7270:	00000000 	nop
    7274:	00000000 	nop
    7278:	00000000 	nop
    727c:	00000000 	nop
    7280:	00000000 	nop
    7284:	00000000 	nop
    7288:	00000000 	nop
    728c:	00000000 	nop
    7290:	00000000 	nop
    7294:	00000000 	nop
    7298:	00000000 	nop
    729c:	00000000 	nop
    72a0:	00000000 	nop
    72a4:	00000000 	nop
    72a8:	00000000 	nop
    72ac:	00000000 	nop
    72b0:	00000000 	nop
    72b4:	00000000 	nop
    72b8:	00000000 	nop
    72bc:	00000000 	nop
    72c0:	00000000 	nop
    72c4:	00000000 	nop
    72c8:	00000000 	nop
    72cc:	00000000 	nop
    72d0:	00000000 	nop
    72d4:	00000000 	nop
    72d8:	00000000 	nop
    72dc:	00000000 	nop
    72e0:	00000000 	nop
    72e4:	00000000 	nop
    72e8:	00000000 	nop
    72ec:	00000000 	nop
    72f0:	00000000 	nop
    72f4:	00000000 	nop
    72f8:	00000000 	nop
    72fc:	00000000 	nop
    7300:	00000000 	nop
    7304:	00000000 	nop
    7308:	00000000 	nop
    730c:	00000000 	nop
    7310:	00000000 	nop
    7314:	00000000 	nop
    7318:	00000000 	nop
    731c:	00000000 	nop
    7320:	00000000 	nop
    7324:	00000000 	nop
    7328:	00000000 	nop
    732c:	00000000 	nop
    7330:	00000000 	nop
    7334:	00000000 	nop
    7338:	00000000 	nop
    733c:	00000000 	nop
    7340:	00000000 	nop
    7344:	00000000 	nop
    7348:	00000000 	nop
    734c:	00000000 	nop
    7350:	00000000 	nop
    7354:	00000000 	nop
    7358:	00000000 	nop
    735c:	00000000 	nop
    7360:	00000000 	nop
    7364:	00000000 	nop
    7368:	00000000 	nop
    736c:	00000000 	nop
    7370:	00000000 	nop
    7374:	00000000 	nop
    7378:	00000000 	nop
    737c:	00000000 	nop
    7380:	00000000 	nop
    7384:	00000000 	nop
    7388:	00000000 	nop
    738c:	00000000 	nop
    7390:	00000000 	nop
    7394:	00000000 	nop
    7398:	00000000 	nop
    739c:	00000000 	nop
    73a0:	00000000 	nop
    73a4:	00000000 	nop
    73a8:	00000000 	nop
    73ac:	00000000 	nop
    73b0:	00000000 	nop
    73b4:	00000000 	nop
    73b8:	00000000 	nop
    73bc:	00000000 	nop
    73c0:	00000000 	nop
    73c4:	00000000 	nop
    73c8:	00000000 	nop
    73cc:	00000000 	nop
    73d0:	00000000 	nop
    73d4:	00000000 	nop
    73d8:	00000000 	nop
    73dc:	00000000 	nop
    73e0:	00000000 	nop
    73e4:	00000000 	nop
    73e8:	00000000 	nop
    73ec:	00000000 	nop
    73f0:	00000000 	nop
    73f4:	00000000 	nop
    73f8:	00000000 	nop
    73fc:	00000000 	nop
    7400:	00000000 	nop
    7404:	00000000 	nop
    7408:	00000000 	nop
    740c:	00000000 	nop
    7410:	00000000 	nop
    7414:	00000000 	nop
    7418:	00000000 	nop
    741c:	00000000 	nop
    7420:	00000000 	nop
    7424:	00000000 	nop
    7428:	00000000 	nop
    742c:	00000000 	nop
    7430:	00000000 	nop
    7434:	00000000 	nop
    7438:	00000000 	nop
    743c:	00000000 	nop
    7440:	00000000 	nop
    7444:	00000000 	nop
    7448:	00000000 	nop
    744c:	00000000 	nop
    7450:	00000000 	nop
    7454:	00000000 	nop
    7458:	00000000 	nop
    745c:	00000000 	nop
    7460:	00000000 	nop
    7464:	00000000 	nop
    7468:	00000000 	nop
    746c:	00000000 	nop
    7470:	00000000 	nop
    7474:	00000000 	nop
    7478:	00000000 	nop
    747c:	00000000 	nop
    7480:	00000000 	nop
    7484:	00000000 	nop
    7488:	00000000 	nop
    748c:	00000000 	nop
    7490:	00000000 	nop
    7494:	00000000 	nop
    7498:	00000000 	nop
    749c:	00000000 	nop
    74a0:	00000000 	nop
    74a4:	00000000 	nop
    74a8:	00000000 	nop
    74ac:	00000000 	nop
    74b0:	00000000 	nop
    74b4:	00000000 	nop
    74b8:	00000000 	nop
    74bc:	00000000 	nop
    74c0:	00000000 	nop
    74c4:	00000000 	nop
    74c8:	00000000 	nop
    74cc:	00000000 	nop
    74d0:	00000000 	nop
    74d4:	00000000 	nop
    74d8:	00000000 	nop
    74dc:	00000000 	nop
    74e0:	00000000 	nop
    74e4:	00000000 	nop
    74e8:	00000000 	nop
    74ec:	00000000 	nop
    74f0:	00000000 	nop
    74f4:	00000000 	nop
    74f8:	00000000 	nop
    74fc:	00000000 	nop
    7500:	00000000 	nop
    7504:	00000000 	nop
    7508:	00000000 	nop
    750c:	00000000 	nop
    7510:	00000000 	nop
    7514:	00000000 	nop
    7518:	00000000 	nop
    751c:	00000000 	nop
    7520:	00000000 	nop
    7524:	00000000 	nop
    7528:	00000000 	nop
    752c:	00000000 	nop
    7530:	00000000 	nop
    7534:	00000000 	nop
    7538:	00000000 	nop
    753c:	00000000 	nop
    7540:	00000000 	nop
    7544:	00000000 	nop
    7548:	00000000 	nop
    754c:	00000000 	nop
    7550:	00000000 	nop
    7554:	00000000 	nop
    7558:	00000000 	nop
    755c:	00000000 	nop
    7560:	00000000 	nop
    7564:	00000000 	nop
    7568:	00000000 	nop
    756c:	00000000 	nop
    7570:	00000000 	nop
    7574:	00000000 	nop
    7578:	00000000 	nop
    757c:	00000000 	nop
    7580:	00000000 	nop
    7584:	00000000 	nop
    7588:	00000000 	nop
    758c:	00000000 	nop
    7590:	00000000 	nop
    7594:	00000000 	nop
    7598:	00000000 	nop
    759c:	00000000 	nop
    75a0:	00000000 	nop
    75a4:	00000000 	nop
    75a8:	00000000 	nop
    75ac:	00000000 	nop
    75b0:	00000000 	nop
    75b4:	00000000 	nop
    75b8:	00000000 	nop
    75bc:	00000000 	nop
    75c0:	00000000 	nop
    75c4:	00000000 	nop
    75c8:	00000000 	nop
    75cc:	00000000 	nop
    75d0:	00000000 	nop
    75d4:	00000000 	nop
    75d8:	00000000 	nop
    75dc:	00000000 	nop
    75e0:	00000000 	nop
    75e4:	00000000 	nop
    75e8:	00000000 	nop
    75ec:	00000000 	nop
    75f0:	00000000 	nop
    75f4:	00000000 	nop
    75f8:	00000000 	nop
    75fc:	00000000 	nop
    7600:	00000000 	nop
    7604:	00000000 	nop
    7608:	00000000 	nop
    760c:	00000000 	nop
    7610:	00000000 	nop
    7614:	00000000 	nop
    7618:	00000000 	nop
    761c:	00000000 	nop
    7620:	00000000 	nop
    7624:	00000000 	nop
    7628:	00000000 	nop
    762c:	00000000 	nop
    7630:	00000000 	nop
    7634:	00000000 	nop
    7638:	00000000 	nop
    763c:	00000000 	nop
    7640:	00000000 	nop
    7644:	00000000 	nop
    7648:	00000000 	nop
    764c:	00000000 	nop
    7650:	00000000 	nop
    7654:	00000000 	nop
    7658:	00000000 	nop
    765c:	00000000 	nop
    7660:	00000000 	nop
    7664:	00000000 	nop
    7668:	00000000 	nop
    766c:	00000000 	nop
    7670:	00000000 	nop
    7674:	00000000 	nop
    7678:	00000000 	nop
    767c:	00000000 	nop
    7680:	00000000 	nop
    7684:	00000000 	nop
    7688:	00000000 	nop
    768c:	00000000 	nop
    7690:	00000000 	nop
    7694:	00000000 	nop
    7698:	00000000 	nop
    769c:	00000000 	nop
    76a0:	00000000 	nop
    76a4:	00000000 	nop
    76a8:	00000000 	nop
    76ac:	00000000 	nop
    76b0:	00000000 	nop
    76b4:	00000000 	nop
    76b8:	00000000 	nop
    76bc:	00000000 	nop
    76c0:	00000000 	nop
    76c4:	00000000 	nop
    76c8:	00000000 	nop
    76cc:	00000000 	nop
    76d0:	00000000 	nop
    76d4:	00000000 	nop
    76d8:	00000000 	nop
    76dc:	00000000 	nop
    76e0:	00000000 	nop
    76e4:	00000000 	nop
    76e8:	00000000 	nop
    76ec:	00000000 	nop
    76f0:	00000000 	nop
    76f4:	00000000 	nop
    76f8:	00000000 	nop
    76fc:	00000000 	nop
    7700:	00000000 	nop
    7704:	00000000 	nop
    7708:	00000000 	nop
    770c:	00000000 	nop
    7710:	00000000 	nop
    7714:	00000000 	nop
    7718:	00000000 	nop
    771c:	00000000 	nop
    7720:	00000000 	nop
    7724:	00000000 	nop
    7728:	00000000 	nop
    772c:	00000000 	nop
    7730:	00000000 	nop
    7734:	00000000 	nop
    7738:	00000000 	nop
    773c:	00000000 	nop
    7740:	00000000 	nop
    7744:	00000000 	nop
    7748:	00000000 	nop
    774c:	00000000 	nop
    7750:	00000000 	nop
    7754:	00000000 	nop
    7758:	00000000 	nop
    775c:	00000000 	nop
    7760:	00000000 	nop
    7764:	00000000 	nop
    7768:	00000000 	nop
    776c:	00000000 	nop
    7770:	00000000 	nop
    7774:	00000000 	nop
    7778:	00000000 	nop
    777c:	00000000 	nop
    7780:	00000000 	nop
    7784:	00000000 	nop
    7788:	00000000 	nop
    778c:	00000000 	nop
    7790:	00000000 	nop
    7794:	00000000 	nop
    7798:	00000000 	nop
    779c:	00000000 	nop
    77a0:	00000000 	nop
    77a4:	00000000 	nop
    77a8:	00000000 	nop
    77ac:	00000000 	nop
    77b0:	00000000 	nop
    77b4:	00000000 	nop
    77b8:	00000000 	nop
    77bc:	00000000 	nop
    77c0:	00000000 	nop
    77c4:	00000000 	nop
    77c8:	00000000 	nop
    77cc:	00000000 	nop
    77d0:	00000000 	nop
    77d4:	00000000 	nop
    77d8:	00000000 	nop
    77dc:	00000000 	nop
    77e0:	00000000 	nop
    77e4:	00000000 	nop
    77e8:	00000000 	nop
    77ec:	00000000 	nop
    77f0:	00000000 	nop
    77f4:	00000000 	nop
    77f8:	00000000 	nop
    77fc:	00000000 	nop
    7800:	00000000 	nop
    7804:	00000000 	nop
    7808:	00000000 	nop
    780c:	00000000 	nop
    7810:	00000000 	nop
    7814:	00000000 	nop
    7818:	00000000 	nop
    781c:	00000000 	nop
    7820:	00000000 	nop
    7824:	00000000 	nop
    7828:	00000000 	nop
    782c:	00000000 	nop
    7830:	00000000 	nop
    7834:	00000000 	nop
    7838:	00000000 	nop
    783c:	00000000 	nop
    7840:	00000000 	nop
    7844:	00000000 	nop
    7848:	00000000 	nop
    784c:	00000000 	nop
    7850:	00000000 	nop
    7854:	00000000 	nop
    7858:	00000000 	nop
    785c:	00000000 	nop
    7860:	00000000 	nop
    7864:	00000000 	nop
    7868:	00000000 	nop
    786c:	00000000 	nop
    7870:	00000000 	nop
    7874:	00000000 	nop
    7878:	00000000 	nop
    787c:	00000000 	nop
    7880:	00000000 	nop
    7884:	00000000 	nop
    7888:	00000000 	nop
    788c:	00000000 	nop
    7890:	00000000 	nop
    7894:	00000000 	nop
    7898:	00000000 	nop
    789c:	00000000 	nop
    78a0:	00000000 	nop
    78a4:	00000000 	nop
    78a8:	00000000 	nop
    78ac:	00000000 	nop
    78b0:	00000000 	nop
    78b4:	00000000 	nop
    78b8:	00000000 	nop
    78bc:	00000000 	nop
    78c0:	00000000 	nop
    78c4:	00000000 	nop
    78c8:	00000000 	nop
    78cc:	00000000 	nop
    78d0:	00000000 	nop
    78d4:	00000000 	nop
    78d8:	00000000 	nop
    78dc:	00000000 	nop
    78e0:	00000000 	nop
    78e4:	00000000 	nop
    78e8:	00000000 	nop
    78ec:	00000000 	nop
    78f0:	00000000 	nop
    78f4:	00000000 	nop
    78f8:	00000000 	nop
    78fc:	00000000 	nop
    7900:	00000000 	nop
    7904:	00000000 	nop
    7908:	00000000 	nop
    790c:	00000000 	nop
    7910:	00000000 	nop
    7914:	00000000 	nop
    7918:	00000000 	nop
    791c:	00000000 	nop
    7920:	00000000 	nop
    7924:	00000000 	nop
    7928:	00000000 	nop
    792c:	00000000 	nop
    7930:	00000000 	nop
    7934:	00000000 	nop
    7938:	00000000 	nop
    793c:	00000000 	nop
    7940:	00000000 	nop
    7944:	00000000 	nop
    7948:	00000000 	nop
    794c:	00000000 	nop
    7950:	00000000 	nop
    7954:	00000000 	nop
    7958:	00000000 	nop
    795c:	00000000 	nop
    7960:	00000000 	nop
    7964:	00000000 	nop
    7968:	00000000 	nop
    796c:	00000000 	nop
    7970:	00000000 	nop
    7974:	00000000 	nop
    7978:	00000000 	nop
    797c:	00000000 	nop
    7980:	00000000 	nop
    7984:	00000000 	nop
    7988:	00000000 	nop
    798c:	00000000 	nop
    7990:	00000000 	nop
    7994:	00000000 	nop
    7998:	00000000 	nop
    799c:	00000000 	nop
    79a0:	00000000 	nop
    79a4:	00000000 	nop
    79a8:	00000000 	nop
    79ac:	00000000 	nop
    79b0:	00000000 	nop
    79b4:	00000000 	nop
    79b8:	00000000 	nop
    79bc:	00000000 	nop
    79c0:	00000000 	nop
    79c4:	00000000 	nop
    79c8:	00000000 	nop
    79cc:	00000000 	nop
    79d0:	00000000 	nop
    79d4:	00000000 	nop
    79d8:	00000000 	nop
    79dc:	00000000 	nop
    79e0:	00000000 	nop
    79e4:	00000000 	nop
    79e8:	00000000 	nop
    79ec:	00000000 	nop
    79f0:	00000000 	nop
    79f4:	00000000 	nop
    79f8:	00000000 	nop
    79fc:	00000000 	nop
    7a00:	00000000 	nop
    7a04:	00000000 	nop
    7a08:	00000000 	nop
    7a0c:	00000000 	nop
    7a10:	00000000 	nop
    7a14:	00000000 	nop
    7a18:	00000000 	nop
    7a1c:	00000000 	nop
    7a20:	00000000 	nop
    7a24:	00000000 	nop
    7a28:	00000000 	nop
    7a2c:	00000000 	nop
    7a30:	00000000 	nop
    7a34:	00000000 	nop
    7a38:	00000000 	nop
    7a3c:	00000000 	nop
    7a40:	00000000 	nop
    7a44:	00000000 	nop
    7a48:	00000000 	nop
    7a4c:	00000000 	nop
    7a50:	00000000 	nop
    7a54:	00000000 	nop
    7a58:	00000000 	nop
    7a5c:	00000000 	nop
    7a60:	00000000 	nop
    7a64:	00000000 	nop
    7a68:	00000000 	nop
    7a6c:	00000000 	nop
    7a70:	00000000 	nop
    7a74:	00000000 	nop
    7a78:	00000000 	nop
    7a7c:	00000000 	nop
    7a80:	00000000 	nop
    7a84:	00000000 	nop
    7a88:	00000000 	nop
    7a8c:	00000000 	nop
    7a90:	00000000 	nop
    7a94:	00000000 	nop
    7a98:	00000000 	nop
    7a9c:	00000000 	nop
    7aa0:	00000000 	nop
    7aa4:	00000000 	nop
    7aa8:	00000000 	nop
    7aac:	00000000 	nop
    7ab0:	00000000 	nop
    7ab4:	00000000 	nop
    7ab8:	00000000 	nop
    7abc:	00000000 	nop
    7ac0:	00000000 	nop
    7ac4:	00000000 	nop
    7ac8:	00000000 	nop
    7acc:	00000000 	nop
    7ad0:	00000000 	nop
    7ad4:	00000000 	nop
    7ad8:	00000000 	nop
    7adc:	00000000 	nop
    7ae0:	00000000 	nop
    7ae4:	00000000 	nop
    7ae8:	00000000 	nop
    7aec:	00000000 	nop
    7af0:	00000000 	nop
    7af4:	00000000 	nop
    7af8:	00000000 	nop
    7afc:	00000000 	nop
    7b00:	00000000 	nop
    7b04:	00000000 	nop
    7b08:	00000000 	nop
    7b0c:	00000000 	nop
    7b10:	00000000 	nop
    7b14:	00000000 	nop
    7b18:	00000000 	nop
    7b1c:	00000000 	nop
    7b20:	00000000 	nop
    7b24:	00000000 	nop
    7b28:	00000000 	nop
    7b2c:	00000000 	nop
    7b30:	00000000 	nop
    7b34:	00000000 	nop
    7b38:	00000000 	nop
    7b3c:	00000000 	nop
    7b40:	00000000 	nop
    7b44:	00000000 	nop
    7b48:	00000000 	nop
    7b4c:	00000000 	nop
    7b50:	00000000 	nop
    7b54:	00000000 	nop
    7b58:	00000000 	nop
    7b5c:	00000000 	nop
    7b60:	00000000 	nop
    7b64:	00000000 	nop
    7b68:	00000000 	nop
    7b6c:	00000000 	nop
    7b70:	00000000 	nop
    7b74:	00000000 	nop
    7b78:	00000000 	nop
    7b7c:	00000000 	nop
    7b80:	00000000 	nop
    7b84:	00000000 	nop
    7b88:	00000000 	nop
    7b8c:	00000000 	nop
    7b90:	00000000 	nop
    7b94:	00000000 	nop
    7b98:	00000000 	nop
    7b9c:	00000000 	nop
    7ba0:	00000000 	nop
    7ba4:	00000000 	nop
    7ba8:	00000000 	nop
    7bac:	00000000 	nop
    7bb0:	00000000 	nop
    7bb4:	00000000 	nop
    7bb8:	00000000 	nop
    7bbc:	00000000 	nop
    7bc0:	00000000 	nop
    7bc4:	00000000 	nop
    7bc8:	00000000 	nop
    7bcc:	00000000 	nop
    7bd0:	00000000 	nop
    7bd4:	00000000 	nop
    7bd8:	00000000 	nop
    7bdc:	00000000 	nop
    7be0:	00000000 	nop
    7be4:	00000000 	nop
    7be8:	00000000 	nop
    7bec:	00000000 	nop
    7bf0:	00000000 	nop
    7bf4:	00000000 	nop
    7bf8:	00000000 	nop
    7bfc:	00000000 	nop
    7c00:	00000000 	nop
    7c04:	00000000 	nop
    7c08:	00000000 	nop
    7c0c:	00000000 	nop
    7c10:	00000000 	nop
    7c14:	00000000 	nop
    7c18:	00000000 	nop
    7c1c:	00000000 	nop
    7c20:	00000000 	nop
    7c24:	00000000 	nop
    7c28:	00000000 	nop
    7c2c:	00000000 	nop
    7c30:	00000000 	nop
    7c34:	00000000 	nop
    7c38:	00000000 	nop
    7c3c:	00000000 	nop
    7c40:	00000000 	nop
    7c44:	00000000 	nop
    7c48:	00000000 	nop
    7c4c:	00000000 	nop
    7c50:	00000000 	nop
    7c54:	00000000 	nop
    7c58:	00000000 	nop
    7c5c:	00000000 	nop
    7c60:	00000000 	nop
    7c64:	00000000 	nop
    7c68:	00000000 	nop
    7c6c:	00000000 	nop
    7c70:	00000000 	nop
    7c74:	00000000 	nop
    7c78:	00000000 	nop
    7c7c:	00000000 	nop
    7c80:	00000000 	nop
    7c84:	00000000 	nop
    7c88:	00000000 	nop
    7c8c:	00000000 	nop
    7c90:	00000000 	nop
    7c94:	00000000 	nop
    7c98:	00000000 	nop
    7c9c:	00000000 	nop
    7ca0:	00000000 	nop
    7ca4:	00000000 	nop
    7ca8:	00000000 	nop
    7cac:	00000000 	nop
    7cb0:	00000000 	nop
    7cb4:	00000000 	nop
    7cb8:	00000000 	nop
    7cbc:	00000000 	nop
    7cc0:	00000000 	nop
    7cc4:	00000000 	nop
    7cc8:	00000000 	nop
    7ccc:	00000000 	nop
    7cd0:	00000000 	nop
    7cd4:	00000000 	nop
    7cd8:	00000000 	nop
    7cdc:	00000000 	nop
    7ce0:	00000000 	nop
    7ce4:	00000000 	nop
    7ce8:	00000000 	nop
    7cec:	00000000 	nop
    7cf0:	00000000 	nop
    7cf4:	00000000 	nop
    7cf8:	00000000 	nop
    7cfc:	00000000 	nop
    7d00:	00000000 	nop
    7d04:	00000000 	nop
    7d08:	00000000 	nop
    7d0c:	00000000 	nop
    7d10:	00000000 	nop
    7d14:	00000000 	nop
    7d18:	00000000 	nop
    7d1c:	00000000 	nop
    7d20:	00000000 	nop
    7d24:	00000000 	nop
    7d28:	00000000 	nop
    7d2c:	00000000 	nop
    7d30:	00000000 	nop
    7d34:	00000000 	nop
    7d38:	00000000 	nop
    7d3c:	00000000 	nop
    7d40:	00000000 	nop
    7d44:	00000000 	nop
    7d48:	00000000 	nop
    7d4c:	00000000 	nop
    7d50:	00000000 	nop
    7d54:	00000000 	nop
    7d58:	00000000 	nop
    7d5c:	00000000 	nop
    7d60:	00000000 	nop
    7d64:	00000000 	nop
    7d68:	00000000 	nop
    7d6c:	00000000 	nop
    7d70:	00000000 	nop
    7d74:	00000000 	nop
    7d78:	00000000 	nop
    7d7c:	00000000 	nop
    7d80:	00000000 	nop
    7d84:	00000000 	nop
    7d88:	00000000 	nop
    7d8c:	00000000 	nop
    7d90:	00000000 	nop
    7d94:	00000000 	nop
    7d98:	00000000 	nop
    7d9c:	00000000 	nop
    7da0:	00000000 	nop
    7da4:	00000000 	nop
    7da8:	00000000 	nop
    7dac:	00000000 	nop
    7db0:	00000000 	nop
    7db4:	00000000 	nop
    7db8:	00000000 	nop
    7dbc:	00000000 	nop
    7dc0:	00000000 	nop
    7dc4:	00000000 	nop
    7dc8:	00000000 	nop
    7dcc:	00000000 	nop
    7dd0:	00000000 	nop
    7dd4:	00000000 	nop
    7dd8:	00000000 	nop
    7ddc:	00000000 	nop
    7de0:	00000000 	nop
    7de4:	00000000 	nop
    7de8:	00000000 	nop
    7dec:	00000000 	nop
    7df0:	00000000 	nop
    7df4:	00000000 	nop
    7df8:	00000000 	nop
    7dfc:	00000000 	nop
    7e00:	00000000 	nop
    7e04:	00000000 	nop
    7e08:	00000000 	nop
    7e0c:	00000000 	nop
    7e10:	00000000 	nop
    7e14:	00000000 	nop
    7e18:	00000000 	nop
    7e1c:	00000000 	nop
    7e20:	00000000 	nop
    7e24:	00000000 	nop
    7e28:	00000000 	nop
    7e2c:	00000000 	nop
    7e30:	00000000 	nop
    7e34:	00000000 	nop
    7e38:	00000000 	nop
    7e3c:	00000000 	nop
    7e40:	00000000 	nop
    7e44:	00000000 	nop
    7e48:	00000000 	nop
    7e4c:	00000000 	nop
    7e50:	00000000 	nop
    7e54:	00000000 	nop
    7e58:	00000000 	nop
    7e5c:	00000000 	nop
    7e60:	00000000 	nop
    7e64:	00000000 	nop
    7e68:	00000000 	nop
    7e6c:	00000000 	nop
    7e70:	00000000 	nop
    7e74:	00000000 	nop
    7e78:	00000000 	nop
    7e7c:	00000000 	nop
    7e80:	00000000 	nop
    7e84:	00000000 	nop
    7e88:	00000000 	nop
    7e8c:	00000000 	nop
    7e90:	00000000 	nop
    7e94:	00000000 	nop
    7e98:	00000000 	nop
    7e9c:	00000000 	nop
    7ea0:	00000000 	nop
    7ea4:	00000000 	nop
    7ea8:	00000000 	nop
    7eac:	00000000 	nop
    7eb0:	00000000 	nop
    7eb4:	00000000 	nop
    7eb8:	00000000 	nop
    7ebc:	00000000 	nop
    7ec0:	00000000 	nop
    7ec4:	00000000 	nop
    7ec8:	00000000 	nop
    7ecc:	00000000 	nop
    7ed0:	00000000 	nop
    7ed4:	00000000 	nop
    7ed8:	00000000 	nop
    7edc:	00000000 	nop
    7ee0:	00000000 	nop
    7ee4:	00000000 	nop
    7ee8:	00000000 	nop
    7eec:	00000000 	nop
    7ef0:	00000000 	nop
    7ef4:	00000000 	nop
    7ef8:	00000000 	nop
    7efc:	00000000 	nop
    7f00:	00000000 	nop
    7f04:	00000000 	nop
    7f08:	00000000 	nop
    7f0c:	00000000 	nop
    7f10:	00000000 	nop
    7f14:	00000000 	nop
    7f18:	00000000 	nop
    7f1c:	00000000 	nop
    7f20:	00000000 	nop
    7f24:	00000000 	nop
    7f28:	00000000 	nop
    7f2c:	00000000 	nop
    7f30:	00000000 	nop
    7f34:	00000000 	nop
    7f38:	00000000 	nop
    7f3c:	00000000 	nop
    7f40:	00000000 	nop
    7f44:	00000000 	nop
    7f48:	00000000 	nop
    7f4c:	00000000 	nop
    7f50:	00000000 	nop
    7f54:	00000000 	nop
    7f58:	00000000 	nop
    7f5c:	00000000 	nop
    7f60:	00000000 	nop
    7f64:	00000000 	nop
    7f68:	00000000 	nop
    7f6c:	00000000 	nop
    7f70:	00000000 	nop
    7f74:	00000000 	nop
    7f78:	00000000 	nop
    7f7c:	00000000 	nop
    7f80:	00000000 	nop
    7f84:	00000000 	nop
    7f88:	00000000 	nop
    7f8c:	00000000 	nop
    7f90:	00000000 	nop
    7f94:	00000000 	nop
    7f98:	00000000 	nop
    7f9c:	00000000 	nop
    7fa0:	00000000 	nop
    7fa4:	00000000 	nop
    7fa8:	00000000 	nop
    7fac:	00000000 	nop
    7fb0:	00000000 	nop
    7fb4:	00000000 	nop
    7fb8:	00000000 	nop
    7fbc:	00000000 	nop
    7fc0:	00000000 	nop
    7fc4:	00000000 	nop
    7fc8:	00000000 	nop
    7fcc:	00000000 	nop
    7fd0:	00000000 	nop
    7fd4:	00000000 	nop
    7fd8:	00000000 	nop
    7fdc:	00000000 	nop
    7fe0:	00000000 	nop
    7fe4:	00000000 	nop
    7fe8:	00000000 	nop
    7fec:	00000000 	nop
    7ff0:	00000000 	nop
    7ff4:	00000000 	nop
    7ff8:	00000000 	nop
    7ffc:	00000000 	nop
