
main:     file format elf32-bigmips


Disassembly of section .text:

00000000 <_start>:
       0:	241dffff 	li	sp,-1
       4:	3c028000 	lui	v0,0x8000
       8:	8c42022c 	lw	v0,556(v0)
       c:	00000000 	nop
      10:	0040f809 	jalr	v0
      14:	00000000 	nop
      18:	0c00090e 	jal	2438 <main>
      1c:	00000000 	nop

00000020 <Control::MARG::filterUpdateMARG(float32, float32, float32, float32, float32, float32, float32, float32, float32)>:
      20:	27bdfe80 	addiu	sp,sp,-384
      24:	3c023f00 	lui	v0,0x3f00
      28:	afb70174 	sw	s7,372(sp)
      2c:	afb40168 	sw	s4,360(sp)
      30:	0080b821 	move	s7,a0
      34:	24940024 	addiu	s4,a0,36
      38:	afb30164 	sw	s3,356(sp)
      3c:	afa50184 	sw	a1,388(sp)
      40:	26f30028 	addiu	s3,s7,40
      44:	afa60188 	sw	a2,392(sp)
      48:	afa20094 	sw	v0,148(sp)
      4c:	27a4008c 	addiu	a0,sp,140
      50:	3c024000 	lui	v0,0x4000
      54:	27a50094 	addiu	a1,sp,148
      58:	02803021 	move	a2,s4
      5c:	afbf017c 	sw	ra,380(sp)
      60:	afa7018c 	sw	a3,396(sp)
      64:	afa20090 	sw	v0,144(sp)
      68:	afbe0178 	sw	s8,376(sp)
      6c:	afb60170 	sw	s6,368(sp)
      70:	8fbe019c 	lw	s8,412(sp)
      74:	afb5016c 	sw	s5,364(sp)
      78:	afb20160 	sw	s2,352(sp)
      7c:	afb1015c 	sw	s1,348(sp)
      80:	26f2002c 	addiu	s2,s7,44
      84:	afb00158 	sw	s0,344(sp)
      88:	0c00071d 	jal	1c74 <float32::operator*(float32 const&) const>
      8c:	afa0012c 	sw	zero,300(sp)
      90:	27a40088 	addiu	a0,sp,136
      94:	27a50094 	addiu	a1,sp,148
      98:	02603021 	move	a2,s3
      9c:	0c00071d 	jal	1c74 <float32::operator*(float32 const&) const>
      a0:	26f10030 	addiu	s1,s7,48
      a4:	27a40084 	addiu	a0,sp,132
      a8:	27a50094 	addiu	a1,sp,148
      ac:	0c00071d 	jal	1c74 <float32::operator*(float32 const&) const>
      b0:	02403021 	move	a2,s2
      b4:	27a40080 	addiu	a0,sp,128
      b8:	27a50094 	addiu	a1,sp,148
      bc:	0c00071d 	jal	1c74 <float32::operator*(float32 const&) const>
      c0:	02203021 	move	a2,s1
      c4:	27a4007c 	addiu	a0,sp,124
      c8:	27a50090 	addiu	a1,sp,144
      cc:	0c00071d 	jal	1c74 <float32::operator*(float32 const&) const>
      d0:	02803021 	move	a2,s4
      d4:	27a40078 	addiu	a0,sp,120
      d8:	27a50090 	addiu	a1,sp,144
      dc:	0c00071d 	jal	1c74 <float32::operator*(float32 const&) const>
      e0:	02603021 	move	a2,s3
      e4:	27a40074 	addiu	a0,sp,116
      e8:	27a50090 	addiu	a1,sp,144
      ec:	0c00071d 	jal	1c74 <float32::operator*(float32 const&) const>
      f0:	02403021 	move	a2,s2
      f4:	27a40070 	addiu	a0,sp,112
      f8:	27a50090 	addiu	a1,sp,144
      fc:	0c00071d 	jal	1c74 <float32::operator*(float32 const&) const>
     100:	02203021 	move	a2,s1
     104:	27a4006c 	addiu	a0,sp,108
     108:	27a50090 	addiu	a1,sp,144
     10c:	0c00071d 	jal	1c74 <float32::operator*(float32 const&) const>
     110:	26e60034 	addiu	a2,s7,52
     114:	27a40068 	addiu	a0,sp,104
     118:	27a50090 	addiu	a1,sp,144
     11c:	0c00071d 	jal	1c74 <float32::operator*(float32 const&) const>
     120:	26e60038 	addiu	a2,s7,56
     124:	27a40064 	addiu	a0,sp,100
     128:	27a5006c 	addiu	a1,sp,108
     12c:	0c00071d 	jal	1c74 <float32::operator*(float32 const&) const>
     130:	02803021 	move	a2,s4
     134:	27a40060 	addiu	a0,sp,96
     138:	27a5006c 	addiu	a1,sp,108
     13c:	0c00071d 	jal	1c74 <float32::operator*(float32 const&) const>
     140:	02603021 	move	a2,s3
     144:	27a4005c 	addiu	a0,sp,92
     148:	27a5006c 	addiu	a1,sp,108
     14c:	0c00071d 	jal	1c74 <float32::operator*(float32 const&) const>
     150:	02403021 	move	a2,s2
     154:	27a40058 	addiu	a0,sp,88
     158:	27a5006c 	addiu	a1,sp,108
     15c:	0c00071d 	jal	1c74 <float32::operator*(float32 const&) const>
     160:	02203021 	move	a2,s1
     164:	27a40054 	addiu	a0,sp,84
     168:	27a50068 	addiu	a1,sp,104
     16c:	0c00071d 	jal	1c74 <float32::operator*(float32 const&) const>
     170:	02803021 	move	a2,s4
     174:	27a40050 	addiu	a0,sp,80
     178:	27a50068 	addiu	a1,sp,104
     17c:	0c00071d 	jal	1c74 <float32::operator*(float32 const&) const>
     180:	02603021 	move	a2,s3
     184:	27a4004c 	addiu	a0,sp,76
     188:	27a50068 	addiu	a1,sp,104
     18c:	0c00071d 	jal	1c74 <float32::operator*(float32 const&) const>
     190:	02403021 	move	a2,s2
     194:	27a40048 	addiu	a0,sp,72
     198:	27a50068 	addiu	a1,sp,104
     19c:	0c00071d 	jal	1c74 <float32::operator*(float32 const&) const>
     1a0:	02203021 	move	a2,s1
     1a4:	27a40040 	addiu	a0,sp,64
     1a8:	02802821 	move	a1,s4
     1ac:	0c00071d 	jal	1c74 <float32::operator*(float32 const&) const>
     1b0:	02403021 	move	a2,s2
     1b4:	27a40034 	addiu	a0,sp,52
     1b8:	02602821 	move	a1,s3
     1bc:	0c00071d 	jal	1c74 <float32::operator*(float32 const&) const>
     1c0:	02203021 	move	a2,s1
     1c4:	27a4002c 	addiu	a0,sp,44
     1c8:	27a50090 	addiu	a1,sp,144
     1cc:	0c00071d 	jal	1c74 <float32::operator*(float32 const&) const>
     1d0:	03c03021 	move	a2,s8
     1d4:	8fa601a0 	lw	a2,416(sp)
     1d8:	27a40028 	addiu	a0,sp,40
     1dc:	0c00071d 	jal	1c74 <float32::operator*(float32 const&) const>
     1e0:	27a50090 	addiu	a1,sp,144
     1e4:	8fa601a4 	lw	a2,420(sp)
     1e8:	27a40024 	addiu	a0,sp,36
     1ec:	0c00071d 	jal	1c74 <float32::operator*(float32 const&) const>
     1f0:	27a50090 	addiu	a1,sp,144
     1f4:	8fa50190 	lw	a1,400(sp)
     1f8:	27b50018 	addiu	s5,sp,24
     1fc:	02a02021 	move	a0,s5
     200:	0c00071d 	jal	1c74 <float32::operator*(float32 const&) const>
     204:	00a03021 	move	a2,a1
     208:	8fa50194 	lw	a1,404(sp)
     20c:	27b6001c 	addiu	s6,sp,28
     210:	27a40014 	addiu	a0,sp,20
     214:	0c00071d 	jal	1c74 <float32::operator*(float32 const&) const>
     218:	00a03021 	move	a2,a1
     21c:	02c02021 	move	a0,s6
     220:	02a02821 	move	a1,s5
     224:	0c0006c7 	jal	1b1c <float32::operator+(float32 const&) const>
     228:	27a60014 	addiu	a2,sp,20
     22c:	8fa50198 	lw	a1,408(sp)
     230:	27b00010 	addiu	s0,sp,16
     234:	02002021 	move	a0,s0
     238:	0c00071d 	jal	1c74 <float32::operator*(float32 const&) const>
     23c:	00a03021 	move	a2,a1
     240:	02003021 	move	a2,s0
     244:	27a40020 	addiu	a0,sp,32
     248:	0c0006c7 	jal	1b1c <float32::operator+(float32 const&) const>
     24c:	02c02821 	move	a1,s6
     250:	27a40030 	addiu	a0,sp,48
     254:	0c000777 	jal	1ddc <sqrt(float32 const&)>
     258:	27a50020 	addiu	a1,sp,32
     25c:	8fa20030 	lw	v0,48(sp)
     260:	8fa40190 	lw	a0,400(sp)
     264:	27a50130 	addiu	a1,sp,304
     268:	0c0006a0 	jal	1a80 <float32::operator/=(float32 const&)>
     26c:	afa20130 	sw	v0,304(sp)
     270:	8fa40194 	lw	a0,404(sp)
     274:	0c0006a0 	jal	1a80 <float32::operator/=(float32 const&)>
     278:	27a50130 	addiu	a1,sp,304
     27c:	8fa40198 	lw	a0,408(sp)
     280:	0c0006a0 	jal	1a80 <float32::operator/=(float32 const&)>
     284:	27a50130 	addiu	a1,sp,304
     288:	02a02021 	move	a0,s5
     28c:	03c02821 	move	a1,s8
     290:	0c00071d 	jal	1c74 <float32::operator*(float32 const&) const>
     294:	03c03021 	move	a2,s8
     298:	8fa501a0 	lw	a1,416(sp)
     29c:	27a40014 	addiu	a0,sp,20
     2a0:	0c00071d 	jal	1c74 <float32::operator*(float32 const&) const>
     2a4:	00a03021 	move	a2,a1
     2a8:	02c02021 	move	a0,s6
     2ac:	02a02821 	move	a1,s5
     2b0:	0c0006c7 	jal	1b1c <float32::operator+(float32 const&) const>
     2b4:	27a60014 	addiu	a2,sp,20
     2b8:	8fa501a4 	lw	a1,420(sp)
     2bc:	02002021 	move	a0,s0
     2c0:	0c00071d 	jal	1c74 <float32::operator*(float32 const&) const>
     2c4:	00a03021 	move	a2,a1
     2c8:	02003021 	move	a2,s0
     2cc:	27a40020 	addiu	a0,sp,32
     2d0:	0c0006c7 	jal	1b1c <float32::operator+(float32 const&) const>
     2d4:	02c02821 	move	a1,s6
     2d8:	27a40030 	addiu	a0,sp,48
     2dc:	0c000777 	jal	1ddc <sqrt(float32 const&)>
     2e0:	27a50020 	addiu	a1,sp,32
     2e4:	8fa20030 	lw	v0,48(sp)
     2e8:	03c02021 	move	a0,s8
     2ec:	27a50130 	addiu	a1,sp,304
     2f0:	0c0006a0 	jal	1a80 <float32::operator/=(float32 const&)>
     2f4:	afa20130 	sw	v0,304(sp)
     2f8:	8fa401a0 	lw	a0,416(sp)
     2fc:	0c0006a0 	jal	1a80 <float32::operator/=(float32 const&)>
     300:	27a50130 	addiu	a1,sp,304
     304:	8fa401a4 	lw	a0,420(sp)
     308:	0c0006a0 	jal	1a80 <float32::operator/=(float32 const&)>
     30c:	27a50130 	addiu	a1,sp,304
     310:	27a40020 	addiu	a0,sp,32
     314:	02402821 	move	a1,s2
     318:	0c00071d 	jal	1c74 <float32::operator*(float32 const&) const>
     31c:	02403021 	move	a2,s2
     320:	02002021 	move	a0,s0
     324:	27a50078 	addiu	a1,sp,120
     328:	0c00071d 	jal	1c74 <float32::operator*(float32 const&) const>
     32c:	02203021 	move	a2,s1
     330:	8fa20010 	lw	v0,16(sp)
     334:	02403021 	move	a2,s2
     338:	02002021 	move	a0,s0
     33c:	27a5007c 	addiu	a1,sp,124
     340:	0c00071d 	jal	1c74 <float32::operator*(float32 const&) const>
     344:	afa2011c 	sw	v0,284(sp)
     348:	27a4011c 	addiu	a0,sp,284
     34c:	0c00070d 	jal	1c34 <float32::operator-=(float32 const&)>
     350:	02002821 	move	a1,s0
     354:	8fa50190 	lw	a1,400(sp)
     358:	0c00070d 	jal	1c34 <float32::operator-=(float32 const&)>
     35c:	27a4011c 	addiu	a0,sp,284
     360:	02002021 	move	a0,s0
     364:	27a5007c 	addiu	a1,sp,124
     368:	0c00071d 	jal	1c74 <float32::operator*(float32 const&) const>
     36c:	02603021 	move	a2,s3
     370:	8fa20010 	lw	v0,16(sp)
     374:	02203021 	move	a2,s1
     378:	02002021 	move	a0,s0
     37c:	27a50074 	addiu	a1,sp,116
     380:	0c00071d 	jal	1c74 <float32::operator*(float32 const&) const>
     384:	afa20118 	sw	v0,280(sp)
     388:	27a40118 	addiu	a0,sp,280
     38c:	0c0006e2 	jal	1b88 <float32::operator+=(float32 const&)>
     390:	02002821 	move	a1,s0
     394:	8fa50194 	lw	a1,404(sp)
     398:	0c00070d 	jal	1c34 <float32::operator-=(float32 const&)>
     39c:	27a40118 	addiu	a0,sp,280
     3a0:	02603021 	move	a2,s3
     3a4:	3c023f80 	lui	v0,0x3f80
     3a8:	02002021 	move	a0,s0
     3ac:	27a50078 	addiu	a1,sp,120
     3b0:	0c00071d 	jal	1c74 <float32::operator*(float32 const&) const>
     3b4:	afa20114 	sw	v0,276(sp)
     3b8:	27a40114 	addiu	a0,sp,276
     3bc:	0c00070d 	jal	1c34 <float32::operator-=(float32 const&)>
     3c0:	02002821 	move	a1,s0
     3c4:	02403021 	move	a2,s2
     3c8:	02002021 	move	a0,s0
     3cc:	0c00071d 	jal	1c74 <float32::operator*(float32 const&) const>
     3d0:	27a50074 	addiu	a1,sp,116
     3d4:	27a40114 	addiu	a0,sp,276
     3d8:	0c00070d 	jal	1c34 <float32::operator-=(float32 const&)>
     3dc:	02002821 	move	a1,s0
     3e0:	8fa50198 	lw	a1,408(sp)
     3e4:	0c00070d 	jal	1c34 <float32::operator-=(float32 const&)>
     3e8:	27a40114 	addiu	a0,sp,276
     3ec:	27a40014 	addiu	a0,sp,20
     3f0:	27a50094 	addiu	a1,sp,148
     3f4:	0c0006f2 	jal	1bc8 <float32::operator-(float32 const&) const>
     3f8:	27a60020 	addiu	a2,sp,32
     3fc:	02002021 	move	a0,s0
     400:	02202821 	move	a1,s1
     404:	0c00071d 	jal	1c74 <float32::operator*(float32 const&) const>
     408:	02203021 	move	a2,s1
     40c:	02a02021 	move	a0,s5
     410:	27a50014 	addiu	a1,sp,20
     414:	0c0006f2 	jal	1bc8 <float32::operator-(float32 const&) const>
     418:	02003021 	move	a2,s0
     41c:	02c02021 	move	a0,s6
     420:	27a5006c 	addiu	a1,sp,108
     424:	0c00071d 	jal	1c74 <float32::operator*(float32 const&) const>
     428:	02a03021 	move	a2,s5
     42c:	8fa2001c 	lw	v0,28(sp)
     430:	02002021 	move	a0,s0
     434:	27a50034 	addiu	a1,sp,52
     438:	27a60040 	addiu	a2,sp,64
     43c:	0c0006f2 	jal	1bc8 <float32::operator-(float32 const&) const>
     440:	afa20110 	sw	v0,272(sp)
     444:	02003021 	move	a2,s0
     448:	27a40014 	addiu	a0,sp,20
     44c:	0c00071d 	jal	1c74 <float32::operator*(float32 const&) const>
     450:	27a50068 	addiu	a1,sp,104
     454:	27a40110 	addiu	a0,sp,272
     458:	0c0006e2 	jal	1b88 <float32::operator+=(float32 const&)>
     45c:	27a50014 	addiu	a1,sp,20
     460:	27a40110 	addiu	a0,sp,272
     464:	0c00070d 	jal	1c34 <float32::operator-=(float32 const&)>
     468:	03c02821 	move	a1,s8
     46c:	27a40014 	addiu	a0,sp,20
     470:	02602821 	move	a1,s3
     474:	0c00071d 	jal	1c74 <float32::operator*(float32 const&) const>
     478:	02403021 	move	a2,s2
     47c:	02002021 	move	a0,s0
     480:	02802821 	move	a1,s4
     484:	0c00071d 	jal	1c74 <float32::operator*(float32 const&) const>
     488:	02203021 	move	a2,s1
     48c:	02a02021 	move	a0,s5
     490:	27a50014 	addiu	a1,sp,20
     494:	0c0006f2 	jal	1bc8 <float32::operator-(float32 const&) const>
     498:	02003021 	move	a2,s0
     49c:	02c02021 	move	a0,s6
     4a0:	27a5006c 	addiu	a1,sp,108
     4a4:	0c00071d 	jal	1c74 <float32::operator*(float32 const&) const>
     4a8:	02a03021 	move	a2,s5
     4ac:	8fa2001c 	lw	v0,28(sp)
     4b0:	27a40014 	addiu	a0,sp,20
     4b4:	02802821 	move	a1,s4
     4b8:	02603021 	move	a2,s3
     4bc:	0c00071d 	jal	1c74 <float32::operator*(float32 const&) const>
     4c0:	afa2010c 	sw	v0,268(sp)
     4c4:	02002021 	move	a0,s0
     4c8:	02402821 	move	a1,s2
     4cc:	0c00071d 	jal	1c74 <float32::operator*(float32 const&) const>
     4d0:	02203021 	move	a2,s1
     4d4:	02a02021 	move	a0,s5
     4d8:	27a50014 	addiu	a1,sp,20
     4dc:	0c0006c7 	jal	1b1c <float32::operator+(float32 const&) const>
     4e0:	02003021 	move	a2,s0
     4e4:	02a03021 	move	a2,s5
     4e8:	02c02021 	move	a0,s6
     4ec:	0c00071d 	jal	1c74 <float32::operator*(float32 const&) const>
     4f0:	27a50068 	addiu	a1,sp,104
     4f4:	27a4010c 	addiu	a0,sp,268
     4f8:	0c0006e2 	jal	1b88 <float32::operator+=(float32 const&)>
     4fc:	02c02821 	move	a1,s6
     500:	8fa501a0 	lw	a1,416(sp)
     504:	0c00070d 	jal	1c34 <float32::operator-=(float32 const&)>
     508:	27a4010c 	addiu	a0,sp,268
     50c:	02002021 	move	a0,s0
     510:	27a50040 	addiu	a1,sp,64
     514:	0c0006c7 	jal	1b1c <float32::operator+(float32 const&) const>
     518:	27a60034 	addiu	a2,sp,52
     51c:	27a40014 	addiu	a0,sp,20
     520:	27a5006c 	addiu	a1,sp,108
     524:	0c00071d 	jal	1c74 <float32::operator*(float32 const&) const>
     528:	02003021 	move	a2,s0
     52c:	8fa20014 	lw	v0,20(sp)
     530:	02002021 	move	a0,s0
     534:	02602821 	move	a1,s3
     538:	02603021 	move	a2,s3
     53c:	0c00071d 	jal	1c74 <float32::operator*(float32 const&) const>
     540:	afa20108 	sw	v0,264(sp)
     544:	27a40014 	addiu	a0,sp,20
     548:	27a50094 	addiu	a1,sp,148
     54c:	0c0006f2 	jal	1bc8 <float32::operator-(float32 const&) const>
     550:	02003021 	move	a2,s0
     554:	02a02021 	move	a0,s5
     558:	27a50014 	addiu	a1,sp,20
     55c:	0c0006f2 	jal	1bc8 <float32::operator-(float32 const&) const>
     560:	27a60020 	addiu	a2,sp,32
     564:	02a03021 	move	a2,s5
     568:	02c02021 	move	a0,s6
     56c:	0c00071d 	jal	1c74 <float32::operator*(float32 const&) const>
     570:	27a50068 	addiu	a1,sp,104
     574:	27a40108 	addiu	a0,sp,264
     578:	0c0006e2 	jal	1b88 <float32::operator+=(float32 const&)>
     57c:	02c02821 	move	a1,s6
     580:	8fa501a4 	lw	a1,420(sp)
     584:	0c00070d 	jal	1c34 <float32::operator-=(float32 const&)>
     588:	27a40108 	addiu	a0,sp,264
     58c:	8fa20074 	lw	v0,116(sp)
     590:	02002021 	move	a0,s0
     594:	27a50090 	addiu	a1,sp,144
     598:	02203021 	move	a2,s1
     59c:	0c00071d 	jal	1c74 <float32::operator*(float32 const&) const>
     5a0:	afa20104 	sw	v0,260(sp)
     5a4:	8fa20010 	lw	v0,16(sp)
     5a8:	02002021 	move	a0,s0
     5ac:	afa20100 	sw	v0,256(sp)
     5b0:	8fa2007c 	lw	v0,124(sp)
     5b4:	27a50090 	addiu	a1,sp,144
     5b8:	afa200fc 	sw	v0,252(sp)
     5bc:	8fa20078 	lw	v0,120(sp)
     5c0:	27a600f8 	addiu	a2,sp,248
     5c4:	0c00071d 	jal	1c74 <float32::operator*(float32 const&) const>
     5c8:	afa200f8 	sw	v0,248(sp)
     5cc:	8fa20010 	lw	v0,16(sp)
     5d0:	02002021 	move	a0,s0
     5d4:	27a50090 	addiu	a1,sp,144
     5d8:	27a60104 	addiu	a2,sp,260
     5dc:	0c00071d 	jal	1c74 <float32::operator*(float32 const&) const>
     5e0:	afa200f4 	sw	v0,244(sp)
     5e4:	8fa20010 	lw	v0,16(sp)
     5e8:	27a6005c 	addiu	a2,sp,92
     5ec:	afa200f0 	sw	v0,240(sp)
     5f0:	8fa2004c 	lw	v0,76(sp)
     5f4:	02002021 	move	a0,s0
     5f8:	afa200ec 	sw	v0,236(sp)
     5fc:	8fa20048 	lw	v0,72(sp)
     600:	27a50090 	addiu	a1,sp,144
     604:	0c00071d 	jal	1c74 <float32::operator*(float32 const&) const>
     608:	afa200e8 	sw	v0,232(sp)
     60c:	8fa20010 	lw	v0,16(sp)
     610:	27a400e4 	addiu	a0,sp,228
     614:	27a50054 	addiu	a1,sp,84
     618:	0c0006e2 	jal	1b88 <float32::operator+=(float32 const&)>
     61c:	afa200e4 	sw	v0,228(sp)
     620:	27a60058 	addiu	a2,sp,88
     624:	02002021 	move	a0,s0
     628:	0c00071d 	jal	1c74 <float32::operator*(float32 const&) const>
     62c:	27a50090 	addiu	a1,sp,144
     630:	8fa20010 	lw	v0,16(sp)
     634:	27a400e0 	addiu	a0,sp,224
     638:	27a50050 	addiu	a1,sp,80
     63c:	0c00070d 	jal	1c34 <float32::operator-=(float32 const&)>
     640:	afa200e0 	sw	v0,224(sp)
     644:	02002021 	move	a0,s0
     648:	27a50058 	addiu	a1,sp,88
     64c:	0c0006f2 	jal	1bc8 <float32::operator-(float32 const&) const>
     650:	27a60050 	addiu	a2,sp,80
     654:	8fa20010 	lw	v0,16(sp)
     658:	02002021 	move	a0,s0
     65c:	27a5005c 	addiu	a1,sp,92
     660:	27a60054 	addiu	a2,sp,84
     664:	0c0006c7 	jal	1b1c <float32::operator+(float32 const&) const>
     668:	afa200dc 	sw	v0,220(sp)
     66c:	8fa20010 	lw	v0,16(sp)
     670:	02002021 	move	a0,s0
     674:	27a50060 	addiu	a1,sp,96
     678:	27a60048 	addiu	a2,sp,72
     67c:	0c0006c7 	jal	1b1c <float32::operator+(float32 const&) const>
     680:	afa200d8 	sw	v0,216(sp)
     684:	8fa20010 	lw	v0,16(sp)
     688:	02002021 	move	a0,s0
     68c:	27a50064 	addiu	a1,sp,100
     690:	27a6004c 	addiu	a2,sp,76
     694:	0c0006f2 	jal	1bc8 <float32::operator-(float32 const&) const>
     698:	afa200d4 	sw	v0,212(sp)
     69c:	8fa20010 	lw	v0,16(sp)
     6a0:	27a60050 	addiu	a2,sp,80
     6a4:	afa200d0 	sw	v0,208(sp)
     6a8:	8fa2005c 	lw	v0,92(sp)
     6ac:	02002021 	move	a0,s0
     6b0:	afa200cc 	sw	v0,204(sp)
     6b4:	8fa20058 	lw	v0,88(sp)
     6b8:	27a50090 	addiu	a1,sp,144
     6bc:	0c00071d 	jal	1c74 <float32::operator*(float32 const&) const>
     6c0:	afa200c8 	sw	v0,200(sp)
     6c4:	27a400c8 	addiu	a0,sp,200
     6c8:	0c00070d 	jal	1c34 <float32::operator-=(float32 const&)>
     6cc:	02002821 	move	a1,s0
     6d0:	8fa20064 	lw	v0,100(sp)
     6d4:	27a6004c 	addiu	a2,sp,76
     6d8:	02002021 	move	a0,s0
     6dc:	27a50090 	addiu	a1,sp,144
     6e0:	0c00071d 	jal	1c74 <float32::operator*(float32 const&) const>
     6e4:	afa200c4 	sw	v0,196(sp)
     6e8:	27a400c4 	addiu	a0,sp,196
     6ec:	0c00070d 	jal	1c34 <float32::operator-=(float32 const&)>
     6f0:	02002821 	move	a1,s0
     6f4:	8fa20060 	lw	v0,96(sp)
     6f8:	02002021 	move	a0,s0
     6fc:	27a500f8 	addiu	a1,sp,248
     700:	27a60118 	addiu	a2,sp,280
     704:	0c00071d 	jal	1c74 <float32::operator*(float32 const&) const>
     708:	afa200c0 	sw	v0,192(sp)
     70c:	8fa20010 	lw	v0,16(sp)
     710:	27a6011c 	addiu	a2,sp,284
     714:	02002021 	move	a0,s0
     718:	27a50104 	addiu	a1,sp,260
     71c:	0c00071d 	jal	1c74 <float32::operator*(float32 const&) const>
     720:	afa200bc 	sw	v0,188(sp)
     724:	27a400bc 	addiu	a0,sp,188
     728:	0c00070d 	jal	1c34 <float32::operator-=(float32 const&)>
     72c:	02002821 	move	a1,s0
     730:	27a60110 	addiu	a2,sp,272
     734:	02002021 	move	a0,s0
     738:	0c00071d 	jal	1c74 <float32::operator*(float32 const&) const>
     73c:	27a500ec 	addiu	a1,sp,236
     740:	27a400bc 	addiu	a0,sp,188
     744:	0c00070d 	jal	1c34 <float32::operator-=(float32 const&)>
     748:	02002821 	move	a1,s0
     74c:	27a6010c 	addiu	a2,sp,268
     750:	02002021 	move	a0,s0
     754:	0c00071d 	jal	1c74 <float32::operator*(float32 const&) const>
     758:	27a500dc 	addiu	a1,sp,220
     75c:	27a400bc 	addiu	a0,sp,188
     760:	0c00070d 	jal	1c34 <float32::operator-=(float32 const&)>
     764:	02002821 	move	a1,s0
     768:	27a60108 	addiu	a2,sp,264
     76c:	02002021 	move	a0,s0
     770:	0c00071d 	jal	1c74 <float32::operator*(float32 const&) const>
     774:	27a500cc 	addiu	a1,sp,204
     778:	27a400bc 	addiu	a0,sp,188
     77c:	0c0006e2 	jal	1b88 <float32::operator+=(float32 const&)>
     780:	02002821 	move	a1,s0
     784:	02002021 	move	a0,s0
     788:	27a50100 	addiu	a1,sp,256
     78c:	0c00071d 	jal	1c74 <float32::operator*(float32 const&) const>
     790:	27a6011c 	addiu	a2,sp,284
     794:	8fa20010 	lw	v0,16(sp)
     798:	27a60118 	addiu	a2,sp,280
     79c:	02002021 	move	a0,s0
     7a0:	27a500fc 	addiu	a1,sp,252
     7a4:	0c00071d 	jal	1c74 <float32::operator*(float32 const&) const>
     7a8:	afa200b8 	sw	v0,184(sp)
     7ac:	27a400b8 	addiu	a0,sp,184
     7b0:	0c0006e2 	jal	1b88 <float32::operator+=(float32 const&)>
     7b4:	02002821 	move	a1,s0
     7b8:	27a60114 	addiu	a2,sp,276
     7bc:	02002021 	move	a0,s0
     7c0:	0c00071d 	jal	1c74 <float32::operator*(float32 const&) const>
     7c4:	27a500f4 	addiu	a1,sp,244
     7c8:	27a400b8 	addiu	a0,sp,184
     7cc:	0c00070d 	jal	1c34 <float32::operator-=(float32 const&)>
     7d0:	02002821 	move	a1,s0
     7d4:	27a60110 	addiu	a2,sp,272
     7d8:	02002021 	move	a0,s0
     7dc:	0c00071d 	jal	1c74 <float32::operator*(float32 const&) const>
     7e0:	27a500e8 	addiu	a1,sp,232
     7e4:	27a400b8 	addiu	a0,sp,184
     7e8:	0c0006e2 	jal	1b88 <float32::operator+=(float32 const&)>
     7ec:	02002821 	move	a1,s0
     7f0:	27a6010c 	addiu	a2,sp,268
     7f4:	02002021 	move	a0,s0
     7f8:	0c00071d 	jal	1c74 <float32::operator*(float32 const&) const>
     7fc:	27a500d8 	addiu	a1,sp,216
     800:	27a400b8 	addiu	a0,sp,184
     804:	0c0006e2 	jal	1b88 <float32::operator+=(float32 const&)>
     808:	02002821 	move	a1,s0
     80c:	27a60108 	addiu	a2,sp,264
     810:	02002021 	move	a0,s0
     814:	0c00071d 	jal	1c74 <float32::operator*(float32 const&) const>
     818:	27a500c8 	addiu	a1,sp,200
     81c:	27a400b8 	addiu	a0,sp,184
     820:	0c0006e2 	jal	1b88 <float32::operator+=(float32 const&)>
     824:	02002821 	move	a1,s0
     828:	02002021 	move	a0,s0
     82c:	27a50100 	addiu	a1,sp,256
     830:	0c00071d 	jal	1c74 <float32::operator*(float32 const&) const>
     834:	27a60118 	addiu	a2,sp,280
     838:	8fa20010 	lw	v0,16(sp)
     83c:	27a60114 	addiu	a2,sp,276
     840:	02002021 	move	a0,s0
     844:	27a500f0 	addiu	a1,sp,240
     848:	0c00071d 	jal	1c74 <float32::operator*(float32 const&) const>
     84c:	afa200b4 	sw	v0,180(sp)
     850:	27a400b4 	addiu	a0,sp,180
     854:	0c00070d 	jal	1c34 <float32::operator-=(float32 const&)>
     858:	02002821 	move	a1,s0
     85c:	27a6011c 	addiu	a2,sp,284
     860:	02002021 	move	a0,s0
     864:	0c00071d 	jal	1c74 <float32::operator*(float32 const&) const>
     868:	27a500fc 	addiu	a1,sp,252
     86c:	27a400b4 	addiu	a0,sp,180
     870:	0c00070d 	jal	1c34 <float32::operator-=(float32 const&)>
     874:	02002821 	move	a1,s0
     878:	27a60110 	addiu	a2,sp,272
     87c:	02002021 	move	a0,s0
     880:	0c00071d 	jal	1c74 <float32::operator*(float32 const&) const>
     884:	27a500e4 	addiu	a1,sp,228
     888:	27a400b4 	addiu	a0,sp,180
     88c:	0c00070d 	jal	1c34 <float32::operator-=(float32 const&)>
     890:	02002821 	move	a1,s0
     894:	27a6010c 	addiu	a2,sp,268
     898:	02002021 	move	a0,s0
     89c:	0c00071d 	jal	1c74 <float32::operator*(float32 const&) const>
     8a0:	27a500d4 	addiu	a1,sp,212
     8a4:	27a400b4 	addiu	a0,sp,180
     8a8:	0c0006e2 	jal	1b88 <float32::operator+=(float32 const&)>
     8ac:	02002821 	move	a1,s0
     8b0:	27a60108 	addiu	a2,sp,264
     8b4:	02002021 	move	a0,s0
     8b8:	0c00071d 	jal	1c74 <float32::operator*(float32 const&) const>
     8bc:	27a500c4 	addiu	a1,sp,196
     8c0:	27a400b4 	addiu	a0,sp,180
     8c4:	0c0006e2 	jal	1b88 <float32::operator+=(float32 const&)>
     8c8:	02002821 	move	a1,s0
     8cc:	02002021 	move	a0,s0
     8d0:	27a500f8 	addiu	a1,sp,248
     8d4:	0c00071d 	jal	1c74 <float32::operator*(float32 const&) const>
     8d8:	27a6011c 	addiu	a2,sp,284
     8dc:	8fa20010 	lw	v0,16(sp)
     8e0:	27a60118 	addiu	a2,sp,280
     8e4:	02002021 	move	a0,s0
     8e8:	27a50104 	addiu	a1,sp,260
     8ec:	0c00071d 	jal	1c74 <float32::operator*(float32 const&) const>
     8f0:	afa200b0 	sw	v0,176(sp)
     8f4:	27a400b0 	addiu	a0,sp,176
     8f8:	0c0006e2 	jal	1b88 <float32::operator+=(float32 const&)>
     8fc:	02002821 	move	a1,s0
     900:	27a60110 	addiu	a2,sp,272
     904:	02002021 	move	a0,s0
     908:	0c00071d 	jal	1c74 <float32::operator*(float32 const&) const>
     90c:	27a500e0 	addiu	a1,sp,224
     910:	27a400b0 	addiu	a0,sp,176
     914:	0c00070d 	jal	1c34 <float32::operator-=(float32 const&)>
     918:	02002821 	move	a1,s0
     91c:	27a6010c 	addiu	a2,sp,268
     920:	02002021 	move	a0,s0
     924:	0c00071d 	jal	1c74 <float32::operator*(float32 const&) const>
     928:	27a500d0 	addiu	a1,sp,208
     92c:	27a400b0 	addiu	a0,sp,176
     930:	0c00070d 	jal	1c34 <float32::operator-=(float32 const&)>
     934:	02002821 	move	a1,s0
     938:	27a60108 	addiu	a2,sp,264
     93c:	02002021 	move	a0,s0
     940:	0c00071d 	jal	1c74 <float32::operator*(float32 const&) const>
     944:	27a500c0 	addiu	a1,sp,192
     948:	27a400b0 	addiu	a0,sp,176
     94c:	0c0006e2 	jal	1b88 <float32::operator+=(float32 const&)>
     950:	02002821 	move	a1,s0
     954:	27a500bc 	addiu	a1,sp,188
     958:	27a40014 	addiu	a0,sp,20
     95c:	0c00071d 	jal	1c74 <float32::operator*(float32 const&) const>
     960:	00a03021 	move	a2,a1
     964:	27a500b8 	addiu	a1,sp,184
     968:	00a03021 	move	a2,a1
     96c:	0c00071d 	jal	1c74 <float32::operator*(float32 const&) const>
     970:	02002021 	move	a0,s0
     974:	27a40014 	addiu	a0,sp,20
     978:	0c0006e2 	jal	1b88 <float32::operator+=(float32 const&)>
     97c:	02002821 	move	a1,s0
     980:	27a500b4 	addiu	a1,sp,180
     984:	00a03021 	move	a2,a1
     988:	0c00071d 	jal	1c74 <float32::operator*(float32 const&) const>
     98c:	02002021 	move	a0,s0
     990:	27a40014 	addiu	a0,sp,20
     994:	0c0006e2 	jal	1b88 <float32::operator+=(float32 const&)>
     998:	02002821 	move	a1,s0
     99c:	27a500b0 	addiu	a1,sp,176
     9a0:	00a03021 	move	a2,a1
     9a4:	0c00071d 	jal	1c74 <float32::operator*(float32 const&) const>
     9a8:	02002021 	move	a0,s0
     9ac:	27a40014 	addiu	a0,sp,20
     9b0:	0c0006e2 	jal	1b88 <float32::operator+=(float32 const&)>
     9b4:	02002821 	move	a1,s0
     9b8:	02002021 	move	a0,s0
     9bc:	0c000777 	jal	1ddc <sqrt(float32 const&)>
     9c0:	27a50014 	addiu	a1,sp,20
     9c4:	8fa20010 	lw	v0,16(sp)
     9c8:	02002021 	move	a0,s0
     9cc:	27a500bc 	addiu	a1,sp,188
     9d0:	27a60130 	addiu	a2,sp,304
     9d4:	0c0005ef 	jal	17bc <float32::operator/(float32 const&) const>
     9d8:	afa20130 	sw	v0,304(sp)
     9dc:	8fa20010 	lw	v0,16(sp)
     9e0:	02002021 	move	a0,s0
     9e4:	27a500b8 	addiu	a1,sp,184
     9e8:	27a60130 	addiu	a2,sp,304
     9ec:	0c0005ef 	jal	17bc <float32::operator/(float32 const&) const>
     9f0:	afa200bc 	sw	v0,188(sp)
     9f4:	8fa20010 	lw	v0,16(sp)
     9f8:	02002021 	move	a0,s0
     9fc:	27a500b4 	addiu	a1,sp,180
     a00:	27a60130 	addiu	a2,sp,304
     a04:	0c0005ef 	jal	17bc <float32::operator/(float32 const&) const>
     a08:	afa200b8 	sw	v0,184(sp)
     a0c:	8fa20010 	lw	v0,16(sp)
     a10:	02002021 	move	a0,s0
     a14:	27a500b0 	addiu	a1,sp,176
     a18:	27a60130 	addiu	a2,sp,304
     a1c:	0c0005ef 	jal	17bc <float32::operator/(float32 const&) const>
     a20:	afa200b4 	sw	v0,180(sp)
     a24:	8fa20010 	lw	v0,16(sp)
     a28:	02002021 	move	a0,s0
     a2c:	27a5007c 	addiu	a1,sp,124
     a30:	27a600b8 	addiu	a2,sp,184
     a34:	0c00071d 	jal	1c74 <float32::operator*(float32 const&) const>
     a38:	afa200b0 	sw	v0,176(sp)
     a3c:	8fa20010 	lw	v0,16(sp)
     a40:	27a600bc 	addiu	a2,sp,188
     a44:	02002021 	move	a0,s0
     a48:	27a50078 	addiu	a1,sp,120
     a4c:	0c00071d 	jal	1c74 <float32::operator*(float32 const&) const>
     a50:	afa200ac 	sw	v0,172(sp)
     a54:	27a400ac 	addiu	a0,sp,172
     a58:	0c00070d 	jal	1c34 <float32::operator-=(float32 const&)>
     a5c:	02002821 	move	a1,s0
     a60:	27a600b0 	addiu	a2,sp,176
     a64:	02002021 	move	a0,s0
     a68:	0c00071d 	jal	1c74 <float32::operator*(float32 const&) const>
     a6c:	27a50074 	addiu	a1,sp,116
     a70:	27a400ac 	addiu	a0,sp,172
     a74:	0c00070d 	jal	1c34 <float32::operator-=(float32 const&)>
     a78:	02002821 	move	a1,s0
     a7c:	27a600b4 	addiu	a2,sp,180
     a80:	02002021 	move	a0,s0
     a84:	0c00071d 	jal	1c74 <float32::operator*(float32 const&) const>
     a88:	27a50070 	addiu	a1,sp,112
     a8c:	27a400ac 	addiu	a0,sp,172
     a90:	0c0006e2 	jal	1b88 <float32::operator+=(float32 const&)>
     a94:	02002821 	move	a1,s0
     a98:	02002021 	move	a0,s0
     a9c:	27a5007c 	addiu	a1,sp,124
     aa0:	0c00071d 	jal	1c74 <float32::operator*(float32 const&) const>
     aa4:	27a600b4 	addiu	a2,sp,180
     aa8:	8fa20010 	lw	v0,16(sp)
     aac:	27a600b0 	addiu	a2,sp,176
     ab0:	02002021 	move	a0,s0
     ab4:	27a50078 	addiu	a1,sp,120
     ab8:	0c00071d 	jal	1c74 <float32::operator*(float32 const&) const>
     abc:	afa200a8 	sw	v0,168(sp)
     ac0:	27a400a8 	addiu	a0,sp,168
     ac4:	0c0006e2 	jal	1b88 <float32::operator+=(float32 const&)>
     ac8:	02002821 	move	a1,s0
     acc:	27a600bc 	addiu	a2,sp,188
     ad0:	02002021 	move	a0,s0
     ad4:	0c00071d 	jal	1c74 <float32::operator*(float32 const&) const>
     ad8:	27a50074 	addiu	a1,sp,116
     adc:	27a400a8 	addiu	a0,sp,168
     ae0:	0c00070d 	jal	1c34 <float32::operator-=(float32 const&)>
     ae4:	02002821 	move	a1,s0
     ae8:	27a600b8 	addiu	a2,sp,184
     aec:	02002021 	move	a0,s0
     af0:	0c00071d 	jal	1c74 <float32::operator*(float32 const&) const>
     af4:	27a50070 	addiu	a1,sp,112
     af8:	27a400a8 	addiu	a0,sp,168
     afc:	0c00070d 	jal	1c34 <float32::operator-=(float32 const&)>
     b00:	02002821 	move	a1,s0
     b04:	02002021 	move	a0,s0
     b08:	27a5007c 	addiu	a1,sp,124
     b0c:	0c00071d 	jal	1c74 <float32::operator*(float32 const&) const>
     b10:	27a600b0 	addiu	a2,sp,176
     b14:	8fa20010 	lw	v0,16(sp)
     b18:	27a600b4 	addiu	a2,sp,180
     b1c:	02002021 	move	a0,s0
     b20:	27a50078 	addiu	a1,sp,120
     b24:	0c00071d 	jal	1c74 <float32::operator*(float32 const&) const>
     b28:	afa200a4 	sw	v0,164(sp)
     b2c:	27a400a4 	addiu	a0,sp,164
     b30:	0c00070d 	jal	1c34 <float32::operator-=(float32 const&)>
     b34:	02002821 	move	a1,s0
     b38:	27a600b8 	addiu	a2,sp,184
     b3c:	02002021 	move	a0,s0
     b40:	0c00071d 	jal	1c74 <float32::operator*(float32 const&) const>
     b44:	27a50074 	addiu	a1,sp,116
     b48:	27a400a4 	addiu	a0,sp,164
     b4c:	0c0006e2 	jal	1b88 <float32::operator+=(float32 const&)>
     b50:	02002821 	move	a1,s0
     b54:	27a600bc 	addiu	a2,sp,188
     b58:	02002021 	move	a0,s0
     b5c:	0c00071d 	jal	1c74 <float32::operator*(float32 const&) const>
     b60:	27a50070 	addiu	a1,sp,112
     b64:	3c1e8000 	lui	s8,0x8000
     b68:	27a400a4 	addiu	a0,sp,164
     b6c:	0c00070d 	jal	1c34 <float32::operator-=(float32 const&)>
     b70:	02002821 	move	a1,s0
     b74:	26e2003c 	addiu	v0,s7,60
     b78:	27c601b0 	addiu	a2,s8,432
     b7c:	02002021 	move	a0,s0
     b80:	27a500ac 	addiu	a1,sp,172
     b84:	0c00071d 	jal	1c74 <float32::operator*(float32 const&) const>
     b88:	afa20148 	sw	v0,328(sp)
     b8c:	8fa40148 	lw	a0,328(sp)
     b90:	0c0006e2 	jal	1b88 <float32::operator+=(float32 const&)>
     b94:	02002821 	move	a1,s0
     b98:	26e20040 	addiu	v0,s7,64
     b9c:	27c601b0 	addiu	a2,s8,432
     ba0:	02002021 	move	a0,s0
     ba4:	27a500a8 	addiu	a1,sp,168
     ba8:	0c00071d 	jal	1c74 <float32::operator*(float32 const&) const>
     bac:	afa2014c 	sw	v0,332(sp)
     bb0:	8fa4014c 	lw	a0,332(sp)
     bb4:	0c0006e2 	jal	1b88 <float32::operator+=(float32 const&)>
     bb8:	02002821 	move	a1,s0
     bbc:	27c601b0 	addiu	a2,s8,432
     bc0:	26e20044 	addiu	v0,s7,68
     bc4:	02002021 	move	a0,s0
     bc8:	27a500a4 	addiu	a1,sp,164
     bcc:	0c00071d 	jal	1c74 <float32::operator*(float32 const&) const>
     bd0:	afa20150 	sw	v0,336(sp)
     bd4:	8fa40150 	lw	a0,336(sp)
     bd8:	0c0006e2 	jal	1b88 <float32::operator+=(float32 const&)>
     bdc:	02002821 	move	a1,s0
     be0:	8fa40184 	lw	a0,388(sp)
     be4:	8fa50148 	lw	a1,328(sp)
     be8:	0c00070d 	jal	1c34 <float32::operator-=(float32 const&)>
     bec:	3c1e8000 	lui	s8,0x8000
     bf0:	8fa40188 	lw	a0,392(sp)
     bf4:	8fa5014c 	lw	a1,332(sp)
     bf8:	0c00070d 	jal	1c34 <float32::operator-=(float32 const&)>
     bfc:	00000000 	nop
     c00:	8fa4018c 	lw	a0,396(sp)
     c04:	8fa50150 	lw	a1,336(sp)
     c08:	0c00070d 	jal	1c34 <float32::operator-=(float32 const&)>
     c0c:	00000000 	nop
     c10:	8fa60184 	lw	a2,388(sp)
     c14:	02002021 	move	a0,s0
     c18:	0c00071d 	jal	1c74 <float32::operator*(float32 const&) const>
     c1c:	27a50088 	addiu	a1,sp,136
     c20:	27a4012c 	addiu	a0,sp,300
     c24:	0c00070d 	jal	1c34 <float32::operator-=(float32 const&)>
     c28:	02002821 	move	a1,s0
     c2c:	8fa60188 	lw	a2,392(sp)
     c30:	02002021 	move	a0,s0
     c34:	0c00071d 	jal	1c74 <float32::operator*(float32 const&) const>
     c38:	27a50084 	addiu	a1,sp,132
     c3c:	27a4012c 	addiu	a0,sp,300
     c40:	0c00070d 	jal	1c34 <float32::operator-=(float32 const&)>
     c44:	02002821 	move	a1,s0
     c48:	8fa6018c 	lw	a2,396(sp)
     c4c:	02002021 	move	a0,s0
     c50:	0c00071d 	jal	1c74 <float32::operator*(float32 const&) const>
     c54:	27a50080 	addiu	a1,sp,128
     c58:	27a4012c 	addiu	a0,sp,300
     c5c:	0c00070d 	jal	1c34 <float32::operator-=(float32 const&)>
     c60:	02002821 	move	a1,s0
     c64:	8fa60184 	lw	a2,388(sp)
     c68:	02002021 	move	a0,s0
     c6c:	0c00071d 	jal	1c74 <float32::operator*(float32 const&) const>
     c70:	27a5008c 	addiu	a1,sp,140
     c74:	8fa20010 	lw	v0,16(sp)
     c78:	8fa6018c 	lw	a2,396(sp)
     c7c:	02002021 	move	a0,s0
     c80:	27a50084 	addiu	a1,sp,132
     c84:	0c00071d 	jal	1c74 <float32::operator*(float32 const&) const>
     c88:	afa20128 	sw	v0,296(sp)
     c8c:	27a40128 	addiu	a0,sp,296
     c90:	0c0006e2 	jal	1b88 <float32::operator+=(float32 const&)>
     c94:	02002821 	move	a1,s0
     c98:	8fa60188 	lw	a2,392(sp)
     c9c:	02002021 	move	a0,s0
     ca0:	0c00071d 	jal	1c74 <float32::operator*(float32 const&) const>
     ca4:	27a50080 	addiu	a1,sp,128
     ca8:	27a40128 	addiu	a0,sp,296
     cac:	0c00070d 	jal	1c34 <float32::operator-=(float32 const&)>
     cb0:	02002821 	move	a1,s0
     cb4:	8fa60188 	lw	a2,392(sp)
     cb8:	02002021 	move	a0,s0
     cbc:	0c00071d 	jal	1c74 <float32::operator*(float32 const&) const>
     cc0:	27a5008c 	addiu	a1,sp,140
     cc4:	8fa20010 	lw	v0,16(sp)
     cc8:	8fa6018c 	lw	a2,396(sp)
     ccc:	02002021 	move	a0,s0
     cd0:	27a50088 	addiu	a1,sp,136
     cd4:	0c00071d 	jal	1c74 <float32::operator*(float32 const&) const>
     cd8:	afa20124 	sw	v0,292(sp)
     cdc:	27a40124 	addiu	a0,sp,292
     ce0:	0c00070d 	jal	1c34 <float32::operator-=(float32 const&)>
     ce4:	02002821 	move	a1,s0
     ce8:	8fa60184 	lw	a2,388(sp)
     cec:	02002021 	move	a0,s0
     cf0:	0c00071d 	jal	1c74 <float32::operator*(float32 const&) const>
     cf4:	27a50080 	addiu	a1,sp,128
     cf8:	27a40124 	addiu	a0,sp,292
     cfc:	0c0006e2 	jal	1b88 <float32::operator+=(float32 const&)>
     d00:	02002821 	move	a1,s0
     d04:	8fa6018c 	lw	a2,396(sp)
     d08:	02002021 	move	a0,s0
     d0c:	0c00071d 	jal	1c74 <float32::operator*(float32 const&) const>
     d10:	27a5008c 	addiu	a1,sp,140
     d14:	8fa20010 	lw	v0,16(sp)
     d18:	8fa60188 	lw	a2,392(sp)
     d1c:	02002021 	move	a0,s0
     d20:	27a50088 	addiu	a1,sp,136
     d24:	0c00071d 	jal	1c74 <float32::operator*(float32 const&) const>
     d28:	afa20120 	sw	v0,288(sp)
     d2c:	27a40120 	addiu	a0,sp,288
     d30:	0c0006e2 	jal	1b88 <float32::operator+=(float32 const&)>
     d34:	02002821 	move	a1,s0
     d38:	8fa60184 	lw	a2,388(sp)
     d3c:	02002021 	move	a0,s0
     d40:	0c00071d 	jal	1c74 <float32::operator*(float32 const&) const>
     d44:	27a50084 	addiu	a1,sp,132
     d48:	27a40120 	addiu	a0,sp,288
     d4c:	0c00070d 	jal	1c34 <float32::operator-=(float32 const&)>
     d50:	02002821 	move	a1,s0
     d54:	3c028000 	lui	v0,0x8000
     d58:	244501b4 	addiu	a1,v0,436
     d5c:	02002021 	move	a0,s0
     d60:	0c00071d 	jal	1c74 <float32::operator*(float32 const&) const>
     d64:	27a600bc 	addiu	a2,sp,188
     d68:	02a02021 	move	a0,s5
     d6c:	27a5012c 	addiu	a1,sp,300
     d70:	0c0006f2 	jal	1bc8 <float32::operator-(float32 const&) const>
     d74:	02003021 	move	a2,s0
     d78:	27c601b8 	addiu	a2,s8,440
     d7c:	02c02021 	move	a0,s6
     d80:	0c00071d 	jal	1c74 <float32::operator*(float32 const&) const>
     d84:	02a02821 	move	a1,s5
     d88:	02802021 	move	a0,s4
     d8c:	0c0006e2 	jal	1b88 <float32::operator+=(float32 const&)>
     d90:	02c02821 	move	a1,s6
     d94:	3c028000 	lui	v0,0x8000
     d98:	244501b4 	addiu	a1,v0,436
     d9c:	02002021 	move	a0,s0
     da0:	0c00071d 	jal	1c74 <float32::operator*(float32 const&) const>
     da4:	27a600b8 	addiu	a2,sp,184
     da8:	02a02021 	move	a0,s5
     dac:	27a50128 	addiu	a1,sp,296
     db0:	0c0006f2 	jal	1bc8 <float32::operator-(float32 const&) const>
     db4:	02003021 	move	a2,s0
     db8:	27c601b8 	addiu	a2,s8,440
     dbc:	02c02021 	move	a0,s6
     dc0:	0c00071d 	jal	1c74 <float32::operator*(float32 const&) const>
     dc4:	02a02821 	move	a1,s5
     dc8:	02602021 	move	a0,s3
     dcc:	0c0006e2 	jal	1b88 <float32::operator+=(float32 const&)>
     dd0:	02c02821 	move	a1,s6
     dd4:	3c028000 	lui	v0,0x8000
     dd8:	244501b4 	addiu	a1,v0,436
     ddc:	02002021 	move	a0,s0
     de0:	0c00071d 	jal	1c74 <float32::operator*(float32 const&) const>
     de4:	27a600b4 	addiu	a2,sp,180
     de8:	02a02021 	move	a0,s5
     dec:	27a50124 	addiu	a1,sp,292
     df0:	0c0006f2 	jal	1bc8 <float32::operator-(float32 const&) const>
     df4:	02003021 	move	a2,s0
     df8:	27c601b8 	addiu	a2,s8,440
     dfc:	02c02021 	move	a0,s6
     e00:	0c00071d 	jal	1c74 <float32::operator*(float32 const&) const>
     e04:	02a02821 	move	a1,s5
     e08:	02402021 	move	a0,s2
     e0c:	0c0006e2 	jal	1b88 <float32::operator+=(float32 const&)>
     e10:	02c02821 	move	a1,s6
     e14:	3c028000 	lui	v0,0x8000
     e18:	244501b4 	addiu	a1,v0,436
     e1c:	02002021 	move	a0,s0
     e20:	0c00071d 	jal	1c74 <float32::operator*(float32 const&) const>
     e24:	27a600b0 	addiu	a2,sp,176
     e28:	02a02021 	move	a0,s5
     e2c:	27a50120 	addiu	a1,sp,288
     e30:	0c0006f2 	jal	1bc8 <float32::operator-(float32 const&) const>
     e34:	02003021 	move	a2,s0
     e38:	27c601b8 	addiu	a2,s8,440
     e3c:	02c02021 	move	a0,s6
     e40:	0c00071d 	jal	1c74 <float32::operator*(float32 const&) const>
     e44:	02a02821 	move	a1,s5
     e48:	02202021 	move	a0,s1
     e4c:	0c0006e2 	jal	1b88 <float32::operator+=(float32 const&)>
     e50:	02c02821 	move	a1,s6
     e54:	02002021 	move	a0,s0
     e58:	02802821 	move	a1,s4
     e5c:	0c00071d 	jal	1c74 <float32::operator*(float32 const&) const>
     e60:	02803021 	move	a2,s4
     e64:	02603021 	move	a2,s3
     e68:	02a02021 	move	a0,s5
     e6c:	0c00071d 	jal	1c74 <float32::operator*(float32 const&) const>
     e70:	02602821 	move	a1,s3
     e74:	02002021 	move	a0,s0
     e78:	0c0006e2 	jal	1b88 <float32::operator+=(float32 const&)>
     e7c:	02a02821 	move	a1,s5
     e80:	02403021 	move	a2,s2
     e84:	02a02021 	move	a0,s5
     e88:	0c00071d 	jal	1c74 <float32::operator*(float32 const&) const>
     e8c:	02402821 	move	a1,s2
     e90:	02002021 	move	a0,s0
     e94:	0c0006e2 	jal	1b88 <float32::operator+=(float32 const&)>
     e98:	02a02821 	move	a1,s5
     e9c:	02203021 	move	a2,s1
     ea0:	02a02021 	move	a0,s5
     ea4:	0c00071d 	jal	1c74 <float32::operator*(float32 const&) const>
     ea8:	02202821 	move	a1,s1
     eac:	02002021 	move	a0,s0
     eb0:	0c0006e2 	jal	1b88 <float32::operator+=(float32 const&)>
     eb4:	02a02821 	move	a1,s5
     eb8:	02a02021 	move	a0,s5
     ebc:	0c000777 	jal	1ddc <sqrt(float32 const&)>
     ec0:	02002821 	move	a1,s0
     ec4:	8fa20018 	lw	v0,24(sp)
     ec8:	02802021 	move	a0,s4
     ecc:	27a50130 	addiu	a1,sp,304
     ed0:	0c0006a0 	jal	1a80 <float32::operator/=(float32 const&)>
     ed4:	afa20130 	sw	v0,304(sp)
     ed8:	02602021 	move	a0,s3
     edc:	0c0006a0 	jal	1a80 <float32::operator/=(float32 const&)>
     ee0:	27a50130 	addiu	a1,sp,304
     ee4:	02402021 	move	a0,s2
     ee8:	0c0006a0 	jal	1a80 <float32::operator/=(float32 const&)>
     eec:	27a50130 	addiu	a1,sp,304
     ef0:	02202021 	move	a0,s1
     ef4:	0c0006a0 	jal	1a80 <float32::operator/=(float32 const&)>
     ef8:	27a50130 	addiu	a1,sp,304
     efc:	02a02021 	move	a0,s5
     f00:	02802821 	move	a1,s4
     f04:	0c00071d 	jal	1c74 <float32::operator*(float32 const&) const>
     f08:	02603021 	move	a2,s3
     f0c:	8fa20018 	lw	v0,24(sp)
     f10:	02a02021 	move	a0,s5
     f14:	02802821 	move	a1,s4
     f18:	02403021 	move	a2,s2
     f1c:	0c00071d 	jal	1c74 <float32::operator*(float32 const&) const>
     f20:	afa20044 	sw	v0,68(sp)
     f24:	8fa20018 	lw	v0,24(sp)
     f28:	02a02021 	move	a0,s5
     f2c:	02802821 	move	a1,s4
     f30:	02203021 	move	a2,s1
     f34:	0c00071d 	jal	1c74 <float32::operator*(float32 const&) const>
     f38:	afa20040 	sw	v0,64(sp)
     f3c:	8fa20018 	lw	v0,24(sp)
     f40:	02a02021 	move	a0,s5
     f44:	02402821 	move	a1,s2
     f48:	02203021 	move	a2,s1
     f4c:	0c00071d 	jal	1c74 <float32::operator*(float32 const&) const>
     f50:	afa2003c 	sw	v0,60(sp)
     f54:	8fa20018 	lw	v0,24(sp)
     f58:	02a02021 	move	a0,s5
     f5c:	02602821 	move	a1,s3
     f60:	02403021 	move	a2,s2
     f64:	0c00071d 	jal	1c74 <float32::operator*(float32 const&) const>
     f68:	afa20030 	sw	v0,48(sp)
     f6c:	8fa20018 	lw	v0,24(sp)
     f70:	02a02021 	move	a0,s5
     f74:	02602821 	move	a1,s3
     f78:	02203021 	move	a2,s1
     f7c:	0c00071d 	jal	1c74 <float32::operator*(float32 const&) const>
     f80:	afa20038 	sw	v0,56(sp)
     f84:	8fa20018 	lw	v0,24(sp)
     f88:	02a02021 	move	a0,s5
     f8c:	02602821 	move	a1,s3
     f90:	02603021 	move	a2,s3
     f94:	0c00071d 	jal	1c74 <float32::operator*(float32 const&) const>
     f98:	afa20034 	sw	v0,52(sp)
     f9c:	8fa20018 	lw	v0,24(sp)
     fa0:	02a02021 	move	a0,s5
     fa4:	02402821 	move	a1,s2
     fa8:	02403021 	move	a2,s2
     fac:	0c00071d 	jal	1c74 <float32::operator*(float32 const&) const>
     fb0:	afa2001c 	sw	v0,28(sp)
     fb4:	8fa20018 	lw	v0,24(sp)
     fb8:	27a40098 	addiu	a0,sp,152
     fbc:	02202821 	move	a1,s1
     fc0:	02203021 	move	a2,s1
     fc4:	0c00071d 	jal	1c74 <float32::operator*(float32 const&) const>
     fc8:	afa20020 	sw	v0,32(sp)
     fcc:	8fa20098 	lw	v0,152(sp)
     fd0:	27a40098 	addiu	a0,sp,152
     fd4:	27a50094 	addiu	a1,sp,148
     fd8:	27a60020 	addiu	a2,sp,32
     fdc:	0c0006f2 	jal	1bc8 <float32::operator-(float32 const&) const>
     fe0:	afa20018 	sw	v0,24(sp)
     fe4:	27a4009c 	addiu	a0,sp,156
     fe8:	27a50098 	addiu	a1,sp,152
     fec:	0c0006f2 	jal	1bc8 <float32::operator-(float32 const&) const>
     ff0:	02a03021 	move	a2,s5
     ff4:	27a40134 	addiu	a0,sp,308
     ff8:	27a5002c 	addiu	a1,sp,44
     ffc:	0c00071d 	jal	1c74 <float32::operator*(float32 const&) const>
    1000:	27a6009c 	addiu	a2,sp,156
    1004:	8fa20134 	lw	v0,308(sp)
    1008:	27a40098 	addiu	a0,sp,152
    100c:	27a50038 	addiu	a1,sp,56
    1010:	27a6003c 	addiu	a2,sp,60
    1014:	0c0006f2 	jal	1bc8 <float32::operator-(float32 const&) const>
    1018:	afa200a0 	sw	v0,160(sp)
    101c:	27a60098 	addiu	a2,sp,152
    1020:	27a4009c 	addiu	a0,sp,156
    1024:	0c00071d 	jal	1c74 <float32::operator*(float32 const&) const>
    1028:	27a50028 	addiu	a1,sp,40
    102c:	27a400a0 	addiu	a0,sp,160
    1030:	0c0006e2 	jal	1b88 <float32::operator+=(float32 const&)>
    1034:	27a5009c 	addiu	a1,sp,156
    1038:	27a40098 	addiu	a0,sp,152
    103c:	27a50034 	addiu	a1,sp,52
    1040:	0c0006c7 	jal	1b1c <float32::operator+(float32 const&) const>
    1044:	27a60040 	addiu	a2,sp,64
    1048:	27a60098 	addiu	a2,sp,152
    104c:	27a4009c 	addiu	a0,sp,156
    1050:	0c00071d 	jal	1c74 <float32::operator*(float32 const&) const>
    1054:	27a50024 	addiu	a1,sp,36
    1058:	27a400a0 	addiu	a0,sp,160
    105c:	0c0006e2 	jal	1b88 <float32::operator+=(float32 const&)>
    1060:	27a5009c 	addiu	a1,sp,156
    1064:	27a40098 	addiu	a0,sp,152
    1068:	27a50038 	addiu	a1,sp,56
    106c:	0c0006c7 	jal	1b1c <float32::operator+(float32 const&) const>
    1070:	27a6003c 	addiu	a2,sp,60
    1074:	27a40134 	addiu	a0,sp,308
    1078:	27a5002c 	addiu	a1,sp,44
    107c:	0c00071d 	jal	1c74 <float32::operator*(float32 const&) const>
    1080:	27a60098 	addiu	a2,sp,152
    1084:	8fa20134 	lw	v0,308(sp)
    1088:	27a40098 	addiu	a0,sp,152
    108c:	27a50094 	addiu	a1,sp,148
    1090:	02c03021 	move	a2,s6
    1094:	0c0006f2 	jal	1bc8 <float32::operator-(float32 const&) const>
    1098:	afa2009c 	sw	v0,156(sp)
    109c:	27a40134 	addiu	a0,sp,308
    10a0:	27a50098 	addiu	a1,sp,152
    10a4:	0c0006f2 	jal	1bc8 <float32::operator-(float32 const&) const>
    10a8:	02a03021 	move	a2,s5
    10ac:	27a60134 	addiu	a2,sp,308
    10b0:	27a40138 	addiu	a0,sp,312
    10b4:	0c00071d 	jal	1c74 <float32::operator*(float32 const&) const>
    10b8:	27a50028 	addiu	a1,sp,40
    10bc:	27a4009c 	addiu	a0,sp,156
    10c0:	0c0006e2 	jal	1b88 <float32::operator+=(float32 const&)>
    10c4:	27a50138 	addiu	a1,sp,312
    10c8:	27a40098 	addiu	a0,sp,152
    10cc:	27a50030 	addiu	a1,sp,48
    10d0:	0c0006f2 	jal	1bc8 <float32::operator-(float32 const&) const>
    10d4:	27a60044 	addiu	a2,sp,68
    10d8:	27a60098 	addiu	a2,sp,152
    10dc:	27a40134 	addiu	a0,sp,308
    10e0:	0c00071d 	jal	1c74 <float32::operator*(float32 const&) const>
    10e4:	27a50024 	addiu	a1,sp,36
    10e8:	27a4009c 	addiu	a0,sp,156
    10ec:	0c0006e2 	jal	1b88 <float32::operator+=(float32 const&)>
    10f0:	27a50134 	addiu	a1,sp,308
    10f4:	27a40134 	addiu	a0,sp,308
    10f8:	27a50034 	addiu	a1,sp,52
    10fc:	0c0006f2 	jal	1bc8 <float32::operator-(float32 const&) const>
    1100:	27a60040 	addiu	a2,sp,64
    1104:	27a40138 	addiu	a0,sp,312
    1108:	27a5002c 	addiu	a1,sp,44
    110c:	0c00071d 	jal	1c74 <float32::operator*(float32 const&) const>
    1110:	27a60134 	addiu	a2,sp,308
    1114:	8fa20138 	lw	v0,312(sp)
    1118:	27a40134 	addiu	a0,sp,308
    111c:	27a50030 	addiu	a1,sp,48
    1120:	27a60044 	addiu	a2,sp,68
    1124:	0c0006c7 	jal	1b1c <float32::operator+(float32 const&) const>
    1128:	afa20098 	sw	v0,152(sp)
    112c:	27a60134 	addiu	a2,sp,308
    1130:	27a40138 	addiu	a0,sp,312
    1134:	0c00071d 	jal	1c74 <float32::operator*(float32 const&) const>
    1138:	27a50028 	addiu	a1,sp,40
    113c:	27a40098 	addiu	a0,sp,152
    1140:	0c0006e2 	jal	1b88 <float32::operator+=(float32 const&)>
    1144:	27a50138 	addiu	a1,sp,312
    1148:	27a40134 	addiu	a0,sp,308
    114c:	27a50094 	addiu	a1,sp,148
    1150:	0c0006f2 	jal	1bc8 <float32::operator-(float32 const&) const>
    1154:	02c03021 	move	a2,s6
    1158:	27a40138 	addiu	a0,sp,312
    115c:	27a50134 	addiu	a1,sp,308
    1160:	0c0006f2 	jal	1bc8 <float32::operator-(float32 const&) const>
    1164:	27a60020 	addiu	a2,sp,32
    1168:	27a60138 	addiu	a2,sp,312
    116c:	27a4013c 	addiu	a0,sp,316
    1170:	0c00071d 	jal	1c74 <float32::operator*(float32 const&) const>
    1174:	27a50024 	addiu	a1,sp,36
    1178:	27a40098 	addiu	a0,sp,152
    117c:	0c0006e2 	jal	1b88 <float32::operator+=(float32 const&)>
    1180:	27a5013c 	addiu	a1,sp,316
    1184:	27a500a0 	addiu	a1,sp,160
    1188:	27a40138 	addiu	a0,sp,312
    118c:	0c00071d 	jal	1c74 <float32::operator*(float32 const&) const>
    1190:	00a03021 	move	a2,a1
    1194:	27a5009c 	addiu	a1,sp,156
    1198:	27a40134 	addiu	a0,sp,308
    119c:	0c00071d 	jal	1c74 <float32::operator*(float32 const&) const>
    11a0:	00a03021 	move	a2,a1
    11a4:	27a4013c 	addiu	a0,sp,316
    11a8:	27a50138 	addiu	a1,sp,312
    11ac:	0c0006c7 	jal	1b1c <float32::operator+(float32 const&) const>
    11b0:	27a60134 	addiu	a2,sp,308
    11b4:	27a40140 	addiu	a0,sp,320
    11b8:	0c000777 	jal	1ddc <sqrt(float32 const&)>
    11bc:	27a5013c 	addiu	a1,sp,316
    11c0:	8fa20140 	lw	v0,320(sp)
    11c4:	8fbf017c 	lw	ra,380(sp)
    11c8:	aae20034 	swl	v0,52(s7)
    11cc:	bae20037 	swr	v0,55(s7)
    11d0:	8fa20098 	lw	v0,152(sp)
    11d4:	8fbe0178 	lw	s8,376(sp)
    11d8:	aae20038 	swl	v0,56(s7)
    11dc:	8fb60170 	lw	s6,368(sp)
    11e0:	8fb5016c 	lw	s5,364(sp)
    11e4:	8fb40168 	lw	s4,360(sp)
    11e8:	8fb30164 	lw	s3,356(sp)
    11ec:	8fb20160 	lw	s2,352(sp)
    11f0:	8fb1015c 	lw	s1,348(sp)
    11f4:	8fb00158 	lw	s0,344(sp)
    11f8:	bae2003b 	swr	v0,59(s7)
    11fc:	8fb70174 	lw	s7,372(sp)
    1200:	03e00008 	jr	ra
    1204:	27bd0180 	addiu	sp,sp,384

00001208 <System::Tasking::Task::start()>:
    1208:	03e00008 	jr	ra
    120c:	00000000 	nop

00001210 <_ZN7float3219shift32RightJammingEjiPj.1521>:
    1210:	10a00009 	beqz	a1,1238 <_ZN7float3219shift32RightJammingEjiPj.1521+0x28>
    1214:	00801021 	move	v0,a0
    1218:	28a30020 	slti	v1,a1,32
    121c:	10600006 	beqz	v1,1238 <_ZN7float3219shift32RightJammingEjiPj.1521+0x28>
    1220:	0004102b 	sltu	v0,zero,a0
    1224:	00051023 	negu	v0,a1
    1228:	00441004 	sllv	v0,a0,v0
    122c:	0002102b 	sltu	v0,zero,v0
    1230:	00a42806 	srlv	a1,a0,a1
    1234:	00451025 	or	v0,v0,a1
    1238:	03e00008 	jr	ra
    123c:	acc20000 	sw	v0,0(a2)

00001240 <_ZN7float3212roundAndPackEbij.1511>:
    1240:	30a3ffff 	andi	v1,a1,0xffff
    1244:	27bdffe8 	addiu	sp,sp,-24
    1248:	2c6300fd 	sltiu	v1,v1,253
    124c:	30c2007f 	andi	v0,a2,0x7f
    1250:	afb00010 	sw	s0,16(sp)
    1254:	afbf0014 	sw	ra,20(sp)
    1258:	afa60020 	sw	a2,32(sp)
    125c:	14600015 	bnez	v1,12b4 <_ZN7float3212roundAndPackEbij.1511+0x74>
    1260:	00808021 	move	s0,a0
    1264:	28a300fe 	slti	v1,a1,254
    1268:	10600006 	beqz	v1,1284 <_ZN7float3212roundAndPackEbij.1511+0x44>
    126c:	240300fd 	li	v1,253
    1270:	14a30008 	bne	a1,v1,1294 <_ZN7float3212roundAndPackEbij.1511+0x54>
    1274:	00000000 	nop
    1278:	24c60040 	addiu	a2,a2,64
    127c:	04c1000d 	bgez	a2,12b4 <_ZN7float3212roundAndPackEbij.1511+0x74>
    1280:	00000000 	nop
    1284:	001087c0 	sll	s0,s0,0x1f
    1288:	3c027f80 	lui	v0,0x7f80
    128c:	080004bb 	j	12ec <_ZN7float3212roundAndPackEbij.1511+0xac>
    1290:	02021021 	addu	v0,s0,v0
    1294:	04a10007 	bgez	a1,12b4 <_ZN7float3212roundAndPackEbij.1511+0x74>
    1298:	00c02021 	move	a0,a2
    129c:	00052823 	negu	a1,a1
    12a0:	0c000484 	jal	1210 <_ZN7float3219shift32RightJammingEjiPj.1521>
    12a4:	27a60020 	addiu	a2,sp,32
    12a8:	8fa20020 	lw	v0,32(sp)
    12ac:	00002821 	move	a1,zero
    12b0:	3042007f 	andi	v0,v0,0x7f
    12b4:	8fa30020 	lw	v1,32(sp)
    12b8:	38420040 	xori	v0,v0,0x40
    12bc:	2c420001 	sltiu	v0,v0,1
    12c0:	24630040 	addiu	v1,v1,64
    12c4:	000319c2 	srl	v1,v1,0x7
    12c8:	00021027 	nor	v0,zero,v0
    12cc:	00431024 	and	v0,v0,v1
    12d0:	0002182b 	sltu	v1,zero,v0
    12d4:	00031823 	negu	v1,v1
    12d8:	00a32824 	and	a1,a1,v1
    12dc:	001087c0 	sll	s0,s0,0x1f
    12e0:	00501021 	addu	v0,v0,s0
    12e4:	00052dc0 	sll	a1,a1,0x17
    12e8:	00451021 	addu	v0,v0,a1
    12ec:	8fbf0014 	lw	ra,20(sp)
    12f0:	8fb00010 	lw	s0,16(sp)
    12f4:	03e00008 	jr	ra
    12f8:	27bd0018 	addiu	sp,sp,24

000012fc <_ZN7float327addSigsEjjb.1506>:
    12fc:	27bdffd8 	addiu	sp,sp,-40
    1300:	00801021 	move	v0,a0
    1304:	afb00018 	sw	s0,24(sp)
    1308:	000485c2 	srl	s0,a0,0x17
    130c:	3c04007f 	lui	a0,0x7f
    1310:	3484ffff 	ori	a0,a0,0xffff
    1314:	afb1001c 	sw	s1,28(sp)
    1318:	00058dc2 	srl	s1,a1,0x17
    131c:	321000ff 	andi	s0,s0,0xff
    1320:	323100ff 	andi	s1,s1,0xff
    1324:	00443824 	and	a3,v0,a0
    1328:	00a42824 	and	a1,a1,a0
    132c:	00073980 	sll	a3,a3,0x6
    1330:	00052980 	sll	a1,a1,0x6
    1334:	02111823 	subu	v1,s0,s1
    1338:	afb20020 	sw	s2,32(sp)
    133c:	afbf0024 	sw	ra,36(sp)
    1340:	00c09021 	move	s2,a2
    1344:	afa70014 	sw	a3,20(sp)
    1348:	18600010 	blez	v1,138c <_ZN7float327addSigsEjjb.1506+0x90>
    134c:	afa50010 	sw	a1,16(sp)
    1350:	240400ff 	li	a0,255
    1354:	1204003d 	beq	s0,a0,144c <_ZN7float327addSigsEjjb.1506+0x150>
    1358:	00000000 	nop
    135c:	16200003 	bnez	s1,136c <_ZN7float327addSigsEjjb.1506+0x70>
    1360:	3c022000 	lui	v0,0x2000
    1364:	080004dd 	j	1374 <_ZN7float327addSigsEjjb.1506+0x78>
    1368:	2463ffff 	addiu	v1,v1,-1
    136c:	00a22825 	or	a1,a1,v0
    1370:	afa50010 	sw	a1,16(sp)
    1374:	8fa40010 	lw	a0,16(sp)
    1378:	00602821 	move	a1,v1
    137c:	0c000484 	jal	1210 <_ZN7float3219shift32RightJammingEjiPj.1521>
    1380:	27a60010 	addiu	a2,sp,16
    1384:	08000506 	j	1418 <_ZN7float327addSigsEjjb.1506+0x11c>
    1388:	02002821 	move	a1,s0
    138c:	10600014 	beqz	v1,13e0 <_ZN7float327addSigsEjjb.1506+0xe4>
    1390:	00000000 	nop
    1394:	240200ff 	li	v0,255
    1398:	16220004 	bne	s1,v0,13ac <_ZN7float327addSigsEjjb.1506+0xb0>
    139c:	000617c0 	sll	v0,a2,0x1f
    13a0:	3c037f80 	lui	v1,0x7f80
    13a4:	08000513 	j	144c <_ZN7float327addSigsEjjb.1506+0x150>
    13a8:	00431021 	addu	v0,v0,v1
    13ac:	16000003 	bnez	s0,13bc <_ZN7float327addSigsEjjb.1506+0xc0>
    13b0:	00000000 	nop
    13b4:	080004f2 	j	13c8 <_ZN7float327addSigsEjjb.1506+0xcc>
    13b8:	24630001 	addiu	v1,v1,1
    13bc:	3c052000 	lui	a1,0x2000
    13c0:	00e53825 	or	a3,a3,a1
    13c4:	afa70014 	sw	a3,20(sp)
    13c8:	8fa40014 	lw	a0,20(sp)
    13cc:	00032823 	negu	a1,v1
    13d0:	0c000484 	jal	1210 <_ZN7float3219shift32RightJammingEjiPj.1521>
    13d4:	27a60014 	addiu	a2,sp,20
    13d8:	08000506 	j	1418 <_ZN7float327addSigsEjjb.1506+0x11c>
    13dc:	02202821 	move	a1,s1
    13e0:	240300ff 	li	v1,255
    13e4:	12030019 	beq	s0,v1,144c <_ZN7float327addSigsEjjb.1506+0x150>
    13e8:	00000000 	nop
    13ec:	16000006 	bnez	s0,1408 <_ZN7float327addSigsEjjb.1506+0x10c>
    13f0:	3c034000 	lui	v1,0x4000
    13f4:	00a71021 	addu	v0,a1,a3
    13f8:	00021182 	srl	v0,v0,0x6
    13fc:	000697c0 	sll	s2,a2,0x1f
    1400:	08000513 	j	144c <_ZN7float327addSigsEjjb.1506+0x150>
    1404:	00521021 	addu	v0,v0,s2
    1408:	00e31821 	addu	v1,a3,v1
    140c:	00653021 	addu	a2,v1,a1
    1410:	08000511 	j	1444 <_ZN7float327addSigsEjjb.1506+0x148>
    1414:	02002821 	move	a1,s0
    1418:	8fa20014 	lw	v0,20(sp)
    141c:	3c032000 	lui	v1,0x2000
    1420:	00621825 	or	v1,v1,v0
    1424:	8fa20010 	lw	v0,16(sp)
    1428:	00000000 	nop
    142c:	00623021 	addu	a2,v1,v0
    1430:	00061040 	sll	v0,a2,0x1
    1434:	04400003 	bltz	v0,1444 <_ZN7float327addSigsEjjb.1506+0x148>
    1438:	afa30014 	sw	v1,20(sp)
    143c:	24a5ffff 	addiu	a1,a1,-1
    1440:	00403021 	move	a2,v0
    1444:	0c000490 	jal	1240 <_ZN7float3212roundAndPackEbij.1511>
    1448:	02402021 	move	a0,s2
    144c:	8fbf0024 	lw	ra,36(sp)
    1450:	8fb20020 	lw	s2,32(sp)
    1454:	8fb1001c 	lw	s1,28(sp)
    1458:	8fb00018 	lw	s0,24(sp)
    145c:	03e00008 	jr	ra
    1460:	27bd0028 	addiu	sp,sp,40

00001464 <_ZN7float3219countLeadingZeros32Ej.1526>:
    1464:	3c030001 	lui	v1,0x1
    1468:	0083182b 	sltu	v1,a0,v1
    146c:	10600003 	beqz	v1,147c <_ZN7float3219countLeadingZeros32Ej.1526+0x18>
    1470:	00001021 	move	v0,zero
    1474:	00042400 	sll	a0,a0,0x10
    1478:	24020010 	li	v0,16
    147c:	3c030100 	lui	v1,0x100
    1480:	0083182b 	sltu	v1,a0,v1
    1484:	10600005 	beqz	v1,149c <_ZN7float3219countLeadingZeros32Ej.1526+0x38>
    1488:	3c038000 	lui	v1,0x8000
    148c:	24420008 	addiu	v0,v0,8
    1490:	00021600 	sll	v0,v0,0x18
    1494:	00021603 	sra	v0,v0,0x18
    1498:	00042200 	sll	a0,a0,0x8
    149c:	24630000 	addiu	v1,v1,0
    14a0:	00042602 	srl	a0,a0,0x18
    14a4:	00832021 	addu	a0,a0,v1
    14a8:	90830000 	lbu	v1,0(a0)
    14ac:	00000000 	nop
    14b0:	00621021 	addu	v0,v1,v0
    14b4:	00021600 	sll	v0,v0,0x18
    14b8:	03e00008 	jr	ra
    14bc:	00021603 	sra	v0,v0,0x18

000014c0 <_ZN7float327subSigsEjjb.1492>:
    14c0:	27bdffd0 	addiu	sp,sp,-48
    14c4:	3c03007f 	lui	v1,0x7f
    14c8:	00a03821 	move	a3,a1
    14cc:	3463ffff 	ori	v1,v1,0xffff
    14d0:	afb10020 	sw	s1,32(sp)
    14d4:	afb0001c 	sw	s0,28(sp)
    14d8:	00058dc2 	srl	s1,a1,0x17
    14dc:	000485c2 	srl	s0,a0,0x17
    14e0:	00801021 	move	v0,a0
    14e4:	321000ff 	andi	s0,s0,0xff
    14e8:	00832024 	and	a0,a0,v1
    14ec:	323100ff 	andi	s1,s1,0xff
    14f0:	00e31824 	and	v1,a3,v1
    14f4:	000421c0 	sll	a0,a0,0x7
    14f8:	000319c0 	sll	v1,v1,0x7
    14fc:	02112823 	subu	a1,s0,s1
    1500:	afb20024 	sw	s2,36(sp)
    1504:	afbf002c 	sw	ra,44(sp)
    1508:	afb30028 	sw	s3,40(sp)
    150c:	00c09021 	move	s2,a2
    1510:	afa40014 	sw	a0,20(sp)
    1514:	1ca0002b 	bgtz	a1,15c4 <_ZN7float327subSigsEjjb.1492+0x104>
    1518:	afa30010 	sw	v1,16(sp)
    151c:	14a0000e 	bnez	a1,1558 <_ZN7float327subSigsEjjb.1492+0x98>
    1520:	00000000 	nop
    1524:	240500ff 	li	a1,255
    1528:	12050044 	beq	s0,a1,163c <_ZN7float327subSigsEjjb.1492+0x17c>
    152c:	2402ffff 	li	v0,-1
    1530:	16000003 	bnez	s0,1540 <_ZN7float327subSigsEjjb.1492+0x80>
    1534:	0064102b 	sltu	v0,v1,a0
    1538:	24110001 	li	s1,1
    153c:	24100001 	li	s0,1
    1540:	14400030 	bnez	v0,1604 <_ZN7float327subSigsEjjb.1492+0x144>
    1544:	0083182b 	sltu	v1,a0,v1
    1548:	1060003c 	beqz	v1,163c <_ZN7float327subSigsEjjb.1492+0x17c>
    154c:	00001021 	move	v0,zero
    1550:	0800056b 	j	15ac <_ZN7float327subSigsEjjb.1492+0xec>
    1554:	00000000 	nop
    1558:	240200ff 	li	v0,255
    155c:	16220005 	bne	s1,v0,1574 <_ZN7float327subSigsEjjb.1492+0xb4>
    1560:	38c20001 	xori	v0,a2,0x1
    1564:	000217c0 	sll	v0,v0,0x1f
    1568:	3c037f80 	lui	v1,0x7f80
    156c:	0800058f 	j	163c <_ZN7float327subSigsEjjb.1492+0x17c>
    1570:	00431021 	addu	v0,v0,v1
    1574:	16000003 	bnez	s0,1584 <_ZN7float327subSigsEjjb.1492+0xc4>
    1578:	3c034000 	lui	v1,0x4000
    157c:	08000563 	j	158c <_ZN7float327subSigsEjjb.1492+0xcc>
    1580:	24a50001 	addiu	a1,a1,1
    1584:	00832025 	or	a0,a0,v1
    1588:	afa40014 	sw	a0,20(sp)
    158c:	8fa40014 	lw	a0,20(sp)
    1590:	00052823 	negu	a1,a1
    1594:	0c000484 	jal	1210 <_ZN7float3219shift32RightJammingEjiPj.1521>
    1598:	27a60014 	addiu	a2,sp,20
    159c:	8fa30010 	lw	v1,16(sp)
    15a0:	3c024000 	lui	v0,0x4000
    15a4:	00621025 	or	v0,v1,v0
    15a8:	afa20010 	sw	v0,16(sp)
    15ac:	8fa20014 	lw	v0,20(sp)
    15b0:	8fb30010 	lw	s3,16(sp)
    15b4:	3a520001 	xori	s2,s2,0x1
    15b8:	02629823 	subu	s3,s3,v0
    15bc:	08000585 	j	1614 <_ZN7float327subSigsEjjb.1492+0x154>
    15c0:	02208021 	move	s0,s1
    15c4:	240400ff 	li	a0,255
    15c8:	1204001c 	beq	s0,a0,163c <_ZN7float327subSigsEjjb.1492+0x17c>
    15cc:	00000000 	nop
    15d0:	16200003 	bnez	s1,15e0 <_ZN7float327subSigsEjjb.1492+0x120>
    15d4:	3c024000 	lui	v0,0x4000
    15d8:	0800057a 	j	15e8 <_ZN7float327subSigsEjjb.1492+0x128>
    15dc:	24a5ffff 	addiu	a1,a1,-1
    15e0:	00621825 	or	v1,v1,v0
    15e4:	afa30010 	sw	v1,16(sp)
    15e8:	8fa40010 	lw	a0,16(sp)
    15ec:	0c000484 	jal	1210 <_ZN7float3219shift32RightJammingEjiPj.1521>
    15f0:	27a60010 	addiu	a2,sp,16
    15f4:	8fa30014 	lw	v1,20(sp)
    15f8:	3c024000 	lui	v0,0x4000
    15fc:	00621025 	or	v0,v1,v0
    1600:	afa20014 	sw	v0,20(sp)
    1604:	8fa20010 	lw	v0,16(sp)
    1608:	8fb30014 	lw	s3,20(sp)
    160c:	00000000 	nop
    1610:	02629823 	subu	s3,s3,v0
    1614:	0c000519 	jal	1464 <_ZN7float3219countLeadingZeros32Ej.1526>
    1618:	02602021 	move	a0,s3
    161c:	2442ffff 	addiu	v0,v0,-1
    1620:	00023600 	sll	a2,v0,0x18
    1624:	00063603 	sra	a2,a2,0x18
    1628:	2605ffff 	addiu	a1,s0,-1
    162c:	00a62823 	subu	a1,a1,a2
    1630:	02402021 	move	a0,s2
    1634:	0c000490 	jal	1240 <_ZN7float3212roundAndPackEbij.1511>
    1638:	00d33004 	sllv	a2,s3,a2
    163c:	8fbf002c 	lw	ra,44(sp)
    1640:	8fb30028 	lw	s3,40(sp)
    1644:	8fb20024 	lw	s2,36(sp)
    1648:	8fb10020 	lw	s1,32(sp)
    164c:	8fb0001c 	lw	s0,28(sp)
    1650:	03e00008 	jr	ra
    1654:	27bd0030 	addiu	sp,sp,48

00001658 <_ZN7float3218normalizeSubnormalEjPiPj.1516>:
    1658:	27bdffe0 	addiu	sp,sp,-32
    165c:	afbf001c 	sw	ra,28(sp)
    1660:	afb20018 	sw	s2,24(sp)
    1664:	afb10014 	sw	s1,20(sp)
    1668:	afb00010 	sw	s0,16(sp)
    166c:	00a08821 	move	s1,a1
    1670:	00c09021 	move	s2,a2
    1674:	0c000519 	jal	1464 <_ZN7float3219countLeadingZeros32Ej.1526>
    1678:	00808021 	move	s0,a0
    167c:	2442fff8 	addiu	v0,v0,-8
    1680:	00021600 	sll	v0,v0,0x18
    1684:	00021603 	sra	v0,v0,0x18
    1688:	8fbf001c 	lw	ra,28(sp)
    168c:	24030001 	li	v1,1
    1690:	00508004 	sllv	s0,s0,v0
    1694:	00621023 	subu	v0,v1,v0
    1698:	ae500000 	sw	s0,0(s2)
    169c:	8fb20018 	lw	s2,24(sp)
    16a0:	8fb00010 	lw	s0,16(sp)
    16a4:	ae220000 	sw	v0,0(s1)
    16a8:	8fb10014 	lw	s1,20(sp)
    16ac:	03e00008 	jr	ra
    16b0:	27bd0020 	addiu	sp,sp,32

000016b4 <_ZN4MathL6divideEii.1762.1529>:
    16b4:	2403001f 	li	v1,31
    16b8:	00001021 	move	v0,zero
    16bc:	00003021 	move	a2,zero
    16c0:	24080001 	li	t0,1
    16c4:	2407ffff 	li	a3,-1
    16c8:	00684804 	sllv	t1,t0,v1
    16cc:	01244824 	and	t1,t1,a0
    16d0:	00694807 	srav	t1,t1,v1
    16d4:	00063040 	sll	a2,a2,0x1
    16d8:	00c93021 	addu	a2,a2,t1
    16dc:	00c5482a 	slt	t1,a2,a1
    16e0:	15200003 	bnez	t1,16f0 <_ZN4MathL6divideEii.1762.1529+0x3c>
    16e4:	00021040 	sll	v0,v0,0x1
    16e8:	00c53023 	subu	a2,a2,a1
    16ec:	24420001 	addiu	v0,v0,1
    16f0:	2463ffff 	addiu	v1,v1,-1
    16f4:	1467fff5 	bne	v1,a3,16cc <_ZN4MathL6divideEii.1762.1529+0x18>
    16f8:	00684804 	sllv	t1,t0,v1
    16fc:	03e00008 	jr	ra
    1700:	00000000 	nop

00001704 <Radio::Digital::XBeeReadIdleTask::start()>:
    1704:	27bdffe8 	addiu	sp,sp,-24
    1708:	afb00010 	sw	s0,16(sp)
    170c:	afbf0014 	sw	ra,20(sp)
    1710:	88820034 	lwl	v0,52(a0)
    1714:	00000000 	nop
    1718:	98820037 	lwr	v0,55(a0)
    171c:	00000000 	nop
    1720:	1440000c 	bnez	v0,1754 <Radio::Digital::XBeeReadIdleTask::start()+0x50>
    1724:	00808021 	move	s0,a0
    1728:	3c038000 	lui	v1,0x8000
    172c:	24630100 	addiu	v1,v1,256
    1730:	90640000 	lbu	a0,0(v1)
    1734:	00000000 	nop
    1738:	a2040038 	sb	a0,56(s0)
    173c:	88640001 	lwl	a0,1(v1)
    1740:	00000000 	nop
    1744:	98640004 	lwr	a0,4(v1)
    1748:	00000000 	nop
    174c:	aa040039 	swl	a0,57(s0)
    1750:	ba04003c 	swr	a0,60(s0)
    1754:	02021821 	addu	v1,s0,v0
    1758:	a0600014 	sb	zero,20(v1)
    175c:	24420001 	addiu	v0,v0,1
    1760:	aa020034 	swl	v0,52(s0)
    1764:	ba020037 	swr	v0,55(s0)
    1768:	92030038 	lbu	v1,56(s0)
    176c:	00000000 	nop
    1770:	1443000c 	bne	v0,v1,17a4 <Radio::Digital::XBeeReadIdleTask::start()+0xa0>
    1774:	00000000 	nop
    1778:	8a020039 	lwl	v0,57(s0)
    177c:	00000000 	nop
    1780:	9a02003c 	lwr	v0,60(s0)
    1784:	00000000 	nop
    1788:	0040f809 	jalr	v0
    178c:	26040014 	addiu	a0,s0,20
    1790:	aa000034 	swl	zero,52(s0)
    1794:	ba000037 	swr	zero,55(s0)
    1798:	a2000038 	sb	zero,56(s0)
    179c:	aa000039 	swl	zero,57(s0)
    17a0:	ba00003c 	swr	zero,60(s0)
    17a4:	8fbf0014 	lw	ra,20(sp)
    17a8:	8fb00010 	lw	s0,16(sp)
    17ac:	03e00008 	jr	ra
    17b0:	27bd0018 	addiu	sp,sp,24

000017b4 <_ZN5Radio8Messages14defaultHandlerEPc.1574>:
    17b4:	03e00008 	jr	ra
    17b8:	00000000 	nop

000017bc <float32::operator/(float32 const&) const>:
    17bc:	27bdffb0 	addiu	sp,sp,-80
    17c0:	afb00028 	sw	s0,40(sp)
    17c4:	afbf004c 	sw	ra,76(sp)
    17c8:	afbe0048 	sw	s8,72(sp)
    17cc:	afb70044 	sw	s7,68(sp)
    17d0:	afb60040 	sw	s6,64(sp)
    17d4:	afb5003c 	sw	s5,60(sp)
    17d8:	afb40038 	sw	s4,56(sp)
    17dc:	afb30034 	sw	s3,52(sp)
    17e0:	afb20030 	sw	s2,48(sp)
    17e4:	afb1002c 	sw	s1,44(sp)
    17e8:	88b20000 	lwl	s2,0(a1)
    17ec:	88c20000 	lwl	v0,0(a2)
    17f0:	98b20003 	lwr	s2,3(a1)
    17f4:	98c20003 	lwr	v0,3(a2)
    17f8:	00808021 	move	s0,a0
    17fc:	3c04007f 	lui	a0,0x7f
    1800:	3484ffff 	ori	a0,a0,0xffff
    1804:	00121dc2 	srl	v1,s2,0x17
    1808:	00022dc2 	srl	a1,v0,0x17
    180c:	02443024 	and	a2,s2,a0
    1810:	306300ff 	andi	v1,v1,0xff
    1814:	00442024 	and	a0,v0,a0
    1818:	02429026 	xor	s2,s2,v0
    181c:	30a500ff 	andi	a1,a1,0xff
    1820:	240200ff 	li	v0,255
    1824:	afa6001c 	sw	a2,28(sp)
    1828:	afa30014 	sw	v1,20(sp)
    182c:	afa40018 	sw	a0,24(sp)
    1830:	afa50010 	sw	a1,16(sp)
    1834:	14620005 	bne	v1,v0,184c <float32::operator/(float32 const&) const+0x90>
    1838:	001297c2 	srl	s2,s2,0x1f
    183c:	14a3000f 	bne	a1,v1,187c <float32::operator/(float32 const&) const+0xc0>
    1840:	001297c0 	sll	s2,s2,0x1f
    1844:	08000691 	j	1a44 <float32::operator/(float32 const&) const+0x288>
    1848:	2402ffff 	li	v0,-1
    184c:	14a20003 	bne	a1,v0,185c <float32::operator/(float32 const&) const+0xa0>
    1850:	00000000 	nop
    1854:	0800062e 	j	18b8 <float32::operator/(float32 const&) const+0xfc>
    1858:	001297c0 	sll	s2,s2,0x1f
    185c:	14a0000d 	bnez	a1,1894 <float32::operator/(float32 const&) const+0xd8>
    1860:	00000000 	nop
    1864:	14800008 	bnez	a0,1888 <float32::operator/(float32 const&) const+0xcc>
    1868:	00661825 	or	v1,v1,a2
    186c:	14600003 	bnez	v1,187c <float32::operator/(float32 const&) const+0xc0>
    1870:	001297c0 	sll	s2,s2,0x1f
    1874:	08000691 	j	1a44 <float32::operator/(float32 const&) const+0x288>
    1878:	2402ffff 	li	v0,-1
    187c:	3c027f80 	lui	v0,0x7f80
    1880:	0800062e 	j	18b8 <float32::operator/(float32 const&) const+0xfc>
    1884:	02429021 	addu	s2,s2,v0
    1888:	27a50010 	addiu	a1,sp,16
    188c:	0c000596 	jal	1658 <_ZN7float3218normalizeSubnormalEjPiPj.1516>
    1890:	27a60018 	addiu	a2,sp,24
    1894:	8fa20014 	lw	v0,20(sp)
    1898:	00000000 	nop
    189c:	1440000c 	bnez	v0,18d0 <float32::operator/(float32 const&) const+0x114>
    18a0:	00000000 	nop
    18a4:	8fa4001c 	lw	a0,28(sp)
    18a8:	00000000 	nop
    18ac:	14800005 	bnez	a0,18c4 <float32::operator/(float32 const&) const+0x108>
    18b0:	00000000 	nop
    18b4:	001297c0 	sll	s2,s2,0x1f
    18b8:	aa120000 	swl	s2,0(s0)
    18bc:	08000693 	j	1a4c <float32::operator/(float32 const&) const+0x290>
    18c0:	ba120003 	swr	s2,3(s0)
    18c4:	27a50014 	addiu	a1,sp,20
    18c8:	0c000596 	jal	1658 <_ZN7float3218normalizeSubnormalEjPiPj.1516>
    18cc:	27a6001c 	addiu	a2,sp,28
    18d0:	8fa3001c 	lw	v1,28(sp)
    18d4:	8fb10018 	lw	s1,24(sp)
    18d8:	8fa20010 	lw	v0,16(sp)
    18dc:	3c040080 	lui	a0,0x80
    18e0:	8fb50014 	lw	s5,20(sp)
    18e4:	00831825 	or	v1,a0,v1
    18e8:	00918825 	or	s1,a0,s1
    18ec:	00118a00 	sll	s1,s1,0x8
    18f0:	02a2a823 	subu	s5,s5,v0
    18f4:	000311c0 	sll	v0,v1,0x7
    18f8:	00031a00 	sll	v1,v1,0x8
    18fc:	0071182b 	sltu	v1,v1,s1
    1900:	afa2001c 	sw	v0,28(sp)
    1904:	10600003 	beqz	v1,1914 <float32::operator/(float32 const&) const+0x158>
    1908:	afb10018 	sw	s1,24(sp)
    190c:	08000648 	j	1920 <float32::operator/(float32 const&) const+0x164>
    1910:	26b5007d 	addiu	s5,s5,125
    1914:	00021042 	srl	v0,v0,0x1
    1918:	afa2001c 	sw	v0,28(sp)
    191c:	26b5007e 	addiu	s5,s5,126
    1920:	8fb3001c 	lw	s3,28(sp)
    1924:	00000000 	nop
    1928:	0271102b 	sltu	v0,s3,s1
    192c:	1040002d 	beqz	v0,19e4 <float32::operator/(float32 const&) const+0x228>
    1930:	2406ffff 	li	a2,-1
    1934:	0011f402 	srl	s8,s1,0x10
    1938:	001ebc00 	sll	s7,s8,0x10
    193c:	0277102b 	sltu	v0,s3,s7
    1940:	10400005 	beqz	v0,1958 <float32::operator/(float32 const&) const+0x19c>
    1944:	3c14ffff 	lui	s4,0xffff
    1948:	02602021 	move	a0,s3
    194c:	0c0005ad 	jal	16b4 <_ZN4MathL6divideEii.1762.1529>
    1950:	03c02821 	move	a1,s8
    1954:	0002a400 	sll	s4,v0,0x10
    1958:	02910019 	multu	s4,s1
    195c:	00113400 	sll	a2,s1,0x10
    1960:	03c02821 	move	a1,s8
    1964:	00002021 	move	a0,zero
    1968:	24c60020 	addiu	a2,a2,32
    196c:	00005812 	mflo	t3
    1970:	000bb023 	negu	s6,t3
    1974:	0016102b 	sltu	v0,zero,s6
    1978:	00005010 	mfhi	t2
    197c:	026a5023 	subu	t2,s3,t2
    1980:	01425023 	subu	t2,t2,v0
    1984:	afaa0024 	sw	t2,36(sp)
    1988:	0c0008cb 	jal	232c <__ashldi3>
    198c:	afb60020 	sw	s6,32(sp)
    1990:	8fa70020 	lw	a3,32(sp)
    1994:	8faa0024 	lw	t2,36(sp)
    1998:	0800066e 	j	19b8 <float32::operator/(float32 const&) const+0x1fc>
    199c:	3c05ffff 	lui	a1,0xffff
    19a0:	0096b02b 	sltu	s6,a0,s6
    19a4:	01425021 	addu	t2,t2,v0
    19a8:	02ca5021 	addu	t2,s6,t2
    19ac:	0285a021 	addu	s4,s4,a1
    19b0:	0080b021 	move	s6,a0
    19b4:	00803821 	move	a3,a0
    19b8:	0540fff9 	bltz	t2,19a0 <float32::operator/(float32 const&) const+0x1e4>
    19bc:	02c32021 	addu	a0,s6,v1
    19c0:	000a5400 	sll	t2,t2,0x10
    19c4:	00073c02 	srl	a3,a3,0x10
    19c8:	00ea2025 	or	a0,a3,t2
    19cc:	0097b82b 	sltu	s7,a0,s7
    19d0:	12e00003 	beqz	s7,19e0 <float32::operator/(float32 const&) const+0x224>
    19d4:	3402ffff 	li	v0,0xffff
    19d8:	0c0005ad 	jal	16b4 <_ZN4MathL6divideEii.1762.1529>
    19dc:	03c02821 	move	a1,s8
    19e0:	00543025 	or	a2,v0,s4
    19e4:	30c2003f 	andi	v0,a2,0x3f
    19e8:	2c420003 	sltiu	v0,v0,3
    19ec:	10400013 	beqz	v0,1a3c <float32::operator/(float32 const&) const+0x280>
    19f0:	02402021 	move	a0,s2
    19f4:	00d10019 	multu	a2,s1
    19f8:	00004812 	mflo	t1
    19fc:	00091023 	negu	v0,t1
    1a00:	0002182b 	sltu	v1,zero,v0
    1a04:	00004010 	mfhi	t0
    1a08:	02684023 	subu	t0,s3,t0
    1a0c:	01034023 	subu	t0,t0,v1
    1a10:	0800068b 	j	1a2c <float32::operator/(float32 const&) const+0x270>
    1a14:	00401821 	move	v1,v0
    1a18:	00511821 	addu	v1,v0,s1
    1a1c:	0062102b 	sltu	v0,v1,v0
    1a20:	00484021 	addu	t0,v0,t0
    1a24:	24c6ffff 	addiu	a2,a2,-1
    1a28:	00601021 	move	v0,v1
    1a2c:	0500fffa 	bltz	t0,1a18 <float32::operator/(float32 const&) const+0x25c>
    1a30:	0003182b 	sltu	v1,zero,v1
    1a34:	00c33025 	or	a2,a2,v1
    1a38:	02402021 	move	a0,s2
    1a3c:	0c000490 	jal	1240 <_ZN7float3212roundAndPackEbij.1511>
    1a40:	02a02821 	move	a1,s5
    1a44:	aa020000 	swl	v0,0(s0)
    1a48:	ba020003 	swr	v0,3(s0)
    1a4c:	8fbf004c 	lw	ra,76(sp)
    1a50:	02001021 	move	v0,s0
    1a54:	8fbe0048 	lw	s8,72(sp)
    1a58:	8fb70044 	lw	s7,68(sp)
    1a5c:	8fb60040 	lw	s6,64(sp)
    1a60:	8fb5003c 	lw	s5,60(sp)
    1a64:	8fb40038 	lw	s4,56(sp)
    1a68:	8fb30034 	lw	s3,52(sp)
    1a6c:	8fb20030 	lw	s2,48(sp)
    1a70:	8fb1002c 	lw	s1,44(sp)
    1a74:	8fb00028 	lw	s0,40(sp)
    1a78:	03e00008 	jr	ra
    1a7c:	27bd0050 	addiu	sp,sp,80

00001a80 <float32::operator/=(float32 const&)>:
    1a80:	27bdffe0 	addiu	sp,sp,-32
    1a84:	afb00018 	sw	s0,24(sp)
    1a88:	00808021 	move	s0,a0
    1a8c:	00a03021 	move	a2,a1
    1a90:	27a40010 	addiu	a0,sp,16
    1a94:	afbf001c 	sw	ra,28(sp)
    1a98:	0c0005ef 	jal	17bc <float32::operator/(float32 const&) const>
    1a9c:	02002821 	move	a1,s0
    1aa0:	8fa20010 	lw	v0,16(sp)
    1aa4:	8fbf001c 	lw	ra,28(sp)
    1aa8:	aa020000 	swl	v0,0(s0)
    1aac:	ba020003 	swr	v0,3(s0)
    1ab0:	02001021 	move	v0,s0
    1ab4:	8fb00018 	lw	s0,24(sp)
    1ab8:	03e00008 	jr	ra
    1abc:	27bd0020 	addiu	sp,sp,32

00001ac0 <_ZN6System8Registry8instanceEv.local.0>:
    1ac0:	3c028000 	lui	v0,0x8000
    1ac4:	80430150 	lb	v1,336(v0)
    1ac8:	00402021 	move	a0,v0
    1acc:	14600009 	bnez	v1,1af4 <_ZN6System8Registry8instanceEv.local.0+0x34>
    1ad0:	3c028000 	lui	v0,0x8000
    1ad4:	24430158 	addiu	v1,v0,344
    1ad8:	24650054 	addiu	a1,v1,84
    1adc:	ac600000 	sw	zero,0(v1)
    1ae0:	24630004 	addiu	v1,v1,4
    1ae4:	1465fffd 	bne	v1,a1,1adc <_ZN6System8Registry8instanceEv.local.0+0x1c>
    1ae8:	00000000 	nop
    1aec:	24030001 	li	v1,1
    1af0:	a0830150 	sb	v1,336(a0)
    1af4:	03e00008 	jr	ra
    1af8:	24420158 	addiu	v0,v0,344

00001afc <_ZN4MathL11sign_extendEi.2170>:
    1afc:	3083ffff 	andi	v1,a0,0xffff
    1b00:	00031bc3 	sra	v1,v1,0xf
    1b04:	10600003 	beqz	v1,1b14 <_ZN4MathL11sign_extendEi.2170+0x18>
    1b08:	00801021 	move	v0,a0
    1b0c:	3c03ffff 	lui	v1,0xffff
    1b10:	00831025 	or	v0,a0,v1
    1b14:	03e00008 	jr	ra
    1b18:	00000000 	nop

00001b1c <float32::operator+(float32 const&) const>:
    1b1c:	27bdffe8 	addiu	sp,sp,-24
    1b20:	afb00010 	sw	s0,16(sp)
    1b24:	afbf0014 	sw	ra,20(sp)
    1b28:	00808021 	move	s0,a0
    1b2c:	88a40000 	lwl	a0,0(a1)
    1b30:	00c01021 	move	v0,a2
    1b34:	98a40003 	lwr	a0,3(a1)
    1b38:	88450000 	lwl	a1,0(v0)
    1b3c:	000437c2 	srl	a2,a0,0x1f
    1b40:	98450003 	lwr	a1,3(v0)
    1b44:	00000000 	nop
    1b48:	000517c2 	srl	v0,a1,0x1f
    1b4c:	14c20005 	bne	a2,v0,1b64 <float32::operator+(float32 const&) const+0x48>
    1b50:	00000000 	nop
    1b54:	0c0004bf 	jal	12fc <_ZN7float327addSigsEjjb.1506>
    1b58:	00000000 	nop
    1b5c:	080006db 	j	1b6c <float32::operator+(float32 const&) const+0x50>
    1b60:	00000000 	nop
    1b64:	0c000530 	jal	14c0 <_ZN7float327subSigsEjjb.1492>
    1b68:	00000000 	nop
    1b6c:	8fbf0014 	lw	ra,20(sp)
    1b70:	aa020000 	swl	v0,0(s0)
    1b74:	ba020003 	swr	v0,3(s0)
    1b78:	02001021 	move	v0,s0
    1b7c:	8fb00010 	lw	s0,16(sp)
    1b80:	03e00008 	jr	ra
    1b84:	27bd0018 	addiu	sp,sp,24

00001b88 <float32::operator+=(float32 const&)>:
    1b88:	27bdffe0 	addiu	sp,sp,-32
    1b8c:	afb00018 	sw	s0,24(sp)
    1b90:	00808021 	move	s0,a0
    1b94:	00a03021 	move	a2,a1
    1b98:	27a40010 	addiu	a0,sp,16
    1b9c:	afbf001c 	sw	ra,28(sp)
    1ba0:	0c0006c7 	jal	1b1c <float32::operator+(float32 const&) const>
    1ba4:	02002821 	move	a1,s0
    1ba8:	8fa20010 	lw	v0,16(sp)
    1bac:	8fbf001c 	lw	ra,28(sp)
    1bb0:	aa020000 	swl	v0,0(s0)
    1bb4:	ba020003 	swr	v0,3(s0)
    1bb8:	02001021 	move	v0,s0
    1bbc:	8fb00018 	lw	s0,24(sp)
    1bc0:	03e00008 	jr	ra
    1bc4:	27bd0020 	addiu	sp,sp,32

00001bc8 <float32::operator-(float32 const&) const>:
    1bc8:	27bdffe8 	addiu	sp,sp,-24
    1bcc:	afb00010 	sw	s0,16(sp)
    1bd0:	afbf0014 	sw	ra,20(sp)
    1bd4:	00808021 	move	s0,a0
    1bd8:	88a40000 	lwl	a0,0(a1)
    1bdc:	00000000 	nop
    1be0:	98a40003 	lwr	a0,3(a1)
    1be4:	88c50000 	lwl	a1,0(a2)
    1be8:	00000000 	nop
    1bec:	98c50003 	lwr	a1,3(a2)
    1bf0:	000437c2 	srl	a2,a0,0x1f
    1bf4:	000517c2 	srl	v0,a1,0x1f
    1bf8:	14c20005 	bne	a2,v0,1c10 <float32::operator-(float32 const&) const+0x48>
    1bfc:	00000000 	nop
    1c00:	0c000530 	jal	14c0 <_ZN7float327subSigsEjjb.1492>
    1c04:	00000000 	nop
    1c08:	08000706 	j	1c18 <float32::operator-(float32 const&) const+0x50>
    1c0c:	00000000 	nop
    1c10:	0c0004bf 	jal	12fc <_ZN7float327addSigsEjjb.1506>
    1c14:	00000000 	nop
    1c18:	8fbf0014 	lw	ra,20(sp)
    1c1c:	aa020000 	swl	v0,0(s0)
    1c20:	ba020003 	swr	v0,3(s0)
    1c24:	02001021 	move	v0,s0
    1c28:	8fb00010 	lw	s0,16(sp)
    1c2c:	03e00008 	jr	ra
    1c30:	27bd0018 	addiu	sp,sp,24

00001c34 <float32::operator-=(float32 const&)>:
    1c34:	27bdffe0 	addiu	sp,sp,-32
    1c38:	afb00018 	sw	s0,24(sp)
    1c3c:	00808021 	move	s0,a0
    1c40:	00a03021 	move	a2,a1
    1c44:	27a40010 	addiu	a0,sp,16
    1c48:	afbf001c 	sw	ra,28(sp)
    1c4c:	0c0006f2 	jal	1bc8 <float32::operator-(float32 const&) const>
    1c50:	02002821 	move	a1,s0
    1c54:	8fa20010 	lw	v0,16(sp)
    1c58:	8fbf001c 	lw	ra,28(sp)
    1c5c:	aa020000 	swl	v0,0(s0)
    1c60:	ba020003 	swr	v0,3(s0)
    1c64:	02001021 	move	v0,s0
    1c68:	8fb00018 	lw	s0,24(sp)
    1c6c:	03e00008 	jr	ra
    1c70:	27bd0020 	addiu	sp,sp,32

00001c74 <float32::operator*(float32 const&) const>:
    1c74:	27bdffd0 	addiu	sp,sp,-48
    1c78:	afb00024 	sw	s0,36(sp)
    1c7c:	afbf002c 	sw	ra,44(sp)
    1c80:	afb10028 	sw	s1,40(sp)
    1c84:	88b10000 	lwl	s1,0(a1)
    1c88:	88c20000 	lwl	v0,0(a2)
    1c8c:	98b10003 	lwr	s1,3(a1)
    1c90:	98c20003 	lwr	v0,3(a2)
    1c94:	3c06007f 	lui	a2,0x7f
    1c98:	34c6ffff 	ori	a2,a2,0xffff
    1c9c:	00111dc2 	srl	v1,s1,0x17
    1ca0:	00022dc2 	srl	a1,v0,0x17
    1ca4:	00808021 	move	s0,a0
    1ca8:	306300ff 	andi	v1,v1,0xff
    1cac:	02262024 	and	a0,s1,a2
    1cb0:	30a500ff 	andi	a1,a1,0xff
    1cb4:	00463024 	and	a2,v0,a2
    1cb8:	02228826 	xor	s1,s1,v0
    1cbc:	240200ff 	li	v0,255
    1cc0:	afa4001c 	sw	a0,28(sp)
    1cc4:	afa30014 	sw	v1,20(sp)
    1cc8:	afa60018 	sw	a2,24(sp)
    1ccc:	afa50010 	sw	a1,16(sp)
    1cd0:	14620006 	bne	v1,v0,1cec <float32::operator*(float32 const&) const+0x78>
    1cd4:	00118fc2 	srl	s1,s1,0x1f
    1cd8:	00a62825 	or	a1,a1,a2
    1cdc:	10a00037 	beqz	a1,1dbc <float32::operator*(float32 const&) const+0x148>
    1ce0:	2402ffff 	li	v0,-1
    1ce4:	0800073e 	j	1cf8 <float32::operator*(float32 const&) const+0x84>
    1ce8:	00118fc0 	sll	s1,s1,0x1f
    1cec:	14a20005 	bne	a1,v0,1d04 <float32::operator*(float32 const&) const+0x90>
    1cf0:	00000000 	nop
    1cf4:	00118fc0 	sll	s1,s1,0x1f
    1cf8:	3c027f80 	lui	v0,0x7f80
    1cfc:	08000752 	j	1d48 <float32::operator*(float32 const&) const+0xd4>
    1d00:	02228821 	addu	s1,s1,v0
    1d04:	14600007 	bnez	v1,1d24 <float32::operator*(float32 const&) const+0xb0>
    1d08:	00000000 	nop
    1d0c:	14800003 	bnez	a0,1d1c <float32::operator*(float32 const&) const+0xa8>
    1d10:	27a50014 	addiu	a1,sp,20
    1d14:	08000752 	j	1d48 <float32::operator*(float32 const&) const+0xd4>
    1d18:	00118fc0 	sll	s1,s1,0x1f
    1d1c:	0c000596 	jal	1658 <_ZN7float3218normalizeSubnormalEjPiPj.1516>
    1d20:	27a6001c 	addiu	a2,sp,28
    1d24:	8fa20010 	lw	v0,16(sp)
    1d28:	00000000 	nop
    1d2c:	1440000c 	bnez	v0,1d60 <float32::operator*(float32 const&) const+0xec>
    1d30:	00000000 	nop
    1d34:	8fa40018 	lw	a0,24(sp)
    1d38:	00000000 	nop
    1d3c:	14800005 	bnez	a0,1d54 <float32::operator*(float32 const&) const+0xe0>
    1d40:	27a50010 	addiu	a1,sp,16
    1d44:	00118fc0 	sll	s1,s1,0x1f
    1d48:	aa110000 	swl	s1,0(s0)
    1d4c:	08000771 	j	1dc4 <float32::operator*(float32 const&) const+0x150>
    1d50:	ba110003 	swr	s1,3(s0)
    1d54:	0c000596 	jal	1658 <_ZN7float3218normalizeSubnormalEjPiPj.1516>
    1d58:	27a60018 	addiu	a2,sp,24
    1d5c:	8fa20010 	lw	v0,16(sp)
    1d60:	8fa30014 	lw	v1,20(sp)
    1d64:	8fa60018 	lw	a2,24(sp)
    1d68:	00621821 	addu	v1,v1,v0
    1d6c:	8fa2001c 	lw	v0,28(sp)
    1d70:	3c040080 	lui	a0,0x80
    1d74:	00821025 	or	v0,a0,v0
    1d78:	00863025 	or	a2,a0,a2
    1d7c:	000211c0 	sll	v0,v0,0x7
    1d80:	00063200 	sll	a2,a2,0x8
    1d84:	00c20019 	multu	a2,v0
    1d88:	afa2001c 	sw	v0,28(sp)
    1d8c:	afa60018 	sw	a2,24(sp)
    1d90:	00003812 	mflo	a3
    1d94:	0007102b 	sltu	v0,zero,a3
    1d98:	00003010 	mfhi	a2
    1d9c:	00461025 	or	v0,v0,a2
    1da0:	00023040 	sll	a2,v0,0x1
    1da4:	04c10003 	bgez	a2,1db4 <float32::operator*(float32 const&) const+0x140>
    1da8:	2465ff80 	addiu	a1,v1,-128
    1dac:	2465ff81 	addiu	a1,v1,-127
    1db0:	00403021 	move	a2,v0
    1db4:	0c000490 	jal	1240 <_ZN7float3212roundAndPackEbij.1511>
    1db8:	02202021 	move	a0,s1
    1dbc:	aa020000 	swl	v0,0(s0)
    1dc0:	ba020003 	swr	v0,3(s0)
    1dc4:	8fbf002c 	lw	ra,44(sp)
    1dc8:	02001021 	move	v0,s0
    1dcc:	8fb10028 	lw	s1,40(sp)
    1dd0:	8fb00024 	lw	s0,36(sp)
    1dd4:	03e00008 	jr	ra
    1dd8:	27bd0030 	addiu	sp,sp,48

00001ddc <sqrt(float32 const&)>:
    1ddc:	27bdffc0 	addiu	sp,sp,-64
    1de0:	afbf003c 	sw	ra,60(sp)
    1de4:	afb10038 	sw	s1,56(sp)
    1de8:	afb00034 	sw	s0,52(sp)
    1dec:	88a30000 	lwl	v1,0(a1)
    1df0:	00808821 	move	s1,a0
    1df4:	98a30003 	lwr	v1,3(a1)
    1df8:	3c023f00 	lui	v0,0x3f00
    1dfc:	27a40014 	addiu	a0,sp,20
    1e00:	27a60018 	addiu	a2,sp,24
    1e04:	00a08021 	move	s0,a1
    1e08:	27a50010 	addiu	a1,sp,16
    1e0c:	afa30018 	sw	v1,24(sp)
    1e10:	0c00071d 	jal	1c74 <float32::operator*(float32 const&) const>
    1e14:	afa20010 	sw	v0,16(sp)
    1e18:	8e100000 	lw	s0,0(s0)
    1e1c:	3c025f37 	lui	v0,0x5f37
    1e20:	244259df 	addiu	v0,v0,23007
    1e24:	afb00024 	sw	s0,36(sp)
    1e28:	00108043 	sra	s0,s0,0x1
    1e2c:	00508023 	subu	s0,v0,s0
    1e30:	27a40028 	addiu	a0,sp,40
    1e34:	27a50024 	addiu	a1,sp,36
    1e38:	27a60010 	addiu	a2,sp,16
    1e3c:	0c00071d 	jal	1c74 <float32::operator*(float32 const&) const>
    1e40:	afb00010 	sw	s0,16(sp)
    1e44:	27a40018 	addiu	a0,sp,24
    1e48:	27a50014 	addiu	a1,sp,20
    1e4c:	27a60010 	addiu	a2,sp,16
    1e50:	0c00071d 	jal	1c74 <float32::operator*(float32 const&) const>
    1e54:	afb00010 	sw	s0,16(sp)
    1e58:	27a4001c 	addiu	a0,sp,28
    1e5c:	27a50018 	addiu	a1,sp,24
    1e60:	27a60010 	addiu	a2,sp,16
    1e64:	0c00071d 	jal	1c74 <float32::operator*(float32 const&) const>
    1e68:	afb00010 	sw	s0,16(sp)
    1e6c:	3c023fc0 	lui	v0,0x3fc0
    1e70:	27a40020 	addiu	a0,sp,32
    1e74:	27a50010 	addiu	a1,sp,16
    1e78:	27a6001c 	addiu	a2,sp,28
    1e7c:	0c0006f2 	jal	1bc8 <float32::operator-(float32 const&) const>
    1e80:	afa20010 	sw	v0,16(sp)
    1e84:	02202021 	move	a0,s1
    1e88:	27a50028 	addiu	a1,sp,40
    1e8c:	0c00071d 	jal	1c74 <float32::operator*(float32 const&) const>
    1e90:	27a60020 	addiu	a2,sp,32
    1e94:	8fbf003c 	lw	ra,60(sp)
    1e98:	02201021 	move	v0,s1
    1e9c:	8fb00034 	lw	s0,52(sp)
    1ea0:	8fb10038 	lw	s1,56(sp)
    1ea4:	03e00008 	jr	ra
    1ea8:	27bd0040 	addiu	sp,sp,64

00001eac <_ZN6System3Bus3I2CL2ioEcNS1_6IoTypeE.isra.0.1701>:
    1eac:	3c020002 	lui	v0,0x2
    1eb0:	00822025 	or	a0,a0,v0
    1eb4:	ac04000c 	sw	a0,12(zero)
    1eb8:	8c02000c 	lw	v0,12(zero)
    1ebc:	00000000 	nop
    1ec0:	0440fffd 	bltz	v0,1eb8 <_ZN6System3Bus3I2CL2ioEcNS1_6IoTypeE.isra.0.1701+0xc>
    1ec4:	00000000 	nop
    1ec8:	8c02000c 	lw	v0,12(zero)
    1ecc:	03e00008 	jr	ra
    1ed0:	00000000 	nop

00001ed4 <System::Bus::I2C::read()>:
    1ed4:	27bdffe8 	addiu	sp,sp,-24
    1ed8:	afbf0014 	sw	ra,20(sp)
    1edc:	0c0007ab 	jal	1eac <_ZN6System3Bus3I2CL2ioEcNS1_6IoTypeE.isra.0.1701>
    1ee0:	2404ffff 	li	a0,-1
    1ee4:	8fbf0014 	lw	ra,20(sp)
    1ee8:	00021600 	sll	v0,v0,0x18
    1eec:	00021603 	sra	v0,v0,0x18
    1ef0:	03e00008 	jr	ra
    1ef4:	27bd0018 	addiu	sp,sp,24

00001ef8 <_ZN7Control32StabilizationAndEngineUpdateTask5startEv.1442>:
    1ef8:	3c020004 	lui	v0,0x4
    1efc:	27bdffb8 	addiu	sp,sp,-72
    1f00:	244200ff 	addiu	v0,v0,255
    1f04:	afb60038 	sw	s6,56(sp)
    1f08:	afbf0044 	sw	ra,68(sp)
    1f0c:	afbe0040 	sw	s8,64(sp)
    1f10:	afb7003c 	sw	s7,60(sp)
    1f14:	afb50034 	sw	s5,52(sp)
    1f18:	afb40030 	sw	s4,48(sp)
    1f1c:	afb3002c 	sw	s3,44(sp)
    1f20:	afb20028 	sw	s2,40(sp)
    1f24:	afb10024 	sw	s1,36(sp)
    1f28:	afb00020 	sw	s0,32(sp)
    1f2c:	0080b021 	move	s6,a0
    1f30:	ac02000c 	sw	v0,12(zero)
    1f34:	8c02000c 	lw	v0,12(zero)
    1f38:	00000000 	nop
    1f3c:	0440fffd 	bltz	v0,1f34 <_ZN7Control32StabilizationAndEngineUpdateTask5startEv.1442+0x3c>
    1f40:	00000000 	nop
    1f44:	0c0007ab 	jal	1eac <_ZN6System3Bus3I2CL2ioEcNS1_6IoTypeE.isra.0.1701>
    1f48:	2404ffd0 	li	a0,-48
    1f4c:	0c0007ab 	jal	1eac <_ZN6System3Bus3I2CL2ioEcNS1_6IoTypeE.isra.0.1701>
    1f50:	2404003b 	li	a0,59
    1f54:	3c020001 	lui	v0,0x1
    1f58:	244200ff 	addiu	v0,v0,255
    1f5c:	ac02000c 	sw	v0,12(zero)
    1f60:	8c02000c 	lw	v0,12(zero)
    1f64:	00000000 	nop
    1f68:	0440fffd 	bltz	v0,1f60 <_ZN7Control32StabilizationAndEngineUpdateTask5startEv.1442+0x68>
    1f6c:	3c020004 	lui	v0,0x4
    1f70:	244200ff 	addiu	v0,v0,255
    1f74:	ac02000c 	sw	v0,12(zero)
    1f78:	8c02000c 	lw	v0,12(zero)
    1f7c:	00000000 	nop
    1f80:	0440fffd 	bltz	v0,1f78 <_ZN7Control32StabilizationAndEngineUpdateTask5startEv.1442+0x80>
    1f84:	00000000 	nop
    1f88:	0c0007ab 	jal	1eac <_ZN6System3Bus3I2CL2ioEcNS1_6IoTypeE.isra.0.1701>
    1f8c:	2404ffd1 	li	a0,-47
    1f90:	0c0007b5 	jal	1ed4 <System::Bus::I2C::read()>
    1f94:	00000000 	nop
    1f98:	0c0007b5 	jal	1ed4 <System::Bus::I2C::read()>
    1f9c:	afa20014 	sw	v0,20(sp)
    1fa0:	0c0007b5 	jal	1ed4 <System::Bus::I2C::read()>
    1fa4:	afa20018 	sw	v0,24(sp)
    1fa8:	0c0007b5 	jal	1ed4 <System::Bus::I2C::read()>
    1fac:	0040f021 	move	s8,v0
    1fb0:	0c0007b5 	jal	1ed4 <System::Bus::I2C::read()>
    1fb4:	0040b821 	move	s7,v0
    1fb8:	0c0007b5 	jal	1ed4 <System::Bus::I2C::read()>
    1fbc:	afa20010 	sw	v0,16(sp)
    1fc0:	0c0007b5 	jal	1ed4 <System::Bus::I2C::read()>
    1fc4:	0040a821 	move	s5,v0
    1fc8:	0c0007b5 	jal	1ed4 <System::Bus::I2C::read()>
    1fcc:	00000000 	nop
    1fd0:	0c0007b5 	jal	1ed4 <System::Bus::I2C::read()>
    1fd4:	00000000 	nop
    1fd8:	0c0007b5 	jal	1ed4 <System::Bus::I2C::read()>
    1fdc:	0040a021 	move	s4,v0
    1fe0:	0c0007b5 	jal	1ed4 <System::Bus::I2C::read()>
    1fe4:	00409821 	move	s3,v0
    1fe8:	0c0007b5 	jal	1ed4 <System::Bus::I2C::read()>
    1fec:	00409021 	move	s2,v0
    1ff0:	0c0007b5 	jal	1ed4 <System::Bus::I2C::read()>
    1ff4:	00408821 	move	s1,v0
    1ff8:	0c0007b5 	jal	1ed4 <System::Bus::I2C::read()>
    1ffc:	00408021 	move	s0,v0
    2000:	00403021 	move	a2,v0
    2004:	3c020001 	lui	v0,0x1
    2008:	244200ff 	addiu	v0,v0,255
    200c:	8fa50018 	lw	a1,24(sp)
    2010:	8fa40014 	lw	a0,20(sp)
    2014:	ac02000c 	sw	v0,12(zero)
    2018:	8c02000c 	lw	v0,12(zero)
    201c:	00000000 	nop
    2020:	0440fffd 	bltz	v0,2018 <_ZN7Control32StabilizationAndEngineUpdateTask5startEv.1442+0x120>
    2024:	00000000 	nop
    2028:	00042200 	sll	a0,a0,0x8
    202c:	00852025 	or	a0,a0,a1
    2030:	0c0006bf 	jal	1afc <_ZN4MathL11sign_extendEi.2170>
    2034:	afa60014 	sw	a2,20(sp)
    2038:	001e2200 	sll	a0,s8,0x8
    203c:	00972025 	or	a0,a0,s7
    2040:	0c0006bf 	jal	1afc <_ZN4MathL11sign_extendEi.2170>
    2044:	afa20018 	sw	v0,24(sp)
    2048:	8fa30010 	lw	v1,16(sp)
    204c:	0040b821 	move	s7,v0
    2050:	00032200 	sll	a0,v1,0x8
    2054:	0c0006bf 	jal	1afc <_ZN4MathL11sign_extendEi.2170>
    2058:	00952025 	or	a0,a0,s5
    205c:	00142200 	sll	a0,s4,0x8
    2060:	00932025 	or	a0,a0,s3
    2064:	0c0006bf 	jal	1afc <_ZN4MathL11sign_extendEi.2170>
    2068:	0040a821 	move	s5,v0
    206c:	00122200 	sll	a0,s2,0x8
    2070:	00912025 	or	a0,a0,s1
    2074:	0c0006bf 	jal	1afc <_ZN4MathL11sign_extendEi.2170>
    2078:	00409821 	move	s3,v0
    207c:	8fa60014 	lw	a2,20(sp)
    2080:	00102200 	sll	a0,s0,0x8
    2084:	00862025 	or	a0,a0,a2
    2088:	0c0006bf 	jal	1afc <_ZN4MathL11sign_extendEi.2170>
    208c:	00408821 	move	s1,v0
    2090:	0c0006b0 	jal	1ac0 <_ZN6System8Registry8instanceEv.local.0>
    2094:	00408021 	move	s0,v0
    2098:	8fa50018 	lw	a1,24(sp)
    209c:	00000000 	nop
    20a0:	a8450000 	swl	a1,0(v0)
    20a4:	0c0006b0 	jal	1ac0 <_ZN6System8Registry8instanceEv.local.0>
    20a8:	b8450003 	swr	a1,3(v0)
    20ac:	a8570004 	swl	s7,4(v0)
    20b0:	0c0006b0 	jal	1ac0 <_ZN6System8Registry8instanceEv.local.0>
    20b4:	b8570007 	swr	s7,7(v0)
    20b8:	a8550008 	swl	s5,8(v0)
    20bc:	0c0006b0 	jal	1ac0 <_ZN6System8Registry8instanceEv.local.0>
    20c0:	b855000b 	swr	s5,11(v0)
    20c4:	a8530018 	swl	s3,24(v0)
    20c8:	0c0006b0 	jal	1ac0 <_ZN6System8Registry8instanceEv.local.0>
    20cc:	b853001b 	swr	s3,27(v0)
    20d0:	a851001c 	swl	s1,28(v0)
    20d4:	0c0006b0 	jal	1ac0 <_ZN6System8Registry8instanceEv.local.0>
    20d8:	b851001f 	swr	s1,31(v0)
    20dc:	a8500020 	swl	s0,32(v0)
    20e0:	0c0006b0 	jal	1ac0 <_ZN6System8Registry8instanceEv.local.0>
    20e4:	b8500023 	swr	s0,35(v0)
    20e8:	8c500000 	lw	s0,0(v0)
    20ec:	0c0006b0 	jal	1ac0 <_ZN6System8Registry8instanceEv.local.0>
    20f0:	00000000 	nop
    20f4:	8c420004 	lw	v0,4(v0)
    20f8:	00000000 	nop
    20fc:	02028823 	subu	s1,s0,v0
    2100:	0c0006b0 	jal	1ac0 <_ZN6System8Registry8instanceEv.local.0>
    2104:	02028021 	addu	s0,s0,v0
    2108:	8c54004c 	lw	s4,76(v0)
    210c:	0c0006b0 	jal	1ac0 <_ZN6System8Registry8instanceEv.local.0>
    2110:	0234a023 	subu	s4,s1,s4
    2114:	8c520050 	lw	s2,80(v0)
    2118:	0c0006b0 	jal	1ac0 <_ZN6System8Registry8instanceEv.local.0>
    211c:	02129023 	subu	s2,s0,s2
    2120:	8c530018 	lw	s3,24(v0)
    2124:	0c0006b0 	jal	1ac0 <_ZN6System8Registry8instanceEv.local.0>
    2128:	00000000 	nop
    212c:	8c42001c 	lw	v0,28(v0)
    2130:	00000000 	nop
    2134:	02622021 	addu	a0,s3,v0
    2138:	0262a823 	subu	s5,s3,v0
    213c:	8ac2001c 	lwl	v0,28(s6)
    2140:	00000000 	nop
    2144:	9ac2001f 	lwr	v0,31(s6)
    2148:	00000000 	nop
    214c:	02221026 	xor	v0,s1,v0
    2150:	04410004 	bgez	v0,2164 <_ZN7Control32StabilizationAndEngineUpdateTask5startEv.1442+0x26c>
    2154:	00042023 	negu	a0,a0
    2158:	aac00014 	swl	zero,20(s6)
    215c:	08000862 	j	2188 <_ZN7Control32StabilizationAndEngineUpdateTask5startEv.1442+0x290>
    2160:	bac00017 	swr	zero,23(s6)
    2164:	8ac20014 	lwl	v0,20(s6)
    2168:	00000000 	nop
    216c:	9ac20017 	lwr	v0,23(s6)
    2170:	00000000 	nop
    2174:	2c4507d0 	sltiu	a1,v0,2000
    2178:	10a00003 	beqz	a1,2188 <_ZN7Control32StabilizationAndEngineUpdateTask5startEv.1442+0x290>
    217c:	00511021 	addu	v0,v0,s1
    2180:	aac20014 	swl	v0,20(s6)
    2184:	bac20017 	swr	v0,23(s6)
    2188:	8ac20020 	lwl	v0,32(s6)
    218c:	00000000 	nop
    2190:	9ac20023 	lwr	v0,35(s6)
    2194:	00000000 	nop
    2198:	02021026 	xor	v0,s0,v0
    219c:	04410004 	bgez	v0,21b0 <_ZN7Control32StabilizationAndEngineUpdateTask5startEv.1442+0x2b8>
    21a0:	00000000 	nop
    21a4:	aac00018 	swl	zero,24(s6)
    21a8:	08000875 	j	21d4 <_ZN7Control32StabilizationAndEngineUpdateTask5startEv.1442+0x2dc>
    21ac:	bac0001b 	swr	zero,27(s6)
    21b0:	8ac20018 	lwl	v0,24(s6)
    21b4:	00000000 	nop
    21b8:	9ac2001b 	lwr	v0,27(s6)
    21bc:	00000000 	nop
    21c0:	2c4507d0 	sltiu	a1,v0,2000
    21c4:	10a00003 	beqz	a1,21d4 <_ZN7Control32StabilizationAndEngineUpdateTask5startEv.1442+0x2dc>
    21c8:	00501021 	addu	v0,v0,s0
    21cc:	aac20018 	swl	v0,24(s6)
    21d0:	bac2001b 	swr	v0,27(s6)
    21d4:	aad1001c 	swl	s1,28(s6)
    21d8:	bad1001f 	swr	s1,31(s6)
    21dc:	aad00020 	swl	s0,32(s6)
    21e0:	bad00023 	swr	s0,35(s6)
    21e4:	241000a0 	li	s0,160
    21e8:	02900018 	mult	s4,s0
    21ec:	24130003 	li	s3,3
    21f0:	2411012c 	li	s1,300
    21f4:	00001012 	mflo	v0
    21f8:	0002a283 	sra	s4,v0,0xa
    21fc:	8ac20014 	lwl	v0,20(s6)
    2200:	00000000 	nop
    2204:	9ac20017 	lwr	v0,23(s6)
    2208:	00000000 	nop
    220c:	00530018 	mult	v0,s3
    2210:	00001812 	mflo	v1
    2214:	00031283 	sra	v0,v1,0xa
    2218:	0282a021 	addu	s4,s4,v0
    221c:	00910018 	mult	a0,s1
    2220:	00001012 	mflo	v0
    2224:	afa20010 	sw	v0,16(sp)
    2228:	00021283 	sra	v0,v0,0xa
    222c:	0c0006b0 	jal	1ac0 <_ZN6System8Registry8instanceEv.local.0>
    2230:	0282a021 	addu	s4,s4,v0
    2234:	02500018 	mult	s2,s0
    2238:	a854003c 	swl	s4,60(v0)
    223c:	b854003f 	swr	s4,63(v0)
    2240:	00001012 	mflo	v0
    2244:	00028283 	sra	s0,v0,0xa
    2248:	8ac20018 	lwl	v0,24(s6)
    224c:	00000000 	nop
    2250:	9ac2001b 	lwr	v0,27(s6)
    2254:	00000000 	nop
    2258:	00530018 	mult	v0,s3
    225c:	00001812 	mflo	v1
    2260:	00031283 	sra	v0,v1,0xa
    2264:	02028021 	addu	s0,s0,v0
    2268:	02b10018 	mult	s5,s1
    226c:	00001012 	mflo	v0
    2270:	afa20010 	sw	v0,16(sp)
    2274:	00021283 	sra	v0,v0,0xa
    2278:	0c0006b0 	jal	1ac0 <_ZN6System8Registry8instanceEv.local.0>
    227c:	02028021 	addu	s0,s0,v0
    2280:	a8500040 	swl	s0,64(v0)
    2284:	0c0006b0 	jal	1ac0 <_ZN6System8Registry8instanceEv.local.0>
    2288:	b8500043 	swr	s0,67(v0)
    228c:	8c500038 	lw	s0,56(v0)
    2290:	00000000 	nop
    2294:	2e0200c9 	sltiu	v0,s0,201
    2298:	1440000f 	bnez	v0,22d8 <_ZN7Control32StabilizationAndEngineUpdateTask5startEv.1442+0x3e0>
    229c:	00000000 	nop
    22a0:	0c0006b0 	jal	1ac0 <_ZN6System8Registry8instanceEv.local.0>
    22a4:	00000000 	nop
    22a8:	8c53003c 	lw	s3,60(v0)
    22ac:	0c0006b0 	jal	1ac0 <_ZN6System8Registry8instanceEv.local.0>
    22b0:	02139821 	addu	s3,s0,s3
    22b4:	8c510040 	lw	s1,64(v0)
    22b8:	0c0006b0 	jal	1ac0 <_ZN6System8Registry8instanceEv.local.0>
    22bc:	02118823 	subu	s1,s0,s1
    22c0:	8c52003c 	lw	s2,60(v0)
    22c4:	0c0006b0 	jal	1ac0 <_ZN6System8Registry8instanceEv.local.0>
    22c8:	02129023 	subu	s2,s0,s2
    22cc:	8c420040 	lw	v0,64(v0)
    22d0:	080008b9 	j	22e4 <_ZN7Control32StabilizationAndEngineUpdateTask5startEv.1442+0x3ec>
    22d4:	02028021 	addu	s0,s0,v0
    22d8:	02009021 	move	s2,s0
    22dc:	02008821 	move	s1,s0
    22e0:	02009821 	move	s3,s0
    22e4:	00139c00 	sll	s3,s3,0x10
    22e8:	00118c00 	sll	s1,s1,0x10
    22ec:	8fbf0044 	lw	ra,68(sp)
    22f0:	02729025 	or	s2,s3,s2
    22f4:	02308025 	or	s0,s1,s0
    22f8:	ac120040 	sw	s2,64(zero)
    22fc:	8fbe0040 	lw	s8,64(sp)
    2300:	ac100044 	sw	s0,68(zero)
    2304:	8fb7003c 	lw	s7,60(sp)
    2308:	8fb60038 	lw	s6,56(sp)
    230c:	8fb50034 	lw	s5,52(sp)
    2310:	8fb40030 	lw	s4,48(sp)
    2314:	8fb3002c 	lw	s3,44(sp)
    2318:	8fb20028 	lw	s2,40(sp)
    231c:	8fb10024 	lw	s1,36(sp)
    2320:	8fb00020 	lw	s0,32(sp)
    2324:	03e00008 	jr	ra
    2328:	27bd0048 	addiu	sp,sp,72

0000232c <__ashldi3>:
    232c:	10c0000a 	beqz	a2,2358 <__ashldi3+0x2c>
    2330:	00801021 	move	v0,a0
    2334:	24030020 	li	v1,32
    2338:	00661823 	subu	v1,v1,a2
    233c:	18600008 	blez	v1,2360 <__ashldi3+0x34>
    2340:	00000000 	nop
    2344:	00651806 	srlv	v1,a1,v1
    2348:	00c41004 	sllv	v0,a0,a2
    234c:	00c53004 	sllv	a2,a1,a2
    2350:	00621025 	or	v0,v1,v0
    2354:	00c02821 	move	a1,a2
    2358:	03e00008 	jr	ra
    235c:	00a01821 	move	v1,a1
    2360:	00031023 	negu	v0,v1
    2364:	00003021 	move	a2,zero
    2368:	00451004 	sllv	v0,a1,v0
    236c:	080008d6 	j	2358 <__ashldi3+0x2c>
    2370:	00c02821 	move	a1,a2

00002374 <global constructors keyed to 65535_0__ZN6System7Tasking4Pool16xbeeReadIdleTaskE.2219.1318>:
    2374:	3c048000 	lui	a0,0x8000
    2378:	3c038000 	lui	v1,0x8000
    237c:	24840148 	addiu	a0,a0,328
    2380:	246201bc 	addiu	v0,v1,444
    2384:	ac6401bc 	sw	a0,444(v1)
    2388:	3c048000 	lui	a0,0x8000
    238c:	ac400004 	sw	zero,4(v0)
    2390:	ac400008 	sw	zero,8(v0)
    2394:	ac40000c 	sw	zero,12(v0)
    2398:	ac400034 	sw	zero,52(v0)
    239c:	a0400038 	sb	zero,56(v0)
    23a0:	3c038000 	lui	v1,0x8000
    23a4:	a8400039 	swl	zero,57(v0)
    23a8:	24840128 	addiu	a0,a0,296
    23ac:	b840003c 	swr	zero,60(v0)
    23b0:	246201fc 	addiu	v0,v1,508
    23b4:	ac6401fc 	sw	a0,508(v1)
    23b8:	3c033a83 	lui	v1,0x3a83
    23bc:	2463126f 	addiu	v1,v1,4719
    23c0:	ac400004 	sw	zero,4(v0)
    23c4:	ac400008 	sw	zero,8(v0)
    23c8:	ac40000c 	sw	zero,12(v0)
    23cc:	ac400014 	sw	zero,20(v0)
    23d0:	ac400018 	sw	zero,24(v0)
    23d4:	ac40001c 	sw	zero,28(v0)
    23d8:	ac400020 	sw	zero,32(v0)
    23dc:	3c028000 	lui	v0,0x8000
    23e0:	ac4301b8 	sw	v1,440(v0)
    23e4:	3c033db2 	lui	v1,0x3db2
    23e8:	3463b8c2 	ori	v1,v1,0xb8c2
    23ec:	3c028000 	lui	v0,0x8000
    23f0:	ac430220 	sw	v1,544(v0)
    23f4:	3c033b64 	lui	v1,0x3b64
    23f8:	3463c388 	ori	v1,v1,0xc388
    23fc:	3c028000 	lui	v0,0x8000
    2400:	ac430224 	sw	v1,548(v0)
    2404:	3c033d9a 	lui	v1,0x3d9a
    2408:	3463c70d 	ori	v1,v1,0xc70d
    240c:	3c028000 	lui	v0,0x8000
    2410:	ac4301b4 	sw	v1,436(v0)
    2414:	3c033b46 	lui	v1,0x3b46
    2418:	24631d82 	addiu	v1,v1,7554
    241c:	3c028000 	lui	v0,0x8000
    2420:	ac430228 	sw	v1,552(v0)
    2424:	3c03364a 	lui	v1,0x364a
    2428:	3463deba 	ori	v1,v1,0xdeba
    242c:	3c028000 	lui	v0,0x8000
    2430:	03e00008 	jr	ra
    2434:	ac4301b0 	sw	v1,432(v0)

00002438 <main>:
    2438:	27bdff38 	addiu	sp,sp,-200
    243c:	3c023f80 	lui	v0,0x3f80
    2440:	afb100c0 	sw	s1,192(sp)
    2444:	afb000bc 	sw	s0,188(sp)
    2448:	afbf00c4 	sw	ra,196(sp)
    244c:	afa2004c 	sw	v0,76(sp)
    2450:	afa2005c 	sw	v0,92(sp)
    2454:	27b1007c 	addiu	s1,sp,124
    2458:	27b00080 	addiu	s0,sp,128
    245c:	8fa200b4 	lw	v0,180(sp)
    2460:	afb10010 	sw	s1,16(sp)
    2464:	afa20070 	sw	v0,112(sp)
    2468:	8fa200b0 	lw	v0,176(sp)
    246c:	afb00014 	sw	s0,20(sp)
    2470:	afa20074 	sw	v0,116(sp)
    2474:	8fa200ac 	lw	v0,172(sp)
    2478:	27a40028 	addiu	a0,sp,40
    247c:	afa20078 	sw	v0,120(sp)
    2480:	8fa200a8 	lw	v0,168(sp)
    2484:	27a50070 	addiu	a1,sp,112
    2488:	afa2007c 	sw	v0,124(sp)
    248c:	8fa200a4 	lw	v0,164(sp)
    2490:	27a60074 	addiu	a2,sp,116
    2494:	afa20080 	sw	v0,128(sp)
    2498:	8fa200a0 	lw	v0,160(sp)
    249c:	27a70078 	addiu	a3,sp,120
    24a0:	afa20084 	sw	v0,132(sp)
    24a4:	8fa2009c 	lw	v0,156(sp)
    24a8:	00000000 	nop
    24ac:	afa20088 	sw	v0,136(sp)
    24b0:	8fa20098 	lw	v0,152(sp)
    24b4:	00000000 	nop
    24b8:	afa2008c 	sw	v0,140(sp)
    24bc:	8fa20094 	lw	v0,148(sp)
    24c0:	00000000 	nop
    24c4:	afa20090 	sw	v0,144(sp)
    24c8:	27a20084 	addiu	v0,sp,132
    24cc:	afa20018 	sw	v0,24(sp)
    24d0:	27a20088 	addiu	v0,sp,136
    24d4:	afa2001c 	sw	v0,28(sp)
    24d8:	27a2008c 	addiu	v0,sp,140
    24dc:	afa20020 	sw	v0,32(sp)
    24e0:	27a20090 	addiu	v0,sp,144
    24e4:	0c000008 	jal	20 <Control::MARG::filterUpdateMARG(float32, float32, float32, float32, float32, float32, float32, float32, float32)>
    24e8:	afa20024 	sw	v0,36(sp)
    24ec:	08000917 	j	245c <main+0x24>
    24f0:	00000000 	nop

000024f4 <CODE_ENDS>:
    24f4:	00000000 	nop
    24f8:	00000000 	nop
    24fc:	00000000 	nop
    2500:	00000000 	nop
    2504:	00000000 	nop
    2508:	00000000 	nop
    250c:	00000000 	nop
    2510:	00000000 	nop
    2514:	00000000 	nop
    2518:	00000000 	nop
    251c:	00000000 	nop
    2520:	00000000 	nop
    2524:	00000000 	nop
    2528:	00000000 	nop
    252c:	00000000 	nop
    2530:	00000000 	nop
    2534:	00000000 	nop
    2538:	00000000 	nop
    253c:	00000000 	nop
    2540:	00000000 	nop
    2544:	00000000 	nop
    2548:	00000000 	nop
    254c:	00000000 	nop
    2550:	00000000 	nop
    2554:	00000000 	nop
    2558:	00000000 	nop
    255c:	00000000 	nop
    2560:	00000000 	nop
    2564:	00000000 	nop
    2568:	00000000 	nop
    256c:	00000000 	nop
    2570:	00000000 	nop
    2574:	00000000 	nop
    2578:	00000000 	nop
    257c:	00000000 	nop
    2580:	00000000 	nop
    2584:	00000000 	nop
    2588:	00000000 	nop
    258c:	00000000 	nop
    2590:	00000000 	nop
    2594:	00000000 	nop
    2598:	00000000 	nop
    259c:	00000000 	nop
    25a0:	00000000 	nop
    25a4:	00000000 	nop
    25a8:	00000000 	nop
    25ac:	00000000 	nop
    25b0:	00000000 	nop
    25b4:	00000000 	nop
    25b8:	00000000 	nop
    25bc:	00000000 	nop
    25c0:	00000000 	nop
    25c4:	00000000 	nop
    25c8:	00000000 	nop
    25cc:	00000000 	nop
    25d0:	00000000 	nop
    25d4:	00000000 	nop
    25d8:	00000000 	nop
    25dc:	00000000 	nop
    25e0:	00000000 	nop
    25e4:	00000000 	nop
    25e8:	00000000 	nop
    25ec:	00000000 	nop
    25f0:	00000000 	nop
    25f4:	00000000 	nop
    25f8:	00000000 	nop
    25fc:	00000000 	nop
    2600:	00000000 	nop
    2604:	00000000 	nop
    2608:	00000000 	nop
    260c:	00000000 	nop
    2610:	00000000 	nop
    2614:	00000000 	nop
    2618:	00000000 	nop
    261c:	00000000 	nop
    2620:	00000000 	nop
    2624:	00000000 	nop
    2628:	00000000 	nop
    262c:	00000000 	nop
    2630:	00000000 	nop
    2634:	00000000 	nop
    2638:	00000000 	nop
    263c:	00000000 	nop
    2640:	00000000 	nop
    2644:	00000000 	nop
    2648:	00000000 	nop
    264c:	00000000 	nop
    2650:	00000000 	nop
    2654:	00000000 	nop
    2658:	00000000 	nop
    265c:	00000000 	nop
    2660:	00000000 	nop
    2664:	00000000 	nop
    2668:	00000000 	nop
    266c:	00000000 	nop
    2670:	00000000 	nop
    2674:	00000000 	nop
    2678:	00000000 	nop
    267c:	00000000 	nop
    2680:	00000000 	nop
    2684:	00000000 	nop
    2688:	00000000 	nop
    268c:	00000000 	nop
    2690:	00000000 	nop
    2694:	00000000 	nop
    2698:	00000000 	nop
    269c:	00000000 	nop
    26a0:	00000000 	nop
    26a4:	00000000 	nop
    26a8:	00000000 	nop
    26ac:	00000000 	nop
    26b0:	00000000 	nop
    26b4:	00000000 	nop
    26b8:	00000000 	nop
    26bc:	00000000 	nop
    26c0:	00000000 	nop
    26c4:	00000000 	nop
    26c8:	00000000 	nop
    26cc:	00000000 	nop
    26d0:	00000000 	nop
    26d4:	00000000 	nop
    26d8:	00000000 	nop
    26dc:	00000000 	nop
    26e0:	00000000 	nop
    26e4:	00000000 	nop
    26e8:	00000000 	nop
    26ec:	00000000 	nop
    26f0:	00000000 	nop
    26f4:	00000000 	nop
    26f8:	00000000 	nop
    26fc:	00000000 	nop
    2700:	00000000 	nop
    2704:	00000000 	nop
    2708:	00000000 	nop
    270c:	00000000 	nop
    2710:	00000000 	nop
    2714:	00000000 	nop
    2718:	00000000 	nop
    271c:	00000000 	nop
    2720:	00000000 	nop
    2724:	00000000 	nop
    2728:	00000000 	nop
    272c:	00000000 	nop
    2730:	00000000 	nop
    2734:	00000000 	nop
    2738:	00000000 	nop
    273c:	00000000 	nop
    2740:	00000000 	nop
    2744:	00000000 	nop
    2748:	00000000 	nop
    274c:	00000000 	nop
    2750:	00000000 	nop
    2754:	00000000 	nop
    2758:	00000000 	nop
    275c:	00000000 	nop
    2760:	00000000 	nop
    2764:	00000000 	nop
    2768:	00000000 	nop
    276c:	00000000 	nop
    2770:	00000000 	nop
    2774:	00000000 	nop
    2778:	00000000 	nop
    277c:	00000000 	nop
    2780:	00000000 	nop
    2784:	00000000 	nop
    2788:	00000000 	nop
    278c:	00000000 	nop
    2790:	00000000 	nop
    2794:	00000000 	nop
    2798:	00000000 	nop
    279c:	00000000 	nop
    27a0:	00000000 	nop
    27a4:	00000000 	nop
    27a8:	00000000 	nop
    27ac:	00000000 	nop
    27b0:	00000000 	nop
    27b4:	00000000 	nop
    27b8:	00000000 	nop
    27bc:	00000000 	nop
    27c0:	00000000 	nop
    27c4:	00000000 	nop
    27c8:	00000000 	nop
    27cc:	00000000 	nop
    27d0:	00000000 	nop
    27d4:	00000000 	nop
    27d8:	00000000 	nop
    27dc:	00000000 	nop
    27e0:	00000000 	nop
    27e4:	00000000 	nop
    27e8:	00000000 	nop
    27ec:	00000000 	nop
    27f0:	00000000 	nop
    27f4:	00000000 	nop
    27f8:	00000000 	nop
    27fc:	00000000 	nop
    2800:	00000000 	nop
    2804:	00000000 	nop
    2808:	00000000 	nop
    280c:	00000000 	nop
    2810:	00000000 	nop
    2814:	00000000 	nop
    2818:	00000000 	nop
    281c:	00000000 	nop
    2820:	00000000 	nop
    2824:	00000000 	nop
    2828:	00000000 	nop
    282c:	00000000 	nop
    2830:	00000000 	nop
    2834:	00000000 	nop
    2838:	00000000 	nop
    283c:	00000000 	nop
    2840:	00000000 	nop
    2844:	00000000 	nop
    2848:	00000000 	nop
    284c:	00000000 	nop
    2850:	00000000 	nop
    2854:	00000000 	nop
    2858:	00000000 	nop
    285c:	00000000 	nop
    2860:	00000000 	nop
    2864:	00000000 	nop
    2868:	00000000 	nop
    286c:	00000000 	nop
    2870:	00000000 	nop
    2874:	00000000 	nop
    2878:	00000000 	nop
    287c:	00000000 	nop
    2880:	00000000 	nop
    2884:	00000000 	nop
    2888:	00000000 	nop
    288c:	00000000 	nop
    2890:	00000000 	nop
    2894:	00000000 	nop
    2898:	00000000 	nop
    289c:	00000000 	nop
    28a0:	00000000 	nop
    28a4:	00000000 	nop
    28a8:	00000000 	nop
    28ac:	00000000 	nop
    28b0:	00000000 	nop
    28b4:	00000000 	nop
    28b8:	00000000 	nop
    28bc:	00000000 	nop
    28c0:	00000000 	nop
    28c4:	00000000 	nop
    28c8:	00000000 	nop
    28cc:	00000000 	nop
    28d0:	00000000 	nop
    28d4:	00000000 	nop
    28d8:	00000000 	nop
    28dc:	00000000 	nop
    28e0:	00000000 	nop
    28e4:	00000000 	nop
    28e8:	00000000 	nop
    28ec:	00000000 	nop
    28f0:	00000000 	nop
    28f4:	00000000 	nop
    28f8:	00000000 	nop
    28fc:	00000000 	nop
    2900:	00000000 	nop
    2904:	00000000 	nop
    2908:	00000000 	nop
    290c:	00000000 	nop
    2910:	00000000 	nop
    2914:	00000000 	nop
    2918:	00000000 	nop
    291c:	00000000 	nop
    2920:	00000000 	nop
    2924:	00000000 	nop
    2928:	00000000 	nop
    292c:	00000000 	nop
    2930:	00000000 	nop
    2934:	00000000 	nop
    2938:	00000000 	nop
    293c:	00000000 	nop
    2940:	00000000 	nop
    2944:	00000000 	nop
    2948:	00000000 	nop
    294c:	00000000 	nop
    2950:	00000000 	nop
    2954:	00000000 	nop
    2958:	00000000 	nop
    295c:	00000000 	nop
    2960:	00000000 	nop
    2964:	00000000 	nop
    2968:	00000000 	nop
    296c:	00000000 	nop
    2970:	00000000 	nop
    2974:	00000000 	nop
    2978:	00000000 	nop
    297c:	00000000 	nop
    2980:	00000000 	nop
    2984:	00000000 	nop
    2988:	00000000 	nop
    298c:	00000000 	nop
    2990:	00000000 	nop
    2994:	00000000 	nop
    2998:	00000000 	nop
    299c:	00000000 	nop
    29a0:	00000000 	nop
    29a4:	00000000 	nop
    29a8:	00000000 	nop
    29ac:	00000000 	nop
    29b0:	00000000 	nop
    29b4:	00000000 	nop
    29b8:	00000000 	nop
    29bc:	00000000 	nop
    29c0:	00000000 	nop
    29c4:	00000000 	nop
    29c8:	00000000 	nop
    29cc:	00000000 	nop
    29d0:	00000000 	nop
    29d4:	00000000 	nop
    29d8:	00000000 	nop
    29dc:	00000000 	nop
    29e0:	00000000 	nop
    29e4:	00000000 	nop
    29e8:	00000000 	nop
    29ec:	00000000 	nop
    29f0:	00000000 	nop
    29f4:	00000000 	nop
    29f8:	00000000 	nop
    29fc:	00000000 	nop
    2a00:	00000000 	nop
    2a04:	00000000 	nop
    2a08:	00000000 	nop
    2a0c:	00000000 	nop
    2a10:	00000000 	nop
    2a14:	00000000 	nop
    2a18:	00000000 	nop
    2a1c:	00000000 	nop
    2a20:	00000000 	nop
    2a24:	00000000 	nop
    2a28:	00000000 	nop
    2a2c:	00000000 	nop
    2a30:	00000000 	nop
    2a34:	00000000 	nop
    2a38:	00000000 	nop
    2a3c:	00000000 	nop
    2a40:	00000000 	nop
    2a44:	00000000 	nop
    2a48:	00000000 	nop
    2a4c:	00000000 	nop
    2a50:	00000000 	nop
    2a54:	00000000 	nop
    2a58:	00000000 	nop
    2a5c:	00000000 	nop
    2a60:	00000000 	nop
    2a64:	00000000 	nop
    2a68:	00000000 	nop
    2a6c:	00000000 	nop
    2a70:	00000000 	nop
    2a74:	00000000 	nop
    2a78:	00000000 	nop
    2a7c:	00000000 	nop
    2a80:	00000000 	nop
    2a84:	00000000 	nop
    2a88:	00000000 	nop
    2a8c:	00000000 	nop
    2a90:	00000000 	nop
    2a94:	00000000 	nop
    2a98:	00000000 	nop
    2a9c:	00000000 	nop
    2aa0:	00000000 	nop
    2aa4:	00000000 	nop
    2aa8:	00000000 	nop
    2aac:	00000000 	nop
    2ab0:	00000000 	nop
    2ab4:	00000000 	nop
    2ab8:	00000000 	nop
    2abc:	00000000 	nop
    2ac0:	00000000 	nop
    2ac4:	00000000 	nop
    2ac8:	00000000 	nop
    2acc:	00000000 	nop
    2ad0:	00000000 	nop
    2ad4:	00000000 	nop
    2ad8:	00000000 	nop
    2adc:	00000000 	nop
    2ae0:	00000000 	nop
    2ae4:	00000000 	nop
    2ae8:	00000000 	nop
    2aec:	00000000 	nop
    2af0:	00000000 	nop
    2af4:	00000000 	nop
    2af8:	00000000 	nop
    2afc:	00000000 	nop
    2b00:	00000000 	nop
    2b04:	00000000 	nop
    2b08:	00000000 	nop
    2b0c:	00000000 	nop
    2b10:	00000000 	nop
    2b14:	00000000 	nop
    2b18:	00000000 	nop
    2b1c:	00000000 	nop
    2b20:	00000000 	nop
    2b24:	00000000 	nop
    2b28:	00000000 	nop
    2b2c:	00000000 	nop
    2b30:	00000000 	nop
    2b34:	00000000 	nop
    2b38:	00000000 	nop
    2b3c:	00000000 	nop
    2b40:	00000000 	nop
    2b44:	00000000 	nop
    2b48:	00000000 	nop
    2b4c:	00000000 	nop
    2b50:	00000000 	nop
    2b54:	00000000 	nop
    2b58:	00000000 	nop
    2b5c:	00000000 	nop
    2b60:	00000000 	nop
    2b64:	00000000 	nop
    2b68:	00000000 	nop
    2b6c:	00000000 	nop
    2b70:	00000000 	nop
    2b74:	00000000 	nop
    2b78:	00000000 	nop
    2b7c:	00000000 	nop
    2b80:	00000000 	nop
    2b84:	00000000 	nop
    2b88:	00000000 	nop
    2b8c:	00000000 	nop
    2b90:	00000000 	nop
    2b94:	00000000 	nop
    2b98:	00000000 	nop
    2b9c:	00000000 	nop
    2ba0:	00000000 	nop
    2ba4:	00000000 	nop
    2ba8:	00000000 	nop
    2bac:	00000000 	nop
    2bb0:	00000000 	nop
    2bb4:	00000000 	nop
    2bb8:	00000000 	nop
    2bbc:	00000000 	nop
    2bc0:	00000000 	nop
    2bc4:	00000000 	nop
    2bc8:	00000000 	nop
    2bcc:	00000000 	nop
    2bd0:	00000000 	nop
    2bd4:	00000000 	nop
    2bd8:	00000000 	nop
    2bdc:	00000000 	nop
    2be0:	00000000 	nop
    2be4:	00000000 	nop
    2be8:	00000000 	nop
    2bec:	00000000 	nop
    2bf0:	00000000 	nop
    2bf4:	00000000 	nop
    2bf8:	00000000 	nop
    2bfc:	00000000 	nop
    2c00:	00000000 	nop
    2c04:	00000000 	nop
    2c08:	00000000 	nop
    2c0c:	00000000 	nop
    2c10:	00000000 	nop
    2c14:	00000000 	nop
    2c18:	00000000 	nop
    2c1c:	00000000 	nop
    2c20:	00000000 	nop
    2c24:	00000000 	nop
    2c28:	00000000 	nop
    2c2c:	00000000 	nop
    2c30:	00000000 	nop
    2c34:	00000000 	nop
    2c38:	00000000 	nop
    2c3c:	00000000 	nop
    2c40:	00000000 	nop
    2c44:	00000000 	nop
    2c48:	00000000 	nop
    2c4c:	00000000 	nop
    2c50:	00000000 	nop
    2c54:	00000000 	nop
    2c58:	00000000 	nop
    2c5c:	00000000 	nop
    2c60:	00000000 	nop
    2c64:	00000000 	nop
    2c68:	00000000 	nop
    2c6c:	00000000 	nop
    2c70:	00000000 	nop
    2c74:	00000000 	nop
    2c78:	00000000 	nop
    2c7c:	00000000 	nop
    2c80:	00000000 	nop
    2c84:	00000000 	nop
    2c88:	00000000 	nop
    2c8c:	00000000 	nop
    2c90:	00000000 	nop
    2c94:	00000000 	nop
    2c98:	00000000 	nop
    2c9c:	00000000 	nop
    2ca0:	00000000 	nop
    2ca4:	00000000 	nop
    2ca8:	00000000 	nop
    2cac:	00000000 	nop
    2cb0:	00000000 	nop
    2cb4:	00000000 	nop
    2cb8:	00000000 	nop
    2cbc:	00000000 	nop
    2cc0:	00000000 	nop
    2cc4:	00000000 	nop
    2cc8:	00000000 	nop
    2ccc:	00000000 	nop
    2cd0:	00000000 	nop
    2cd4:	00000000 	nop
    2cd8:	00000000 	nop
    2cdc:	00000000 	nop
    2ce0:	00000000 	nop
    2ce4:	00000000 	nop
    2ce8:	00000000 	nop
    2cec:	00000000 	nop
    2cf0:	00000000 	nop
    2cf4:	00000000 	nop
    2cf8:	00000000 	nop
    2cfc:	00000000 	nop
    2d00:	00000000 	nop
    2d04:	00000000 	nop
    2d08:	00000000 	nop
    2d0c:	00000000 	nop
    2d10:	00000000 	nop
    2d14:	00000000 	nop
    2d18:	00000000 	nop
    2d1c:	00000000 	nop
    2d20:	00000000 	nop
    2d24:	00000000 	nop
    2d28:	00000000 	nop
    2d2c:	00000000 	nop
    2d30:	00000000 	nop
    2d34:	00000000 	nop
    2d38:	00000000 	nop
    2d3c:	00000000 	nop
    2d40:	00000000 	nop
    2d44:	00000000 	nop
    2d48:	00000000 	nop
    2d4c:	00000000 	nop
    2d50:	00000000 	nop
    2d54:	00000000 	nop
    2d58:	00000000 	nop
    2d5c:	00000000 	nop
    2d60:	00000000 	nop
    2d64:	00000000 	nop
    2d68:	00000000 	nop
    2d6c:	00000000 	nop
    2d70:	00000000 	nop
    2d74:	00000000 	nop
    2d78:	00000000 	nop
    2d7c:	00000000 	nop
    2d80:	00000000 	nop
    2d84:	00000000 	nop
    2d88:	00000000 	nop
    2d8c:	00000000 	nop
    2d90:	00000000 	nop
    2d94:	00000000 	nop
    2d98:	00000000 	nop
    2d9c:	00000000 	nop
    2da0:	00000000 	nop
    2da4:	00000000 	nop
    2da8:	00000000 	nop
    2dac:	00000000 	nop
    2db0:	00000000 	nop
    2db4:	00000000 	nop
    2db8:	00000000 	nop
    2dbc:	00000000 	nop
    2dc0:	00000000 	nop
    2dc4:	00000000 	nop
    2dc8:	00000000 	nop
    2dcc:	00000000 	nop
    2dd0:	00000000 	nop
    2dd4:	00000000 	nop
    2dd8:	00000000 	nop
    2ddc:	00000000 	nop
    2de0:	00000000 	nop
    2de4:	00000000 	nop
    2de8:	00000000 	nop
    2dec:	00000000 	nop
    2df0:	00000000 	nop
    2df4:	00000000 	nop
    2df8:	00000000 	nop
    2dfc:	00000000 	nop
    2e00:	00000000 	nop
    2e04:	00000000 	nop
    2e08:	00000000 	nop
    2e0c:	00000000 	nop
    2e10:	00000000 	nop
    2e14:	00000000 	nop
    2e18:	00000000 	nop
    2e1c:	00000000 	nop
    2e20:	00000000 	nop
    2e24:	00000000 	nop
    2e28:	00000000 	nop
    2e2c:	00000000 	nop
    2e30:	00000000 	nop
    2e34:	00000000 	nop
    2e38:	00000000 	nop
    2e3c:	00000000 	nop
    2e40:	00000000 	nop
    2e44:	00000000 	nop
    2e48:	00000000 	nop
    2e4c:	00000000 	nop
    2e50:	00000000 	nop
    2e54:	00000000 	nop
    2e58:	00000000 	nop
    2e5c:	00000000 	nop
    2e60:	00000000 	nop
    2e64:	00000000 	nop
    2e68:	00000000 	nop
    2e6c:	00000000 	nop
    2e70:	00000000 	nop
    2e74:	00000000 	nop
    2e78:	00000000 	nop
    2e7c:	00000000 	nop
    2e80:	00000000 	nop
    2e84:	00000000 	nop
    2e88:	00000000 	nop
    2e8c:	00000000 	nop
    2e90:	00000000 	nop
    2e94:	00000000 	nop
    2e98:	00000000 	nop
    2e9c:	00000000 	nop
    2ea0:	00000000 	nop
    2ea4:	00000000 	nop
    2ea8:	00000000 	nop
    2eac:	00000000 	nop
    2eb0:	00000000 	nop
    2eb4:	00000000 	nop
    2eb8:	00000000 	nop
    2ebc:	00000000 	nop
    2ec0:	00000000 	nop
    2ec4:	00000000 	nop
    2ec8:	00000000 	nop
    2ecc:	00000000 	nop
    2ed0:	00000000 	nop
    2ed4:	00000000 	nop
    2ed8:	00000000 	nop
    2edc:	00000000 	nop
    2ee0:	00000000 	nop
    2ee4:	00000000 	nop
    2ee8:	00000000 	nop
    2eec:	00000000 	nop
    2ef0:	00000000 	nop
    2ef4:	00000000 	nop
    2ef8:	00000000 	nop
    2efc:	00000000 	nop
    2f00:	00000000 	nop
    2f04:	00000000 	nop
    2f08:	00000000 	nop
    2f0c:	00000000 	nop
    2f10:	00000000 	nop
    2f14:	00000000 	nop
    2f18:	00000000 	nop
    2f1c:	00000000 	nop
    2f20:	00000000 	nop
    2f24:	00000000 	nop
    2f28:	00000000 	nop
    2f2c:	00000000 	nop
    2f30:	00000000 	nop
    2f34:	00000000 	nop
    2f38:	00000000 	nop
    2f3c:	00000000 	nop
    2f40:	00000000 	nop
    2f44:	00000000 	nop
    2f48:	00000000 	nop
    2f4c:	00000000 	nop
    2f50:	00000000 	nop
    2f54:	00000000 	nop
    2f58:	00000000 	nop
    2f5c:	00000000 	nop
    2f60:	00000000 	nop
    2f64:	00000000 	nop
    2f68:	00000000 	nop
    2f6c:	00000000 	nop
    2f70:	00000000 	nop
    2f74:	00000000 	nop
    2f78:	00000000 	nop
    2f7c:	00000000 	nop
    2f80:	00000000 	nop
    2f84:	00000000 	nop
    2f88:	00000000 	nop
    2f8c:	00000000 	nop
    2f90:	00000000 	nop
    2f94:	00000000 	nop
    2f98:	00000000 	nop
    2f9c:	00000000 	nop
    2fa0:	00000000 	nop
    2fa4:	00000000 	nop
    2fa8:	00000000 	nop
    2fac:	00000000 	nop
    2fb0:	00000000 	nop
    2fb4:	00000000 	nop
    2fb8:	00000000 	nop
    2fbc:	00000000 	nop
    2fc0:	00000000 	nop
    2fc4:	00000000 	nop
    2fc8:	00000000 	nop
    2fcc:	00000000 	nop
    2fd0:	00000000 	nop
    2fd4:	00000000 	nop
    2fd8:	00000000 	nop
    2fdc:	00000000 	nop
    2fe0:	00000000 	nop
    2fe4:	00000000 	nop
    2fe8:	00000000 	nop
    2fec:	00000000 	nop
    2ff0:	00000000 	nop
    2ff4:	00000000 	nop
    2ff8:	00000000 	nop
    2ffc:	00000000 	nop
    3000:	00000000 	nop
    3004:	00000000 	nop
    3008:	00000000 	nop
    300c:	00000000 	nop
    3010:	00000000 	nop
    3014:	00000000 	nop
    3018:	00000000 	nop
    301c:	00000000 	nop
    3020:	00000000 	nop
    3024:	00000000 	nop
    3028:	00000000 	nop
    302c:	00000000 	nop
    3030:	00000000 	nop
    3034:	00000000 	nop
    3038:	00000000 	nop
    303c:	00000000 	nop
    3040:	00000000 	nop
    3044:	00000000 	nop
    3048:	00000000 	nop
    304c:	00000000 	nop
    3050:	00000000 	nop
    3054:	00000000 	nop
    3058:	00000000 	nop
    305c:	00000000 	nop
    3060:	00000000 	nop
    3064:	00000000 	nop
    3068:	00000000 	nop
    306c:	00000000 	nop
    3070:	00000000 	nop
    3074:	00000000 	nop
    3078:	00000000 	nop
    307c:	00000000 	nop
    3080:	00000000 	nop
    3084:	00000000 	nop
    3088:	00000000 	nop
    308c:	00000000 	nop
    3090:	00000000 	nop
    3094:	00000000 	nop
    3098:	00000000 	nop
    309c:	00000000 	nop
    30a0:	00000000 	nop
    30a4:	00000000 	nop
    30a8:	00000000 	nop
    30ac:	00000000 	nop
    30b0:	00000000 	nop
    30b4:	00000000 	nop
    30b8:	00000000 	nop
    30bc:	00000000 	nop
    30c0:	00000000 	nop
    30c4:	00000000 	nop
    30c8:	00000000 	nop
    30cc:	00000000 	nop
    30d0:	00000000 	nop
    30d4:	00000000 	nop
    30d8:	00000000 	nop
    30dc:	00000000 	nop
    30e0:	00000000 	nop
    30e4:	00000000 	nop
    30e8:	00000000 	nop
    30ec:	00000000 	nop
    30f0:	00000000 	nop
    30f4:	00000000 	nop
    30f8:	00000000 	nop
    30fc:	00000000 	nop
    3100:	00000000 	nop
    3104:	00000000 	nop
    3108:	00000000 	nop
    310c:	00000000 	nop
    3110:	00000000 	nop
    3114:	00000000 	nop
    3118:	00000000 	nop
    311c:	00000000 	nop
    3120:	00000000 	nop
    3124:	00000000 	nop
    3128:	00000000 	nop
    312c:	00000000 	nop
    3130:	00000000 	nop
    3134:	00000000 	nop
    3138:	00000000 	nop
    313c:	00000000 	nop
    3140:	00000000 	nop
    3144:	00000000 	nop
    3148:	00000000 	nop
    314c:	00000000 	nop
    3150:	00000000 	nop
    3154:	00000000 	nop
    3158:	00000000 	nop
    315c:	00000000 	nop
    3160:	00000000 	nop
    3164:	00000000 	nop
    3168:	00000000 	nop
    316c:	00000000 	nop
    3170:	00000000 	nop
    3174:	00000000 	nop
    3178:	00000000 	nop
    317c:	00000000 	nop
    3180:	00000000 	nop
    3184:	00000000 	nop
    3188:	00000000 	nop
    318c:	00000000 	nop
    3190:	00000000 	nop
    3194:	00000000 	nop
    3198:	00000000 	nop
    319c:	00000000 	nop
    31a0:	00000000 	nop
    31a4:	00000000 	nop
    31a8:	00000000 	nop
    31ac:	00000000 	nop
    31b0:	00000000 	nop
    31b4:	00000000 	nop
    31b8:	00000000 	nop
    31bc:	00000000 	nop
    31c0:	00000000 	nop
    31c4:	00000000 	nop
    31c8:	00000000 	nop
    31cc:	00000000 	nop
    31d0:	00000000 	nop
    31d4:	00000000 	nop
    31d8:	00000000 	nop
    31dc:	00000000 	nop
    31e0:	00000000 	nop
    31e4:	00000000 	nop
    31e8:	00000000 	nop
    31ec:	00000000 	nop
    31f0:	00000000 	nop
    31f4:	00000000 	nop
    31f8:	00000000 	nop
    31fc:	00000000 	nop
    3200:	00000000 	nop
    3204:	00000000 	nop
    3208:	00000000 	nop
    320c:	00000000 	nop
    3210:	00000000 	nop
    3214:	00000000 	nop
    3218:	00000000 	nop
    321c:	00000000 	nop
    3220:	00000000 	nop
    3224:	00000000 	nop
    3228:	00000000 	nop
    322c:	00000000 	nop
    3230:	00000000 	nop
    3234:	00000000 	nop
    3238:	00000000 	nop
    323c:	00000000 	nop
    3240:	00000000 	nop
    3244:	00000000 	nop
    3248:	00000000 	nop
    324c:	00000000 	nop
    3250:	00000000 	nop
    3254:	00000000 	nop
    3258:	00000000 	nop
    325c:	00000000 	nop
    3260:	00000000 	nop
    3264:	00000000 	nop
    3268:	00000000 	nop
    326c:	00000000 	nop
    3270:	00000000 	nop
    3274:	00000000 	nop
    3278:	00000000 	nop
    327c:	00000000 	nop
    3280:	00000000 	nop
    3284:	00000000 	nop
    3288:	00000000 	nop
    328c:	00000000 	nop
    3290:	00000000 	nop
    3294:	00000000 	nop
    3298:	00000000 	nop
    329c:	00000000 	nop
    32a0:	00000000 	nop
    32a4:	00000000 	nop
    32a8:	00000000 	nop
    32ac:	00000000 	nop
    32b0:	00000000 	nop
    32b4:	00000000 	nop
    32b8:	00000000 	nop
    32bc:	00000000 	nop
    32c0:	00000000 	nop
    32c4:	00000000 	nop
    32c8:	00000000 	nop
    32cc:	00000000 	nop
    32d0:	00000000 	nop
    32d4:	00000000 	nop
    32d8:	00000000 	nop
    32dc:	00000000 	nop
    32e0:	00000000 	nop
    32e4:	00000000 	nop
    32e8:	00000000 	nop
    32ec:	00000000 	nop
    32f0:	00000000 	nop
    32f4:	00000000 	nop
    32f8:	00000000 	nop
    32fc:	00000000 	nop
    3300:	00000000 	nop
    3304:	00000000 	nop
    3308:	00000000 	nop
    330c:	00000000 	nop
    3310:	00000000 	nop
    3314:	00000000 	nop
    3318:	00000000 	nop
    331c:	00000000 	nop
    3320:	00000000 	nop
    3324:	00000000 	nop
    3328:	00000000 	nop
    332c:	00000000 	nop
    3330:	00000000 	nop
    3334:	00000000 	nop
    3338:	00000000 	nop
    333c:	00000000 	nop
    3340:	00000000 	nop
    3344:	00000000 	nop
    3348:	00000000 	nop
    334c:	00000000 	nop
    3350:	00000000 	nop
    3354:	00000000 	nop
    3358:	00000000 	nop
    335c:	00000000 	nop
    3360:	00000000 	nop
    3364:	00000000 	nop
    3368:	00000000 	nop
    336c:	00000000 	nop
    3370:	00000000 	nop
    3374:	00000000 	nop
    3378:	00000000 	nop
    337c:	00000000 	nop
    3380:	00000000 	nop
    3384:	00000000 	nop
    3388:	00000000 	nop
    338c:	00000000 	nop
    3390:	00000000 	nop
    3394:	00000000 	nop
    3398:	00000000 	nop
    339c:	00000000 	nop
    33a0:	00000000 	nop
    33a4:	00000000 	nop
    33a8:	00000000 	nop
    33ac:	00000000 	nop
    33b0:	00000000 	nop
    33b4:	00000000 	nop
    33b8:	00000000 	nop
    33bc:	00000000 	nop
    33c0:	00000000 	nop
    33c4:	00000000 	nop
    33c8:	00000000 	nop
    33cc:	00000000 	nop
    33d0:	00000000 	nop
    33d4:	00000000 	nop
    33d8:	00000000 	nop
    33dc:	00000000 	nop
    33e0:	00000000 	nop
    33e4:	00000000 	nop
    33e8:	00000000 	nop
    33ec:	00000000 	nop
    33f0:	00000000 	nop
    33f4:	00000000 	nop
    33f8:	00000000 	nop
    33fc:	00000000 	nop
    3400:	00000000 	nop
    3404:	00000000 	nop
    3408:	00000000 	nop
    340c:	00000000 	nop
    3410:	00000000 	nop
    3414:	00000000 	nop
    3418:	00000000 	nop
    341c:	00000000 	nop
    3420:	00000000 	nop
    3424:	00000000 	nop
    3428:	00000000 	nop
    342c:	00000000 	nop
    3430:	00000000 	nop
    3434:	00000000 	nop
    3438:	00000000 	nop
    343c:	00000000 	nop
    3440:	00000000 	nop
    3444:	00000000 	nop
    3448:	00000000 	nop
    344c:	00000000 	nop
    3450:	00000000 	nop
    3454:	00000000 	nop
    3458:	00000000 	nop
    345c:	00000000 	nop
    3460:	00000000 	nop
    3464:	00000000 	nop
    3468:	00000000 	nop
    346c:	00000000 	nop
    3470:	00000000 	nop
    3474:	00000000 	nop
    3478:	00000000 	nop
    347c:	00000000 	nop
    3480:	00000000 	nop
    3484:	00000000 	nop
    3488:	00000000 	nop
    348c:	00000000 	nop
    3490:	00000000 	nop
    3494:	00000000 	nop
    3498:	00000000 	nop
    349c:	00000000 	nop
    34a0:	00000000 	nop
    34a4:	00000000 	nop
    34a8:	00000000 	nop
    34ac:	00000000 	nop
    34b0:	00000000 	nop
    34b4:	00000000 	nop
    34b8:	00000000 	nop
    34bc:	00000000 	nop
    34c0:	00000000 	nop
    34c4:	00000000 	nop
    34c8:	00000000 	nop
    34cc:	00000000 	nop
    34d0:	00000000 	nop
    34d4:	00000000 	nop
    34d8:	00000000 	nop
    34dc:	00000000 	nop
    34e0:	00000000 	nop
    34e4:	00000000 	nop
    34e8:	00000000 	nop
    34ec:	00000000 	nop
    34f0:	00000000 	nop
    34f4:	00000000 	nop
    34f8:	00000000 	nop
    34fc:	00000000 	nop
    3500:	00000000 	nop
    3504:	00000000 	nop
    3508:	00000000 	nop
    350c:	00000000 	nop
    3510:	00000000 	nop
    3514:	00000000 	nop
    3518:	00000000 	nop
    351c:	00000000 	nop
    3520:	00000000 	nop
    3524:	00000000 	nop
    3528:	00000000 	nop
    352c:	00000000 	nop
    3530:	00000000 	nop
    3534:	00000000 	nop
    3538:	00000000 	nop
    353c:	00000000 	nop
    3540:	00000000 	nop
    3544:	00000000 	nop
    3548:	00000000 	nop
    354c:	00000000 	nop
    3550:	00000000 	nop
    3554:	00000000 	nop
    3558:	00000000 	nop
    355c:	00000000 	nop
    3560:	00000000 	nop
    3564:	00000000 	nop
    3568:	00000000 	nop
    356c:	00000000 	nop
    3570:	00000000 	nop
    3574:	00000000 	nop
    3578:	00000000 	nop
    357c:	00000000 	nop
    3580:	00000000 	nop
    3584:	00000000 	nop
    3588:	00000000 	nop
    358c:	00000000 	nop
    3590:	00000000 	nop
    3594:	00000000 	nop
    3598:	00000000 	nop
    359c:	00000000 	nop
    35a0:	00000000 	nop
    35a4:	00000000 	nop
    35a8:	00000000 	nop
    35ac:	00000000 	nop
    35b0:	00000000 	nop
    35b4:	00000000 	nop
    35b8:	00000000 	nop
    35bc:	00000000 	nop
    35c0:	00000000 	nop
    35c4:	00000000 	nop
    35c8:	00000000 	nop
    35cc:	00000000 	nop
    35d0:	00000000 	nop
    35d4:	00000000 	nop
    35d8:	00000000 	nop
    35dc:	00000000 	nop
    35e0:	00000000 	nop
    35e4:	00000000 	nop
    35e8:	00000000 	nop
    35ec:	00000000 	nop
    35f0:	00000000 	nop
    35f4:	00000000 	nop
    35f8:	00000000 	nop
    35fc:	00000000 	nop
    3600:	00000000 	nop
    3604:	00000000 	nop
    3608:	00000000 	nop
    360c:	00000000 	nop
    3610:	00000000 	nop
    3614:	00000000 	nop
    3618:	00000000 	nop
    361c:	00000000 	nop
    3620:	00000000 	nop
    3624:	00000000 	nop
    3628:	00000000 	nop
    362c:	00000000 	nop
    3630:	00000000 	nop
    3634:	00000000 	nop
    3638:	00000000 	nop
    363c:	00000000 	nop
    3640:	00000000 	nop
    3644:	00000000 	nop
    3648:	00000000 	nop
    364c:	00000000 	nop
    3650:	00000000 	nop
    3654:	00000000 	nop
    3658:	00000000 	nop
    365c:	00000000 	nop
    3660:	00000000 	nop
    3664:	00000000 	nop
    3668:	00000000 	nop
    366c:	00000000 	nop
    3670:	00000000 	nop
    3674:	00000000 	nop
    3678:	00000000 	nop
    367c:	00000000 	nop
    3680:	00000000 	nop
    3684:	00000000 	nop
    3688:	00000000 	nop
    368c:	00000000 	nop
    3690:	00000000 	nop
    3694:	00000000 	nop
    3698:	00000000 	nop
    369c:	00000000 	nop
    36a0:	00000000 	nop
    36a4:	00000000 	nop
    36a8:	00000000 	nop
    36ac:	00000000 	nop
    36b0:	00000000 	nop
    36b4:	00000000 	nop
    36b8:	00000000 	nop
    36bc:	00000000 	nop
    36c0:	00000000 	nop
    36c4:	00000000 	nop
    36c8:	00000000 	nop
    36cc:	00000000 	nop
    36d0:	00000000 	nop
    36d4:	00000000 	nop
    36d8:	00000000 	nop
    36dc:	00000000 	nop
    36e0:	00000000 	nop
    36e4:	00000000 	nop
    36e8:	00000000 	nop
    36ec:	00000000 	nop
    36f0:	00000000 	nop
    36f4:	00000000 	nop
    36f8:	00000000 	nop
    36fc:	00000000 	nop
    3700:	00000000 	nop
    3704:	00000000 	nop
    3708:	00000000 	nop
    370c:	00000000 	nop
    3710:	00000000 	nop
    3714:	00000000 	nop
    3718:	00000000 	nop
    371c:	00000000 	nop
    3720:	00000000 	nop
    3724:	00000000 	nop
    3728:	00000000 	nop
    372c:	00000000 	nop
    3730:	00000000 	nop
    3734:	00000000 	nop
    3738:	00000000 	nop
    373c:	00000000 	nop
    3740:	00000000 	nop
    3744:	00000000 	nop
    3748:	00000000 	nop
    374c:	00000000 	nop
    3750:	00000000 	nop
    3754:	00000000 	nop
    3758:	00000000 	nop
    375c:	00000000 	nop
    3760:	00000000 	nop
    3764:	00000000 	nop
    3768:	00000000 	nop
    376c:	00000000 	nop
    3770:	00000000 	nop
    3774:	00000000 	nop
    3778:	00000000 	nop
    377c:	00000000 	nop
    3780:	00000000 	nop
    3784:	00000000 	nop
    3788:	00000000 	nop
    378c:	00000000 	nop
    3790:	00000000 	nop
    3794:	00000000 	nop
    3798:	00000000 	nop
    379c:	00000000 	nop
    37a0:	00000000 	nop
    37a4:	00000000 	nop
    37a8:	00000000 	nop
    37ac:	00000000 	nop
    37b0:	00000000 	nop
    37b4:	00000000 	nop
    37b8:	00000000 	nop
    37bc:	00000000 	nop
    37c0:	00000000 	nop
    37c4:	00000000 	nop
    37c8:	00000000 	nop
    37cc:	00000000 	nop
    37d0:	00000000 	nop
    37d4:	00000000 	nop
    37d8:	00000000 	nop
    37dc:	00000000 	nop
    37e0:	00000000 	nop
    37e4:	00000000 	nop
    37e8:	00000000 	nop
    37ec:	00000000 	nop
    37f0:	00000000 	nop
    37f4:	00000000 	nop
    37f8:	00000000 	nop
    37fc:	00000000 	nop
    3800:	00000000 	nop
    3804:	00000000 	nop
    3808:	00000000 	nop
    380c:	00000000 	nop
    3810:	00000000 	nop
    3814:	00000000 	nop
    3818:	00000000 	nop
    381c:	00000000 	nop
    3820:	00000000 	nop
    3824:	00000000 	nop
    3828:	00000000 	nop
    382c:	00000000 	nop
    3830:	00000000 	nop
    3834:	00000000 	nop
    3838:	00000000 	nop
    383c:	00000000 	nop
    3840:	00000000 	nop
    3844:	00000000 	nop
    3848:	00000000 	nop
    384c:	00000000 	nop
    3850:	00000000 	nop
    3854:	00000000 	nop
    3858:	00000000 	nop
    385c:	00000000 	nop
    3860:	00000000 	nop
    3864:	00000000 	nop
    3868:	00000000 	nop
    386c:	00000000 	nop
    3870:	00000000 	nop
    3874:	00000000 	nop
    3878:	00000000 	nop
    387c:	00000000 	nop
    3880:	00000000 	nop
    3884:	00000000 	nop
    3888:	00000000 	nop
    388c:	00000000 	nop
    3890:	00000000 	nop
    3894:	00000000 	nop
    3898:	00000000 	nop
    389c:	00000000 	nop
    38a0:	00000000 	nop
    38a4:	00000000 	nop
    38a8:	00000000 	nop
    38ac:	00000000 	nop
    38b0:	00000000 	nop
    38b4:	00000000 	nop
    38b8:	00000000 	nop
    38bc:	00000000 	nop
    38c0:	00000000 	nop
    38c4:	00000000 	nop
    38c8:	00000000 	nop
    38cc:	00000000 	nop
    38d0:	00000000 	nop
    38d4:	00000000 	nop
    38d8:	00000000 	nop
    38dc:	00000000 	nop
    38e0:	00000000 	nop
    38e4:	00000000 	nop
    38e8:	00000000 	nop
    38ec:	00000000 	nop
    38f0:	00000000 	nop
    38f4:	00000000 	nop
    38f8:	00000000 	nop
    38fc:	00000000 	nop
    3900:	00000000 	nop
    3904:	00000000 	nop
    3908:	00000000 	nop
    390c:	00000000 	nop
    3910:	00000000 	nop
    3914:	00000000 	nop
    3918:	00000000 	nop
    391c:	00000000 	nop
    3920:	00000000 	nop
    3924:	00000000 	nop
    3928:	00000000 	nop
    392c:	00000000 	nop
    3930:	00000000 	nop
    3934:	00000000 	nop
    3938:	00000000 	nop
    393c:	00000000 	nop
    3940:	00000000 	nop
    3944:	00000000 	nop
    3948:	00000000 	nop
    394c:	00000000 	nop
    3950:	00000000 	nop
    3954:	00000000 	nop
    3958:	00000000 	nop
    395c:	00000000 	nop
    3960:	00000000 	nop
    3964:	00000000 	nop
    3968:	00000000 	nop
    396c:	00000000 	nop
    3970:	00000000 	nop
    3974:	00000000 	nop
    3978:	00000000 	nop
    397c:	00000000 	nop
    3980:	00000000 	nop
    3984:	00000000 	nop
    3988:	00000000 	nop
    398c:	00000000 	nop
    3990:	00000000 	nop
    3994:	00000000 	nop
    3998:	00000000 	nop
    399c:	00000000 	nop
    39a0:	00000000 	nop
    39a4:	00000000 	nop
    39a8:	00000000 	nop
    39ac:	00000000 	nop
    39b0:	00000000 	nop
    39b4:	00000000 	nop
    39b8:	00000000 	nop
    39bc:	00000000 	nop
    39c0:	00000000 	nop
    39c4:	00000000 	nop
    39c8:	00000000 	nop
    39cc:	00000000 	nop
    39d0:	00000000 	nop
    39d4:	00000000 	nop
    39d8:	00000000 	nop
    39dc:	00000000 	nop
    39e0:	00000000 	nop
    39e4:	00000000 	nop
    39e8:	00000000 	nop
    39ec:	00000000 	nop
    39f0:	00000000 	nop
    39f4:	00000000 	nop
    39f8:	00000000 	nop
    39fc:	00000000 	nop
    3a00:	00000000 	nop
    3a04:	00000000 	nop
    3a08:	00000000 	nop
    3a0c:	00000000 	nop
    3a10:	00000000 	nop
    3a14:	00000000 	nop
    3a18:	00000000 	nop
    3a1c:	00000000 	nop
    3a20:	00000000 	nop
    3a24:	00000000 	nop
    3a28:	00000000 	nop
    3a2c:	00000000 	nop
    3a30:	00000000 	nop
    3a34:	00000000 	nop
    3a38:	00000000 	nop
    3a3c:	00000000 	nop
    3a40:	00000000 	nop
    3a44:	00000000 	nop
    3a48:	00000000 	nop
    3a4c:	00000000 	nop
    3a50:	00000000 	nop
    3a54:	00000000 	nop
    3a58:	00000000 	nop
    3a5c:	00000000 	nop
    3a60:	00000000 	nop
    3a64:	00000000 	nop
    3a68:	00000000 	nop
    3a6c:	00000000 	nop
    3a70:	00000000 	nop
    3a74:	00000000 	nop
    3a78:	00000000 	nop
    3a7c:	00000000 	nop
    3a80:	00000000 	nop
    3a84:	00000000 	nop
    3a88:	00000000 	nop
    3a8c:	00000000 	nop
    3a90:	00000000 	nop
    3a94:	00000000 	nop
    3a98:	00000000 	nop
    3a9c:	00000000 	nop
    3aa0:	00000000 	nop
    3aa4:	00000000 	nop
    3aa8:	00000000 	nop
    3aac:	00000000 	nop
    3ab0:	00000000 	nop
    3ab4:	00000000 	nop
    3ab8:	00000000 	nop
    3abc:	00000000 	nop
    3ac0:	00000000 	nop
    3ac4:	00000000 	nop
    3ac8:	00000000 	nop
    3acc:	00000000 	nop
    3ad0:	00000000 	nop
    3ad4:	00000000 	nop
    3ad8:	00000000 	nop
    3adc:	00000000 	nop
    3ae0:	00000000 	nop
    3ae4:	00000000 	nop
    3ae8:	00000000 	nop
    3aec:	00000000 	nop
    3af0:	00000000 	nop
    3af4:	00000000 	nop
    3af8:	00000000 	nop
    3afc:	00000000 	nop
    3b00:	00000000 	nop
    3b04:	00000000 	nop
    3b08:	00000000 	nop
    3b0c:	00000000 	nop
    3b10:	00000000 	nop
    3b14:	00000000 	nop
    3b18:	00000000 	nop
    3b1c:	00000000 	nop
    3b20:	00000000 	nop
    3b24:	00000000 	nop
    3b28:	00000000 	nop
    3b2c:	00000000 	nop
    3b30:	00000000 	nop
    3b34:	00000000 	nop
    3b38:	00000000 	nop
    3b3c:	00000000 	nop
    3b40:	00000000 	nop
    3b44:	00000000 	nop
    3b48:	00000000 	nop
    3b4c:	00000000 	nop
    3b50:	00000000 	nop
    3b54:	00000000 	nop
    3b58:	00000000 	nop
    3b5c:	00000000 	nop
    3b60:	00000000 	nop
    3b64:	00000000 	nop
    3b68:	00000000 	nop
    3b6c:	00000000 	nop
    3b70:	00000000 	nop
    3b74:	00000000 	nop
    3b78:	00000000 	nop
    3b7c:	00000000 	nop
    3b80:	00000000 	nop
    3b84:	00000000 	nop
    3b88:	00000000 	nop
    3b8c:	00000000 	nop
    3b90:	00000000 	nop
    3b94:	00000000 	nop
    3b98:	00000000 	nop
    3b9c:	00000000 	nop
    3ba0:	00000000 	nop
    3ba4:	00000000 	nop
    3ba8:	00000000 	nop
    3bac:	00000000 	nop
    3bb0:	00000000 	nop
    3bb4:	00000000 	nop
    3bb8:	00000000 	nop
    3bbc:	00000000 	nop
    3bc0:	00000000 	nop
    3bc4:	00000000 	nop
    3bc8:	00000000 	nop
    3bcc:	00000000 	nop
    3bd0:	00000000 	nop
    3bd4:	00000000 	nop
    3bd8:	00000000 	nop
    3bdc:	00000000 	nop
    3be0:	00000000 	nop
    3be4:	00000000 	nop
    3be8:	00000000 	nop
    3bec:	00000000 	nop
    3bf0:	00000000 	nop
    3bf4:	00000000 	nop
    3bf8:	00000000 	nop
    3bfc:	00000000 	nop
    3c00:	00000000 	nop
    3c04:	00000000 	nop
    3c08:	00000000 	nop
    3c0c:	00000000 	nop
    3c10:	00000000 	nop
    3c14:	00000000 	nop
    3c18:	00000000 	nop
    3c1c:	00000000 	nop
    3c20:	00000000 	nop
    3c24:	00000000 	nop
    3c28:	00000000 	nop
    3c2c:	00000000 	nop
    3c30:	00000000 	nop
    3c34:	00000000 	nop
    3c38:	00000000 	nop
    3c3c:	00000000 	nop
    3c40:	00000000 	nop
    3c44:	00000000 	nop
    3c48:	00000000 	nop
    3c4c:	00000000 	nop
    3c50:	00000000 	nop
    3c54:	00000000 	nop
    3c58:	00000000 	nop
    3c5c:	00000000 	nop
    3c60:	00000000 	nop
    3c64:	00000000 	nop
    3c68:	00000000 	nop
    3c6c:	00000000 	nop
    3c70:	00000000 	nop
    3c74:	00000000 	nop
    3c78:	00000000 	nop
    3c7c:	00000000 	nop
    3c80:	00000000 	nop
    3c84:	00000000 	nop
    3c88:	00000000 	nop
    3c8c:	00000000 	nop
    3c90:	00000000 	nop
    3c94:	00000000 	nop
    3c98:	00000000 	nop
    3c9c:	00000000 	nop
    3ca0:	00000000 	nop
    3ca4:	00000000 	nop
    3ca8:	00000000 	nop
    3cac:	00000000 	nop
    3cb0:	00000000 	nop
    3cb4:	00000000 	nop
    3cb8:	00000000 	nop
    3cbc:	00000000 	nop
    3cc0:	00000000 	nop
    3cc4:	00000000 	nop
    3cc8:	00000000 	nop
    3ccc:	00000000 	nop
    3cd0:	00000000 	nop
    3cd4:	00000000 	nop
    3cd8:	00000000 	nop
    3cdc:	00000000 	nop
    3ce0:	00000000 	nop
    3ce4:	00000000 	nop
    3ce8:	00000000 	nop
    3cec:	00000000 	nop
    3cf0:	00000000 	nop
    3cf4:	00000000 	nop
    3cf8:	00000000 	nop
    3cfc:	00000000 	nop
    3d00:	00000000 	nop
    3d04:	00000000 	nop
    3d08:	00000000 	nop
    3d0c:	00000000 	nop
    3d10:	00000000 	nop
    3d14:	00000000 	nop
    3d18:	00000000 	nop
    3d1c:	00000000 	nop
    3d20:	00000000 	nop
    3d24:	00000000 	nop
    3d28:	00000000 	nop
    3d2c:	00000000 	nop
    3d30:	00000000 	nop
    3d34:	00000000 	nop
    3d38:	00000000 	nop
    3d3c:	00000000 	nop
    3d40:	00000000 	nop
    3d44:	00000000 	nop
    3d48:	00000000 	nop
    3d4c:	00000000 	nop
    3d50:	00000000 	nop
    3d54:	00000000 	nop
    3d58:	00000000 	nop
    3d5c:	00000000 	nop
    3d60:	00000000 	nop
    3d64:	00000000 	nop
    3d68:	00000000 	nop
    3d6c:	00000000 	nop
    3d70:	00000000 	nop
    3d74:	00000000 	nop
    3d78:	00000000 	nop
    3d7c:	00000000 	nop
    3d80:	00000000 	nop
    3d84:	00000000 	nop
    3d88:	00000000 	nop
    3d8c:	00000000 	nop
    3d90:	00000000 	nop
    3d94:	00000000 	nop
    3d98:	00000000 	nop
    3d9c:	00000000 	nop
    3da0:	00000000 	nop
    3da4:	00000000 	nop
    3da8:	00000000 	nop
    3dac:	00000000 	nop
    3db0:	00000000 	nop
    3db4:	00000000 	nop
    3db8:	00000000 	nop
    3dbc:	00000000 	nop
    3dc0:	00000000 	nop
    3dc4:	00000000 	nop
    3dc8:	00000000 	nop
    3dcc:	00000000 	nop
    3dd0:	00000000 	nop
    3dd4:	00000000 	nop
    3dd8:	00000000 	nop
    3ddc:	00000000 	nop
    3de0:	00000000 	nop
    3de4:	00000000 	nop
    3de8:	00000000 	nop
    3dec:	00000000 	nop
    3df0:	00000000 	nop
    3df4:	00000000 	nop
    3df8:	00000000 	nop
    3dfc:	00000000 	nop
    3e00:	00000000 	nop
    3e04:	00000000 	nop
    3e08:	00000000 	nop
    3e0c:	00000000 	nop
    3e10:	00000000 	nop
    3e14:	00000000 	nop
    3e18:	00000000 	nop
    3e1c:	00000000 	nop
    3e20:	00000000 	nop
    3e24:	00000000 	nop
    3e28:	00000000 	nop
    3e2c:	00000000 	nop
    3e30:	00000000 	nop
    3e34:	00000000 	nop
    3e38:	00000000 	nop
    3e3c:	00000000 	nop
    3e40:	00000000 	nop
    3e44:	00000000 	nop
    3e48:	00000000 	nop
    3e4c:	00000000 	nop
    3e50:	00000000 	nop
    3e54:	00000000 	nop
    3e58:	00000000 	nop
    3e5c:	00000000 	nop
    3e60:	00000000 	nop
    3e64:	00000000 	nop
    3e68:	00000000 	nop
    3e6c:	00000000 	nop
    3e70:	00000000 	nop
    3e74:	00000000 	nop
    3e78:	00000000 	nop
    3e7c:	00000000 	nop
    3e80:	00000000 	nop
    3e84:	00000000 	nop
    3e88:	00000000 	nop
    3e8c:	00000000 	nop
    3e90:	00000000 	nop
    3e94:	00000000 	nop
    3e98:	00000000 	nop
    3e9c:	00000000 	nop
    3ea0:	00000000 	nop
    3ea4:	00000000 	nop
    3ea8:	00000000 	nop
    3eac:	00000000 	nop
    3eb0:	00000000 	nop
    3eb4:	00000000 	nop
    3eb8:	00000000 	nop
    3ebc:	00000000 	nop
    3ec0:	00000000 	nop
    3ec4:	00000000 	nop
    3ec8:	00000000 	nop
    3ecc:	00000000 	nop
    3ed0:	00000000 	nop
    3ed4:	00000000 	nop
    3ed8:	00000000 	nop
    3edc:	00000000 	nop
    3ee0:	00000000 	nop
    3ee4:	00000000 	nop
    3ee8:	00000000 	nop
    3eec:	00000000 	nop
    3ef0:	00000000 	nop
    3ef4:	00000000 	nop
    3ef8:	00000000 	nop
    3efc:	00000000 	nop
    3f00:	00000000 	nop
    3f04:	00000000 	nop
    3f08:	00000000 	nop
    3f0c:	00000000 	nop
    3f10:	00000000 	nop
    3f14:	00000000 	nop
    3f18:	00000000 	nop
    3f1c:	00000000 	nop
    3f20:	00000000 	nop
    3f24:	00000000 	nop
    3f28:	00000000 	nop
    3f2c:	00000000 	nop
    3f30:	00000000 	nop
    3f34:	00000000 	nop
    3f38:	00000000 	nop
    3f3c:	00000000 	nop
    3f40:	00000000 	nop
    3f44:	00000000 	nop
    3f48:	00000000 	nop
    3f4c:	00000000 	nop
    3f50:	00000000 	nop
    3f54:	00000000 	nop
    3f58:	00000000 	nop
    3f5c:	00000000 	nop
    3f60:	00000000 	nop
    3f64:	00000000 	nop
    3f68:	00000000 	nop
    3f6c:	00000000 	nop
    3f70:	00000000 	nop
    3f74:	00000000 	nop
    3f78:	00000000 	nop
    3f7c:	00000000 	nop
    3f80:	00000000 	nop
    3f84:	00000000 	nop
    3f88:	00000000 	nop
    3f8c:	00000000 	nop
    3f90:	00000000 	nop
    3f94:	00000000 	nop
    3f98:	00000000 	nop
    3f9c:	00000000 	nop
    3fa0:	00000000 	nop
    3fa4:	00000000 	nop
    3fa8:	00000000 	nop
    3fac:	00000000 	nop
    3fb0:	00000000 	nop
    3fb4:	00000000 	nop
    3fb8:	00000000 	nop
    3fbc:	00000000 	nop
    3fc0:	00000000 	nop
    3fc4:	00000000 	nop
    3fc8:	00000000 	nop
    3fcc:	00000000 	nop
    3fd0:	00000000 	nop
    3fd4:	00000000 	nop
    3fd8:	00000000 	nop
    3fdc:	00000000 	nop
    3fe0:	00000000 	nop
    3fe4:	00000000 	nop
    3fe8:	00000000 	nop
    3fec:	00000000 	nop
    3ff0:	00000000 	nop
    3ff4:	00000000 	nop
    3ff8:	00000000 	nop
    3ffc:	00000000 	nop
    4000:	00000000 	nop
    4004:	00000000 	nop
    4008:	00000000 	nop
    400c:	00000000 	nop
    4010:	00000000 	nop
    4014:	00000000 	nop
    4018:	00000000 	nop
    401c:	00000000 	nop
    4020:	00000000 	nop
    4024:	00000000 	nop
    4028:	00000000 	nop
    402c:	00000000 	nop
    4030:	00000000 	nop
    4034:	00000000 	nop
    4038:	00000000 	nop
    403c:	00000000 	nop
    4040:	00000000 	nop
    4044:	00000000 	nop
    4048:	00000000 	nop
    404c:	00000000 	nop
    4050:	00000000 	nop
    4054:	00000000 	nop
    4058:	00000000 	nop
    405c:	00000000 	nop
    4060:	00000000 	nop
    4064:	00000000 	nop
    4068:	00000000 	nop
    406c:	00000000 	nop
    4070:	00000000 	nop
    4074:	00000000 	nop
    4078:	00000000 	nop
    407c:	00000000 	nop
    4080:	00000000 	nop
    4084:	00000000 	nop
    4088:	00000000 	nop
    408c:	00000000 	nop
    4090:	00000000 	nop
    4094:	00000000 	nop
    4098:	00000000 	nop
    409c:	00000000 	nop
    40a0:	00000000 	nop
    40a4:	00000000 	nop
    40a8:	00000000 	nop
    40ac:	00000000 	nop
    40b0:	00000000 	nop
    40b4:	00000000 	nop
    40b8:	00000000 	nop
    40bc:	00000000 	nop
    40c0:	00000000 	nop
    40c4:	00000000 	nop
    40c8:	00000000 	nop
    40cc:	00000000 	nop
    40d0:	00000000 	nop
    40d4:	00000000 	nop
    40d8:	00000000 	nop
    40dc:	00000000 	nop
    40e0:	00000000 	nop
    40e4:	00000000 	nop
    40e8:	00000000 	nop
    40ec:	00000000 	nop
    40f0:	00000000 	nop
    40f4:	00000000 	nop
    40f8:	00000000 	nop
    40fc:	00000000 	nop
    4100:	00000000 	nop
    4104:	00000000 	nop
    4108:	00000000 	nop
    410c:	00000000 	nop
    4110:	00000000 	nop
    4114:	00000000 	nop
    4118:	00000000 	nop
    411c:	00000000 	nop
    4120:	00000000 	nop
    4124:	00000000 	nop
    4128:	00000000 	nop
    412c:	00000000 	nop
    4130:	00000000 	nop
    4134:	00000000 	nop
    4138:	00000000 	nop
    413c:	00000000 	nop
    4140:	00000000 	nop
    4144:	00000000 	nop
    4148:	00000000 	nop
    414c:	00000000 	nop
    4150:	00000000 	nop
    4154:	00000000 	nop
    4158:	00000000 	nop
    415c:	00000000 	nop
    4160:	00000000 	nop
    4164:	00000000 	nop
    4168:	00000000 	nop
    416c:	00000000 	nop
    4170:	00000000 	nop
    4174:	00000000 	nop
    4178:	00000000 	nop
    417c:	00000000 	nop
    4180:	00000000 	nop
    4184:	00000000 	nop
    4188:	00000000 	nop
    418c:	00000000 	nop
    4190:	00000000 	nop
    4194:	00000000 	nop
    4198:	00000000 	nop
    419c:	00000000 	nop
    41a0:	00000000 	nop
    41a4:	00000000 	nop
    41a8:	00000000 	nop
    41ac:	00000000 	nop
    41b0:	00000000 	nop
    41b4:	00000000 	nop
    41b8:	00000000 	nop
    41bc:	00000000 	nop
    41c0:	00000000 	nop
    41c4:	00000000 	nop
    41c8:	00000000 	nop
    41cc:	00000000 	nop
    41d0:	00000000 	nop
    41d4:	00000000 	nop
    41d8:	00000000 	nop
    41dc:	00000000 	nop
    41e0:	00000000 	nop
    41e4:	00000000 	nop
    41e8:	00000000 	nop
    41ec:	00000000 	nop
    41f0:	00000000 	nop
    41f4:	00000000 	nop
    41f8:	00000000 	nop
    41fc:	00000000 	nop
    4200:	00000000 	nop
    4204:	00000000 	nop
    4208:	00000000 	nop
    420c:	00000000 	nop
    4210:	00000000 	nop
    4214:	00000000 	nop
    4218:	00000000 	nop
    421c:	00000000 	nop
    4220:	00000000 	nop
    4224:	00000000 	nop
    4228:	00000000 	nop
    422c:	00000000 	nop
    4230:	00000000 	nop
    4234:	00000000 	nop
    4238:	00000000 	nop
    423c:	00000000 	nop
    4240:	00000000 	nop
    4244:	00000000 	nop
    4248:	00000000 	nop
    424c:	00000000 	nop
    4250:	00000000 	nop
    4254:	00000000 	nop
    4258:	00000000 	nop
    425c:	00000000 	nop
    4260:	00000000 	nop
    4264:	00000000 	nop
    4268:	00000000 	nop
    426c:	00000000 	nop
    4270:	00000000 	nop
    4274:	00000000 	nop
    4278:	00000000 	nop
    427c:	00000000 	nop
    4280:	00000000 	nop
    4284:	00000000 	nop
    4288:	00000000 	nop
    428c:	00000000 	nop
    4290:	00000000 	nop
    4294:	00000000 	nop
    4298:	00000000 	nop
    429c:	00000000 	nop
    42a0:	00000000 	nop
    42a4:	00000000 	nop
    42a8:	00000000 	nop
    42ac:	00000000 	nop
    42b0:	00000000 	nop
    42b4:	00000000 	nop
    42b8:	00000000 	nop
    42bc:	00000000 	nop
    42c0:	00000000 	nop
    42c4:	00000000 	nop
    42c8:	00000000 	nop
    42cc:	00000000 	nop
    42d0:	00000000 	nop
    42d4:	00000000 	nop
    42d8:	00000000 	nop
    42dc:	00000000 	nop
    42e0:	00000000 	nop
    42e4:	00000000 	nop
    42e8:	00000000 	nop
    42ec:	00000000 	nop
    42f0:	00000000 	nop
    42f4:	00000000 	nop
    42f8:	00000000 	nop
    42fc:	00000000 	nop
    4300:	00000000 	nop
    4304:	00000000 	nop
    4308:	00000000 	nop
    430c:	00000000 	nop
    4310:	00000000 	nop
    4314:	00000000 	nop
    4318:	00000000 	nop
    431c:	00000000 	nop
    4320:	00000000 	nop
    4324:	00000000 	nop
    4328:	00000000 	nop
    432c:	00000000 	nop
    4330:	00000000 	nop
    4334:	00000000 	nop
    4338:	00000000 	nop
    433c:	00000000 	nop
    4340:	00000000 	nop
    4344:	00000000 	nop
    4348:	00000000 	nop
    434c:	00000000 	nop
    4350:	00000000 	nop
    4354:	00000000 	nop
    4358:	00000000 	nop
    435c:	00000000 	nop
    4360:	00000000 	nop
    4364:	00000000 	nop
    4368:	00000000 	nop
    436c:	00000000 	nop
    4370:	00000000 	nop
    4374:	00000000 	nop
    4378:	00000000 	nop
    437c:	00000000 	nop
    4380:	00000000 	nop
    4384:	00000000 	nop
    4388:	00000000 	nop
    438c:	00000000 	nop
    4390:	00000000 	nop
    4394:	00000000 	nop
    4398:	00000000 	nop
    439c:	00000000 	nop
    43a0:	00000000 	nop
    43a4:	00000000 	nop
    43a8:	00000000 	nop
    43ac:	00000000 	nop
    43b0:	00000000 	nop
    43b4:	00000000 	nop
    43b8:	00000000 	nop
    43bc:	00000000 	nop
    43c0:	00000000 	nop
    43c4:	00000000 	nop
    43c8:	00000000 	nop
    43cc:	00000000 	nop
    43d0:	00000000 	nop
    43d4:	00000000 	nop
    43d8:	00000000 	nop
    43dc:	00000000 	nop
    43e0:	00000000 	nop
    43e4:	00000000 	nop
    43e8:	00000000 	nop
    43ec:	00000000 	nop
    43f0:	00000000 	nop
    43f4:	00000000 	nop
    43f8:	00000000 	nop
    43fc:	00000000 	nop
    4400:	00000000 	nop
    4404:	00000000 	nop
    4408:	00000000 	nop
    440c:	00000000 	nop
    4410:	00000000 	nop
    4414:	00000000 	nop
    4418:	00000000 	nop
    441c:	00000000 	nop
    4420:	00000000 	nop
    4424:	00000000 	nop
    4428:	00000000 	nop
    442c:	00000000 	nop
    4430:	00000000 	nop
    4434:	00000000 	nop
    4438:	00000000 	nop
    443c:	00000000 	nop
    4440:	00000000 	nop
    4444:	00000000 	nop
    4448:	00000000 	nop
    444c:	00000000 	nop
    4450:	00000000 	nop
    4454:	00000000 	nop
    4458:	00000000 	nop
    445c:	00000000 	nop
    4460:	00000000 	nop
    4464:	00000000 	nop
    4468:	00000000 	nop
    446c:	00000000 	nop
    4470:	00000000 	nop
    4474:	00000000 	nop
    4478:	00000000 	nop
    447c:	00000000 	nop
    4480:	00000000 	nop
    4484:	00000000 	nop
    4488:	00000000 	nop
    448c:	00000000 	nop
    4490:	00000000 	nop
    4494:	00000000 	nop
    4498:	00000000 	nop
    449c:	00000000 	nop
    44a0:	00000000 	nop
    44a4:	00000000 	nop
    44a8:	00000000 	nop
    44ac:	00000000 	nop
    44b0:	00000000 	nop
    44b4:	00000000 	nop
    44b8:	00000000 	nop
    44bc:	00000000 	nop
    44c0:	00000000 	nop
    44c4:	00000000 	nop
    44c8:	00000000 	nop
    44cc:	00000000 	nop
    44d0:	00000000 	nop
    44d4:	00000000 	nop
    44d8:	00000000 	nop
    44dc:	00000000 	nop
    44e0:	00000000 	nop
    44e4:	00000000 	nop
    44e8:	00000000 	nop
    44ec:	00000000 	nop
    44f0:	00000000 	nop
    44f4:	00000000 	nop
    44f8:	00000000 	nop
    44fc:	00000000 	nop
    4500:	00000000 	nop
    4504:	00000000 	nop
    4508:	00000000 	nop
    450c:	00000000 	nop
    4510:	00000000 	nop
    4514:	00000000 	nop
    4518:	00000000 	nop
    451c:	00000000 	nop
    4520:	00000000 	nop
    4524:	00000000 	nop
    4528:	00000000 	nop
    452c:	00000000 	nop
    4530:	00000000 	nop
    4534:	00000000 	nop
    4538:	00000000 	nop
    453c:	00000000 	nop
    4540:	00000000 	nop
    4544:	00000000 	nop
    4548:	00000000 	nop
    454c:	00000000 	nop
    4550:	00000000 	nop
    4554:	00000000 	nop
    4558:	00000000 	nop
    455c:	00000000 	nop
    4560:	00000000 	nop
    4564:	00000000 	nop
    4568:	00000000 	nop
    456c:	00000000 	nop
    4570:	00000000 	nop
    4574:	00000000 	nop
    4578:	00000000 	nop
    457c:	00000000 	nop
    4580:	00000000 	nop
    4584:	00000000 	nop
    4588:	00000000 	nop
    458c:	00000000 	nop
    4590:	00000000 	nop
    4594:	00000000 	nop
    4598:	00000000 	nop
    459c:	00000000 	nop
    45a0:	00000000 	nop
    45a4:	00000000 	nop
    45a8:	00000000 	nop
    45ac:	00000000 	nop
    45b0:	00000000 	nop
    45b4:	00000000 	nop
    45b8:	00000000 	nop
    45bc:	00000000 	nop
    45c0:	00000000 	nop
    45c4:	00000000 	nop
    45c8:	00000000 	nop
    45cc:	00000000 	nop
    45d0:	00000000 	nop
    45d4:	00000000 	nop
    45d8:	00000000 	nop
    45dc:	00000000 	nop
    45e0:	00000000 	nop
    45e4:	00000000 	nop
    45e8:	00000000 	nop
    45ec:	00000000 	nop
    45f0:	00000000 	nop
    45f4:	00000000 	nop
    45f8:	00000000 	nop
    45fc:	00000000 	nop
    4600:	00000000 	nop
    4604:	00000000 	nop
    4608:	00000000 	nop
    460c:	00000000 	nop
    4610:	00000000 	nop
    4614:	00000000 	nop
    4618:	00000000 	nop
    461c:	00000000 	nop
    4620:	00000000 	nop
    4624:	00000000 	nop
    4628:	00000000 	nop
    462c:	00000000 	nop
    4630:	00000000 	nop
    4634:	00000000 	nop
    4638:	00000000 	nop
    463c:	00000000 	nop
    4640:	00000000 	nop
    4644:	00000000 	nop
    4648:	00000000 	nop
    464c:	00000000 	nop
    4650:	00000000 	nop
    4654:	00000000 	nop
    4658:	00000000 	nop
    465c:	00000000 	nop
    4660:	00000000 	nop
    4664:	00000000 	nop
    4668:	00000000 	nop
    466c:	00000000 	nop
    4670:	00000000 	nop
    4674:	00000000 	nop
    4678:	00000000 	nop
    467c:	00000000 	nop
    4680:	00000000 	nop
    4684:	00000000 	nop
    4688:	00000000 	nop
    468c:	00000000 	nop
    4690:	00000000 	nop
    4694:	00000000 	nop
    4698:	00000000 	nop
    469c:	00000000 	nop
    46a0:	00000000 	nop
    46a4:	00000000 	nop
    46a8:	00000000 	nop
    46ac:	00000000 	nop
    46b0:	00000000 	nop
    46b4:	00000000 	nop
    46b8:	00000000 	nop
    46bc:	00000000 	nop
    46c0:	00000000 	nop
    46c4:	00000000 	nop
    46c8:	00000000 	nop
    46cc:	00000000 	nop
    46d0:	00000000 	nop
    46d4:	00000000 	nop
    46d8:	00000000 	nop
    46dc:	00000000 	nop
    46e0:	00000000 	nop
    46e4:	00000000 	nop
    46e8:	00000000 	nop
    46ec:	00000000 	nop
    46f0:	00000000 	nop
    46f4:	00000000 	nop
    46f8:	00000000 	nop
    46fc:	00000000 	nop
    4700:	00000000 	nop
    4704:	00000000 	nop
    4708:	00000000 	nop
    470c:	00000000 	nop
    4710:	00000000 	nop
    4714:	00000000 	nop
    4718:	00000000 	nop
    471c:	00000000 	nop
    4720:	00000000 	nop
    4724:	00000000 	nop
    4728:	00000000 	nop
    472c:	00000000 	nop
    4730:	00000000 	nop
    4734:	00000000 	nop
    4738:	00000000 	nop
    473c:	00000000 	nop
    4740:	00000000 	nop
    4744:	00000000 	nop
    4748:	00000000 	nop
    474c:	00000000 	nop
    4750:	00000000 	nop
    4754:	00000000 	nop
    4758:	00000000 	nop
    475c:	00000000 	nop
    4760:	00000000 	nop
    4764:	00000000 	nop
    4768:	00000000 	nop
    476c:	00000000 	nop
    4770:	00000000 	nop
    4774:	00000000 	nop
    4778:	00000000 	nop
    477c:	00000000 	nop
    4780:	00000000 	nop
    4784:	00000000 	nop
    4788:	00000000 	nop
    478c:	00000000 	nop
    4790:	00000000 	nop
    4794:	00000000 	nop
    4798:	00000000 	nop
    479c:	00000000 	nop
    47a0:	00000000 	nop
    47a4:	00000000 	nop
    47a8:	00000000 	nop
    47ac:	00000000 	nop
    47b0:	00000000 	nop
    47b4:	00000000 	nop
    47b8:	00000000 	nop
    47bc:	00000000 	nop
    47c0:	00000000 	nop
    47c4:	00000000 	nop
    47c8:	00000000 	nop
    47cc:	00000000 	nop
    47d0:	00000000 	nop
    47d4:	00000000 	nop
    47d8:	00000000 	nop
    47dc:	00000000 	nop
    47e0:	00000000 	nop
    47e4:	00000000 	nop
    47e8:	00000000 	nop
    47ec:	00000000 	nop
    47f0:	00000000 	nop
    47f4:	00000000 	nop
    47f8:	00000000 	nop
    47fc:	00000000 	nop
    4800:	00000000 	nop
    4804:	00000000 	nop
    4808:	00000000 	nop
    480c:	00000000 	nop
    4810:	00000000 	nop
    4814:	00000000 	nop
    4818:	00000000 	nop
    481c:	00000000 	nop
    4820:	00000000 	nop
    4824:	00000000 	nop
    4828:	00000000 	nop
    482c:	00000000 	nop
    4830:	00000000 	nop
    4834:	00000000 	nop
    4838:	00000000 	nop
    483c:	00000000 	nop
    4840:	00000000 	nop
    4844:	00000000 	nop
    4848:	00000000 	nop
    484c:	00000000 	nop
    4850:	00000000 	nop
    4854:	00000000 	nop
    4858:	00000000 	nop
    485c:	00000000 	nop
    4860:	00000000 	nop
    4864:	00000000 	nop
    4868:	00000000 	nop
    486c:	00000000 	nop
    4870:	00000000 	nop
    4874:	00000000 	nop
    4878:	00000000 	nop
    487c:	00000000 	nop
    4880:	00000000 	nop
    4884:	00000000 	nop
    4888:	00000000 	nop
    488c:	00000000 	nop
    4890:	00000000 	nop
    4894:	00000000 	nop
    4898:	00000000 	nop
    489c:	00000000 	nop
    48a0:	00000000 	nop
    48a4:	00000000 	nop
    48a8:	00000000 	nop
    48ac:	00000000 	nop
    48b0:	00000000 	nop
    48b4:	00000000 	nop
    48b8:	00000000 	nop
    48bc:	00000000 	nop
    48c0:	00000000 	nop
    48c4:	00000000 	nop
    48c8:	00000000 	nop
    48cc:	00000000 	nop
    48d0:	00000000 	nop
    48d4:	00000000 	nop
    48d8:	00000000 	nop
    48dc:	00000000 	nop
    48e0:	00000000 	nop
    48e4:	00000000 	nop
    48e8:	00000000 	nop
    48ec:	00000000 	nop
    48f0:	00000000 	nop
    48f4:	00000000 	nop
    48f8:	00000000 	nop
    48fc:	00000000 	nop
    4900:	00000000 	nop
    4904:	00000000 	nop
    4908:	00000000 	nop
    490c:	00000000 	nop
    4910:	00000000 	nop
    4914:	00000000 	nop
    4918:	00000000 	nop
    491c:	00000000 	nop
    4920:	00000000 	nop
    4924:	00000000 	nop
    4928:	00000000 	nop
    492c:	00000000 	nop
    4930:	00000000 	nop
    4934:	00000000 	nop
    4938:	00000000 	nop
    493c:	00000000 	nop
    4940:	00000000 	nop
    4944:	00000000 	nop
    4948:	00000000 	nop
    494c:	00000000 	nop
    4950:	00000000 	nop
    4954:	00000000 	nop
    4958:	00000000 	nop
    495c:	00000000 	nop
    4960:	00000000 	nop
    4964:	00000000 	nop
    4968:	00000000 	nop
    496c:	00000000 	nop
    4970:	00000000 	nop
    4974:	00000000 	nop
    4978:	00000000 	nop
    497c:	00000000 	nop
    4980:	00000000 	nop
    4984:	00000000 	nop
    4988:	00000000 	nop
    498c:	00000000 	nop
    4990:	00000000 	nop
    4994:	00000000 	nop
    4998:	00000000 	nop
    499c:	00000000 	nop
    49a0:	00000000 	nop
    49a4:	00000000 	nop
    49a8:	00000000 	nop
    49ac:	00000000 	nop
    49b0:	00000000 	nop
    49b4:	00000000 	nop
    49b8:	00000000 	nop
    49bc:	00000000 	nop
    49c0:	00000000 	nop
    49c4:	00000000 	nop
    49c8:	00000000 	nop
    49cc:	00000000 	nop
    49d0:	00000000 	nop
    49d4:	00000000 	nop
    49d8:	00000000 	nop
    49dc:	00000000 	nop
    49e0:	00000000 	nop
    49e4:	00000000 	nop
    49e8:	00000000 	nop
    49ec:	00000000 	nop
    49f0:	00000000 	nop
    49f4:	00000000 	nop
    49f8:	00000000 	nop
    49fc:	00000000 	nop
    4a00:	00000000 	nop
    4a04:	00000000 	nop
    4a08:	00000000 	nop
    4a0c:	00000000 	nop
    4a10:	00000000 	nop
    4a14:	00000000 	nop
    4a18:	00000000 	nop
    4a1c:	00000000 	nop
    4a20:	00000000 	nop
    4a24:	00000000 	nop
    4a28:	00000000 	nop
    4a2c:	00000000 	nop
    4a30:	00000000 	nop
    4a34:	00000000 	nop
    4a38:	00000000 	nop
    4a3c:	00000000 	nop
    4a40:	00000000 	nop
    4a44:	00000000 	nop
    4a48:	00000000 	nop
    4a4c:	00000000 	nop
    4a50:	00000000 	nop
    4a54:	00000000 	nop
    4a58:	00000000 	nop
    4a5c:	00000000 	nop
    4a60:	00000000 	nop
    4a64:	00000000 	nop
    4a68:	00000000 	nop
    4a6c:	00000000 	nop
    4a70:	00000000 	nop
    4a74:	00000000 	nop
    4a78:	00000000 	nop
    4a7c:	00000000 	nop
    4a80:	00000000 	nop
    4a84:	00000000 	nop
    4a88:	00000000 	nop
    4a8c:	00000000 	nop
    4a90:	00000000 	nop
    4a94:	00000000 	nop
    4a98:	00000000 	nop
    4a9c:	00000000 	nop
    4aa0:	00000000 	nop
    4aa4:	00000000 	nop
    4aa8:	00000000 	nop
    4aac:	00000000 	nop
    4ab0:	00000000 	nop
    4ab4:	00000000 	nop
    4ab8:	00000000 	nop
    4abc:	00000000 	nop
    4ac0:	00000000 	nop
    4ac4:	00000000 	nop
    4ac8:	00000000 	nop
    4acc:	00000000 	nop
    4ad0:	00000000 	nop
    4ad4:	00000000 	nop
    4ad8:	00000000 	nop
    4adc:	00000000 	nop
    4ae0:	00000000 	nop
    4ae4:	00000000 	nop
    4ae8:	00000000 	nop
    4aec:	00000000 	nop
    4af0:	00000000 	nop
    4af4:	00000000 	nop
    4af8:	00000000 	nop
    4afc:	00000000 	nop
    4b00:	00000000 	nop
    4b04:	00000000 	nop
    4b08:	00000000 	nop
    4b0c:	00000000 	nop
    4b10:	00000000 	nop
    4b14:	00000000 	nop
    4b18:	00000000 	nop
    4b1c:	00000000 	nop
    4b20:	00000000 	nop
    4b24:	00000000 	nop
    4b28:	00000000 	nop
    4b2c:	00000000 	nop
    4b30:	00000000 	nop
    4b34:	00000000 	nop
    4b38:	00000000 	nop
    4b3c:	00000000 	nop
    4b40:	00000000 	nop
    4b44:	00000000 	nop
    4b48:	00000000 	nop
    4b4c:	00000000 	nop
    4b50:	00000000 	nop
    4b54:	00000000 	nop
    4b58:	00000000 	nop
    4b5c:	00000000 	nop
    4b60:	00000000 	nop
    4b64:	00000000 	nop
    4b68:	00000000 	nop
    4b6c:	00000000 	nop
    4b70:	00000000 	nop
    4b74:	00000000 	nop
    4b78:	00000000 	nop
    4b7c:	00000000 	nop
    4b80:	00000000 	nop
    4b84:	00000000 	nop
    4b88:	00000000 	nop
    4b8c:	00000000 	nop
    4b90:	00000000 	nop
    4b94:	00000000 	nop
    4b98:	00000000 	nop
    4b9c:	00000000 	nop
    4ba0:	00000000 	nop
    4ba4:	00000000 	nop
    4ba8:	00000000 	nop
    4bac:	00000000 	nop
    4bb0:	00000000 	nop
    4bb4:	00000000 	nop
    4bb8:	00000000 	nop
    4bbc:	00000000 	nop
    4bc0:	00000000 	nop
    4bc4:	00000000 	nop
    4bc8:	00000000 	nop
    4bcc:	00000000 	nop
    4bd0:	00000000 	nop
    4bd4:	00000000 	nop
    4bd8:	00000000 	nop
    4bdc:	00000000 	nop
    4be0:	00000000 	nop
    4be4:	00000000 	nop
    4be8:	00000000 	nop
    4bec:	00000000 	nop
    4bf0:	00000000 	nop
    4bf4:	00000000 	nop
    4bf8:	00000000 	nop
    4bfc:	00000000 	nop
    4c00:	00000000 	nop
    4c04:	00000000 	nop
    4c08:	00000000 	nop
    4c0c:	00000000 	nop
    4c10:	00000000 	nop
    4c14:	00000000 	nop
    4c18:	00000000 	nop
    4c1c:	00000000 	nop
    4c20:	00000000 	nop
    4c24:	00000000 	nop
    4c28:	00000000 	nop
    4c2c:	00000000 	nop
    4c30:	00000000 	nop
    4c34:	00000000 	nop
    4c38:	00000000 	nop
    4c3c:	00000000 	nop
    4c40:	00000000 	nop
    4c44:	00000000 	nop
    4c48:	00000000 	nop
    4c4c:	00000000 	nop
    4c50:	00000000 	nop
    4c54:	00000000 	nop
    4c58:	00000000 	nop
    4c5c:	00000000 	nop
    4c60:	00000000 	nop
    4c64:	00000000 	nop
    4c68:	00000000 	nop
    4c6c:	00000000 	nop
    4c70:	00000000 	nop
    4c74:	00000000 	nop
    4c78:	00000000 	nop
    4c7c:	00000000 	nop
    4c80:	00000000 	nop
    4c84:	00000000 	nop
    4c88:	00000000 	nop
    4c8c:	00000000 	nop
    4c90:	00000000 	nop
    4c94:	00000000 	nop
    4c98:	00000000 	nop
    4c9c:	00000000 	nop
    4ca0:	00000000 	nop
    4ca4:	00000000 	nop
    4ca8:	00000000 	nop
    4cac:	00000000 	nop
    4cb0:	00000000 	nop
    4cb4:	00000000 	nop
    4cb8:	00000000 	nop
    4cbc:	00000000 	nop
    4cc0:	00000000 	nop
    4cc4:	00000000 	nop
    4cc8:	00000000 	nop
    4ccc:	00000000 	nop
    4cd0:	00000000 	nop
    4cd4:	00000000 	nop
    4cd8:	00000000 	nop
    4cdc:	00000000 	nop
    4ce0:	00000000 	nop
    4ce4:	00000000 	nop
    4ce8:	00000000 	nop
    4cec:	00000000 	nop
    4cf0:	00000000 	nop
    4cf4:	00000000 	nop
    4cf8:	00000000 	nop
    4cfc:	00000000 	nop
    4d00:	00000000 	nop
    4d04:	00000000 	nop
    4d08:	00000000 	nop
    4d0c:	00000000 	nop
    4d10:	00000000 	nop
    4d14:	00000000 	nop
    4d18:	00000000 	nop
    4d1c:	00000000 	nop
    4d20:	00000000 	nop
    4d24:	00000000 	nop
    4d28:	00000000 	nop
    4d2c:	00000000 	nop
    4d30:	00000000 	nop
    4d34:	00000000 	nop
    4d38:	00000000 	nop
    4d3c:	00000000 	nop
    4d40:	00000000 	nop
    4d44:	00000000 	nop
    4d48:	00000000 	nop
    4d4c:	00000000 	nop
    4d50:	00000000 	nop
    4d54:	00000000 	nop
    4d58:	00000000 	nop
    4d5c:	00000000 	nop
    4d60:	00000000 	nop
    4d64:	00000000 	nop
    4d68:	00000000 	nop
    4d6c:	00000000 	nop
    4d70:	00000000 	nop
    4d74:	00000000 	nop
    4d78:	00000000 	nop
    4d7c:	00000000 	nop
    4d80:	00000000 	nop
    4d84:	00000000 	nop
    4d88:	00000000 	nop
    4d8c:	00000000 	nop
    4d90:	00000000 	nop
    4d94:	00000000 	nop
    4d98:	00000000 	nop
    4d9c:	00000000 	nop
    4da0:	00000000 	nop
    4da4:	00000000 	nop
    4da8:	00000000 	nop
    4dac:	00000000 	nop
    4db0:	00000000 	nop
    4db4:	00000000 	nop
    4db8:	00000000 	nop
    4dbc:	00000000 	nop
    4dc0:	00000000 	nop
    4dc4:	00000000 	nop
    4dc8:	00000000 	nop
    4dcc:	00000000 	nop
    4dd0:	00000000 	nop
    4dd4:	00000000 	nop
    4dd8:	00000000 	nop
    4ddc:	00000000 	nop
    4de0:	00000000 	nop
    4de4:	00000000 	nop
    4de8:	00000000 	nop
    4dec:	00000000 	nop
    4df0:	00000000 	nop
    4df4:	00000000 	nop
    4df8:	00000000 	nop
    4dfc:	00000000 	nop
    4e00:	00000000 	nop
    4e04:	00000000 	nop
    4e08:	00000000 	nop
    4e0c:	00000000 	nop
    4e10:	00000000 	nop
    4e14:	00000000 	nop
    4e18:	00000000 	nop
    4e1c:	00000000 	nop
    4e20:	00000000 	nop
    4e24:	00000000 	nop
    4e28:	00000000 	nop
    4e2c:	00000000 	nop
    4e30:	00000000 	nop
    4e34:	00000000 	nop
    4e38:	00000000 	nop
    4e3c:	00000000 	nop
    4e40:	00000000 	nop
    4e44:	00000000 	nop
    4e48:	00000000 	nop
    4e4c:	00000000 	nop
    4e50:	00000000 	nop
    4e54:	00000000 	nop
    4e58:	00000000 	nop
    4e5c:	00000000 	nop
    4e60:	00000000 	nop
    4e64:	00000000 	nop
    4e68:	00000000 	nop
    4e6c:	00000000 	nop
    4e70:	00000000 	nop
    4e74:	00000000 	nop
    4e78:	00000000 	nop
    4e7c:	00000000 	nop
    4e80:	00000000 	nop
    4e84:	00000000 	nop
    4e88:	00000000 	nop
    4e8c:	00000000 	nop
    4e90:	00000000 	nop
    4e94:	00000000 	nop
    4e98:	00000000 	nop
    4e9c:	00000000 	nop
    4ea0:	00000000 	nop
    4ea4:	00000000 	nop
    4ea8:	00000000 	nop
    4eac:	00000000 	nop
    4eb0:	00000000 	nop
    4eb4:	00000000 	nop
    4eb8:	00000000 	nop
    4ebc:	00000000 	nop
    4ec0:	00000000 	nop
    4ec4:	00000000 	nop
    4ec8:	00000000 	nop
    4ecc:	00000000 	nop
    4ed0:	00000000 	nop
    4ed4:	00000000 	nop
    4ed8:	00000000 	nop
    4edc:	00000000 	nop
    4ee0:	00000000 	nop
    4ee4:	00000000 	nop
    4ee8:	00000000 	nop
    4eec:	00000000 	nop
    4ef0:	00000000 	nop
    4ef4:	00000000 	nop
    4ef8:	00000000 	nop
    4efc:	00000000 	nop
    4f00:	00000000 	nop
    4f04:	00000000 	nop
    4f08:	00000000 	nop
    4f0c:	00000000 	nop
    4f10:	00000000 	nop
    4f14:	00000000 	nop
    4f18:	00000000 	nop
    4f1c:	00000000 	nop
    4f20:	00000000 	nop
    4f24:	00000000 	nop
    4f28:	00000000 	nop
    4f2c:	00000000 	nop
    4f30:	00000000 	nop
    4f34:	00000000 	nop
    4f38:	00000000 	nop
    4f3c:	00000000 	nop
    4f40:	00000000 	nop
    4f44:	00000000 	nop
    4f48:	00000000 	nop
    4f4c:	00000000 	nop
    4f50:	00000000 	nop
    4f54:	00000000 	nop
    4f58:	00000000 	nop
    4f5c:	00000000 	nop
    4f60:	00000000 	nop
    4f64:	00000000 	nop
    4f68:	00000000 	nop
    4f6c:	00000000 	nop
    4f70:	00000000 	nop
    4f74:	00000000 	nop
    4f78:	00000000 	nop
    4f7c:	00000000 	nop
    4f80:	00000000 	nop
    4f84:	00000000 	nop
    4f88:	00000000 	nop
    4f8c:	00000000 	nop
    4f90:	00000000 	nop
    4f94:	00000000 	nop
    4f98:	00000000 	nop
    4f9c:	00000000 	nop
    4fa0:	00000000 	nop
    4fa4:	00000000 	nop
    4fa8:	00000000 	nop
    4fac:	00000000 	nop
    4fb0:	00000000 	nop
    4fb4:	00000000 	nop
    4fb8:	00000000 	nop
    4fbc:	00000000 	nop
    4fc0:	00000000 	nop
    4fc4:	00000000 	nop
    4fc8:	00000000 	nop
    4fcc:	00000000 	nop
    4fd0:	00000000 	nop
    4fd4:	00000000 	nop
    4fd8:	00000000 	nop
    4fdc:	00000000 	nop
    4fe0:	00000000 	nop
    4fe4:	00000000 	nop
    4fe8:	00000000 	nop
    4fec:	00000000 	nop
    4ff0:	00000000 	nop
    4ff4:	00000000 	nop
    4ff8:	00000000 	nop
    4ffc:	00000000 	nop
    5000:	00000000 	nop
    5004:	00000000 	nop
    5008:	00000000 	nop
    500c:	00000000 	nop
    5010:	00000000 	nop
    5014:	00000000 	nop
    5018:	00000000 	nop
    501c:	00000000 	nop
    5020:	00000000 	nop
    5024:	00000000 	nop
    5028:	00000000 	nop
    502c:	00000000 	nop
    5030:	00000000 	nop
    5034:	00000000 	nop
    5038:	00000000 	nop
    503c:	00000000 	nop
    5040:	00000000 	nop
    5044:	00000000 	nop
    5048:	00000000 	nop
    504c:	00000000 	nop
    5050:	00000000 	nop
    5054:	00000000 	nop
    5058:	00000000 	nop
    505c:	00000000 	nop
    5060:	00000000 	nop
    5064:	00000000 	nop
    5068:	00000000 	nop
    506c:	00000000 	nop
    5070:	00000000 	nop
    5074:	00000000 	nop
    5078:	00000000 	nop
    507c:	00000000 	nop
    5080:	00000000 	nop
    5084:	00000000 	nop
    5088:	00000000 	nop
    508c:	00000000 	nop
    5090:	00000000 	nop
    5094:	00000000 	nop
    5098:	00000000 	nop
    509c:	00000000 	nop
    50a0:	00000000 	nop
    50a4:	00000000 	nop
    50a8:	00000000 	nop
    50ac:	00000000 	nop
    50b0:	00000000 	nop
    50b4:	00000000 	nop
    50b8:	00000000 	nop
    50bc:	00000000 	nop
    50c0:	00000000 	nop
    50c4:	00000000 	nop
    50c8:	00000000 	nop
    50cc:	00000000 	nop
    50d0:	00000000 	nop
    50d4:	00000000 	nop
    50d8:	00000000 	nop
    50dc:	00000000 	nop
    50e0:	00000000 	nop
    50e4:	00000000 	nop
    50e8:	00000000 	nop
    50ec:	00000000 	nop
    50f0:	00000000 	nop
    50f4:	00000000 	nop
    50f8:	00000000 	nop
    50fc:	00000000 	nop
    5100:	00000000 	nop
    5104:	00000000 	nop
    5108:	00000000 	nop
    510c:	00000000 	nop
    5110:	00000000 	nop
    5114:	00000000 	nop
    5118:	00000000 	nop
    511c:	00000000 	nop
    5120:	00000000 	nop
    5124:	00000000 	nop
    5128:	00000000 	nop
    512c:	00000000 	nop
    5130:	00000000 	nop
    5134:	00000000 	nop
    5138:	00000000 	nop
    513c:	00000000 	nop
    5140:	00000000 	nop
    5144:	00000000 	nop
    5148:	00000000 	nop
    514c:	00000000 	nop
    5150:	00000000 	nop
    5154:	00000000 	nop
    5158:	00000000 	nop
    515c:	00000000 	nop
    5160:	00000000 	nop
    5164:	00000000 	nop
    5168:	00000000 	nop
    516c:	00000000 	nop
    5170:	00000000 	nop
    5174:	00000000 	nop
    5178:	00000000 	nop
    517c:	00000000 	nop
    5180:	00000000 	nop
    5184:	00000000 	nop
    5188:	00000000 	nop
    518c:	00000000 	nop
    5190:	00000000 	nop
    5194:	00000000 	nop
    5198:	00000000 	nop
    519c:	00000000 	nop
    51a0:	00000000 	nop
    51a4:	00000000 	nop
    51a8:	00000000 	nop
    51ac:	00000000 	nop
    51b0:	00000000 	nop
    51b4:	00000000 	nop
    51b8:	00000000 	nop
    51bc:	00000000 	nop
    51c0:	00000000 	nop
    51c4:	00000000 	nop
    51c8:	00000000 	nop
    51cc:	00000000 	nop
    51d0:	00000000 	nop
    51d4:	00000000 	nop
    51d8:	00000000 	nop
    51dc:	00000000 	nop
    51e0:	00000000 	nop
    51e4:	00000000 	nop
    51e8:	00000000 	nop
    51ec:	00000000 	nop
    51f0:	00000000 	nop
    51f4:	00000000 	nop
    51f8:	00000000 	nop
    51fc:	00000000 	nop
    5200:	00000000 	nop
    5204:	00000000 	nop
    5208:	00000000 	nop
    520c:	00000000 	nop
    5210:	00000000 	nop
    5214:	00000000 	nop
    5218:	00000000 	nop
    521c:	00000000 	nop
    5220:	00000000 	nop
    5224:	00000000 	nop
    5228:	00000000 	nop
    522c:	00000000 	nop
    5230:	00000000 	nop
    5234:	00000000 	nop
    5238:	00000000 	nop
    523c:	00000000 	nop
    5240:	00000000 	nop
    5244:	00000000 	nop
    5248:	00000000 	nop
    524c:	00000000 	nop
    5250:	00000000 	nop
    5254:	00000000 	nop
    5258:	00000000 	nop
    525c:	00000000 	nop
    5260:	00000000 	nop
    5264:	00000000 	nop
    5268:	00000000 	nop
    526c:	00000000 	nop
    5270:	00000000 	nop
    5274:	00000000 	nop
    5278:	00000000 	nop
    527c:	00000000 	nop
    5280:	00000000 	nop
    5284:	00000000 	nop
    5288:	00000000 	nop
    528c:	00000000 	nop
    5290:	00000000 	nop
    5294:	00000000 	nop
    5298:	00000000 	nop
    529c:	00000000 	nop
    52a0:	00000000 	nop
    52a4:	00000000 	nop
    52a8:	00000000 	nop
    52ac:	00000000 	nop
    52b0:	00000000 	nop
    52b4:	00000000 	nop
    52b8:	00000000 	nop
    52bc:	00000000 	nop
    52c0:	00000000 	nop
    52c4:	00000000 	nop
    52c8:	00000000 	nop
    52cc:	00000000 	nop
    52d0:	00000000 	nop
    52d4:	00000000 	nop
    52d8:	00000000 	nop
    52dc:	00000000 	nop
    52e0:	00000000 	nop
    52e4:	00000000 	nop
    52e8:	00000000 	nop
    52ec:	00000000 	nop
    52f0:	00000000 	nop
    52f4:	00000000 	nop
    52f8:	00000000 	nop
    52fc:	00000000 	nop
    5300:	00000000 	nop
    5304:	00000000 	nop
    5308:	00000000 	nop
    530c:	00000000 	nop
    5310:	00000000 	nop
    5314:	00000000 	nop
    5318:	00000000 	nop
    531c:	00000000 	nop
    5320:	00000000 	nop
    5324:	00000000 	nop
    5328:	00000000 	nop
    532c:	00000000 	nop
    5330:	00000000 	nop
    5334:	00000000 	nop
    5338:	00000000 	nop
    533c:	00000000 	nop
    5340:	00000000 	nop
    5344:	00000000 	nop
    5348:	00000000 	nop
    534c:	00000000 	nop
    5350:	00000000 	nop
    5354:	00000000 	nop
    5358:	00000000 	nop
    535c:	00000000 	nop
    5360:	00000000 	nop
    5364:	00000000 	nop
    5368:	00000000 	nop
    536c:	00000000 	nop
    5370:	00000000 	nop
    5374:	00000000 	nop
    5378:	00000000 	nop
    537c:	00000000 	nop
    5380:	00000000 	nop
    5384:	00000000 	nop
    5388:	00000000 	nop
    538c:	00000000 	nop
    5390:	00000000 	nop
    5394:	00000000 	nop
    5398:	00000000 	nop
    539c:	00000000 	nop
    53a0:	00000000 	nop
    53a4:	00000000 	nop
    53a8:	00000000 	nop
    53ac:	00000000 	nop
    53b0:	00000000 	nop
    53b4:	00000000 	nop
    53b8:	00000000 	nop
    53bc:	00000000 	nop
    53c0:	00000000 	nop
    53c4:	00000000 	nop
    53c8:	00000000 	nop
    53cc:	00000000 	nop
    53d0:	00000000 	nop
    53d4:	00000000 	nop
    53d8:	00000000 	nop
    53dc:	00000000 	nop
    53e0:	00000000 	nop
    53e4:	00000000 	nop
    53e8:	00000000 	nop
    53ec:	00000000 	nop
    53f0:	00000000 	nop
    53f4:	00000000 	nop
    53f8:	00000000 	nop
    53fc:	00000000 	nop
    5400:	00000000 	nop
    5404:	00000000 	nop
    5408:	00000000 	nop
    540c:	00000000 	nop
    5410:	00000000 	nop
    5414:	00000000 	nop
    5418:	00000000 	nop
    541c:	00000000 	nop
    5420:	00000000 	nop
    5424:	00000000 	nop
    5428:	00000000 	nop
    542c:	00000000 	nop
    5430:	00000000 	nop
    5434:	00000000 	nop
    5438:	00000000 	nop
    543c:	00000000 	nop
    5440:	00000000 	nop
    5444:	00000000 	nop
    5448:	00000000 	nop
    544c:	00000000 	nop
    5450:	00000000 	nop
    5454:	00000000 	nop
    5458:	00000000 	nop
    545c:	00000000 	nop
    5460:	00000000 	nop
    5464:	00000000 	nop
    5468:	00000000 	nop
    546c:	00000000 	nop
    5470:	00000000 	nop
    5474:	00000000 	nop
    5478:	00000000 	nop
    547c:	00000000 	nop
    5480:	00000000 	nop
    5484:	00000000 	nop
    5488:	00000000 	nop
    548c:	00000000 	nop
    5490:	00000000 	nop
    5494:	00000000 	nop
    5498:	00000000 	nop
    549c:	00000000 	nop
    54a0:	00000000 	nop
    54a4:	00000000 	nop
    54a8:	00000000 	nop
    54ac:	00000000 	nop
    54b0:	00000000 	nop
    54b4:	00000000 	nop
    54b8:	00000000 	nop
    54bc:	00000000 	nop
    54c0:	00000000 	nop
    54c4:	00000000 	nop
    54c8:	00000000 	nop
    54cc:	00000000 	nop
    54d0:	00000000 	nop
    54d4:	00000000 	nop
    54d8:	00000000 	nop
    54dc:	00000000 	nop
    54e0:	00000000 	nop
    54e4:	00000000 	nop
    54e8:	00000000 	nop
    54ec:	00000000 	nop
    54f0:	00000000 	nop
    54f4:	00000000 	nop
    54f8:	00000000 	nop
    54fc:	00000000 	nop
    5500:	00000000 	nop
    5504:	00000000 	nop
    5508:	00000000 	nop
    550c:	00000000 	nop
    5510:	00000000 	nop
    5514:	00000000 	nop
    5518:	00000000 	nop
    551c:	00000000 	nop
    5520:	00000000 	nop
    5524:	00000000 	nop
    5528:	00000000 	nop
    552c:	00000000 	nop
    5530:	00000000 	nop
    5534:	00000000 	nop
    5538:	00000000 	nop
    553c:	00000000 	nop
    5540:	00000000 	nop
    5544:	00000000 	nop
    5548:	00000000 	nop
    554c:	00000000 	nop
    5550:	00000000 	nop
    5554:	00000000 	nop
    5558:	00000000 	nop
    555c:	00000000 	nop
    5560:	00000000 	nop
    5564:	00000000 	nop
    5568:	00000000 	nop
    556c:	00000000 	nop
    5570:	00000000 	nop
    5574:	00000000 	nop
    5578:	00000000 	nop
    557c:	00000000 	nop
    5580:	00000000 	nop
    5584:	00000000 	nop
    5588:	00000000 	nop
    558c:	00000000 	nop
    5590:	00000000 	nop
    5594:	00000000 	nop
    5598:	00000000 	nop
    559c:	00000000 	nop
    55a0:	00000000 	nop
    55a4:	00000000 	nop
    55a8:	00000000 	nop
    55ac:	00000000 	nop
    55b0:	00000000 	nop
    55b4:	00000000 	nop
    55b8:	00000000 	nop
    55bc:	00000000 	nop
    55c0:	00000000 	nop
    55c4:	00000000 	nop
    55c8:	00000000 	nop
    55cc:	00000000 	nop
    55d0:	00000000 	nop
    55d4:	00000000 	nop
    55d8:	00000000 	nop
    55dc:	00000000 	nop
    55e0:	00000000 	nop
    55e4:	00000000 	nop
    55e8:	00000000 	nop
    55ec:	00000000 	nop
    55f0:	00000000 	nop
    55f4:	00000000 	nop
    55f8:	00000000 	nop
    55fc:	00000000 	nop
    5600:	00000000 	nop
    5604:	00000000 	nop
    5608:	00000000 	nop
    560c:	00000000 	nop
    5610:	00000000 	nop
    5614:	00000000 	nop
    5618:	00000000 	nop
    561c:	00000000 	nop
    5620:	00000000 	nop
    5624:	00000000 	nop
    5628:	00000000 	nop
    562c:	00000000 	nop
    5630:	00000000 	nop
    5634:	00000000 	nop
    5638:	00000000 	nop
    563c:	00000000 	nop
    5640:	00000000 	nop
    5644:	00000000 	nop
    5648:	00000000 	nop
    564c:	00000000 	nop
    5650:	00000000 	nop
    5654:	00000000 	nop
    5658:	00000000 	nop
    565c:	00000000 	nop
    5660:	00000000 	nop
    5664:	00000000 	nop
    5668:	00000000 	nop
    566c:	00000000 	nop
    5670:	00000000 	nop
    5674:	00000000 	nop
    5678:	00000000 	nop
    567c:	00000000 	nop
    5680:	00000000 	nop
    5684:	00000000 	nop
    5688:	00000000 	nop
    568c:	00000000 	nop
    5690:	00000000 	nop
    5694:	00000000 	nop
    5698:	00000000 	nop
    569c:	00000000 	nop
    56a0:	00000000 	nop
    56a4:	00000000 	nop
    56a8:	00000000 	nop
    56ac:	00000000 	nop
    56b0:	00000000 	nop
    56b4:	00000000 	nop
    56b8:	00000000 	nop
    56bc:	00000000 	nop
    56c0:	00000000 	nop
    56c4:	00000000 	nop
    56c8:	00000000 	nop
    56cc:	00000000 	nop
    56d0:	00000000 	nop
    56d4:	00000000 	nop
    56d8:	00000000 	nop
    56dc:	00000000 	nop
    56e0:	00000000 	nop
    56e4:	00000000 	nop
    56e8:	00000000 	nop
    56ec:	00000000 	nop
    56f0:	00000000 	nop
    56f4:	00000000 	nop
    56f8:	00000000 	nop
    56fc:	00000000 	nop
    5700:	00000000 	nop
    5704:	00000000 	nop
    5708:	00000000 	nop
    570c:	00000000 	nop
    5710:	00000000 	nop
    5714:	00000000 	nop
    5718:	00000000 	nop
    571c:	00000000 	nop
    5720:	00000000 	nop
    5724:	00000000 	nop
    5728:	00000000 	nop
    572c:	00000000 	nop
    5730:	00000000 	nop
    5734:	00000000 	nop
    5738:	00000000 	nop
    573c:	00000000 	nop
    5740:	00000000 	nop
    5744:	00000000 	nop
    5748:	00000000 	nop
    574c:	00000000 	nop
    5750:	00000000 	nop
    5754:	00000000 	nop
    5758:	00000000 	nop
    575c:	00000000 	nop
    5760:	00000000 	nop
    5764:	00000000 	nop
    5768:	00000000 	nop
    576c:	00000000 	nop
    5770:	00000000 	nop
    5774:	00000000 	nop
    5778:	00000000 	nop
    577c:	00000000 	nop
    5780:	00000000 	nop
    5784:	00000000 	nop
    5788:	00000000 	nop
    578c:	00000000 	nop
    5790:	00000000 	nop
    5794:	00000000 	nop
    5798:	00000000 	nop
    579c:	00000000 	nop
    57a0:	00000000 	nop
    57a4:	00000000 	nop
    57a8:	00000000 	nop
    57ac:	00000000 	nop
    57b0:	00000000 	nop
    57b4:	00000000 	nop
    57b8:	00000000 	nop
    57bc:	00000000 	nop
    57c0:	00000000 	nop
    57c4:	00000000 	nop
    57c8:	00000000 	nop
    57cc:	00000000 	nop
    57d0:	00000000 	nop
    57d4:	00000000 	nop
    57d8:	00000000 	nop
    57dc:	00000000 	nop
    57e0:	00000000 	nop
    57e4:	00000000 	nop
    57e8:	00000000 	nop
    57ec:	00000000 	nop
    57f0:	00000000 	nop
    57f4:	00000000 	nop
    57f8:	00000000 	nop
    57fc:	00000000 	nop
    5800:	00000000 	nop
    5804:	00000000 	nop
    5808:	00000000 	nop
    580c:	00000000 	nop
    5810:	00000000 	nop
    5814:	00000000 	nop
    5818:	00000000 	nop
    581c:	00000000 	nop
    5820:	00000000 	nop
    5824:	00000000 	nop
    5828:	00000000 	nop
    582c:	00000000 	nop
    5830:	00000000 	nop
    5834:	00000000 	nop
    5838:	00000000 	nop
    583c:	00000000 	nop
    5840:	00000000 	nop
    5844:	00000000 	nop
    5848:	00000000 	nop
    584c:	00000000 	nop
    5850:	00000000 	nop
    5854:	00000000 	nop
    5858:	00000000 	nop
    585c:	00000000 	nop
    5860:	00000000 	nop
    5864:	00000000 	nop
    5868:	00000000 	nop
    586c:	00000000 	nop
    5870:	00000000 	nop
    5874:	00000000 	nop
    5878:	00000000 	nop
    587c:	00000000 	nop
    5880:	00000000 	nop
    5884:	00000000 	nop
    5888:	00000000 	nop
    588c:	00000000 	nop
    5890:	00000000 	nop
    5894:	00000000 	nop
    5898:	00000000 	nop
    589c:	00000000 	nop
    58a0:	00000000 	nop
    58a4:	00000000 	nop
    58a8:	00000000 	nop
    58ac:	00000000 	nop
    58b0:	00000000 	nop
    58b4:	00000000 	nop
    58b8:	00000000 	nop
    58bc:	00000000 	nop
    58c0:	00000000 	nop
    58c4:	00000000 	nop
    58c8:	00000000 	nop
    58cc:	00000000 	nop
    58d0:	00000000 	nop
    58d4:	00000000 	nop
    58d8:	00000000 	nop
    58dc:	00000000 	nop
    58e0:	00000000 	nop
    58e4:	00000000 	nop
    58e8:	00000000 	nop
    58ec:	00000000 	nop
    58f0:	00000000 	nop
    58f4:	00000000 	nop
    58f8:	00000000 	nop
    58fc:	00000000 	nop
    5900:	00000000 	nop
    5904:	00000000 	nop
    5908:	00000000 	nop
    590c:	00000000 	nop
    5910:	00000000 	nop
    5914:	00000000 	nop
    5918:	00000000 	nop
    591c:	00000000 	nop
    5920:	00000000 	nop
    5924:	00000000 	nop
    5928:	00000000 	nop
    592c:	00000000 	nop
    5930:	00000000 	nop
    5934:	00000000 	nop
    5938:	00000000 	nop
    593c:	00000000 	nop
    5940:	00000000 	nop
    5944:	00000000 	nop
    5948:	00000000 	nop
    594c:	00000000 	nop
    5950:	00000000 	nop
    5954:	00000000 	nop
    5958:	00000000 	nop
    595c:	00000000 	nop
    5960:	00000000 	nop
    5964:	00000000 	nop
    5968:	00000000 	nop
    596c:	00000000 	nop
    5970:	00000000 	nop
    5974:	00000000 	nop
    5978:	00000000 	nop
    597c:	00000000 	nop
    5980:	00000000 	nop
    5984:	00000000 	nop
    5988:	00000000 	nop
    598c:	00000000 	nop
    5990:	00000000 	nop
    5994:	00000000 	nop
    5998:	00000000 	nop
    599c:	00000000 	nop
    59a0:	00000000 	nop
    59a4:	00000000 	nop
    59a8:	00000000 	nop
    59ac:	00000000 	nop
    59b0:	00000000 	nop
    59b4:	00000000 	nop
    59b8:	00000000 	nop
    59bc:	00000000 	nop
    59c0:	00000000 	nop
    59c4:	00000000 	nop
    59c8:	00000000 	nop
    59cc:	00000000 	nop
    59d0:	00000000 	nop
    59d4:	00000000 	nop
    59d8:	00000000 	nop
    59dc:	00000000 	nop
    59e0:	00000000 	nop
    59e4:	00000000 	nop
    59e8:	00000000 	nop
    59ec:	00000000 	nop
    59f0:	00000000 	nop
    59f4:	00000000 	nop
    59f8:	00000000 	nop
    59fc:	00000000 	nop
    5a00:	00000000 	nop
    5a04:	00000000 	nop
    5a08:	00000000 	nop
    5a0c:	00000000 	nop
    5a10:	00000000 	nop
    5a14:	00000000 	nop
    5a18:	00000000 	nop
    5a1c:	00000000 	nop
    5a20:	00000000 	nop
    5a24:	00000000 	nop
    5a28:	00000000 	nop
    5a2c:	00000000 	nop
    5a30:	00000000 	nop
    5a34:	00000000 	nop
    5a38:	00000000 	nop
    5a3c:	00000000 	nop
    5a40:	00000000 	nop
    5a44:	00000000 	nop
    5a48:	00000000 	nop
    5a4c:	00000000 	nop
    5a50:	00000000 	nop
    5a54:	00000000 	nop
    5a58:	00000000 	nop
    5a5c:	00000000 	nop
    5a60:	00000000 	nop
    5a64:	00000000 	nop
    5a68:	00000000 	nop
    5a6c:	00000000 	nop
    5a70:	00000000 	nop
    5a74:	00000000 	nop
    5a78:	00000000 	nop
    5a7c:	00000000 	nop
    5a80:	00000000 	nop
    5a84:	00000000 	nop
    5a88:	00000000 	nop
    5a8c:	00000000 	nop
    5a90:	00000000 	nop
    5a94:	00000000 	nop
    5a98:	00000000 	nop
    5a9c:	00000000 	nop
    5aa0:	00000000 	nop
    5aa4:	00000000 	nop
    5aa8:	00000000 	nop
    5aac:	00000000 	nop
    5ab0:	00000000 	nop
    5ab4:	00000000 	nop
    5ab8:	00000000 	nop
    5abc:	00000000 	nop
    5ac0:	00000000 	nop
    5ac4:	00000000 	nop
    5ac8:	00000000 	nop
    5acc:	00000000 	nop
    5ad0:	00000000 	nop
    5ad4:	00000000 	nop
    5ad8:	00000000 	nop
    5adc:	00000000 	nop
    5ae0:	00000000 	nop
    5ae4:	00000000 	nop
    5ae8:	00000000 	nop
    5aec:	00000000 	nop
    5af0:	00000000 	nop
    5af4:	00000000 	nop
    5af8:	00000000 	nop
    5afc:	00000000 	nop
    5b00:	00000000 	nop
    5b04:	00000000 	nop
    5b08:	00000000 	nop
    5b0c:	00000000 	nop
    5b10:	00000000 	nop
    5b14:	00000000 	nop
    5b18:	00000000 	nop
    5b1c:	00000000 	nop
    5b20:	00000000 	nop
    5b24:	00000000 	nop
    5b28:	00000000 	nop
    5b2c:	00000000 	nop
    5b30:	00000000 	nop
    5b34:	00000000 	nop
    5b38:	00000000 	nop
    5b3c:	00000000 	nop
    5b40:	00000000 	nop
    5b44:	00000000 	nop
    5b48:	00000000 	nop
    5b4c:	00000000 	nop
    5b50:	00000000 	nop
    5b54:	00000000 	nop
    5b58:	00000000 	nop
    5b5c:	00000000 	nop
    5b60:	00000000 	nop
    5b64:	00000000 	nop
    5b68:	00000000 	nop
    5b6c:	00000000 	nop
    5b70:	00000000 	nop
    5b74:	00000000 	nop
    5b78:	00000000 	nop
    5b7c:	00000000 	nop
    5b80:	00000000 	nop
    5b84:	00000000 	nop
    5b88:	00000000 	nop
    5b8c:	00000000 	nop
    5b90:	00000000 	nop
    5b94:	00000000 	nop
    5b98:	00000000 	nop
    5b9c:	00000000 	nop
    5ba0:	00000000 	nop
    5ba4:	00000000 	nop
    5ba8:	00000000 	nop
    5bac:	00000000 	nop
    5bb0:	00000000 	nop
    5bb4:	00000000 	nop
    5bb8:	00000000 	nop
    5bbc:	00000000 	nop
    5bc0:	00000000 	nop
    5bc4:	00000000 	nop
    5bc8:	00000000 	nop
    5bcc:	00000000 	nop
    5bd0:	00000000 	nop
    5bd4:	00000000 	nop
    5bd8:	00000000 	nop
    5bdc:	00000000 	nop
    5be0:	00000000 	nop
    5be4:	00000000 	nop
    5be8:	00000000 	nop
    5bec:	00000000 	nop
    5bf0:	00000000 	nop
    5bf4:	00000000 	nop
    5bf8:	00000000 	nop
    5bfc:	00000000 	nop
    5c00:	00000000 	nop
    5c04:	00000000 	nop
    5c08:	00000000 	nop
    5c0c:	00000000 	nop
    5c10:	00000000 	nop
    5c14:	00000000 	nop
    5c18:	00000000 	nop
    5c1c:	00000000 	nop
    5c20:	00000000 	nop
    5c24:	00000000 	nop
    5c28:	00000000 	nop
    5c2c:	00000000 	nop
    5c30:	00000000 	nop
    5c34:	00000000 	nop
    5c38:	00000000 	nop
    5c3c:	00000000 	nop
    5c40:	00000000 	nop
    5c44:	00000000 	nop
    5c48:	00000000 	nop
    5c4c:	00000000 	nop
    5c50:	00000000 	nop
    5c54:	00000000 	nop
    5c58:	00000000 	nop
    5c5c:	00000000 	nop
    5c60:	00000000 	nop
    5c64:	00000000 	nop
    5c68:	00000000 	nop
    5c6c:	00000000 	nop
    5c70:	00000000 	nop
    5c74:	00000000 	nop
    5c78:	00000000 	nop
    5c7c:	00000000 	nop
    5c80:	00000000 	nop
    5c84:	00000000 	nop
    5c88:	00000000 	nop
    5c8c:	00000000 	nop
    5c90:	00000000 	nop
    5c94:	00000000 	nop
    5c98:	00000000 	nop
    5c9c:	00000000 	nop
    5ca0:	00000000 	nop
    5ca4:	00000000 	nop
    5ca8:	00000000 	nop
    5cac:	00000000 	nop
    5cb0:	00000000 	nop
    5cb4:	00000000 	nop
    5cb8:	00000000 	nop
    5cbc:	00000000 	nop
    5cc0:	00000000 	nop
    5cc4:	00000000 	nop
    5cc8:	00000000 	nop
    5ccc:	00000000 	nop
    5cd0:	00000000 	nop
    5cd4:	00000000 	nop
    5cd8:	00000000 	nop
    5cdc:	00000000 	nop
    5ce0:	00000000 	nop
    5ce4:	00000000 	nop
    5ce8:	00000000 	nop
    5cec:	00000000 	nop
    5cf0:	00000000 	nop
    5cf4:	00000000 	nop
    5cf8:	00000000 	nop
    5cfc:	00000000 	nop
    5d00:	00000000 	nop
    5d04:	00000000 	nop
    5d08:	00000000 	nop
    5d0c:	00000000 	nop
    5d10:	00000000 	nop
    5d14:	00000000 	nop
    5d18:	00000000 	nop
    5d1c:	00000000 	nop
    5d20:	00000000 	nop
    5d24:	00000000 	nop
    5d28:	00000000 	nop
    5d2c:	00000000 	nop
    5d30:	00000000 	nop
    5d34:	00000000 	nop
    5d38:	00000000 	nop
    5d3c:	00000000 	nop
    5d40:	00000000 	nop
    5d44:	00000000 	nop
    5d48:	00000000 	nop
    5d4c:	00000000 	nop
    5d50:	00000000 	nop
    5d54:	00000000 	nop
    5d58:	00000000 	nop
    5d5c:	00000000 	nop
    5d60:	00000000 	nop
    5d64:	00000000 	nop
    5d68:	00000000 	nop
    5d6c:	00000000 	nop
    5d70:	00000000 	nop
    5d74:	00000000 	nop
    5d78:	00000000 	nop
    5d7c:	00000000 	nop
    5d80:	00000000 	nop
    5d84:	00000000 	nop
    5d88:	00000000 	nop
    5d8c:	00000000 	nop
    5d90:	00000000 	nop
    5d94:	00000000 	nop
    5d98:	00000000 	nop
    5d9c:	00000000 	nop
    5da0:	00000000 	nop
    5da4:	00000000 	nop
    5da8:	00000000 	nop
    5dac:	00000000 	nop
    5db0:	00000000 	nop
    5db4:	00000000 	nop
    5db8:	00000000 	nop
    5dbc:	00000000 	nop
    5dc0:	00000000 	nop
    5dc4:	00000000 	nop
    5dc8:	00000000 	nop
    5dcc:	00000000 	nop
    5dd0:	00000000 	nop
    5dd4:	00000000 	nop
    5dd8:	00000000 	nop
    5ddc:	00000000 	nop
    5de0:	00000000 	nop
    5de4:	00000000 	nop
    5de8:	00000000 	nop
    5dec:	00000000 	nop
    5df0:	00000000 	nop
    5df4:	00000000 	nop
    5df8:	00000000 	nop
    5dfc:	00000000 	nop
    5e00:	00000000 	nop
    5e04:	00000000 	nop
    5e08:	00000000 	nop
    5e0c:	00000000 	nop
    5e10:	00000000 	nop
    5e14:	00000000 	nop
    5e18:	00000000 	nop
    5e1c:	00000000 	nop
    5e20:	00000000 	nop
    5e24:	00000000 	nop
    5e28:	00000000 	nop
    5e2c:	00000000 	nop
    5e30:	00000000 	nop
    5e34:	00000000 	nop
    5e38:	00000000 	nop
    5e3c:	00000000 	nop
    5e40:	00000000 	nop
    5e44:	00000000 	nop
    5e48:	00000000 	nop
    5e4c:	00000000 	nop
    5e50:	00000000 	nop
    5e54:	00000000 	nop
    5e58:	00000000 	nop
    5e5c:	00000000 	nop
    5e60:	00000000 	nop
    5e64:	00000000 	nop
    5e68:	00000000 	nop
    5e6c:	00000000 	nop
    5e70:	00000000 	nop
    5e74:	00000000 	nop
    5e78:	00000000 	nop
    5e7c:	00000000 	nop
    5e80:	00000000 	nop
    5e84:	00000000 	nop
    5e88:	00000000 	nop
    5e8c:	00000000 	nop
    5e90:	00000000 	nop
    5e94:	00000000 	nop
    5e98:	00000000 	nop
    5e9c:	00000000 	nop
    5ea0:	00000000 	nop
    5ea4:	00000000 	nop
    5ea8:	00000000 	nop
    5eac:	00000000 	nop
    5eb0:	00000000 	nop
    5eb4:	00000000 	nop
    5eb8:	00000000 	nop
    5ebc:	00000000 	nop
    5ec0:	00000000 	nop
    5ec4:	00000000 	nop
    5ec8:	00000000 	nop
    5ecc:	00000000 	nop
    5ed0:	00000000 	nop
    5ed4:	00000000 	nop
    5ed8:	00000000 	nop
    5edc:	00000000 	nop
    5ee0:	00000000 	nop
    5ee4:	00000000 	nop
    5ee8:	00000000 	nop
    5eec:	00000000 	nop
    5ef0:	00000000 	nop
    5ef4:	00000000 	nop
    5ef8:	00000000 	nop
    5efc:	00000000 	nop
    5f00:	00000000 	nop
    5f04:	00000000 	nop
    5f08:	00000000 	nop
    5f0c:	00000000 	nop
    5f10:	00000000 	nop
    5f14:	00000000 	nop
    5f18:	00000000 	nop
    5f1c:	00000000 	nop
    5f20:	00000000 	nop
    5f24:	00000000 	nop
    5f28:	00000000 	nop
    5f2c:	00000000 	nop
    5f30:	00000000 	nop
    5f34:	00000000 	nop
    5f38:	00000000 	nop
    5f3c:	00000000 	nop
    5f40:	00000000 	nop
    5f44:	00000000 	nop
    5f48:	00000000 	nop
    5f4c:	00000000 	nop
    5f50:	00000000 	nop
    5f54:	00000000 	nop
    5f58:	00000000 	nop
    5f5c:	00000000 	nop
    5f60:	00000000 	nop
    5f64:	00000000 	nop
    5f68:	00000000 	nop
    5f6c:	00000000 	nop
    5f70:	00000000 	nop
    5f74:	00000000 	nop
    5f78:	00000000 	nop
    5f7c:	00000000 	nop
    5f80:	00000000 	nop
    5f84:	00000000 	nop
    5f88:	00000000 	nop
    5f8c:	00000000 	nop
    5f90:	00000000 	nop
    5f94:	00000000 	nop
    5f98:	00000000 	nop
    5f9c:	00000000 	nop
    5fa0:	00000000 	nop
    5fa4:	00000000 	nop
    5fa8:	00000000 	nop
    5fac:	00000000 	nop
    5fb0:	00000000 	nop
    5fb4:	00000000 	nop
    5fb8:	00000000 	nop
    5fbc:	00000000 	nop
    5fc0:	00000000 	nop
    5fc4:	00000000 	nop
    5fc8:	00000000 	nop
    5fcc:	00000000 	nop
    5fd0:	00000000 	nop
    5fd4:	00000000 	nop
    5fd8:	00000000 	nop
    5fdc:	00000000 	nop
    5fe0:	00000000 	nop
    5fe4:	00000000 	nop
    5fe8:	00000000 	nop
    5fec:	00000000 	nop
    5ff0:	00000000 	nop
    5ff4:	00000000 	nop
    5ff8:	00000000 	nop
    5ffc:	00000000 	nop
    6000:	00000000 	nop
    6004:	00000000 	nop
    6008:	00000000 	nop
    600c:	00000000 	nop
    6010:	00000000 	nop
    6014:	00000000 	nop
    6018:	00000000 	nop
    601c:	00000000 	nop
    6020:	00000000 	nop
    6024:	00000000 	nop
    6028:	00000000 	nop
    602c:	00000000 	nop
    6030:	00000000 	nop
    6034:	00000000 	nop
    6038:	00000000 	nop
    603c:	00000000 	nop
    6040:	00000000 	nop
    6044:	00000000 	nop
    6048:	00000000 	nop
    604c:	00000000 	nop
    6050:	00000000 	nop
    6054:	00000000 	nop
    6058:	00000000 	nop
    605c:	00000000 	nop
    6060:	00000000 	nop
    6064:	00000000 	nop
    6068:	00000000 	nop
    606c:	00000000 	nop
    6070:	00000000 	nop
    6074:	00000000 	nop
    6078:	00000000 	nop
    607c:	00000000 	nop
    6080:	00000000 	nop
    6084:	00000000 	nop
    6088:	00000000 	nop
    608c:	00000000 	nop
    6090:	00000000 	nop
    6094:	00000000 	nop
    6098:	00000000 	nop
    609c:	00000000 	nop
    60a0:	00000000 	nop
    60a4:	00000000 	nop
    60a8:	00000000 	nop
    60ac:	00000000 	nop
    60b0:	00000000 	nop
    60b4:	00000000 	nop
    60b8:	00000000 	nop
    60bc:	00000000 	nop
    60c0:	00000000 	nop
    60c4:	00000000 	nop
    60c8:	00000000 	nop
    60cc:	00000000 	nop
    60d0:	00000000 	nop
    60d4:	00000000 	nop
    60d8:	00000000 	nop
    60dc:	00000000 	nop
    60e0:	00000000 	nop
    60e4:	00000000 	nop
    60e8:	00000000 	nop
    60ec:	00000000 	nop
    60f0:	00000000 	nop
    60f4:	00000000 	nop
    60f8:	00000000 	nop
    60fc:	00000000 	nop
    6100:	00000000 	nop
    6104:	00000000 	nop
    6108:	00000000 	nop
    610c:	00000000 	nop
    6110:	00000000 	nop
    6114:	00000000 	nop
    6118:	00000000 	nop
    611c:	00000000 	nop
    6120:	00000000 	nop
    6124:	00000000 	nop
    6128:	00000000 	nop
    612c:	00000000 	nop
    6130:	00000000 	nop
    6134:	00000000 	nop
    6138:	00000000 	nop
    613c:	00000000 	nop
    6140:	00000000 	nop
    6144:	00000000 	nop
    6148:	00000000 	nop
    614c:	00000000 	nop
    6150:	00000000 	nop
    6154:	00000000 	nop
    6158:	00000000 	nop
    615c:	00000000 	nop
    6160:	00000000 	nop
    6164:	00000000 	nop
    6168:	00000000 	nop
    616c:	00000000 	nop
    6170:	00000000 	nop
    6174:	00000000 	nop
    6178:	00000000 	nop
    617c:	00000000 	nop
    6180:	00000000 	nop
    6184:	00000000 	nop
    6188:	00000000 	nop
    618c:	00000000 	nop
    6190:	00000000 	nop
    6194:	00000000 	nop
    6198:	00000000 	nop
    619c:	00000000 	nop
    61a0:	00000000 	nop
    61a4:	00000000 	nop
    61a8:	00000000 	nop
    61ac:	00000000 	nop
    61b0:	00000000 	nop
    61b4:	00000000 	nop
    61b8:	00000000 	nop
    61bc:	00000000 	nop
    61c0:	00000000 	nop
    61c4:	00000000 	nop
    61c8:	00000000 	nop
    61cc:	00000000 	nop
    61d0:	00000000 	nop
    61d4:	00000000 	nop
    61d8:	00000000 	nop
    61dc:	00000000 	nop
    61e0:	00000000 	nop
    61e4:	00000000 	nop
    61e8:	00000000 	nop
    61ec:	00000000 	nop
    61f0:	00000000 	nop
    61f4:	00000000 	nop
    61f8:	00000000 	nop
    61fc:	00000000 	nop
    6200:	00000000 	nop
    6204:	00000000 	nop
    6208:	00000000 	nop
    620c:	00000000 	nop
    6210:	00000000 	nop
    6214:	00000000 	nop
    6218:	00000000 	nop
    621c:	00000000 	nop
    6220:	00000000 	nop
    6224:	00000000 	nop
    6228:	00000000 	nop
    622c:	00000000 	nop
    6230:	00000000 	nop
    6234:	00000000 	nop
    6238:	00000000 	nop
    623c:	00000000 	nop
    6240:	00000000 	nop
    6244:	00000000 	nop
    6248:	00000000 	nop
    624c:	00000000 	nop
    6250:	00000000 	nop
    6254:	00000000 	nop
    6258:	00000000 	nop
    625c:	00000000 	nop
    6260:	00000000 	nop
    6264:	00000000 	nop
    6268:	00000000 	nop
    626c:	00000000 	nop
    6270:	00000000 	nop
    6274:	00000000 	nop
    6278:	00000000 	nop
    627c:	00000000 	nop
    6280:	00000000 	nop
    6284:	00000000 	nop
    6288:	00000000 	nop
    628c:	00000000 	nop
    6290:	00000000 	nop
    6294:	00000000 	nop
    6298:	00000000 	nop
    629c:	00000000 	nop
    62a0:	00000000 	nop
    62a4:	00000000 	nop
    62a8:	00000000 	nop
    62ac:	00000000 	nop
    62b0:	00000000 	nop
    62b4:	00000000 	nop
    62b8:	00000000 	nop
    62bc:	00000000 	nop
    62c0:	00000000 	nop
    62c4:	00000000 	nop
    62c8:	00000000 	nop
    62cc:	00000000 	nop
    62d0:	00000000 	nop
    62d4:	00000000 	nop
    62d8:	00000000 	nop
    62dc:	00000000 	nop
    62e0:	00000000 	nop
    62e4:	00000000 	nop
    62e8:	00000000 	nop
    62ec:	00000000 	nop
    62f0:	00000000 	nop
    62f4:	00000000 	nop
    62f8:	00000000 	nop
    62fc:	00000000 	nop
    6300:	00000000 	nop
    6304:	00000000 	nop
    6308:	00000000 	nop
    630c:	00000000 	nop
    6310:	00000000 	nop
    6314:	00000000 	nop
    6318:	00000000 	nop
    631c:	00000000 	nop
    6320:	00000000 	nop
    6324:	00000000 	nop
    6328:	00000000 	nop
    632c:	00000000 	nop
    6330:	00000000 	nop
    6334:	00000000 	nop
    6338:	00000000 	nop
    633c:	00000000 	nop
    6340:	00000000 	nop
    6344:	00000000 	nop
    6348:	00000000 	nop
    634c:	00000000 	nop
    6350:	00000000 	nop
    6354:	00000000 	nop
    6358:	00000000 	nop
    635c:	00000000 	nop
    6360:	00000000 	nop
    6364:	00000000 	nop
    6368:	00000000 	nop
    636c:	00000000 	nop
    6370:	00000000 	nop
    6374:	00000000 	nop
    6378:	00000000 	nop
    637c:	00000000 	nop
    6380:	00000000 	nop
    6384:	00000000 	nop
    6388:	00000000 	nop
    638c:	00000000 	nop
    6390:	00000000 	nop
    6394:	00000000 	nop
    6398:	00000000 	nop
    639c:	00000000 	nop
    63a0:	00000000 	nop
    63a4:	00000000 	nop
    63a8:	00000000 	nop
    63ac:	00000000 	nop
    63b0:	00000000 	nop
    63b4:	00000000 	nop
    63b8:	00000000 	nop
    63bc:	00000000 	nop
    63c0:	00000000 	nop
    63c4:	00000000 	nop
    63c8:	00000000 	nop
    63cc:	00000000 	nop
    63d0:	00000000 	nop
    63d4:	00000000 	nop
    63d8:	00000000 	nop
    63dc:	00000000 	nop
    63e0:	00000000 	nop
    63e4:	00000000 	nop
    63e8:	00000000 	nop
    63ec:	00000000 	nop
    63f0:	00000000 	nop
    63f4:	00000000 	nop
    63f8:	00000000 	nop
    63fc:	00000000 	nop
    6400:	00000000 	nop
    6404:	00000000 	nop
    6408:	00000000 	nop
    640c:	00000000 	nop
    6410:	00000000 	nop
    6414:	00000000 	nop
    6418:	00000000 	nop
    641c:	00000000 	nop
    6420:	00000000 	nop
    6424:	00000000 	nop
    6428:	00000000 	nop
    642c:	00000000 	nop
    6430:	00000000 	nop
    6434:	00000000 	nop
    6438:	00000000 	nop
    643c:	00000000 	nop
    6440:	00000000 	nop
    6444:	00000000 	nop
    6448:	00000000 	nop
    644c:	00000000 	nop
    6450:	00000000 	nop
    6454:	00000000 	nop
    6458:	00000000 	nop
    645c:	00000000 	nop
    6460:	00000000 	nop
    6464:	00000000 	nop
    6468:	00000000 	nop
    646c:	00000000 	nop
    6470:	00000000 	nop
    6474:	00000000 	nop
    6478:	00000000 	nop
    647c:	00000000 	nop
    6480:	00000000 	nop
    6484:	00000000 	nop
    6488:	00000000 	nop
    648c:	00000000 	nop
    6490:	00000000 	nop
    6494:	00000000 	nop
    6498:	00000000 	nop
    649c:	00000000 	nop
    64a0:	00000000 	nop
    64a4:	00000000 	nop
    64a8:	00000000 	nop
    64ac:	00000000 	nop
    64b0:	00000000 	nop
    64b4:	00000000 	nop
    64b8:	00000000 	nop
    64bc:	00000000 	nop
    64c0:	00000000 	nop
    64c4:	00000000 	nop
    64c8:	00000000 	nop
    64cc:	00000000 	nop
    64d0:	00000000 	nop
    64d4:	00000000 	nop
    64d8:	00000000 	nop
    64dc:	00000000 	nop
    64e0:	00000000 	nop
    64e4:	00000000 	nop
    64e8:	00000000 	nop
    64ec:	00000000 	nop
    64f0:	00000000 	nop
    64f4:	00000000 	nop
    64f8:	00000000 	nop
    64fc:	00000000 	nop
    6500:	00000000 	nop
    6504:	00000000 	nop
    6508:	00000000 	nop
    650c:	00000000 	nop
    6510:	00000000 	nop
    6514:	00000000 	nop
    6518:	00000000 	nop
    651c:	00000000 	nop
    6520:	00000000 	nop
    6524:	00000000 	nop
    6528:	00000000 	nop
    652c:	00000000 	nop
    6530:	00000000 	nop
    6534:	00000000 	nop
    6538:	00000000 	nop
    653c:	00000000 	nop
    6540:	00000000 	nop
    6544:	00000000 	nop
    6548:	00000000 	nop
    654c:	00000000 	nop
    6550:	00000000 	nop
    6554:	00000000 	nop
    6558:	00000000 	nop
    655c:	00000000 	nop
    6560:	00000000 	nop
    6564:	00000000 	nop
    6568:	00000000 	nop
    656c:	00000000 	nop
    6570:	00000000 	nop
    6574:	00000000 	nop
    6578:	00000000 	nop
    657c:	00000000 	nop
    6580:	00000000 	nop
    6584:	00000000 	nop
    6588:	00000000 	nop
    658c:	00000000 	nop
    6590:	00000000 	nop
    6594:	00000000 	nop
    6598:	00000000 	nop
    659c:	00000000 	nop
    65a0:	00000000 	nop
    65a4:	00000000 	nop
    65a8:	00000000 	nop
    65ac:	00000000 	nop
    65b0:	00000000 	nop
    65b4:	00000000 	nop
    65b8:	00000000 	nop
    65bc:	00000000 	nop
    65c0:	00000000 	nop
    65c4:	00000000 	nop
    65c8:	00000000 	nop
    65cc:	00000000 	nop
    65d0:	00000000 	nop
    65d4:	00000000 	nop
    65d8:	00000000 	nop
    65dc:	00000000 	nop
    65e0:	00000000 	nop
    65e4:	00000000 	nop
    65e8:	00000000 	nop
    65ec:	00000000 	nop
    65f0:	00000000 	nop
    65f4:	00000000 	nop
    65f8:	00000000 	nop
    65fc:	00000000 	nop
    6600:	00000000 	nop
    6604:	00000000 	nop
    6608:	00000000 	nop
    660c:	00000000 	nop
    6610:	00000000 	nop
    6614:	00000000 	nop
    6618:	00000000 	nop
    661c:	00000000 	nop
    6620:	00000000 	nop
    6624:	00000000 	nop
    6628:	00000000 	nop
    662c:	00000000 	nop
    6630:	00000000 	nop
    6634:	00000000 	nop
    6638:	00000000 	nop
    663c:	00000000 	nop
    6640:	00000000 	nop
    6644:	00000000 	nop
    6648:	00000000 	nop
    664c:	00000000 	nop
    6650:	00000000 	nop
    6654:	00000000 	nop
    6658:	00000000 	nop
    665c:	00000000 	nop
    6660:	00000000 	nop
    6664:	00000000 	nop
    6668:	00000000 	nop
    666c:	00000000 	nop
    6670:	00000000 	nop
    6674:	00000000 	nop
    6678:	00000000 	nop
    667c:	00000000 	nop
    6680:	00000000 	nop
    6684:	00000000 	nop
    6688:	00000000 	nop
    668c:	00000000 	nop
    6690:	00000000 	nop
    6694:	00000000 	nop
    6698:	00000000 	nop
    669c:	00000000 	nop
    66a0:	00000000 	nop
    66a4:	00000000 	nop
    66a8:	00000000 	nop
    66ac:	00000000 	nop
    66b0:	00000000 	nop
    66b4:	00000000 	nop
    66b8:	00000000 	nop
    66bc:	00000000 	nop
    66c0:	00000000 	nop
    66c4:	00000000 	nop
    66c8:	00000000 	nop
    66cc:	00000000 	nop
    66d0:	00000000 	nop
    66d4:	00000000 	nop
    66d8:	00000000 	nop
    66dc:	00000000 	nop
    66e0:	00000000 	nop
    66e4:	00000000 	nop
    66e8:	00000000 	nop
    66ec:	00000000 	nop
    66f0:	00000000 	nop
    66f4:	00000000 	nop
    66f8:	00000000 	nop
    66fc:	00000000 	nop
    6700:	00000000 	nop
    6704:	00000000 	nop
    6708:	00000000 	nop
    670c:	00000000 	nop
    6710:	00000000 	nop
    6714:	00000000 	nop
    6718:	00000000 	nop
    671c:	00000000 	nop
    6720:	00000000 	nop
    6724:	00000000 	nop
    6728:	00000000 	nop
    672c:	00000000 	nop
    6730:	00000000 	nop
    6734:	00000000 	nop
    6738:	00000000 	nop
    673c:	00000000 	nop
    6740:	00000000 	nop
    6744:	00000000 	nop
    6748:	00000000 	nop
    674c:	00000000 	nop
    6750:	00000000 	nop
    6754:	00000000 	nop
    6758:	00000000 	nop
    675c:	00000000 	nop
    6760:	00000000 	nop
    6764:	00000000 	nop
    6768:	00000000 	nop
    676c:	00000000 	nop
    6770:	00000000 	nop
    6774:	00000000 	nop
    6778:	00000000 	nop
    677c:	00000000 	nop
    6780:	00000000 	nop
    6784:	00000000 	nop
    6788:	00000000 	nop
    678c:	00000000 	nop
    6790:	00000000 	nop
    6794:	00000000 	nop
    6798:	00000000 	nop
    679c:	00000000 	nop
    67a0:	00000000 	nop
    67a4:	00000000 	nop
    67a8:	00000000 	nop
    67ac:	00000000 	nop
    67b0:	00000000 	nop
    67b4:	00000000 	nop
    67b8:	00000000 	nop
    67bc:	00000000 	nop
    67c0:	00000000 	nop
    67c4:	00000000 	nop
    67c8:	00000000 	nop
    67cc:	00000000 	nop
    67d0:	00000000 	nop
    67d4:	00000000 	nop
    67d8:	00000000 	nop
    67dc:	00000000 	nop
    67e0:	00000000 	nop
    67e4:	00000000 	nop
    67e8:	00000000 	nop
    67ec:	00000000 	nop
    67f0:	00000000 	nop
    67f4:	00000000 	nop
    67f8:	00000000 	nop
    67fc:	00000000 	nop
    6800:	00000000 	nop
    6804:	00000000 	nop
    6808:	00000000 	nop
    680c:	00000000 	nop
    6810:	00000000 	nop
    6814:	00000000 	nop
    6818:	00000000 	nop
    681c:	00000000 	nop
    6820:	00000000 	nop
    6824:	00000000 	nop
    6828:	00000000 	nop
    682c:	00000000 	nop
    6830:	00000000 	nop
    6834:	00000000 	nop
    6838:	00000000 	nop
    683c:	00000000 	nop
    6840:	00000000 	nop
    6844:	00000000 	nop
    6848:	00000000 	nop
    684c:	00000000 	nop
    6850:	00000000 	nop
    6854:	00000000 	nop
    6858:	00000000 	nop
    685c:	00000000 	nop
    6860:	00000000 	nop
    6864:	00000000 	nop
    6868:	00000000 	nop
    686c:	00000000 	nop
    6870:	00000000 	nop
    6874:	00000000 	nop
    6878:	00000000 	nop
    687c:	00000000 	nop
    6880:	00000000 	nop
    6884:	00000000 	nop
    6888:	00000000 	nop
    688c:	00000000 	nop
    6890:	00000000 	nop
    6894:	00000000 	nop
    6898:	00000000 	nop
    689c:	00000000 	nop
    68a0:	00000000 	nop
    68a4:	00000000 	nop
    68a8:	00000000 	nop
    68ac:	00000000 	nop
    68b0:	00000000 	nop
    68b4:	00000000 	nop
    68b8:	00000000 	nop
    68bc:	00000000 	nop
    68c0:	00000000 	nop
    68c4:	00000000 	nop
    68c8:	00000000 	nop
    68cc:	00000000 	nop
    68d0:	00000000 	nop
    68d4:	00000000 	nop
    68d8:	00000000 	nop
    68dc:	00000000 	nop
    68e0:	00000000 	nop
    68e4:	00000000 	nop
    68e8:	00000000 	nop
    68ec:	00000000 	nop
    68f0:	00000000 	nop
    68f4:	00000000 	nop
    68f8:	00000000 	nop
    68fc:	00000000 	nop
    6900:	00000000 	nop
    6904:	00000000 	nop
    6908:	00000000 	nop
    690c:	00000000 	nop
    6910:	00000000 	nop
    6914:	00000000 	nop
    6918:	00000000 	nop
    691c:	00000000 	nop
    6920:	00000000 	nop
    6924:	00000000 	nop
    6928:	00000000 	nop
    692c:	00000000 	nop
    6930:	00000000 	nop
    6934:	00000000 	nop
    6938:	00000000 	nop
    693c:	00000000 	nop
    6940:	00000000 	nop
    6944:	00000000 	nop
    6948:	00000000 	nop
    694c:	00000000 	nop
    6950:	00000000 	nop
    6954:	00000000 	nop
    6958:	00000000 	nop
    695c:	00000000 	nop
    6960:	00000000 	nop
    6964:	00000000 	nop
    6968:	00000000 	nop
    696c:	00000000 	nop
    6970:	00000000 	nop
    6974:	00000000 	nop
    6978:	00000000 	nop
    697c:	00000000 	nop
    6980:	00000000 	nop
    6984:	00000000 	nop
    6988:	00000000 	nop
    698c:	00000000 	nop
    6990:	00000000 	nop
    6994:	00000000 	nop
    6998:	00000000 	nop
    699c:	00000000 	nop
    69a0:	00000000 	nop
    69a4:	00000000 	nop
    69a8:	00000000 	nop
    69ac:	00000000 	nop
    69b0:	00000000 	nop
    69b4:	00000000 	nop
    69b8:	00000000 	nop
    69bc:	00000000 	nop
    69c0:	00000000 	nop
    69c4:	00000000 	nop
    69c8:	00000000 	nop
    69cc:	00000000 	nop
    69d0:	00000000 	nop
    69d4:	00000000 	nop
    69d8:	00000000 	nop
    69dc:	00000000 	nop
    69e0:	00000000 	nop
    69e4:	00000000 	nop
    69e8:	00000000 	nop
    69ec:	00000000 	nop
    69f0:	00000000 	nop
    69f4:	00000000 	nop
    69f8:	00000000 	nop
    69fc:	00000000 	nop
    6a00:	00000000 	nop
    6a04:	00000000 	nop
    6a08:	00000000 	nop
    6a0c:	00000000 	nop
    6a10:	00000000 	nop
    6a14:	00000000 	nop
    6a18:	00000000 	nop
    6a1c:	00000000 	nop
    6a20:	00000000 	nop
    6a24:	00000000 	nop
    6a28:	00000000 	nop
    6a2c:	00000000 	nop
    6a30:	00000000 	nop
    6a34:	00000000 	nop
    6a38:	00000000 	nop
    6a3c:	00000000 	nop
    6a40:	00000000 	nop
    6a44:	00000000 	nop
    6a48:	00000000 	nop
    6a4c:	00000000 	nop
    6a50:	00000000 	nop
    6a54:	00000000 	nop
    6a58:	00000000 	nop
    6a5c:	00000000 	nop
    6a60:	00000000 	nop
    6a64:	00000000 	nop
    6a68:	00000000 	nop
    6a6c:	00000000 	nop
    6a70:	00000000 	nop
    6a74:	00000000 	nop
    6a78:	00000000 	nop
    6a7c:	00000000 	nop
    6a80:	00000000 	nop
    6a84:	00000000 	nop
    6a88:	00000000 	nop
    6a8c:	00000000 	nop
    6a90:	00000000 	nop
    6a94:	00000000 	nop
    6a98:	00000000 	nop
    6a9c:	00000000 	nop
    6aa0:	00000000 	nop
    6aa4:	00000000 	nop
    6aa8:	00000000 	nop
    6aac:	00000000 	nop
    6ab0:	00000000 	nop
    6ab4:	00000000 	nop
    6ab8:	00000000 	nop
    6abc:	00000000 	nop
    6ac0:	00000000 	nop
    6ac4:	00000000 	nop
    6ac8:	00000000 	nop
    6acc:	00000000 	nop
    6ad0:	00000000 	nop
    6ad4:	00000000 	nop
    6ad8:	00000000 	nop
    6adc:	00000000 	nop
    6ae0:	00000000 	nop
    6ae4:	00000000 	nop
    6ae8:	00000000 	nop
    6aec:	00000000 	nop
    6af0:	00000000 	nop
    6af4:	00000000 	nop
    6af8:	00000000 	nop
    6afc:	00000000 	nop
    6b00:	00000000 	nop
    6b04:	00000000 	nop
    6b08:	00000000 	nop
    6b0c:	00000000 	nop
    6b10:	00000000 	nop
    6b14:	00000000 	nop
    6b18:	00000000 	nop
    6b1c:	00000000 	nop
    6b20:	00000000 	nop
    6b24:	00000000 	nop
    6b28:	00000000 	nop
    6b2c:	00000000 	nop
    6b30:	00000000 	nop
    6b34:	00000000 	nop
    6b38:	00000000 	nop
    6b3c:	00000000 	nop
    6b40:	00000000 	nop
    6b44:	00000000 	nop
    6b48:	00000000 	nop
    6b4c:	00000000 	nop
    6b50:	00000000 	nop
    6b54:	00000000 	nop
    6b58:	00000000 	nop
    6b5c:	00000000 	nop
    6b60:	00000000 	nop
    6b64:	00000000 	nop
    6b68:	00000000 	nop
    6b6c:	00000000 	nop
    6b70:	00000000 	nop
    6b74:	00000000 	nop
    6b78:	00000000 	nop
    6b7c:	00000000 	nop
    6b80:	00000000 	nop
    6b84:	00000000 	nop
    6b88:	00000000 	nop
    6b8c:	00000000 	nop
    6b90:	00000000 	nop
    6b94:	00000000 	nop
    6b98:	00000000 	nop
    6b9c:	00000000 	nop
    6ba0:	00000000 	nop
    6ba4:	00000000 	nop
    6ba8:	00000000 	nop
    6bac:	00000000 	nop
    6bb0:	00000000 	nop
    6bb4:	00000000 	nop
    6bb8:	00000000 	nop
    6bbc:	00000000 	nop
    6bc0:	00000000 	nop
    6bc4:	00000000 	nop
    6bc8:	00000000 	nop
    6bcc:	00000000 	nop
    6bd0:	00000000 	nop
    6bd4:	00000000 	nop
    6bd8:	00000000 	nop
    6bdc:	00000000 	nop
    6be0:	00000000 	nop
    6be4:	00000000 	nop
    6be8:	00000000 	nop
    6bec:	00000000 	nop
    6bf0:	00000000 	nop
    6bf4:	00000000 	nop
    6bf8:	00000000 	nop
    6bfc:	00000000 	nop
    6c00:	00000000 	nop
    6c04:	00000000 	nop
    6c08:	00000000 	nop
    6c0c:	00000000 	nop
    6c10:	00000000 	nop
    6c14:	00000000 	nop
    6c18:	00000000 	nop
    6c1c:	00000000 	nop
    6c20:	00000000 	nop
    6c24:	00000000 	nop
    6c28:	00000000 	nop
    6c2c:	00000000 	nop
    6c30:	00000000 	nop
    6c34:	00000000 	nop
    6c38:	00000000 	nop
    6c3c:	00000000 	nop
    6c40:	00000000 	nop
    6c44:	00000000 	nop
    6c48:	00000000 	nop
    6c4c:	00000000 	nop
    6c50:	00000000 	nop
    6c54:	00000000 	nop
    6c58:	00000000 	nop
    6c5c:	00000000 	nop
    6c60:	00000000 	nop
    6c64:	00000000 	nop
    6c68:	00000000 	nop
    6c6c:	00000000 	nop
    6c70:	00000000 	nop
    6c74:	00000000 	nop
    6c78:	00000000 	nop
    6c7c:	00000000 	nop
    6c80:	00000000 	nop
    6c84:	00000000 	nop
    6c88:	00000000 	nop
    6c8c:	00000000 	nop
    6c90:	00000000 	nop
    6c94:	00000000 	nop
    6c98:	00000000 	nop
    6c9c:	00000000 	nop
    6ca0:	00000000 	nop
    6ca4:	00000000 	nop
    6ca8:	00000000 	nop
    6cac:	00000000 	nop
    6cb0:	00000000 	nop
    6cb4:	00000000 	nop
    6cb8:	00000000 	nop
    6cbc:	00000000 	nop
    6cc0:	00000000 	nop
    6cc4:	00000000 	nop
    6cc8:	00000000 	nop
    6ccc:	00000000 	nop
    6cd0:	00000000 	nop
    6cd4:	00000000 	nop
    6cd8:	00000000 	nop
    6cdc:	00000000 	nop
    6ce0:	00000000 	nop
    6ce4:	00000000 	nop
    6ce8:	00000000 	nop
    6cec:	00000000 	nop
    6cf0:	00000000 	nop
    6cf4:	00000000 	nop
    6cf8:	00000000 	nop
    6cfc:	00000000 	nop
    6d00:	00000000 	nop
    6d04:	00000000 	nop
    6d08:	00000000 	nop
    6d0c:	00000000 	nop
    6d10:	00000000 	nop
    6d14:	00000000 	nop
    6d18:	00000000 	nop
    6d1c:	00000000 	nop
    6d20:	00000000 	nop
    6d24:	00000000 	nop
    6d28:	00000000 	nop
    6d2c:	00000000 	nop
    6d30:	00000000 	nop
    6d34:	00000000 	nop
    6d38:	00000000 	nop
    6d3c:	00000000 	nop
    6d40:	00000000 	nop
    6d44:	00000000 	nop
    6d48:	00000000 	nop
    6d4c:	00000000 	nop
    6d50:	00000000 	nop
    6d54:	00000000 	nop
    6d58:	00000000 	nop
    6d5c:	00000000 	nop
    6d60:	00000000 	nop
    6d64:	00000000 	nop
    6d68:	00000000 	nop
    6d6c:	00000000 	nop
    6d70:	00000000 	nop
    6d74:	00000000 	nop
    6d78:	00000000 	nop
    6d7c:	00000000 	nop
    6d80:	00000000 	nop
    6d84:	00000000 	nop
    6d88:	00000000 	nop
    6d8c:	00000000 	nop
    6d90:	00000000 	nop
    6d94:	00000000 	nop
    6d98:	00000000 	nop
    6d9c:	00000000 	nop
    6da0:	00000000 	nop
    6da4:	00000000 	nop
    6da8:	00000000 	nop
    6dac:	00000000 	nop
    6db0:	00000000 	nop
    6db4:	00000000 	nop
    6db8:	00000000 	nop
    6dbc:	00000000 	nop
    6dc0:	00000000 	nop
    6dc4:	00000000 	nop
    6dc8:	00000000 	nop
    6dcc:	00000000 	nop
    6dd0:	00000000 	nop
    6dd4:	00000000 	nop
    6dd8:	00000000 	nop
    6ddc:	00000000 	nop
    6de0:	00000000 	nop
    6de4:	00000000 	nop
    6de8:	00000000 	nop
    6dec:	00000000 	nop
    6df0:	00000000 	nop
    6df4:	00000000 	nop
    6df8:	00000000 	nop
    6dfc:	00000000 	nop
    6e00:	00000000 	nop
    6e04:	00000000 	nop
    6e08:	00000000 	nop
    6e0c:	00000000 	nop
    6e10:	00000000 	nop
    6e14:	00000000 	nop
    6e18:	00000000 	nop
    6e1c:	00000000 	nop
    6e20:	00000000 	nop
    6e24:	00000000 	nop
    6e28:	00000000 	nop
    6e2c:	00000000 	nop
    6e30:	00000000 	nop
    6e34:	00000000 	nop
    6e38:	00000000 	nop
    6e3c:	00000000 	nop
    6e40:	00000000 	nop
    6e44:	00000000 	nop
    6e48:	00000000 	nop
    6e4c:	00000000 	nop
    6e50:	00000000 	nop
    6e54:	00000000 	nop
    6e58:	00000000 	nop
    6e5c:	00000000 	nop
    6e60:	00000000 	nop
    6e64:	00000000 	nop
    6e68:	00000000 	nop
    6e6c:	00000000 	nop
    6e70:	00000000 	nop
    6e74:	00000000 	nop
    6e78:	00000000 	nop
    6e7c:	00000000 	nop
    6e80:	00000000 	nop
    6e84:	00000000 	nop
    6e88:	00000000 	nop
    6e8c:	00000000 	nop
    6e90:	00000000 	nop
    6e94:	00000000 	nop
    6e98:	00000000 	nop
    6e9c:	00000000 	nop
    6ea0:	00000000 	nop
    6ea4:	00000000 	nop
    6ea8:	00000000 	nop
    6eac:	00000000 	nop
    6eb0:	00000000 	nop
    6eb4:	00000000 	nop
    6eb8:	00000000 	nop
    6ebc:	00000000 	nop
    6ec0:	00000000 	nop
    6ec4:	00000000 	nop
    6ec8:	00000000 	nop
    6ecc:	00000000 	nop
    6ed0:	00000000 	nop
    6ed4:	00000000 	nop
    6ed8:	00000000 	nop
    6edc:	00000000 	nop
    6ee0:	00000000 	nop
    6ee4:	00000000 	nop
    6ee8:	00000000 	nop
    6eec:	00000000 	nop
    6ef0:	00000000 	nop
    6ef4:	00000000 	nop
    6ef8:	00000000 	nop
    6efc:	00000000 	nop
    6f00:	00000000 	nop
    6f04:	00000000 	nop
    6f08:	00000000 	nop
    6f0c:	00000000 	nop
    6f10:	00000000 	nop
    6f14:	00000000 	nop
    6f18:	00000000 	nop
    6f1c:	00000000 	nop
    6f20:	00000000 	nop
    6f24:	00000000 	nop
    6f28:	00000000 	nop
    6f2c:	00000000 	nop
    6f30:	00000000 	nop
    6f34:	00000000 	nop
    6f38:	00000000 	nop
    6f3c:	00000000 	nop
    6f40:	00000000 	nop
    6f44:	00000000 	nop
    6f48:	00000000 	nop
    6f4c:	00000000 	nop
    6f50:	00000000 	nop
    6f54:	00000000 	nop
    6f58:	00000000 	nop
    6f5c:	00000000 	nop
    6f60:	00000000 	nop
    6f64:	00000000 	nop
    6f68:	00000000 	nop
    6f6c:	00000000 	nop
    6f70:	00000000 	nop
    6f74:	00000000 	nop
    6f78:	00000000 	nop
    6f7c:	00000000 	nop
    6f80:	00000000 	nop
    6f84:	00000000 	nop
    6f88:	00000000 	nop
    6f8c:	00000000 	nop
    6f90:	00000000 	nop
    6f94:	00000000 	nop
    6f98:	00000000 	nop
    6f9c:	00000000 	nop
    6fa0:	00000000 	nop
    6fa4:	00000000 	nop
    6fa8:	00000000 	nop
    6fac:	00000000 	nop
    6fb0:	00000000 	nop
    6fb4:	00000000 	nop
    6fb8:	00000000 	nop
    6fbc:	00000000 	nop
    6fc0:	00000000 	nop
    6fc4:	00000000 	nop
    6fc8:	00000000 	nop
    6fcc:	00000000 	nop
    6fd0:	00000000 	nop
    6fd4:	00000000 	nop
    6fd8:	00000000 	nop
    6fdc:	00000000 	nop
    6fe0:	00000000 	nop
    6fe4:	00000000 	nop
    6fe8:	00000000 	nop
    6fec:	00000000 	nop
    6ff0:	00000000 	nop
    6ff4:	00000000 	nop
    6ff8:	00000000 	nop
    6ffc:	00000000 	nop
    7000:	00000000 	nop
    7004:	00000000 	nop
    7008:	00000000 	nop
    700c:	00000000 	nop
    7010:	00000000 	nop
    7014:	00000000 	nop
    7018:	00000000 	nop
    701c:	00000000 	nop
    7020:	00000000 	nop
    7024:	00000000 	nop
    7028:	00000000 	nop
    702c:	00000000 	nop
    7030:	00000000 	nop
    7034:	00000000 	nop
    7038:	00000000 	nop
    703c:	00000000 	nop
    7040:	00000000 	nop
    7044:	00000000 	nop
    7048:	00000000 	nop
    704c:	00000000 	nop
    7050:	00000000 	nop
    7054:	00000000 	nop
    7058:	00000000 	nop
    705c:	00000000 	nop
    7060:	00000000 	nop
    7064:	00000000 	nop
    7068:	00000000 	nop
    706c:	00000000 	nop
    7070:	00000000 	nop
    7074:	00000000 	nop
    7078:	00000000 	nop
    707c:	00000000 	nop
    7080:	00000000 	nop
    7084:	00000000 	nop
    7088:	00000000 	nop
    708c:	00000000 	nop
    7090:	00000000 	nop
    7094:	00000000 	nop
    7098:	00000000 	nop
    709c:	00000000 	nop
    70a0:	00000000 	nop
    70a4:	00000000 	nop
    70a8:	00000000 	nop
    70ac:	00000000 	nop
    70b0:	00000000 	nop
    70b4:	00000000 	nop
    70b8:	00000000 	nop
    70bc:	00000000 	nop
    70c0:	00000000 	nop
    70c4:	00000000 	nop
    70c8:	00000000 	nop
    70cc:	00000000 	nop
    70d0:	00000000 	nop
    70d4:	00000000 	nop
    70d8:	00000000 	nop
    70dc:	00000000 	nop
    70e0:	00000000 	nop
    70e4:	00000000 	nop
    70e8:	00000000 	nop
    70ec:	00000000 	nop
    70f0:	00000000 	nop
    70f4:	00000000 	nop
    70f8:	00000000 	nop
    70fc:	00000000 	nop
    7100:	00000000 	nop
    7104:	00000000 	nop
    7108:	00000000 	nop
    710c:	00000000 	nop
    7110:	00000000 	nop
    7114:	00000000 	nop
    7118:	00000000 	nop
    711c:	00000000 	nop
    7120:	00000000 	nop
    7124:	00000000 	nop
    7128:	00000000 	nop
    712c:	00000000 	nop
    7130:	00000000 	nop
    7134:	00000000 	nop
    7138:	00000000 	nop
    713c:	00000000 	nop
    7140:	00000000 	nop
    7144:	00000000 	nop
    7148:	00000000 	nop
    714c:	00000000 	nop
    7150:	00000000 	nop
    7154:	00000000 	nop
    7158:	00000000 	nop
    715c:	00000000 	nop
    7160:	00000000 	nop
    7164:	00000000 	nop
    7168:	00000000 	nop
    716c:	00000000 	nop
    7170:	00000000 	nop
    7174:	00000000 	nop
    7178:	00000000 	nop
    717c:	00000000 	nop
    7180:	00000000 	nop
    7184:	00000000 	nop
    7188:	00000000 	nop
    718c:	00000000 	nop
    7190:	00000000 	nop
    7194:	00000000 	nop
    7198:	00000000 	nop
    719c:	00000000 	nop
    71a0:	00000000 	nop
    71a4:	00000000 	nop
    71a8:	00000000 	nop
    71ac:	00000000 	nop
    71b0:	00000000 	nop
    71b4:	00000000 	nop
    71b8:	00000000 	nop
    71bc:	00000000 	nop
    71c0:	00000000 	nop
    71c4:	00000000 	nop
    71c8:	00000000 	nop
    71cc:	00000000 	nop
    71d0:	00000000 	nop
    71d4:	00000000 	nop
    71d8:	00000000 	nop
    71dc:	00000000 	nop
    71e0:	00000000 	nop
    71e4:	00000000 	nop
    71e8:	00000000 	nop
    71ec:	00000000 	nop
    71f0:	00000000 	nop
    71f4:	00000000 	nop
    71f8:	00000000 	nop
    71fc:	00000000 	nop
    7200:	00000000 	nop
    7204:	00000000 	nop
    7208:	00000000 	nop
    720c:	00000000 	nop
    7210:	00000000 	nop
    7214:	00000000 	nop
    7218:	00000000 	nop
    721c:	00000000 	nop
    7220:	00000000 	nop
    7224:	00000000 	nop
    7228:	00000000 	nop
    722c:	00000000 	nop
    7230:	00000000 	nop
    7234:	00000000 	nop
    7238:	00000000 	nop
    723c:	00000000 	nop
    7240:	00000000 	nop
    7244:	00000000 	nop
    7248:	00000000 	nop
    724c:	00000000 	nop
    7250:	00000000 	nop
    7254:	00000000 	nop
    7258:	00000000 	nop
    725c:	00000000 	nop
    7260:	00000000 	nop
    7264:	00000000 	nop
    7268:	00000000 	nop
    726c:	00000000 	nop
    7270:	00000000 	nop
    7274:	00000000 	nop
    7278:	00000000 	nop
    727c:	00000000 	nop
    7280:	00000000 	nop
    7284:	00000000 	nop
    7288:	00000000 	nop
    728c:	00000000 	nop
    7290:	00000000 	nop
    7294:	00000000 	nop
    7298:	00000000 	nop
    729c:	00000000 	nop
    72a0:	00000000 	nop
    72a4:	00000000 	nop
    72a8:	00000000 	nop
    72ac:	00000000 	nop
    72b0:	00000000 	nop
    72b4:	00000000 	nop
    72b8:	00000000 	nop
    72bc:	00000000 	nop
    72c0:	00000000 	nop
    72c4:	00000000 	nop
    72c8:	00000000 	nop
    72cc:	00000000 	nop
    72d0:	00000000 	nop
    72d4:	00000000 	nop
    72d8:	00000000 	nop
    72dc:	00000000 	nop
    72e0:	00000000 	nop
    72e4:	00000000 	nop
    72e8:	00000000 	nop
    72ec:	00000000 	nop
    72f0:	00000000 	nop
    72f4:	00000000 	nop
    72f8:	00000000 	nop
    72fc:	00000000 	nop
    7300:	00000000 	nop
    7304:	00000000 	nop
    7308:	00000000 	nop
    730c:	00000000 	nop
    7310:	00000000 	nop
    7314:	00000000 	nop
    7318:	00000000 	nop
    731c:	00000000 	nop
    7320:	00000000 	nop
    7324:	00000000 	nop
    7328:	00000000 	nop
    732c:	00000000 	nop
    7330:	00000000 	nop
    7334:	00000000 	nop
    7338:	00000000 	nop
    733c:	00000000 	nop
    7340:	00000000 	nop
    7344:	00000000 	nop
    7348:	00000000 	nop
    734c:	00000000 	nop
    7350:	00000000 	nop
    7354:	00000000 	nop
    7358:	00000000 	nop
    735c:	00000000 	nop
    7360:	00000000 	nop
    7364:	00000000 	nop
    7368:	00000000 	nop
    736c:	00000000 	nop
    7370:	00000000 	nop
    7374:	00000000 	nop
    7378:	00000000 	nop
    737c:	00000000 	nop
    7380:	00000000 	nop
    7384:	00000000 	nop
    7388:	00000000 	nop
    738c:	00000000 	nop
    7390:	00000000 	nop
    7394:	00000000 	nop
    7398:	00000000 	nop
    739c:	00000000 	nop
    73a0:	00000000 	nop
    73a4:	00000000 	nop
    73a8:	00000000 	nop
    73ac:	00000000 	nop
    73b0:	00000000 	nop
    73b4:	00000000 	nop
    73b8:	00000000 	nop
    73bc:	00000000 	nop
    73c0:	00000000 	nop
    73c4:	00000000 	nop
    73c8:	00000000 	nop
    73cc:	00000000 	nop
    73d0:	00000000 	nop
    73d4:	00000000 	nop
    73d8:	00000000 	nop
    73dc:	00000000 	nop
    73e0:	00000000 	nop
    73e4:	00000000 	nop
    73e8:	00000000 	nop
    73ec:	00000000 	nop
    73f0:	00000000 	nop
    73f4:	00000000 	nop
    73f8:	00000000 	nop
    73fc:	00000000 	nop
    7400:	00000000 	nop
    7404:	00000000 	nop
    7408:	00000000 	nop
    740c:	00000000 	nop
    7410:	00000000 	nop
    7414:	00000000 	nop
    7418:	00000000 	nop
    741c:	00000000 	nop
    7420:	00000000 	nop
    7424:	00000000 	nop
    7428:	00000000 	nop
    742c:	00000000 	nop
    7430:	00000000 	nop
    7434:	00000000 	nop
    7438:	00000000 	nop
    743c:	00000000 	nop
    7440:	00000000 	nop
    7444:	00000000 	nop
    7448:	00000000 	nop
    744c:	00000000 	nop
    7450:	00000000 	nop
    7454:	00000000 	nop
    7458:	00000000 	nop
    745c:	00000000 	nop
    7460:	00000000 	nop
    7464:	00000000 	nop
    7468:	00000000 	nop
    746c:	00000000 	nop
    7470:	00000000 	nop
    7474:	00000000 	nop
    7478:	00000000 	nop
    747c:	00000000 	nop
    7480:	00000000 	nop
    7484:	00000000 	nop
    7488:	00000000 	nop
    748c:	00000000 	nop
    7490:	00000000 	nop
    7494:	00000000 	nop
    7498:	00000000 	nop
    749c:	00000000 	nop
    74a0:	00000000 	nop
    74a4:	00000000 	nop
    74a8:	00000000 	nop
    74ac:	00000000 	nop
    74b0:	00000000 	nop
    74b4:	00000000 	nop
    74b8:	00000000 	nop
    74bc:	00000000 	nop
    74c0:	00000000 	nop
    74c4:	00000000 	nop
    74c8:	00000000 	nop
    74cc:	00000000 	nop
    74d0:	00000000 	nop
    74d4:	00000000 	nop
    74d8:	00000000 	nop
    74dc:	00000000 	nop
    74e0:	00000000 	nop
    74e4:	00000000 	nop
    74e8:	00000000 	nop
    74ec:	00000000 	nop
    74f0:	00000000 	nop
    74f4:	00000000 	nop
    74f8:	00000000 	nop
    74fc:	00000000 	nop
    7500:	00000000 	nop
    7504:	00000000 	nop
    7508:	00000000 	nop
    750c:	00000000 	nop
    7510:	00000000 	nop
    7514:	00000000 	nop
    7518:	00000000 	nop
    751c:	00000000 	nop
    7520:	00000000 	nop
    7524:	00000000 	nop
    7528:	00000000 	nop
    752c:	00000000 	nop
    7530:	00000000 	nop
    7534:	00000000 	nop
    7538:	00000000 	nop
    753c:	00000000 	nop
    7540:	00000000 	nop
    7544:	00000000 	nop
    7548:	00000000 	nop
    754c:	00000000 	nop
    7550:	00000000 	nop
    7554:	00000000 	nop
    7558:	00000000 	nop
    755c:	00000000 	nop
    7560:	00000000 	nop
    7564:	00000000 	nop
    7568:	00000000 	nop
    756c:	00000000 	nop
    7570:	00000000 	nop
    7574:	00000000 	nop
    7578:	00000000 	nop
    757c:	00000000 	nop
    7580:	00000000 	nop
    7584:	00000000 	nop
    7588:	00000000 	nop
    758c:	00000000 	nop
    7590:	00000000 	nop
    7594:	00000000 	nop
    7598:	00000000 	nop
    759c:	00000000 	nop
    75a0:	00000000 	nop
    75a4:	00000000 	nop
    75a8:	00000000 	nop
    75ac:	00000000 	nop
    75b0:	00000000 	nop
    75b4:	00000000 	nop
    75b8:	00000000 	nop
    75bc:	00000000 	nop
    75c0:	00000000 	nop
    75c4:	00000000 	nop
    75c8:	00000000 	nop
    75cc:	00000000 	nop
    75d0:	00000000 	nop
    75d4:	00000000 	nop
    75d8:	00000000 	nop
    75dc:	00000000 	nop
    75e0:	00000000 	nop
    75e4:	00000000 	nop
    75e8:	00000000 	nop
    75ec:	00000000 	nop
    75f0:	00000000 	nop
    75f4:	00000000 	nop
    75f8:	00000000 	nop
    75fc:	00000000 	nop
    7600:	00000000 	nop
    7604:	00000000 	nop
    7608:	00000000 	nop
    760c:	00000000 	nop
    7610:	00000000 	nop
    7614:	00000000 	nop
    7618:	00000000 	nop
    761c:	00000000 	nop
    7620:	00000000 	nop
    7624:	00000000 	nop
    7628:	00000000 	nop
    762c:	00000000 	nop
    7630:	00000000 	nop
    7634:	00000000 	nop
    7638:	00000000 	nop
    763c:	00000000 	nop
    7640:	00000000 	nop
    7644:	00000000 	nop
    7648:	00000000 	nop
    764c:	00000000 	nop
    7650:	00000000 	nop
    7654:	00000000 	nop
    7658:	00000000 	nop
    765c:	00000000 	nop
    7660:	00000000 	nop
    7664:	00000000 	nop
    7668:	00000000 	nop
    766c:	00000000 	nop
    7670:	00000000 	nop
    7674:	00000000 	nop
    7678:	00000000 	nop
    767c:	00000000 	nop
    7680:	00000000 	nop
    7684:	00000000 	nop
    7688:	00000000 	nop
    768c:	00000000 	nop
    7690:	00000000 	nop
    7694:	00000000 	nop
    7698:	00000000 	nop
    769c:	00000000 	nop
    76a0:	00000000 	nop
    76a4:	00000000 	nop
    76a8:	00000000 	nop
    76ac:	00000000 	nop
    76b0:	00000000 	nop
    76b4:	00000000 	nop
    76b8:	00000000 	nop
    76bc:	00000000 	nop
    76c0:	00000000 	nop
    76c4:	00000000 	nop
    76c8:	00000000 	nop
    76cc:	00000000 	nop
    76d0:	00000000 	nop
    76d4:	00000000 	nop
    76d8:	00000000 	nop
    76dc:	00000000 	nop
    76e0:	00000000 	nop
    76e4:	00000000 	nop
    76e8:	00000000 	nop
    76ec:	00000000 	nop
    76f0:	00000000 	nop
    76f4:	00000000 	nop
    76f8:	00000000 	nop
    76fc:	00000000 	nop
    7700:	00000000 	nop
    7704:	00000000 	nop
    7708:	00000000 	nop
    770c:	00000000 	nop
    7710:	00000000 	nop
    7714:	00000000 	nop
    7718:	00000000 	nop
    771c:	00000000 	nop
    7720:	00000000 	nop
    7724:	00000000 	nop
    7728:	00000000 	nop
    772c:	00000000 	nop
    7730:	00000000 	nop
    7734:	00000000 	nop
    7738:	00000000 	nop
    773c:	00000000 	nop
    7740:	00000000 	nop
    7744:	00000000 	nop
    7748:	00000000 	nop
    774c:	00000000 	nop
    7750:	00000000 	nop
    7754:	00000000 	nop
    7758:	00000000 	nop
    775c:	00000000 	nop
    7760:	00000000 	nop
    7764:	00000000 	nop
    7768:	00000000 	nop
    776c:	00000000 	nop
    7770:	00000000 	nop
    7774:	00000000 	nop
    7778:	00000000 	nop
    777c:	00000000 	nop
    7780:	00000000 	nop
    7784:	00000000 	nop
    7788:	00000000 	nop
    778c:	00000000 	nop
    7790:	00000000 	nop
    7794:	00000000 	nop
    7798:	00000000 	nop
    779c:	00000000 	nop
    77a0:	00000000 	nop
    77a4:	00000000 	nop
    77a8:	00000000 	nop
    77ac:	00000000 	nop
    77b0:	00000000 	nop
    77b4:	00000000 	nop
    77b8:	00000000 	nop
    77bc:	00000000 	nop
    77c0:	00000000 	nop
    77c4:	00000000 	nop
    77c8:	00000000 	nop
    77cc:	00000000 	nop
    77d0:	00000000 	nop
    77d4:	00000000 	nop
    77d8:	00000000 	nop
    77dc:	00000000 	nop
    77e0:	00000000 	nop
    77e4:	00000000 	nop
    77e8:	00000000 	nop
    77ec:	00000000 	nop
    77f0:	00000000 	nop
    77f4:	00000000 	nop
    77f8:	00000000 	nop
    77fc:	00000000 	nop
    7800:	00000000 	nop
    7804:	00000000 	nop
    7808:	00000000 	nop
    780c:	00000000 	nop
    7810:	00000000 	nop
    7814:	00000000 	nop
    7818:	00000000 	nop
    781c:	00000000 	nop
    7820:	00000000 	nop
    7824:	00000000 	nop
    7828:	00000000 	nop
    782c:	00000000 	nop
    7830:	00000000 	nop
    7834:	00000000 	nop
    7838:	00000000 	nop
    783c:	00000000 	nop
    7840:	00000000 	nop
    7844:	00000000 	nop
    7848:	00000000 	nop
    784c:	00000000 	nop
    7850:	00000000 	nop
    7854:	00000000 	nop
    7858:	00000000 	nop
    785c:	00000000 	nop
    7860:	00000000 	nop
    7864:	00000000 	nop
    7868:	00000000 	nop
    786c:	00000000 	nop
    7870:	00000000 	nop
    7874:	00000000 	nop
    7878:	00000000 	nop
    787c:	00000000 	nop
    7880:	00000000 	nop
    7884:	00000000 	nop
    7888:	00000000 	nop
    788c:	00000000 	nop
    7890:	00000000 	nop
    7894:	00000000 	nop
    7898:	00000000 	nop
    789c:	00000000 	nop
    78a0:	00000000 	nop
    78a4:	00000000 	nop
    78a8:	00000000 	nop
    78ac:	00000000 	nop
    78b0:	00000000 	nop
    78b4:	00000000 	nop
    78b8:	00000000 	nop
    78bc:	00000000 	nop
    78c0:	00000000 	nop
    78c4:	00000000 	nop
    78c8:	00000000 	nop
    78cc:	00000000 	nop
    78d0:	00000000 	nop
    78d4:	00000000 	nop
    78d8:	00000000 	nop
    78dc:	00000000 	nop
    78e0:	00000000 	nop
    78e4:	00000000 	nop
    78e8:	00000000 	nop
    78ec:	00000000 	nop
    78f0:	00000000 	nop
    78f4:	00000000 	nop
    78f8:	00000000 	nop
    78fc:	00000000 	nop
    7900:	00000000 	nop
    7904:	00000000 	nop
    7908:	00000000 	nop
    790c:	00000000 	nop
    7910:	00000000 	nop
    7914:	00000000 	nop
    7918:	00000000 	nop
    791c:	00000000 	nop
    7920:	00000000 	nop
    7924:	00000000 	nop
    7928:	00000000 	nop
    792c:	00000000 	nop
    7930:	00000000 	nop
    7934:	00000000 	nop
    7938:	00000000 	nop
    793c:	00000000 	nop
    7940:	00000000 	nop
    7944:	00000000 	nop
    7948:	00000000 	nop
    794c:	00000000 	nop
    7950:	00000000 	nop
    7954:	00000000 	nop
    7958:	00000000 	nop
    795c:	00000000 	nop
    7960:	00000000 	nop
    7964:	00000000 	nop
    7968:	00000000 	nop
    796c:	00000000 	nop
    7970:	00000000 	nop
    7974:	00000000 	nop
    7978:	00000000 	nop
    797c:	00000000 	nop
    7980:	00000000 	nop
    7984:	00000000 	nop
    7988:	00000000 	nop
    798c:	00000000 	nop
    7990:	00000000 	nop
    7994:	00000000 	nop
    7998:	00000000 	nop
    799c:	00000000 	nop
    79a0:	00000000 	nop
    79a4:	00000000 	nop
    79a8:	00000000 	nop
    79ac:	00000000 	nop
    79b0:	00000000 	nop
    79b4:	00000000 	nop
    79b8:	00000000 	nop
    79bc:	00000000 	nop
    79c0:	00000000 	nop
    79c4:	00000000 	nop
    79c8:	00000000 	nop
    79cc:	00000000 	nop
    79d0:	00000000 	nop
    79d4:	00000000 	nop
    79d8:	00000000 	nop
    79dc:	00000000 	nop
    79e0:	00000000 	nop
    79e4:	00000000 	nop
    79e8:	00000000 	nop
    79ec:	00000000 	nop
    79f0:	00000000 	nop
    79f4:	00000000 	nop
    79f8:	00000000 	nop
    79fc:	00000000 	nop
    7a00:	00000000 	nop
    7a04:	00000000 	nop
    7a08:	00000000 	nop
    7a0c:	00000000 	nop
    7a10:	00000000 	nop
    7a14:	00000000 	nop
    7a18:	00000000 	nop
    7a1c:	00000000 	nop
    7a20:	00000000 	nop
    7a24:	00000000 	nop
    7a28:	00000000 	nop
    7a2c:	00000000 	nop
    7a30:	00000000 	nop
    7a34:	00000000 	nop
    7a38:	00000000 	nop
    7a3c:	00000000 	nop
    7a40:	00000000 	nop
    7a44:	00000000 	nop
    7a48:	00000000 	nop
    7a4c:	00000000 	nop
    7a50:	00000000 	nop
    7a54:	00000000 	nop
    7a58:	00000000 	nop
    7a5c:	00000000 	nop
    7a60:	00000000 	nop
    7a64:	00000000 	nop
    7a68:	00000000 	nop
    7a6c:	00000000 	nop
    7a70:	00000000 	nop
    7a74:	00000000 	nop
    7a78:	00000000 	nop
    7a7c:	00000000 	nop
    7a80:	00000000 	nop
    7a84:	00000000 	nop
    7a88:	00000000 	nop
    7a8c:	00000000 	nop
    7a90:	00000000 	nop
    7a94:	00000000 	nop
    7a98:	00000000 	nop
    7a9c:	00000000 	nop
    7aa0:	00000000 	nop
    7aa4:	00000000 	nop
    7aa8:	00000000 	nop
    7aac:	00000000 	nop
    7ab0:	00000000 	nop
    7ab4:	00000000 	nop
    7ab8:	00000000 	nop
    7abc:	00000000 	nop
    7ac0:	00000000 	nop
    7ac4:	00000000 	nop
    7ac8:	00000000 	nop
    7acc:	00000000 	nop
    7ad0:	00000000 	nop
    7ad4:	00000000 	nop
    7ad8:	00000000 	nop
    7adc:	00000000 	nop
    7ae0:	00000000 	nop
    7ae4:	00000000 	nop
    7ae8:	00000000 	nop
    7aec:	00000000 	nop
    7af0:	00000000 	nop
    7af4:	00000000 	nop
    7af8:	00000000 	nop
    7afc:	00000000 	nop
    7b00:	00000000 	nop
    7b04:	00000000 	nop
    7b08:	00000000 	nop
    7b0c:	00000000 	nop
    7b10:	00000000 	nop
    7b14:	00000000 	nop
    7b18:	00000000 	nop
    7b1c:	00000000 	nop
    7b20:	00000000 	nop
    7b24:	00000000 	nop
    7b28:	00000000 	nop
    7b2c:	00000000 	nop
    7b30:	00000000 	nop
    7b34:	00000000 	nop
    7b38:	00000000 	nop
    7b3c:	00000000 	nop
    7b40:	00000000 	nop
    7b44:	00000000 	nop
    7b48:	00000000 	nop
    7b4c:	00000000 	nop
    7b50:	00000000 	nop
    7b54:	00000000 	nop
    7b58:	00000000 	nop
    7b5c:	00000000 	nop
    7b60:	00000000 	nop
    7b64:	00000000 	nop
    7b68:	00000000 	nop
    7b6c:	00000000 	nop
    7b70:	00000000 	nop
    7b74:	00000000 	nop
    7b78:	00000000 	nop
    7b7c:	00000000 	nop
    7b80:	00000000 	nop
    7b84:	00000000 	nop
    7b88:	00000000 	nop
    7b8c:	00000000 	nop
    7b90:	00000000 	nop
    7b94:	00000000 	nop
    7b98:	00000000 	nop
    7b9c:	00000000 	nop
    7ba0:	00000000 	nop
    7ba4:	00000000 	nop
    7ba8:	00000000 	nop
    7bac:	00000000 	nop
    7bb0:	00000000 	nop
    7bb4:	00000000 	nop
    7bb8:	00000000 	nop
    7bbc:	00000000 	nop
    7bc0:	00000000 	nop
    7bc4:	00000000 	nop
    7bc8:	00000000 	nop
    7bcc:	00000000 	nop
    7bd0:	00000000 	nop
    7bd4:	00000000 	nop
    7bd8:	00000000 	nop
    7bdc:	00000000 	nop
    7be0:	00000000 	nop
    7be4:	00000000 	nop
    7be8:	00000000 	nop
    7bec:	00000000 	nop
    7bf0:	00000000 	nop
    7bf4:	00000000 	nop
    7bf8:	00000000 	nop
    7bfc:	00000000 	nop
    7c00:	00000000 	nop
    7c04:	00000000 	nop
    7c08:	00000000 	nop
    7c0c:	00000000 	nop
    7c10:	00000000 	nop
    7c14:	00000000 	nop
    7c18:	00000000 	nop
    7c1c:	00000000 	nop
    7c20:	00000000 	nop
    7c24:	00000000 	nop
    7c28:	00000000 	nop
    7c2c:	00000000 	nop
    7c30:	00000000 	nop
    7c34:	00000000 	nop
    7c38:	00000000 	nop
    7c3c:	00000000 	nop
    7c40:	00000000 	nop
    7c44:	00000000 	nop
    7c48:	00000000 	nop
    7c4c:	00000000 	nop
    7c50:	00000000 	nop
    7c54:	00000000 	nop
    7c58:	00000000 	nop
    7c5c:	00000000 	nop
    7c60:	00000000 	nop
    7c64:	00000000 	nop
    7c68:	00000000 	nop
    7c6c:	00000000 	nop
    7c70:	00000000 	nop
    7c74:	00000000 	nop
    7c78:	00000000 	nop
    7c7c:	00000000 	nop
    7c80:	00000000 	nop
    7c84:	00000000 	nop
    7c88:	00000000 	nop
    7c8c:	00000000 	nop
    7c90:	00000000 	nop
    7c94:	00000000 	nop
    7c98:	00000000 	nop
    7c9c:	00000000 	nop
    7ca0:	00000000 	nop
    7ca4:	00000000 	nop
    7ca8:	00000000 	nop
    7cac:	00000000 	nop
    7cb0:	00000000 	nop
    7cb4:	00000000 	nop
    7cb8:	00000000 	nop
    7cbc:	00000000 	nop
    7cc0:	00000000 	nop
    7cc4:	00000000 	nop
    7cc8:	00000000 	nop
    7ccc:	00000000 	nop
    7cd0:	00000000 	nop
    7cd4:	00000000 	nop
    7cd8:	00000000 	nop
    7cdc:	00000000 	nop
    7ce0:	00000000 	nop
    7ce4:	00000000 	nop
    7ce8:	00000000 	nop
    7cec:	00000000 	nop
    7cf0:	00000000 	nop
    7cf4:	00000000 	nop
    7cf8:	00000000 	nop
    7cfc:	00000000 	nop
    7d00:	00000000 	nop
    7d04:	00000000 	nop
    7d08:	00000000 	nop
    7d0c:	00000000 	nop
    7d10:	00000000 	nop
    7d14:	00000000 	nop
    7d18:	00000000 	nop
    7d1c:	00000000 	nop
    7d20:	00000000 	nop
    7d24:	00000000 	nop
    7d28:	00000000 	nop
    7d2c:	00000000 	nop
    7d30:	00000000 	nop
    7d34:	00000000 	nop
    7d38:	00000000 	nop
    7d3c:	00000000 	nop
    7d40:	00000000 	nop
    7d44:	00000000 	nop
    7d48:	00000000 	nop
    7d4c:	00000000 	nop
    7d50:	00000000 	nop
    7d54:	00000000 	nop
    7d58:	00000000 	nop
    7d5c:	00000000 	nop
    7d60:	00000000 	nop
    7d64:	00000000 	nop
    7d68:	00000000 	nop
    7d6c:	00000000 	nop
    7d70:	00000000 	nop
    7d74:	00000000 	nop
    7d78:	00000000 	nop
    7d7c:	00000000 	nop
    7d80:	00000000 	nop
    7d84:	00000000 	nop
    7d88:	00000000 	nop
    7d8c:	00000000 	nop
    7d90:	00000000 	nop
    7d94:	00000000 	nop
    7d98:	00000000 	nop
    7d9c:	00000000 	nop
    7da0:	00000000 	nop
    7da4:	00000000 	nop
    7da8:	00000000 	nop
    7dac:	00000000 	nop
    7db0:	00000000 	nop
    7db4:	00000000 	nop
    7db8:	00000000 	nop
    7dbc:	00000000 	nop
    7dc0:	00000000 	nop
    7dc4:	00000000 	nop
    7dc8:	00000000 	nop
    7dcc:	00000000 	nop
    7dd0:	00000000 	nop
    7dd4:	00000000 	nop
    7dd8:	00000000 	nop
    7ddc:	00000000 	nop
    7de0:	00000000 	nop
    7de4:	00000000 	nop
    7de8:	00000000 	nop
    7dec:	00000000 	nop
    7df0:	00000000 	nop
    7df4:	00000000 	nop
    7df8:	00000000 	nop
    7dfc:	00000000 	nop
    7e00:	00000000 	nop
    7e04:	00000000 	nop
    7e08:	00000000 	nop
    7e0c:	00000000 	nop
    7e10:	00000000 	nop
    7e14:	00000000 	nop
    7e18:	00000000 	nop
    7e1c:	00000000 	nop
    7e20:	00000000 	nop
    7e24:	00000000 	nop
    7e28:	00000000 	nop
    7e2c:	00000000 	nop
    7e30:	00000000 	nop
    7e34:	00000000 	nop
    7e38:	00000000 	nop
    7e3c:	00000000 	nop
    7e40:	00000000 	nop
    7e44:	00000000 	nop
    7e48:	00000000 	nop
    7e4c:	00000000 	nop
    7e50:	00000000 	nop
    7e54:	00000000 	nop
    7e58:	00000000 	nop
    7e5c:	00000000 	nop
    7e60:	00000000 	nop
    7e64:	00000000 	nop
    7e68:	00000000 	nop
    7e6c:	00000000 	nop
    7e70:	00000000 	nop
    7e74:	00000000 	nop
    7e78:	00000000 	nop
    7e7c:	00000000 	nop
    7e80:	00000000 	nop
    7e84:	00000000 	nop
    7e88:	00000000 	nop
    7e8c:	00000000 	nop
    7e90:	00000000 	nop
    7e94:	00000000 	nop
    7e98:	00000000 	nop
    7e9c:	00000000 	nop
    7ea0:	00000000 	nop
    7ea4:	00000000 	nop
    7ea8:	00000000 	nop
    7eac:	00000000 	nop
    7eb0:	00000000 	nop
    7eb4:	00000000 	nop
    7eb8:	00000000 	nop
    7ebc:	00000000 	nop
    7ec0:	00000000 	nop
    7ec4:	00000000 	nop
    7ec8:	00000000 	nop
    7ecc:	00000000 	nop
    7ed0:	00000000 	nop
    7ed4:	00000000 	nop
    7ed8:	00000000 	nop
    7edc:	00000000 	nop
    7ee0:	00000000 	nop
    7ee4:	00000000 	nop
    7ee8:	00000000 	nop
    7eec:	00000000 	nop
    7ef0:	00000000 	nop
    7ef4:	00000000 	nop
    7ef8:	00000000 	nop
    7efc:	00000000 	nop
    7f00:	00000000 	nop
    7f04:	00000000 	nop
    7f08:	00000000 	nop
    7f0c:	00000000 	nop
    7f10:	00000000 	nop
    7f14:	00000000 	nop
    7f18:	00000000 	nop
    7f1c:	00000000 	nop
    7f20:	00000000 	nop
    7f24:	00000000 	nop
    7f28:	00000000 	nop
    7f2c:	00000000 	nop
    7f30:	00000000 	nop
    7f34:	00000000 	nop
    7f38:	00000000 	nop
    7f3c:	00000000 	nop
    7f40:	00000000 	nop
    7f44:	00000000 	nop
    7f48:	00000000 	nop
    7f4c:	00000000 	nop
    7f50:	00000000 	nop
    7f54:	00000000 	nop
    7f58:	00000000 	nop
    7f5c:	00000000 	nop
    7f60:	00000000 	nop
    7f64:	00000000 	nop
    7f68:	00000000 	nop
    7f6c:	00000000 	nop
    7f70:	00000000 	nop
    7f74:	00000000 	nop
    7f78:	00000000 	nop
    7f7c:	00000000 	nop
    7f80:	00000000 	nop
    7f84:	00000000 	nop
    7f88:	00000000 	nop
    7f8c:	00000000 	nop
    7f90:	00000000 	nop
    7f94:	00000000 	nop
    7f98:	00000000 	nop
    7f9c:	00000000 	nop
    7fa0:	00000000 	nop
    7fa4:	00000000 	nop
    7fa8:	00000000 	nop
    7fac:	00000000 	nop
    7fb0:	00000000 	nop
    7fb4:	00000000 	nop
    7fb8:	00000000 	nop
    7fbc:	00000000 	nop
    7fc0:	00000000 	nop
    7fc4:	00000000 	nop
    7fc8:	00000000 	nop
    7fcc:	00000000 	nop
    7fd0:	00000000 	nop
    7fd4:	00000000 	nop
    7fd8:	00000000 	nop
    7fdc:	00000000 	nop
    7fe0:	00000000 	nop
    7fe4:	00000000 	nop
    7fe8:	00000000 	nop
    7fec:	00000000 	nop
    7ff0:	00000000 	nop
    7ff4:	00000000 	nop
    7ff8:	00000000 	nop
    7ffc:	00000000 	nop
